   1              		.syntax unified
   2              		.cpu cortex-m3
   3              		.fpu softvfp
   4              		.eabi_attribute 20, 1
   5              		.eabi_attribute 21, 1
   6              		.eabi_attribute 23, 3
   7              		.eabi_attribute 24, 1
   8              		.eabi_attribute 25, 1
   9              		.eabi_attribute 26, 1
  10              		.eabi_attribute 30, 4
  11              		.eabi_attribute 18, 4
  12              		.thumb
  13              		.file	"vf_float.c"
  14              		.text
  15              	.Ltext0:
  16              		.cfi_sections	.debug_frame
  17              		.section	.text.vff_init,"ax",%progbits
  18              		.align	1
  19              		.global	vff_init
  20              		.thumb
  21              		.thumb_func
  23              	vff_init:
  24              	.LFB0:
  25              		.file 1 "subsystems/ins/vf_float.c"
   1:subsystems/ins/vf_float.c **** /*
   2:subsystems/ins/vf_float.c ****  * $Id$
   3:subsystems/ins/vf_float.c ****  *
   4:subsystems/ins/vf_float.c ****  * Copyright (C) 2008-2009 Antoine Drouin <poinix@gmail.com>
   5:subsystems/ins/vf_float.c ****  *
   6:subsystems/ins/vf_float.c ****  * This file is part of paparazzi.
   7:subsystems/ins/vf_float.c ****  *
   8:subsystems/ins/vf_float.c ****  * paparazzi is free software; you can redistribute it and/or modify
   9:subsystems/ins/vf_float.c ****  * it under the terms of the GNU General Public License as published by
  10:subsystems/ins/vf_float.c ****  * the Free Software Foundation; either version 2, or (at your option)
  11:subsystems/ins/vf_float.c ****  * any later version.
  12:subsystems/ins/vf_float.c ****  *
  13:subsystems/ins/vf_float.c ****  * paparazzi is distributed in the hope that it will be useful,
  14:subsystems/ins/vf_float.c ****  * but WITHOUT ANY WARRANTY; without even the implied warranty of
  15:subsystems/ins/vf_float.c ****  * MERCHANTABILITY or FITNESS FOR A PARTICULAR PURPOSE.  See the
  16:subsystems/ins/vf_float.c ****  * GNU General Public License for more details.
  17:subsystems/ins/vf_float.c ****  *
  18:subsystems/ins/vf_float.c ****  * You should have received a copy of the GNU General Public License
  19:subsystems/ins/vf_float.c ****  * along with paparazzi; see the file COPYING.  If not, write to
  20:subsystems/ins/vf_float.c ****  * the Free Software Foundation, 59 Temple Place - Suite 330,
  21:subsystems/ins/vf_float.c ****  * Boston, MA 02111-1307, USA.
  22:subsystems/ins/vf_float.c ****  */
  23:subsystems/ins/vf_float.c **** 
  24:subsystems/ins/vf_float.c **** #include "subsystems/ins/vf_float.h"
  25:subsystems/ins/vf_float.c **** 
  26:subsystems/ins/vf_float.c **** /*
  27:subsystems/ins/vf_float.c **** 
  28:subsystems/ins/vf_float.c **** X = [ z zdot bias ]
  29:subsystems/ins/vf_float.c **** 
  30:subsystems/ins/vf_float.c **** temps :
  31:subsystems/ins/vf_float.c ****   propagate 86us
  32:subsystems/ins/vf_float.c ****   update    46us
  33:subsystems/ins/vf_float.c **** 
  34:subsystems/ins/vf_float.c **** */
  35:subsystems/ins/vf_float.c **** /* initial covariance diagonal */
  36:subsystems/ins/vf_float.c **** #define INIT_PXX 1.
  37:subsystems/ins/vf_float.c **** /* process noise */
  38:subsystems/ins/vf_float.c **** #define ACCEL_NOISE 0.5
  39:subsystems/ins/vf_float.c **** #define Qzz       ACCEL_NOISE/512./512./2.
  40:subsystems/ins/vf_float.c **** #define Qzdotzdot ACCEL_NOISE/512.
  41:subsystems/ins/vf_float.c **** #define Qbiasbias 1e-7
  42:subsystems/ins/vf_float.c **** #define R 1.
  43:subsystems/ins/vf_float.c **** 
  44:subsystems/ins/vf_float.c **** float vff_z;
  45:subsystems/ins/vf_float.c **** float vff_bias;
  46:subsystems/ins/vf_float.c **** float vff_zdot;
  47:subsystems/ins/vf_float.c **** float vff_zdotdot;
  48:subsystems/ins/vf_float.c **** 
  49:subsystems/ins/vf_float.c **** float vff_P[VFF_STATE_SIZE][VFF_STATE_SIZE];
  50:subsystems/ins/vf_float.c **** 
  51:subsystems/ins/vf_float.c **** float vff_z_meas;
  52:subsystems/ins/vf_float.c **** 
  53:subsystems/ins/vf_float.c **** void vff_init(float init_z, float init_zdot, float init_bias) {
  26              		.loc 1 53 0
  27              		.cfi_startproc
  28              		@ args = 0, pretend = 0, frame = 0
  29              		@ frame_needed = 0, uses_anonymous_args = 0
  30              		@ link register save eliminated.
  31              	.LVL0:
  54:subsystems/ins/vf_float.c ****   vff_z    = init_z;
  32              		.loc 1 54 0
  33 0000 094B     		ldr	r3, .L2
  34 0002 1860     		str	r0, [r3, #0]	@ float
  55:subsystems/ins/vf_float.c ****   vff_zdot = init_zdot;
  35              		.loc 1 55 0
  36 0004 094B     		ldr	r3, .L2+4
  37 0006 1960     		str	r1, [r3, #0]	@ float
  56:subsystems/ins/vf_float.c ****   vff_bias = init_bias;
  38              		.loc 1 56 0
  39 0008 094B     		ldr	r3, .L2+8
  57:subsystems/ins/vf_float.c ****   int i, j;
  58:subsystems/ins/vf_float.c ****   for (i=0; i<VFF_STATE_SIZE; i++) {
  59:subsystems/ins/vf_float.c ****     for (j=0; j<VFF_STATE_SIZE; j++)
  60:subsystems/ins/vf_float.c ****       vff_P[i][j] = 0.;
  61:subsystems/ins/vf_float.c ****     vff_P[i][i] = INIT_PXX;
  40              		.loc 1 61 0
  41 000a 4FF07E51 		mov	r1, #1065353216
  42              	.LVL1:
  56:subsystems/ins/vf_float.c ****   vff_bias = init_bias;
  43              		.loc 1 56 0
  44 000e 1A60     		str	r2, [r3, #0]	@ float
  45              	.LVL2:
  60:subsystems/ins/vf_float.c ****       vff_P[i][j] = 0.;
  46              		.loc 1 60 0
  47 0010 084B     		ldr	r3, .L2+12
  48 0012 0022     		movs	r2, #0
  49              	.LVL3:
  50 0014 5A60     		str	r2, [r3, #4]	@ float
  51              	.LVL4:
  52 0016 9A60     		str	r2, [r3, #8]	@ float
  53              	.LVL5:
  54              		.loc 1 61 0
  55 0018 1960     		str	r1, [r3, #0]	@ float
  56              	.LVL6:
  60:subsystems/ins/vf_float.c ****       vff_P[i][j] = 0.;
  57              		.loc 1 60 0
  58 001a DA60     		str	r2, [r3, #12]	@ float
  59              	.LVL7:
  60 001c 5A61     		str	r2, [r3, #20]	@ float
  61              	.LVL8:
  62              		.loc 1 61 0
  63 001e 1961     		str	r1, [r3, #16]	@ float
  64              	.LVL9:
  60:subsystems/ins/vf_float.c ****       vff_P[i][j] = 0.;
  65              		.loc 1 60 0
  66 0020 9A61     		str	r2, [r3, #24]	@ float
  67              	.LVL10:
  68 0022 DA61     		str	r2, [r3, #28]	@ float
  69              	.LVL11:
  70              		.loc 1 61 0
  71 0024 1962     		str	r1, [r3, #32]	@ float
  72              	.LVL12:
  62:subsystems/ins/vf_float.c ****   }
  63:subsystems/ins/vf_float.c **** 
  64:subsystems/ins/vf_float.c **** }
  73              		.loc 1 64 0
  74 0026 7047     		bx	lr
  75              	.L3:
  76              		.align	2
  77              	.L2:
  78 0028 00000000 		.word	.LANCHOR0
  79 002c 00000000 		.word	.LANCHOR1
  80 0030 00000000 		.word	.LANCHOR2
  81 0034 00000000 		.word	.LANCHOR3
  82              		.cfi_endproc
  83              	.LFE0:
  85              		.global	__aeabi_f2d
  86              		.global	__aeabi_dadd
  87              		.global	__aeabi_dsub
  88              		.global	__aeabi_d2f
  89              		.global	__aeabi_dmul
  90              		.global	__aeabi_fadd
  91              		.global	__aeabi_fsub
  92              		.section	.text.vff_propagate,"ax",%progbits
  93              		.align	1
  94              		.global	vff_propagate
  95              		.thumb
  96              		.thumb_func
  98              	vff_propagate:
  99              	.LFB1:
  65:subsystems/ins/vf_float.c **** 
  66:subsystems/ins/vf_float.c **** 
  67:subsystems/ins/vf_float.c **** /*
  68:subsystems/ins/vf_float.c **** 
  69:subsystems/ins/vf_float.c ****  F = [ 1 dt -dt^2/2
  70:subsystems/ins/vf_float.c ****        0  1 -dt
  71:subsystems/ins/vf_float.c ****        0  0   1     ];
  72:subsystems/ins/vf_float.c **** 
  73:subsystems/ins/vf_float.c ****  B = [ dt^2/2 dt 0]';
  74:subsystems/ins/vf_float.c **** 
  75:subsystems/ins/vf_float.c ****  Q = [ 0.01  0     0
  76:subsystems/ins/vf_float.c ****        0     0.01  0
  77:subsystems/ins/vf_float.c ****        0     0     0.001 ];
  78:subsystems/ins/vf_float.c **** 
  79:subsystems/ins/vf_float.c ****  Xk1 = F * Xk0 + B * accel;
  80:subsystems/ins/vf_float.c **** 
  81:subsystems/ins/vf_float.c ****  Pk1 = F * Pk0 * F' + Q;
  82:subsystems/ins/vf_float.c **** 
  83:subsystems/ins/vf_float.c **** */
  84:subsystems/ins/vf_float.c **** void vff_propagate(float accel) {
 100              		.loc 1 84 0
 101              		.cfi_startproc
 102              		@ args = 0, pretend = 0, frame = 80
 103              		@ frame_needed = 0, uses_anonymous_args = 0
 104              	.LVL13:
 105 0000 2DE9F04F 		push	{r4, r5, r6, r7, r8, r9, sl, fp, lr}
 106              	.LCFI0:
 107              		.cfi_def_cfa_offset 36
 108              		.cfi_offset 14, -4
 109              		.cfi_offset 11, -8
 110              		.cfi_offset 10, -12
 111              		.cfi_offset 9, -16
 112              		.cfi_offset 8, -20
 113              		.cfi_offset 7, -24
 114              		.cfi_offset 6, -28
 115              		.cfi_offset 5, -32
 116              		.cfi_offset 4, -36
 117 0004 95B0     		sub	sp, sp, #84
 118              	.LCFI1:
 119              		.cfi_def_cfa_offset 120
  85:subsystems/ins/vf_float.c ****   /* update state */
  86:subsystems/ins/vf_float.c ****   vff_zdotdot = accel + 9.81 - vff_bias;
 120              		.loc 1 86 0
 121 0006 FFF7FEFF 		bl	__aeabi_f2d
 122              	.LVL14:
 123 000a 9BA3     		adr	r3, .L5
 124 000c D3E90023 		ldrd	r2, [r3]
 125 0010 FFF7FEFF 		bl	__aeabi_dadd
 126 0014 9C4B     		ldr	r3, .L5+16
 127 0016 0446     		mov	r4, r0
 128 0018 1868     		ldr	r0, [r3, #0]	@ float
 129 001a 0D46     		mov	r5, r1
 130 001c FFF7FEFF 		bl	__aeabi_f2d
 131 0020 0246     		mov	r2, r0
 132 0022 0B46     		mov	r3, r1
 133 0024 2046     		mov	r0, r4
 134 0026 2946     		mov	r1, r5
 135 0028 FFF7FEFF 		bl	__aeabi_dsub
 136 002c FFF7FEFF 		bl	__aeabi_d2f
  87:subsystems/ins/vf_float.c ****   vff_z = vff_z + DT_VFILTER * vff_zdot;
 137              		.loc 1 87 0
 138 0030 964E     		ldr	r6, .L5+20
  86:subsystems/ins/vf_float.c ****   vff_zdotdot = accel + 9.81 - vff_bias;
 139              		.loc 1 86 0
 140 0032 974B     		ldr	r3, .L5+24
 141 0034 0546     		mov	r5, r0
 142 0036 1860     		str	r0, [r3, #0]	@ float
 143              		.loc 1 87 0
 144 0038 3068     		ldr	r0, [r6, #0]	@ float
 145 003a FFF7FEFF 		bl	__aeabi_f2d
 146 003e 954C     		ldr	r4, .L5+28
 147 0040 8046     		mov	r8, r0
 148 0042 2068     		ldr	r0, [r4, #0]	@ float
 149 0044 8946     		mov	r9, r1
 150 0046 FFF7FEFF 		bl	__aeabi_f2d
 151 004a 0022     		movs	r2, #0
 152 004c 8246     		mov	sl, r0
 153 004e 8B46     		mov	fp, r1
 154 0050 4046     		mov	r0, r8
 155 0052 4946     		mov	r1, r9
 156 0054 904B     		ldr	r3, .L5+32
 157 0056 FFF7FEFF 		bl	__aeabi_dmul
 158 005a 0246     		mov	r2, r0
 159 005c 0B46     		mov	r3, r1
 160 005e 5046     		mov	r0, sl
 161 0060 5946     		mov	r1, fp
 162 0062 FFF7FEFF 		bl	__aeabi_dadd
 163 0066 FFF7FEFF 		bl	__aeabi_d2f
 164 006a 2060     		str	r0, [r4, #0]	@ float
  88:subsystems/ins/vf_float.c ****   vff_zdot = vff_zdot + DT_VFILTER * vff_zdotdot;
 165              		.loc 1 88 0
 166 006c 2846     		mov	r0, r5
 167 006e FFF7FEFF 		bl	__aeabi_f2d
 168 0072 0022     		movs	r2, #0
 169 0074 884B     		ldr	r3, .L5+32
 170 0076 FFF7FEFF 		bl	__aeabi_dmul
 171 007a 0246     		mov	r2, r0
 172 007c 0B46     		mov	r3, r1
 173 007e 4046     		mov	r0, r8
 174 0080 4946     		mov	r1, r9
 175 0082 FFF7FEFF 		bl	__aeabi_dadd
 176 0086 FFF7FEFF 		bl	__aeabi_d2f
  89:subsystems/ins/vf_float.c ****   /* update covariance */
  90:subsystems/ins/vf_float.c ****   const float FPF00 = vff_P[0][0] + DT_VFILTER * ( vff_P[1][0] + vff_P[0][1] + DT_VFILTER * vff_P[1
 177              		.loc 1 90 0
 178 008a 844D     		ldr	r5, .L5+36
  88:subsystems/ins/vf_float.c ****   vff_zdot = vff_zdot + DT_VFILTER * vff_zdotdot;
 179              		.loc 1 88 0
 180 008c 3060     		str	r0, [r6, #0]	@ float
 181              		.loc 1 90 0
 182 008e 2E69     		ldr	r6, [r5, #16]	@ float
 183 0090 D5F80C90 		ldr	r9, [r5, #12]	@ float
 184 0094 3046     		mov	r0, r6
 185 0096 FFF7FEFF 		bl	__aeabi_f2d
  91:subsystems/ins/vf_float.c ****   const float FPF01 = vff_P[0][1] + DT_VFILTER * ( vff_P[1][1] - vff_P[0][2] - DT_VFILTER * vff_P[1
 186              		.loc 1 91 0
 187 009a D5F814B0 		ldr	fp, [r5, #20]	@ float
  90:subsystems/ins/vf_float.c ****   const float FPF00 = vff_P[0][0] + DT_VFILTER * ( vff_P[1][0] + vff_P[0][1] + DT_VFILTER * vff_P[1
 188              		.loc 1 90 0
 189 009e CDE90201 		strd	r0, [sp, #8]
 190              		.loc 1 91 0
 191 00a2 5846     		mov	r0, fp
 192 00a4 FFF7FEFF 		bl	__aeabi_f2d
 193 00a8 0022     		movs	r2, #0
 194 00aa 7B4B     		ldr	r3, .L5+32
 195 00ac CDE90E01 		strd	r0, [sp, #56]
 196 00b0 FFF7FEFF 		bl	__aeabi_dmul
  92:subsystems/ins/vf_float.c ****   const float FPF02 = vff_P[0][2] + DT_VFILTER * ( vff_P[1][2] );
  93:subsystems/ins/vf_float.c ****   const float FPF10 = vff_P[1][0] + DT_VFILTER * (-vff_P[2][0] + vff_P[1][1] - DT_VFILTER * vff_P[2
 197              		.loc 1 93 0
 198 00b4 D5F81CA0 		ldr	sl, [r5, #28]	@ float
 199 00b8 AB69     		ldr	r3, [r5, #24]	@ float
  91:subsystems/ins/vf_float.c ****   const float FPF01 = vff_P[0][1] + DT_VFILTER * ( vff_P[1][1] - vff_P[0][2] - DT_VFILTER * vff_P[1
 200              		.loc 1 91 0
 201 00ba CDE90801 		strd	r0, [sp, #32]
 202              		.loc 1 93 0
 203 00be 5046     		mov	r0, sl
 204 00c0 0593     		str	r3, [sp, #20]	@ float
 205 00c2 FFF7FEFF 		bl	__aeabi_f2d
 206 00c6 0022     		movs	r2, #0
 207 00c8 734B     		ldr	r3, .L5+32
 208 00ca CDE91001 		strd	r0, [sp, #64]
 209 00ce FFF7FEFF 		bl	__aeabi_dmul
  94:subsystems/ins/vf_float.c ****   const float FPF11 = vff_P[1][1] + DT_VFILTER * (-vff_P[2][1] - vff_P[1][2] + DT_VFILTER * vff_P[2
 210              		.loc 1 94 0
 211 00d2 2C6A     		ldr	r4, [r5, #32]	@ float
  93:subsystems/ins/vf_float.c ****   const float FPF10 = vff_P[1][0] + DT_VFILTER * (-vff_P[2][0] + vff_P[1][1] - DT_VFILTER * vff_P[2
 212              		.loc 1 93 0
 213 00d4 CDE90A01 		strd	r0, [sp, #40]
 214              		.loc 1 94 0
 215 00d8 2046     		mov	r0, r4
 216 00da FFF7FEFF 		bl	__aeabi_f2d
 217 00de CDE90601 		strd	r0, [sp, #24]
  95:subsystems/ins/vf_float.c ****   const float FPF12 = vff_P[1][2] + DT_VFILTER * (-vff_P[2][2] );
 218              		.loc 1 95 0
 219 00e2 04F10040 		add	r0, r4, #-2147483648
 220 00e6 FFF7FEFF 		bl	__aeabi_f2d
 221 00ea 0022     		movs	r2, #0
 222 00ec 6A4B     		ldr	r3, .L5+32
 223 00ee FFF7FEFF 		bl	__aeabi_dmul
  90:subsystems/ins/vf_float.c ****   const float FPF00 = vff_P[0][0] + DT_VFILTER * ( vff_P[1][0] + vff_P[0][1] + DT_VFILTER * vff_P[1
 224              		.loc 1 90 0
 225 00f2 6F68     		ldr	r7, [r5, #4]	@ float
  91:subsystems/ins/vf_float.c ****   const float FPF01 = vff_P[0][1] + DT_VFILTER * ( vff_P[1][1] - vff_P[0][2] - DT_VFILTER * vff_P[1
 226              		.loc 1 91 0
 227 00f4 D5F80880 		ldr	r8, [r5, #8]	@ float
 228              	.LVL15:
 229              		.loc 1 95 0
 230 00f8 CDE90C01 		strd	r0, [sp, #48]
 231              	.LVL16:
  90:subsystems/ins/vf_float.c ****   const float FPF00 = vff_P[0][0] + DT_VFILTER * ( vff_P[1][0] + vff_P[0][1] + DT_VFILTER * vff_P[1
 232              		.loc 1 90 0
 233 00fc 2868     		ldr	r0, [r5, #0]	@ float
 234              	.LVL17:
 235 00fe FFF7FEFF 		bl	__aeabi_f2d
 236              	.LVL18:
 237 0102 CDE90001 		strd	r0, [sp]
 238 0106 3946     		mov	r1, r7
 239 0108 4846     		mov	r0, r9
 240 010a FFF7FEFF 		bl	__aeabi_fadd
 241 010e FFF7FEFF 		bl	__aeabi_f2d
 242 0112 0022     		movs	r2, #0
 243 0114 CDE91201 		strd	r0, [sp, #72]
 244 0118 DDE90201 		ldrd	r0, [sp, #8]
 245 011c 5E4B     		ldr	r3, .L5+32
 246 011e FFF7FEFF 		bl	__aeabi_dmul
 247 0122 0246     		mov	r2, r0
 248 0124 0B46     		mov	r3, r1
 249 0126 DDE91201 		ldrd	r0, [sp, #72]
 250 012a FFF7FEFF 		bl	__aeabi_dadd
 251 012e 0022     		movs	r2, #0
 252 0130 594B     		ldr	r3, .L5+32
 253 0132 FFF7FEFF 		bl	__aeabi_dmul
 254 0136 0246     		mov	r2, r0
 255 0138 0B46     		mov	r3, r1
 256 013a DDE90001 		ldrd	r0, [sp]
 257 013e FFF7FEFF 		bl	__aeabi_dadd
 258 0142 FFF7FEFF 		bl	__aeabi_d2f
  96:subsystems/ins/vf_float.c ****   const float FPF20 = vff_P[2][0] + DT_VFILTER * ( vff_P[2][1] );
  97:subsystems/ins/vf_float.c ****   const float FPF21 = vff_P[2][1] + DT_VFILTER * (-vff_P[2][2] );
  98:subsystems/ins/vf_float.c ****   const float FPF22 = vff_P[2][2];
  99:subsystems/ins/vf_float.c **** 
 100:subsystems/ins/vf_float.c ****   vff_P[0][0] = FPF00 + Qzz;
 259              		.loc 1 100 0
 260 0146 4FF05651 		mov	r1, #897581056
 261 014a FFF7FEFF 		bl	__aeabi_fadd
 262 014e 2860     		str	r0, [r5, #0]	@ float
  91:subsystems/ins/vf_float.c ****   const float FPF01 = vff_P[0][1] + DT_VFILTER * ( vff_P[1][1] - vff_P[0][2] - DT_VFILTER * vff_P[1
 263              		.loc 1 91 0
 264 0150 3846     		mov	r0, r7
 265 0152 FFF7FEFF 		bl	__aeabi_f2d
 266 0156 CDE90001 		strd	r0, [sp]
 267 015a 4146     		mov	r1, r8
 268 015c 3046     		mov	r0, r6
 269 015e FFF7FEFF 		bl	__aeabi_fsub
 270 0162 FFF7FEFF 		bl	__aeabi_f2d
 271 0166 DDE90823 		ldrd	r2, [sp, #32]
 272 016a FFF7FEFF 		bl	__aeabi_dsub
 273 016e 0022     		movs	r2, #0
 274 0170 494B     		ldr	r3, .L5+32
 275 0172 FFF7FEFF 		bl	__aeabi_dmul
 276 0176 0246     		mov	r2, r0
 277 0178 0B46     		mov	r3, r1
 278 017a DDE90001 		ldrd	r0, [sp]
 279 017e FFF7FEFF 		bl	__aeabi_dadd
 280 0182 FFF7FEFF 		bl	__aeabi_d2f
 281 0186 6860     		str	r0, [r5, #4]	@ float
  92:subsystems/ins/vf_float.c ****   const float FPF02 = vff_P[0][2] + DT_VFILTER * ( vff_P[1][2] );
 282              		.loc 1 92 0
 283 0188 4046     		mov	r0, r8
 284 018a FFF7FEFF 		bl	__aeabi_f2d
 285 018e DDE90823 		ldrd	r2, [sp, #32]
 286 0192 FFF7FEFF 		bl	__aeabi_dadd
 287 0196 FFF7FEFF 		bl	__aeabi_d2f
 288 019a A860     		str	r0, [r5, #8]	@ float
  93:subsystems/ins/vf_float.c ****   const float FPF10 = vff_P[1][0] + DT_VFILTER * (-vff_P[2][0] + vff_P[1][1] - DT_VFILTER * vff_P[2
 289              		.loc 1 93 0
 290 019c 4846     		mov	r0, r9
 291 019e FFF7FEFF 		bl	__aeabi_f2d
 292 01a2 8046     		mov	r8, r0
 293              	.LVL19:
 294 01a4 8946     		mov	r9, r1
 295 01a6 3046     		mov	r0, r6
 296 01a8 0599     		ldr	r1, [sp, #20]	@ float
 297 01aa FFF7FEFF 		bl	__aeabi_fsub
 298 01ae FFF7FEFF 		bl	__aeabi_f2d
 299 01b2 DDE90A23 		ldrd	r2, [sp, #40]
 300 01b6 FFF7FEFF 		bl	__aeabi_dsub
 301 01ba 0022     		movs	r2, #0
 302 01bc 364B     		ldr	r3, .L5+32
 303 01be FFF7FEFF 		bl	__aeabi_dmul
 304 01c2 0246     		mov	r2, r0
 305 01c4 0B46     		mov	r3, r1
 306 01c6 4046     		mov	r0, r8
 307 01c8 4946     		mov	r1, r9
 308 01ca FFF7FEFF 		bl	__aeabi_dadd
 309 01ce FFF7FEFF 		bl	__aeabi_d2f
  94:subsystems/ins/vf_float.c ****   const float FPF11 = vff_P[1][1] + DT_VFILTER * (-vff_P[2][1] - vff_P[1][2] + DT_VFILTER * vff_P[2
 310              		.loc 1 94 0
 311 01d2 5946     		mov	r1, fp
  93:subsystems/ins/vf_float.c ****   const float FPF10 = vff_P[1][0] + DT_VFILTER * (-vff_P[2][0] + vff_P[1][1] - DT_VFILTER * vff_P[2
 312              		.loc 1 93 0
 313 01d4 E860     		str	r0, [r5, #12]	@ float
  94:subsystems/ins/vf_float.c ****   const float FPF11 = vff_P[1][1] + DT_VFILTER * (-vff_P[2][1] - vff_P[1][2] + DT_VFILTER * vff_P[2
 314              		.loc 1 94 0
 315 01d6 0AF10040 		add	r0, sl, #-2147483648
 316 01da FFF7FEFF 		bl	__aeabi_fsub
 317 01de FFF7FEFF 		bl	__aeabi_f2d
 318 01e2 0022     		movs	r2, #0
 319 01e4 0646     		mov	r6, r0
 320 01e6 0F46     		mov	r7, r1
 321 01e8 2B4B     		ldr	r3, .L5+32
 322 01ea DDE90601 		ldrd	r0, [sp, #24]
 323 01ee FFF7FEFF 		bl	__aeabi_dmul
 324 01f2 0246     		mov	r2, r0
 325 01f4 0B46     		mov	r3, r1
 326 01f6 3046     		mov	r0, r6
 327 01f8 3946     		mov	r1, r7
 328 01fa FFF7FEFF 		bl	__aeabi_dadd
 329 01fe 0022     		movs	r2, #0
 330 0200 254B     		ldr	r3, .L5+32
 331 0202 FFF7FEFF 		bl	__aeabi_dmul
 332 0206 0246     		mov	r2, r0
 333 0208 0B46     		mov	r3, r1
 334 020a DDE90201 		ldrd	r0, [sp, #8]
 335 020e FFF7FEFF 		bl	__aeabi_dadd
 336 0212 FFF7FEFF 		bl	__aeabi_d2f
 101:subsystems/ins/vf_float.c ****   vff_P[0][1] = FPF01;
 102:subsystems/ins/vf_float.c ****   vff_P[0][2] = FPF02;
 103:subsystems/ins/vf_float.c ****   vff_P[1][0] = FPF10;
 104:subsystems/ins/vf_float.c ****   vff_P[1][1] = FPF11 + Qzdotzdot;
 337              		.loc 1 104 0
 338 0216 4FF06A51 		mov	r1, #981467136
 339 021a FFF7FEFF 		bl	__aeabi_fadd
  95:subsystems/ins/vf_float.c ****   const float FPF12 = vff_P[1][2] + DT_VFILTER * (-vff_P[2][2] );
 340              		.loc 1 95 0
 341 021e DDE90C23 		ldrd	r2, [sp, #48]
 342              		.loc 1 104 0
 343 0222 2861     		str	r0, [r5, #16]	@ float
  95:subsystems/ins/vf_float.c ****   const float FPF12 = vff_P[1][2] + DT_VFILTER * (-vff_P[2][2] );
 344              		.loc 1 95 0
 345 0224 DDE90E01 		ldrd	r0, [sp, #56]
 346 0228 FFF7FEFF 		bl	__aeabi_dadd
 347 022c FFF7FEFF 		bl	__aeabi_d2f
 348 0230 6861     		str	r0, [r5, #20]	@ float
  96:subsystems/ins/vf_float.c ****   const float FPF20 = vff_P[2][0] + DT_VFILTER * ( vff_P[2][1] );
 349              		.loc 1 96 0
 350 0232 0598     		ldr	r0, [sp, #20]	@ float
 351 0234 FFF7FEFF 		bl	__aeabi_f2d
 352 0238 DDE90A23 		ldrd	r2, [sp, #40]
 353 023c FFF7FEFF 		bl	__aeabi_dadd
 354 0240 FFF7FEFF 		bl	__aeabi_d2f
  97:subsystems/ins/vf_float.c ****   const float FPF21 = vff_P[2][1] + DT_VFILTER * (-vff_P[2][2] );
 355              		.loc 1 97 0
 356 0244 DDE90C23 		ldrd	r2, [sp, #48]
  96:subsystems/ins/vf_float.c ****   const float FPF20 = vff_P[2][0] + DT_VFILTER * ( vff_P[2][1] );
 357              		.loc 1 96 0
 358 0248 A861     		str	r0, [r5, #24]	@ float
  97:subsystems/ins/vf_float.c ****   const float FPF21 = vff_P[2][1] + DT_VFILTER * (-vff_P[2][2] );
 359              		.loc 1 97 0
 360 024a DDE91001 		ldrd	r0, [sp, #64]
 361 024e FFF7FEFF 		bl	__aeabi_dadd
 362 0252 FFF7FEFF 		bl	__aeabi_d2f
 105:subsystems/ins/vf_float.c ****   vff_P[1][2] = FPF12;
 106:subsystems/ins/vf_float.c ****   vff_P[2][0] = FPF20;
 107:subsystems/ins/vf_float.c ****   vff_P[2][1] = FPF21;
 108:subsystems/ins/vf_float.c ****   vff_P[2][2] = FPF22 + Qbiasbias;
 363              		.loc 1 108 0
 364 0256 0AA3     		adr	r3, .L5+8
 365 0258 D3E90023 		ldrd	r2, [r3]
  97:subsystems/ins/vf_float.c ****   const float FPF21 = vff_P[2][1] + DT_VFILTER * (-vff_P[2][2] );
 366              		.loc 1 97 0
 367 025c E861     		str	r0, [r5, #28]	@ float
 368              		.loc 1 108 0
 369 025e DDE90601 		ldrd	r0, [sp, #24]
 370 0262 FFF7FEFF 		bl	__aeabi_dadd
 371 0266 FFF7FEFF 		bl	__aeabi_d2f
 372 026a 2862     		str	r0, [r5, #32]	@ float
 109:subsystems/ins/vf_float.c **** 
 110:subsystems/ins/vf_float.c **** }
 373              		.loc 1 110 0
 374 026c 15B0     		add	sp, sp, #84
 375 026e BDE8F08F 		pop	{r4, r5, r6, r7, r8, r9, sl, fp, pc}
 376              	.L6:
 377 0272 00BFAFF3 		.align	3
 377      0080
 378              	.L5:
 379 0278 1F85EB51 		.word	1374389535
 380 027c B89E2340 		.word	1076076216
 381 0280 48AFBC9A 		.word	2596056904
 382 0284 F2D77A3E 		.word	1048238066
 383 0288 00000000 		.word	.LANCHOR2
 384 028c 00000000 		.word	.LANCHOR1
 385 0290 00000000 		.word	.LANCHOR4
 386 0294 00000000 		.word	.LANCHOR0
 387 0298 0000603F 		.word	1063256064
 388 029c 00000000 		.word	.LANCHOR3
 389              		.cfi_endproc
 390              	.LFE1:
 392              		.global	__aeabi_fdiv
 393              		.global	__aeabi_fmul
 394              		.section	.text.vff_update,"ax",%progbits
 395              		.align	1
 396              		.global	vff_update
 397              		.thumb
 398              		.thumb_func
 400              	vff_update:
 401              	.LFB3:
 111:subsystems/ins/vf_float.c **** /*
 112:subsystems/ins/vf_float.c ****   H = [1 0 0];
 113:subsystems/ins/vf_float.c ****   R = 0.1;
 114:subsystems/ins/vf_float.c ****   // state residual
 115:subsystems/ins/vf_float.c ****   y = rangemeter - H * Xm;
 116:subsystems/ins/vf_float.c ****   // covariance residual
 117:subsystems/ins/vf_float.c ****   S = H*Pm*H' + R;
 118:subsystems/ins/vf_float.c ****   // kalman gain
 119:subsystems/ins/vf_float.c ****   K = Pm*H'*inv(S);
 120:subsystems/ins/vf_float.c ****   // update state
 121:subsystems/ins/vf_float.c ****   Xp = Xm + K*y;
 122:subsystems/ins/vf_float.c ****   // update covariance
 123:subsystems/ins/vf_float.c ****   Pp = Pm - K*H*Pm;
 124:subsystems/ins/vf_float.c **** */
 125:subsystems/ins/vf_float.c **** __attribute__ ((always_inline)) static inline void update_z_conf(float z_meas, float conf) {
 126:subsystems/ins/vf_float.c ****   vff_z_meas = z_meas;
 127:subsystems/ins/vf_float.c **** 
 128:subsystems/ins/vf_float.c ****   const float y = z_meas - vff_z;
 129:subsystems/ins/vf_float.c ****   const float S = vff_P[0][0] + conf;
 130:subsystems/ins/vf_float.c ****   const float K1 = vff_P[0][0] * 1/S;
 131:subsystems/ins/vf_float.c ****   const float K2 = vff_P[1][0] * 1/S;
 132:subsystems/ins/vf_float.c ****   const float K3 = vff_P[2][0] * 1/S;
 133:subsystems/ins/vf_float.c **** 
 134:subsystems/ins/vf_float.c ****   vff_z    = vff_z    + K1 * y;
 135:subsystems/ins/vf_float.c ****   vff_zdot = vff_zdot + K2 * y;
 136:subsystems/ins/vf_float.c ****   vff_bias = vff_bias + K3 * y;
 137:subsystems/ins/vf_float.c **** 
 138:subsystems/ins/vf_float.c ****   const float P11 = (1. - K1) * vff_P[0][0];
 139:subsystems/ins/vf_float.c ****   const float P12 = (1. - K1) * vff_P[0][1];
 140:subsystems/ins/vf_float.c ****   const float P13 = (1. - K1) * vff_P[0][2];
 141:subsystems/ins/vf_float.c ****   const float P21 = -K2 * vff_P[0][0] + vff_P[1][0];
 142:subsystems/ins/vf_float.c ****   const float P22 = -K2 * vff_P[0][1] + vff_P[1][1];
 143:subsystems/ins/vf_float.c ****   const float P23 = -K2 * vff_P[0][2] + vff_P[1][2];
 144:subsystems/ins/vf_float.c ****   const float P31 = -K3 * vff_P[0][0] + vff_P[2][0];
 145:subsystems/ins/vf_float.c ****   const float P32 = -K3 * vff_P[0][1] + vff_P[2][1];
 146:subsystems/ins/vf_float.c ****   const float P33 = -K3 * vff_P[0][2] + vff_P[2][2];
 147:subsystems/ins/vf_float.c **** 
 148:subsystems/ins/vf_float.c ****   vff_P[0][0] = P11;
 149:subsystems/ins/vf_float.c ****   vff_P[0][1] = P12;
 150:subsystems/ins/vf_float.c ****   vff_P[0][2] = P13;
 151:subsystems/ins/vf_float.c ****   vff_P[1][0] = P21;
 152:subsystems/ins/vf_float.c ****   vff_P[1][1] = P22;
 153:subsystems/ins/vf_float.c ****   vff_P[1][2] = P23;
 154:subsystems/ins/vf_float.c ****   vff_P[2][0] = P31;
 155:subsystems/ins/vf_float.c ****   vff_P[2][1] = P32;
 156:subsystems/ins/vf_float.c ****   vff_P[2][2] = P33;
 157:subsystems/ins/vf_float.c **** 
 158:subsystems/ins/vf_float.c **** }
 159:subsystems/ins/vf_float.c **** 
 160:subsystems/ins/vf_float.c **** void vff_update(float z_meas) {
 402              		.loc 1 160 0
 403              		.cfi_startproc
 404              		@ args = 0, pretend = 0, frame = 32
 405              		@ frame_needed = 0, uses_anonymous_args = 0
 406              	.LVL20:
 407 0000 2DE9F04F 		push	{r4, r5, r6, r7, r8, r9, sl, fp, lr}
 408              	.LCFI2:
 409              		.cfi_def_cfa_offset 36
 410              		.cfi_offset 14, -4
 411              		.cfi_offset 11, -8
 412              		.cfi_offset 10, -12
 413              		.cfi_offset 9, -16
 414              		.cfi_offset 8, -20
 415              		.cfi_offset 7, -24
 416              		.cfi_offset 6, -28
 417              		.cfi_offset 5, -32
 418              		.cfi_offset 4, -36
 419              	.LBB8:
 420              	.LBB9:
 128:subsystems/ins/vf_float.c ****   const float y = z_meas - vff_z;
 421              		.loc 1 128 0
 422 0004 DFF884A1 		ldr	sl, .L8+12
 126:subsystems/ins/vf_float.c ****   vff_z_meas = z_meas;
 423              		.loc 1 126 0
 424 0008 5D4B     		ldr	r3, .L8
 128:subsystems/ins/vf_float.c ****   const float y = z_meas - vff_z;
 425              		.loc 1 128 0
 426 000a DAF800B0 		ldr	fp, [sl, #0]	@ float
 427              	.LBE9:
 428              	.LBE8:
 429              		.loc 1 160 0
 430 000e 89B0     		sub	sp, sp, #36
 431              	.LCFI3:
 432              		.cfi_def_cfa_offset 72
 433              	.LBB11:
 434              	.LBB10:
 126:subsystems/ins/vf_float.c ****   vff_z_meas = z_meas;
 435              		.loc 1 126 0
 436 0010 1860     		str	r0, [r3, #0]	@ float
 128:subsystems/ins/vf_float.c ****   const float y = z_meas - vff_z;
 437              		.loc 1 128 0
 438 0012 5946     		mov	r1, fp
 439 0014 FFF7FEFF 		bl	__aeabi_fsub
 440              	.LVL21:
 129:subsystems/ins/vf_float.c ****   const float S = vff_P[0][0] + conf;
 441              		.loc 1 129 0
 442 0018 5A4C     		ldr	r4, .L8+4
 128:subsystems/ins/vf_float.c ****   const float y = z_meas - vff_z;
 443              		.loc 1 128 0
 444 001a 0646     		mov	r6, r0
 445              	.LVL22:
 129:subsystems/ins/vf_float.c ****   const float S = vff_P[0][0] + conf;
 446              		.loc 1 129 0
 447 001c 2568     		ldr	r5, [r4, #0]	@ float
 448 001e 4FF07E51 		mov	r1, #1065353216
 449 0022 2846     		mov	r0, r5
 450              	.LVL23:
 451 0024 FFF7FEFF 		bl	__aeabi_fadd
 452 0028 8146     		mov	r9, r0
 453              	.LVL24:
 130:subsystems/ins/vf_float.c ****   const float K1 = vff_P[0][0] * 1/S;
 454              		.loc 1 130 0
 455 002a 4946     		mov	r1, r9
 456 002c 2846     		mov	r0, r5
 457              	.LVL25:
 458 002e FFF7FEFF 		bl	__aeabi_fdiv
 459              	.LVL26:
 131:subsystems/ins/vf_float.c ****   const float K2 = vff_P[1][0] * 1/S;
 460              		.loc 1 131 0
 461 0032 D4F80CC0 		ldr	ip, [r4, #12]	@ float
 130:subsystems/ins/vf_float.c ****   const float K1 = vff_P[0][0] * 1/S;
 462              		.loc 1 130 0
 463 0036 0746     		mov	r7, r0
 464              	.LVL27:
 131:subsystems/ins/vf_float.c ****   const float K2 = vff_P[1][0] * 1/S;
 465              		.loc 1 131 0
 466 0038 4946     		mov	r1, r9
 467 003a 6046     		mov	r0, ip
 468              	.LVL28:
 469 003c CDF804C0 		str	ip, [sp, #4]
 470 0040 FFF7FEFF 		bl	__aeabi_fdiv
 132:subsystems/ins/vf_float.c ****   const float K3 = vff_P[2][0] * 1/S;
 471              		.loc 1 132 0
 472 0044 A369     		ldr	r3, [r4, #24]	@ float
 131:subsystems/ins/vf_float.c ****   const float K2 = vff_P[1][0] * 1/S;
 473              		.loc 1 131 0
 474 0046 8046     		mov	r8, r0
 475              	.LVL29:
 132:subsystems/ins/vf_float.c ****   const float K3 = vff_P[2][0] * 1/S;
 476              		.loc 1 132 0
 477 0048 4946     		mov	r1, r9
 478 004a 1846     		mov	r0, r3
 479              	.LVL30:
 480 004c 0593     		str	r3, [sp, #20]	@ float
 481 004e FFF7FEFF 		bl	__aeabi_fdiv
 134:subsystems/ins/vf_float.c ****   vff_z    = vff_z    + K1 * y;
 482              		.loc 1 134 0
 483 0052 3146     		mov	r1, r6
 132:subsystems/ins/vf_float.c ****   const float K3 = vff_P[2][0] * 1/S;
 484              		.loc 1 132 0
 485 0054 8146     		mov	r9, r0
 486              	.LVL31:
 134:subsystems/ins/vf_float.c ****   vff_z    = vff_z    + K1 * y;
 487              		.loc 1 134 0
 488 0056 3846     		mov	r0, r7
 489              	.LVL32:
 490 0058 FFF7FEFF 		bl	__aeabi_fmul
 491 005c 0146     		mov	r1, r0
 492 005e 5846     		mov	r0, fp
 493 0060 FFF7FEFF 		bl	__aeabi_fadd
 135:subsystems/ins/vf_float.c ****   vff_zdot = vff_zdot + K2 * y;
 494              		.loc 1 135 0
 495 0064 3146     		mov	r1, r6
 134:subsystems/ins/vf_float.c ****   vff_z    = vff_z    + K1 * y;
 496              		.loc 1 134 0
 497 0066 CAF80000 		str	r0, [sl, #0]	@ float
 135:subsystems/ins/vf_float.c ****   vff_zdot = vff_zdot + K2 * y;
 498              		.loc 1 135 0
 499 006a 4046     		mov	r0, r8
 500 006c FFF7FEFF 		bl	__aeabi_fmul
 501 0070 DFF81CA1 		ldr	sl, .L8+16
 502 0074 0146     		mov	r1, r0
 503 0076 DAF80000 		ldr	r0, [sl, #0]	@ float
 504 007a FFF7FEFF 		bl	__aeabi_fadd
 136:subsystems/ins/vf_float.c ****   vff_bias = vff_bias + K3 * y;
 505              		.loc 1 136 0
 506 007e 3146     		mov	r1, r6
 135:subsystems/ins/vf_float.c ****   vff_zdot = vff_zdot + K2 * y;
 507              		.loc 1 135 0
 508 0080 CAF80000 		str	r0, [sl, #0]	@ float
 136:subsystems/ins/vf_float.c ****   vff_bias = vff_bias + K3 * y;
 509              		.loc 1 136 0
 510 0084 4846     		mov	r0, r9
 511 0086 FFF7FEFF 		bl	__aeabi_fmul
 512 008a DFF808A1 		ldr	sl, .L8+20
 513 008e 0146     		mov	r1, r0
 514 0090 DAF80000 		ldr	r0, [sl, #0]	@ float
 515 0094 FFF7FEFF 		bl	__aeabi_fadd
 516 0098 CAF80000 		str	r0, [sl, #0]	@ float
 138:subsystems/ins/vf_float.c ****   const float P11 = (1. - K1) * vff_P[0][0];
 517              		.loc 1 138 0
 518 009c 3846     		mov	r0, r7
 519 009e FFF7FEFF 		bl	__aeabi_f2d
 520 00a2 0246     		mov	r2, r0
 521 00a4 0B46     		mov	r3, r1
 522 00a6 0020     		movs	r0, #0
 523 00a8 3749     		ldr	r1, .L8+8
 524 00aa FFF7FEFF 		bl	__aeabi_dsub
 139:subsystems/ins/vf_float.c ****   const float P12 = (1. - K1) * vff_P[0][1];
 525              		.loc 1 139 0
 526 00ae 6668     		ldr	r6, [r4, #4]	@ float
 527              	.LVL33:
 141:subsystems/ins/vf_float.c ****   const float P21 = -K2 * vff_P[0][0] + vff_P[1][0];
 528              		.loc 1 141 0
 529 00b0 08F10048 		add	r8, r8, #-2147483648
 530              	.LVL34:
 138:subsystems/ins/vf_float.c ****   const float P11 = (1. - K1) * vff_P[0][0];
 531              		.loc 1 138 0
 532 00b4 CDE90201 		strd	r0, [sp, #8]
 533              	.LVL35:
 142:subsystems/ins/vf_float.c ****   const float P22 = -K2 * vff_P[0][1] + vff_P[1][1];
 534              		.loc 1 142 0
 535 00b8 3146     		mov	r1, r6
 536 00ba 4046     		mov	r0, r8
 537              	.LVL36:
 538 00bc FFF7FEFF 		bl	__aeabi_fmul
 539              	.LVL37:
 540 00c0 2169     		ldr	r1, [r4, #16]	@ float
 541 00c2 FFF7FEFF 		bl	__aeabi_fadd
 140:subsystems/ins/vf_float.c ****   const float P13 = (1. - K1) * vff_P[0][2];
 542              		.loc 1 140 0
 543 00c6 A768     		ldr	r7, [r4, #8]	@ float
 544              	.LVL38:
 142:subsystems/ins/vf_float.c ****   const float P22 = -K2 * vff_P[0][1] + vff_P[1][1];
 545              		.loc 1 142 0
 546 00c8 0690     		str	r0, [sp, #24]	@ float
 547              	.LVL39:
 143:subsystems/ins/vf_float.c ****   const float P23 = -K2 * vff_P[0][2] + vff_P[1][2];
 548              		.loc 1 143 0
 549 00ca 3946     		mov	r1, r7
 550 00cc 4046     		mov	r0, r8
 551              	.LVL40:
 552 00ce FFF7FEFF 		bl	__aeabi_fmul
 553              	.LVL41:
 554 00d2 6169     		ldr	r1, [r4, #20]	@ float
 555 00d4 FFF7FEFF 		bl	__aeabi_fadd
 144:subsystems/ins/vf_float.c ****   const float P31 = -K3 * vff_P[0][0] + vff_P[2][0];
 556              		.loc 1 144 0
 557 00d8 09F10049 		add	r9, r9, #-2147483648
 558              	.LVL42:
 143:subsystems/ins/vf_float.c ****   const float P23 = -K2 * vff_P[0][2] + vff_P[1][2];
 559              		.loc 1 143 0
 560 00dc 0790     		str	r0, [sp, #28]	@ float
 561              	.LVL43:
 145:subsystems/ins/vf_float.c ****   const float P32 = -K3 * vff_P[0][1] + vff_P[2][1];
 562              		.loc 1 145 0
 563 00de 3146     		mov	r1, r6
 564 00e0 4846     		mov	r0, r9
 565              	.LVL44:
 566 00e2 FFF7FEFF 		bl	__aeabi_fmul
 567 00e6 E169     		ldr	r1, [r4, #28]	@ float
 568 00e8 FFF7FEFF 		bl	__aeabi_fadd
 146:subsystems/ins/vf_float.c ****   const float P33 = -K3 * vff_P[0][2] + vff_P[2][2];
 569              		.loc 1 146 0
 570 00ec 3946     		mov	r1, r7
 145:subsystems/ins/vf_float.c ****   const float P32 = -K3 * vff_P[0][1] + vff_P[2][1];
 571              		.loc 1 145 0
 572 00ee 8246     		mov	sl, r0
 573              	.LVL45:
 146:subsystems/ins/vf_float.c ****   const float P33 = -K3 * vff_P[0][2] + vff_P[2][2];
 574              		.loc 1 146 0
 575 00f0 4846     		mov	r0, r9
 576              	.LVL46:
 577 00f2 FFF7FEFF 		bl	__aeabi_fmul
 578 00f6 216A     		ldr	r1, [r4, #32]	@ float
 579 00f8 FFF7FEFF 		bl	__aeabi_fadd
 580 00fc 8346     		mov	fp, r0
 581              	.LVL47:
 138:subsystems/ins/vf_float.c ****   const float P11 = (1. - K1) * vff_P[0][0];
 582              		.loc 1 138 0
 583 00fe 2846     		mov	r0, r5
 584              	.LVL48:
 585 0100 FFF7FEFF 		bl	__aeabi_f2d
 586 0104 0246     		mov	r2, r0
 587 0106 0B46     		mov	r3, r1
 588 0108 DDE90201 		ldrd	r0, [sp, #8]
 589 010c FFF7FEFF 		bl	__aeabi_dmul
 590 0110 FFF7FEFF 		bl	__aeabi_d2f
 591 0114 2060     		str	r0, [r4, #0]	@ float
 139:subsystems/ins/vf_float.c ****   const float P12 = (1. - K1) * vff_P[0][1];
 592              		.loc 1 139 0
 593 0116 3046     		mov	r0, r6
 594 0118 FFF7FEFF 		bl	__aeabi_f2d
 595 011c 0246     		mov	r2, r0
 596 011e 0B46     		mov	r3, r1
 597 0120 DDE90201 		ldrd	r0, [sp, #8]
 598 0124 FFF7FEFF 		bl	__aeabi_dmul
 599 0128 FFF7FEFF 		bl	__aeabi_d2f
 600 012c 6060     		str	r0, [r4, #4]	@ float
 140:subsystems/ins/vf_float.c ****   const float P13 = (1. - K1) * vff_P[0][2];
 601              		.loc 1 140 0
 602 012e 3846     		mov	r0, r7
 603 0130 FFF7FEFF 		bl	__aeabi_f2d
 604 0134 0246     		mov	r2, r0
 605 0136 0B46     		mov	r3, r1
 606 0138 DDE90201 		ldrd	r0, [sp, #8]
 607 013c FFF7FEFF 		bl	__aeabi_dmul
 608 0140 FFF7FEFF 		bl	__aeabi_d2f
 141:subsystems/ins/vf_float.c ****   const float P21 = -K2 * vff_P[0][0] + vff_P[1][0];
 609              		.loc 1 141 0
 610 0144 2946     		mov	r1, r5
 140:subsystems/ins/vf_float.c ****   const float P13 = (1. - K1) * vff_P[0][2];
 611              		.loc 1 140 0
 612 0146 A060     		str	r0, [r4, #8]	@ float
 141:subsystems/ins/vf_float.c ****   const float P21 = -K2 * vff_P[0][0] + vff_P[1][0];
 613              		.loc 1 141 0
 614 0148 4046     		mov	r0, r8
 615 014a FFF7FEFF 		bl	__aeabi_fmul
 616 014e DDF804C0 		ldr	ip, [sp, #4]
 617 0152 6146     		mov	r1, ip
 618 0154 FFF7FEFF 		bl	__aeabi_fadd
 152:subsystems/ins/vf_float.c ****   vff_P[1][1] = P22;
 619              		.loc 1 152 0
 620 0158 069B     		ldr	r3, [sp, #24]	@ float
 151:subsystems/ins/vf_float.c ****   vff_P[1][0] = P21;
 621              		.loc 1 151 0
 622 015a E060     		str	r0, [r4, #12]	@ float
 152:subsystems/ins/vf_float.c ****   vff_P[1][1] = P22;
 623              		.loc 1 152 0
 624 015c 2361     		str	r3, [r4, #16]	@ float
 153:subsystems/ins/vf_float.c ****   vff_P[1][2] = P23;
 625              		.loc 1 153 0
 626 015e 079B     		ldr	r3, [sp, #28]	@ float
 144:subsystems/ins/vf_float.c ****   const float P31 = -K3 * vff_P[0][0] + vff_P[2][0];
 627              		.loc 1 144 0
 628 0160 2946     		mov	r1, r5
 629 0162 4846     		mov	r0, r9
 153:subsystems/ins/vf_float.c ****   vff_P[1][2] = P23;
 630              		.loc 1 153 0
 631 0164 6361     		str	r3, [r4, #20]	@ float
 144:subsystems/ins/vf_float.c ****   const float P31 = -K3 * vff_P[0][0] + vff_P[2][0];
 632              		.loc 1 144 0
 633 0166 FFF7FEFF 		bl	__aeabi_fmul
 634 016a 0599     		ldr	r1, [sp, #20]	@ float
 635 016c FFF7FEFF 		bl	__aeabi_fadd
 155:subsystems/ins/vf_float.c ****   vff_P[2][1] = P32;
 636              		.loc 1 155 0
 637 0170 C4F81CA0 		str	sl, [r4, #28]	@ float
 154:subsystems/ins/vf_float.c ****   vff_P[2][0] = P31;
 638              		.loc 1 154 0
 639 0174 A061     		str	r0, [r4, #24]	@ float
 156:subsystems/ins/vf_float.c ****   vff_P[2][2] = P33;
 640              		.loc 1 156 0
 641 0176 C4F820B0 		str	fp, [r4, #32]	@ float
 642              	.LBE10:
 643              	.LBE11:
 161:subsystems/ins/vf_float.c ****   update_z_conf(z_meas, R);
 162:subsystems/ins/vf_float.c **** }
 644              		.loc 1 162 0
 645 017a 09B0     		add	sp, sp, #36
 646 017c BDE8F08F 		pop	{r4, r5, r6, r7, r8, r9, sl, fp, pc}
 647              	.L9:
 648              		.align	2
 649              	.L8:
 650 0180 00000000 		.word	.LANCHOR5
 651 0184 00000000 		.word	.LANCHOR3
 652 0188 0000F03F 		.word	1072693248
 653 018c 00000000 		.word	.LANCHOR0
 654 0190 00000000 		.word	.LANCHOR1
 655 0194 00000000 		.word	.LANCHOR2
 656              		.cfi_endproc
 657              	.LFE3:
 659              		.section	.text.vff_update_z_conf,"ax",%progbits
 660              		.align	1
 661              		.global	vff_update_z_conf
 662              		.thumb
 663              		.thumb_func
 665              	vff_update_z_conf:
 666              	.LFB4:
 163:subsystems/ins/vf_float.c **** 
 164:subsystems/ins/vf_float.c **** void vff_update_z_conf(float z_meas, float conf) {
 667              		.loc 1 164 0
 668              		.cfi_startproc
 669              		@ args = 0, pretend = 0, frame = 32
 670              		@ frame_needed = 0, uses_anonymous_args = 0
 671              	.LVL49:
 672 0000 2DE9F04F 		push	{r4, r5, r6, r7, r8, r9, sl, fp, lr}
 673              	.LCFI4:
 674              		.cfi_def_cfa_offset 36
 675              		.cfi_offset 14, -4
 676              		.cfi_offset 11, -8
 677              		.cfi_offset 10, -12
 678              		.cfi_offset 9, -16
 679              		.cfi_offset 8, -20
 680              		.cfi_offset 7, -24
 681              		.cfi_offset 6, -28
 682              		.cfi_offset 5, -32
 683              		.cfi_offset 4, -36
 684              	.LBB12:
 685              	.LBB13:
 128:subsystems/ins/vf_float.c ****   const float y = z_meas - vff_z;
 686              		.loc 1 128 0
 687 0004 DFF884A1 		ldr	sl, .L11+12
 126:subsystems/ins/vf_float.c ****   vff_z_meas = z_meas;
 688              		.loc 1 126 0
 689 0008 5D4B     		ldr	r3, .L11
 128:subsystems/ins/vf_float.c ****   const float y = z_meas - vff_z;
 690              		.loc 1 128 0
 691 000a DAF800B0 		ldr	fp, [sl, #0]	@ float
 692              	.LBE13:
 693              	.LBE12:
 694              		.loc 1 164 0
 695 000e 89B0     		sub	sp, sp, #36
 696              	.LCFI5:
 697              		.cfi_def_cfa_offset 72
 698              	.LBB16:
 699              	.LBB14:
 126:subsystems/ins/vf_float.c ****   vff_z_meas = z_meas;
 700              		.loc 1 126 0
 701 0010 1860     		str	r0, [r3, #0]	@ float
 702              	.LBE14:
 703              	.LBE16:
 704              		.loc 1 164 0
 705 0012 0F46     		mov	r7, r1
 706              	.LVL50:
 707              	.LBB17:
 708              	.LBB15:
 128:subsystems/ins/vf_float.c ****   const float y = z_meas - vff_z;
 709              		.loc 1 128 0
 710 0014 5946     		mov	r1, fp
 711              	.LVL51:
 712 0016 FFF7FEFF 		bl	__aeabi_fsub
 713              	.LVL52:
 129:subsystems/ins/vf_float.c ****   const float S = vff_P[0][0] + conf;
 714              		.loc 1 129 0
 715 001a 5A4C     		ldr	r4, .L11+4
 128:subsystems/ins/vf_float.c ****   const float y = z_meas - vff_z;
 716              		.loc 1 128 0
 717 001c 0646     		mov	r6, r0
 718              	.LVL53:
 129:subsystems/ins/vf_float.c ****   const float S = vff_P[0][0] + conf;
 719              		.loc 1 129 0
 720 001e 2568     		ldr	r5, [r4, #0]	@ float
 721 0020 3946     		mov	r1, r7
 722 0022 2846     		mov	r0, r5
 723              	.LVL54:
 724 0024 FFF7FEFF 		bl	__aeabi_fadd
 725 0028 8146     		mov	r9, r0
 726              	.LVL55:
 130:subsystems/ins/vf_float.c ****   const float K1 = vff_P[0][0] * 1/S;
 727              		.loc 1 130 0
 728 002a 4946     		mov	r1, r9
 729 002c 2846     		mov	r0, r5
 730              	.LVL56:
 731 002e FFF7FEFF 		bl	__aeabi_fdiv
 732              	.LVL57:
 131:subsystems/ins/vf_float.c ****   const float K2 = vff_P[1][0] * 1/S;
 733              		.loc 1 131 0
 734 0032 D4F80CC0 		ldr	ip, [r4, #12]	@ float
 130:subsystems/ins/vf_float.c ****   const float K1 = vff_P[0][0] * 1/S;
 735              		.loc 1 130 0
 736 0036 0746     		mov	r7, r0
 737              	.LVL58:
 131:subsystems/ins/vf_float.c ****   const float K2 = vff_P[1][0] * 1/S;
 738              		.loc 1 131 0
 739 0038 4946     		mov	r1, r9
 740 003a 6046     		mov	r0, ip
 741              	.LVL59:
 742 003c CDF804C0 		str	ip, [sp, #4]
 743 0040 FFF7FEFF 		bl	__aeabi_fdiv
 132:subsystems/ins/vf_float.c ****   const float K3 = vff_P[2][0] * 1/S;
 744              		.loc 1 132 0
 745 0044 A369     		ldr	r3, [r4, #24]	@ float
 131:subsystems/ins/vf_float.c ****   const float K2 = vff_P[1][0] * 1/S;
 746              		.loc 1 131 0
 747 0046 8046     		mov	r8, r0
 748              	.LVL60:
 132:subsystems/ins/vf_float.c ****   const float K3 = vff_P[2][0] * 1/S;
 749              		.loc 1 132 0
 750 0048 4946     		mov	r1, r9
 751 004a 1846     		mov	r0, r3
 752              	.LVL61:
 753 004c 0593     		str	r3, [sp, #20]	@ float
 754 004e FFF7FEFF 		bl	__aeabi_fdiv
 134:subsystems/ins/vf_float.c ****   vff_z    = vff_z    + K1 * y;
 755              		.loc 1 134 0
 756 0052 3146     		mov	r1, r6
 132:subsystems/ins/vf_float.c ****   const float K3 = vff_P[2][0] * 1/S;
 757              		.loc 1 132 0
 758 0054 8146     		mov	r9, r0
 759              	.LVL62:
 134:subsystems/ins/vf_float.c ****   vff_z    = vff_z    + K1 * y;
 760              		.loc 1 134 0
 761 0056 3846     		mov	r0, r7
 762              	.LVL63:
 763 0058 FFF7FEFF 		bl	__aeabi_fmul
 764 005c 0146     		mov	r1, r0
 765 005e 5846     		mov	r0, fp
 766 0060 FFF7FEFF 		bl	__aeabi_fadd
 135:subsystems/ins/vf_float.c ****   vff_zdot = vff_zdot + K2 * y;
 767              		.loc 1 135 0
 768 0064 3146     		mov	r1, r6
 134:subsystems/ins/vf_float.c ****   vff_z    = vff_z    + K1 * y;
 769              		.loc 1 134 0
 770 0066 CAF80000 		str	r0, [sl, #0]	@ float
 135:subsystems/ins/vf_float.c ****   vff_zdot = vff_zdot + K2 * y;
 771              		.loc 1 135 0
 772 006a 4046     		mov	r0, r8
 773 006c FFF7FEFF 		bl	__aeabi_fmul
 774 0070 DFF81CA1 		ldr	sl, .L11+16
 775 0074 0146     		mov	r1, r0
 776 0076 DAF80000 		ldr	r0, [sl, #0]	@ float
 777 007a FFF7FEFF 		bl	__aeabi_fadd
 136:subsystems/ins/vf_float.c ****   vff_bias = vff_bias + K3 * y;
 778              		.loc 1 136 0
 779 007e 3146     		mov	r1, r6
 135:subsystems/ins/vf_float.c ****   vff_zdot = vff_zdot + K2 * y;
 780              		.loc 1 135 0
 781 0080 CAF80000 		str	r0, [sl, #0]	@ float
 136:subsystems/ins/vf_float.c ****   vff_bias = vff_bias + K3 * y;
 782              		.loc 1 136 0
 783 0084 4846     		mov	r0, r9
 784 0086 FFF7FEFF 		bl	__aeabi_fmul
 785 008a DFF808A1 		ldr	sl, .L11+20
 786 008e 0146     		mov	r1, r0
 787 0090 DAF80000 		ldr	r0, [sl, #0]	@ float
 788 0094 FFF7FEFF 		bl	__aeabi_fadd
 789 0098 CAF80000 		str	r0, [sl, #0]	@ float
 138:subsystems/ins/vf_float.c ****   const float P11 = (1. - K1) * vff_P[0][0];
 790              		.loc 1 138 0
 791 009c 3846     		mov	r0, r7
 792 009e FFF7FEFF 		bl	__aeabi_f2d
 793 00a2 0246     		mov	r2, r0
 794 00a4 0B46     		mov	r3, r1
 795 00a6 0020     		movs	r0, #0
 796 00a8 3749     		ldr	r1, .L11+8
 797 00aa FFF7FEFF 		bl	__aeabi_dsub
 139:subsystems/ins/vf_float.c ****   const float P12 = (1. - K1) * vff_P[0][1];
 798              		.loc 1 139 0
 799 00ae 6668     		ldr	r6, [r4, #4]	@ float
 800              	.LVL64:
 141:subsystems/ins/vf_float.c ****   const float P21 = -K2 * vff_P[0][0] + vff_P[1][0];
 801              		.loc 1 141 0
 802 00b0 08F10048 		add	r8, r8, #-2147483648
 803              	.LVL65:
 138:subsystems/ins/vf_float.c ****   const float P11 = (1. - K1) * vff_P[0][0];
 804              		.loc 1 138 0
 805 00b4 CDE90201 		strd	r0, [sp, #8]
 806              	.LVL66:
 142:subsystems/ins/vf_float.c ****   const float P22 = -K2 * vff_P[0][1] + vff_P[1][1];
 807              		.loc 1 142 0
 808 00b8 3146     		mov	r1, r6
 809 00ba 4046     		mov	r0, r8
 810              	.LVL67:
 811 00bc FFF7FEFF 		bl	__aeabi_fmul
 812              	.LVL68:
 813 00c0 2169     		ldr	r1, [r4, #16]	@ float
 814 00c2 FFF7FEFF 		bl	__aeabi_fadd
 140:subsystems/ins/vf_float.c ****   const float P13 = (1. - K1) * vff_P[0][2];
 815              		.loc 1 140 0
 816 00c6 A768     		ldr	r7, [r4, #8]	@ float
 817              	.LVL69:
 142:subsystems/ins/vf_float.c ****   const float P22 = -K2 * vff_P[0][1] + vff_P[1][1];
 818              		.loc 1 142 0
 819 00c8 0690     		str	r0, [sp, #24]	@ float
 820              	.LVL70:
 143:subsystems/ins/vf_float.c ****   const float P23 = -K2 * vff_P[0][2] + vff_P[1][2];
 821              		.loc 1 143 0
 822 00ca 3946     		mov	r1, r7
 823 00cc 4046     		mov	r0, r8
 824              	.LVL71:
 825 00ce FFF7FEFF 		bl	__aeabi_fmul
 826              	.LVL72:
 827 00d2 6169     		ldr	r1, [r4, #20]	@ float
 828 00d4 FFF7FEFF 		bl	__aeabi_fadd
 144:subsystems/ins/vf_float.c ****   const float P31 = -K3 * vff_P[0][0] + vff_P[2][0];
 829              		.loc 1 144 0
 830 00d8 09F10049 		add	r9, r9, #-2147483648
 831              	.LVL73:
 143:subsystems/ins/vf_float.c ****   const float P23 = -K2 * vff_P[0][2] + vff_P[1][2];
 832              		.loc 1 143 0
 833 00dc 0790     		str	r0, [sp, #28]	@ float
 834              	.LVL74:
 145:subsystems/ins/vf_float.c ****   const float P32 = -K3 * vff_P[0][1] + vff_P[2][1];
 835              		.loc 1 145 0
 836 00de 3146     		mov	r1, r6
 837 00e0 4846     		mov	r0, r9
 838              	.LVL75:
 839 00e2 FFF7FEFF 		bl	__aeabi_fmul
 840 00e6 E169     		ldr	r1, [r4, #28]	@ float
 841 00e8 FFF7FEFF 		bl	__aeabi_fadd
 146:subsystems/ins/vf_float.c ****   const float P33 = -K3 * vff_P[0][2] + vff_P[2][2];
 842              		.loc 1 146 0
 843 00ec 3946     		mov	r1, r7
 145:subsystems/ins/vf_float.c ****   const float P32 = -K3 * vff_P[0][1] + vff_P[2][1];
 844              		.loc 1 145 0
 845 00ee 8246     		mov	sl, r0
 846              	.LVL76:
 146:subsystems/ins/vf_float.c ****   const float P33 = -K3 * vff_P[0][2] + vff_P[2][2];
 847              		.loc 1 146 0
 848 00f0 4846     		mov	r0, r9
 849              	.LVL77:
 850 00f2 FFF7FEFF 		bl	__aeabi_fmul
 851 00f6 216A     		ldr	r1, [r4, #32]	@ float
 852 00f8 FFF7FEFF 		bl	__aeabi_fadd
 853 00fc 8346     		mov	fp, r0
 854              	.LVL78:
 138:subsystems/ins/vf_float.c ****   const float P11 = (1. - K1) * vff_P[0][0];
 855              		.loc 1 138 0
 856 00fe 2846     		mov	r0, r5
 857              	.LVL79:
 858 0100 FFF7FEFF 		bl	__aeabi_f2d
 859 0104 0246     		mov	r2, r0
 860 0106 0B46     		mov	r3, r1
 861 0108 DDE90201 		ldrd	r0, [sp, #8]
 862 010c FFF7FEFF 		bl	__aeabi_dmul
 863 0110 FFF7FEFF 		bl	__aeabi_d2f
 864 0114 2060     		str	r0, [r4, #0]	@ float
 139:subsystems/ins/vf_float.c ****   const float P12 = (1. - K1) * vff_P[0][1];
 865              		.loc 1 139 0
 866 0116 3046     		mov	r0, r6
 867 0118 FFF7FEFF 		bl	__aeabi_f2d
 868 011c 0246     		mov	r2, r0
 869 011e 0B46     		mov	r3, r1
 870 0120 DDE90201 		ldrd	r0, [sp, #8]
 871 0124 FFF7FEFF 		bl	__aeabi_dmul
 872 0128 FFF7FEFF 		bl	__aeabi_d2f
 873 012c 6060     		str	r0, [r4, #4]	@ float
 140:subsystems/ins/vf_float.c ****   const float P13 = (1. - K1) * vff_P[0][2];
 874              		.loc 1 140 0
 875 012e 3846     		mov	r0, r7
 876 0130 FFF7FEFF 		bl	__aeabi_f2d
 877 0134 0246     		mov	r2, r0
 878 0136 0B46     		mov	r3, r1
 879 0138 DDE90201 		ldrd	r0, [sp, #8]
 880 013c FFF7FEFF 		bl	__aeabi_dmul
 881 0140 FFF7FEFF 		bl	__aeabi_d2f
 141:subsystems/ins/vf_float.c ****   const float P21 = -K2 * vff_P[0][0] + vff_P[1][0];
 882              		.loc 1 141 0
 883 0144 2946     		mov	r1, r5
 140:subsystems/ins/vf_float.c ****   const float P13 = (1. - K1) * vff_P[0][2];
 884              		.loc 1 140 0
 885 0146 A060     		str	r0, [r4, #8]	@ float
 141:subsystems/ins/vf_float.c ****   const float P21 = -K2 * vff_P[0][0] + vff_P[1][0];
 886              		.loc 1 141 0
 887 0148 4046     		mov	r0, r8
 888 014a FFF7FEFF 		bl	__aeabi_fmul
 889 014e DDF804C0 		ldr	ip, [sp, #4]
 890 0152 6146     		mov	r1, ip
 891 0154 FFF7FEFF 		bl	__aeabi_fadd
 152:subsystems/ins/vf_float.c ****   vff_P[1][1] = P22;
 892              		.loc 1 152 0
 893 0158 069B     		ldr	r3, [sp, #24]	@ float
 151:subsystems/ins/vf_float.c ****   vff_P[1][0] = P21;
 894              		.loc 1 151 0
 895 015a E060     		str	r0, [r4, #12]	@ float
 152:subsystems/ins/vf_float.c ****   vff_P[1][1] = P22;
 896              		.loc 1 152 0
 897 015c 2361     		str	r3, [r4, #16]	@ float
 153:subsystems/ins/vf_float.c ****   vff_P[1][2] = P23;
 898              		.loc 1 153 0
 899 015e 079B     		ldr	r3, [sp, #28]	@ float
 144:subsystems/ins/vf_float.c ****   const float P31 = -K3 * vff_P[0][0] + vff_P[2][0];
 900              		.loc 1 144 0
 901 0160 2946     		mov	r1, r5
 902 0162 4846     		mov	r0, r9
 153:subsystems/ins/vf_float.c ****   vff_P[1][2] = P23;
 903              		.loc 1 153 0
 904 0164 6361     		str	r3, [r4, #20]	@ float
 144:subsystems/ins/vf_float.c ****   const float P31 = -K3 * vff_P[0][0] + vff_P[2][0];
 905              		.loc 1 144 0
 906 0166 FFF7FEFF 		bl	__aeabi_fmul
 907 016a 0599     		ldr	r1, [sp, #20]	@ float
 908 016c FFF7FEFF 		bl	__aeabi_fadd
 155:subsystems/ins/vf_float.c ****   vff_P[2][1] = P32;
 909              		.loc 1 155 0
 910 0170 C4F81CA0 		str	sl, [r4, #28]	@ float
 154:subsystems/ins/vf_float.c ****   vff_P[2][0] = P31;
 911              		.loc 1 154 0
 912 0174 A061     		str	r0, [r4, #24]	@ float
 156:subsystems/ins/vf_float.c ****   vff_P[2][2] = P33;
 913              		.loc 1 156 0
 914 0176 C4F820B0 		str	fp, [r4, #32]	@ float
 915              	.LBE15:
 916              	.LBE17:
 165:subsystems/ins/vf_float.c ****   update_z_conf(z_meas, conf);
 166:subsystems/ins/vf_float.c **** }
 917              		.loc 1 166 0
 918 017a 09B0     		add	sp, sp, #36
 919 017c BDE8F08F 		pop	{r4, r5, r6, r7, r8, r9, sl, fp, pc}
 920              	.L12:
 921              		.align	2
 922              	.L11:
 923 0180 00000000 		.word	.LANCHOR5
 924 0184 00000000 		.word	.LANCHOR3
 925 0188 0000F03F 		.word	1072693248
 926 018c 00000000 		.word	.LANCHOR0
 927 0190 00000000 		.word	.LANCHOR1
 928 0194 00000000 		.word	.LANCHOR2
 929              		.cfi_endproc
 930              	.LFE4:
 932              		.section	.text.vff_update_vz_conf,"ax",%progbits
 933              		.align	1
 934              		.global	vff_update_vz_conf
 935              		.thumb
 936              		.thumb_func
 938              	vff_update_vz_conf:
 939              	.LFB6:
 167:subsystems/ins/vf_float.c **** 
 168:subsystems/ins/vf_float.c **** /*
 169:subsystems/ins/vf_float.c ****   H = [0 1 0];
 170:subsystems/ins/vf_float.c ****   R = 0.1;
 171:subsystems/ins/vf_float.c ****   // state residual
 172:subsystems/ins/vf_float.c ****   yd = vz - H * Xm;
 173:subsystems/ins/vf_float.c ****   // covariance residual
 174:subsystems/ins/vf_float.c ****   S = H*Pm*H' + R;
 175:subsystems/ins/vf_float.c ****   // kalman gain
 176:subsystems/ins/vf_float.c ****   K = Pm*H'*inv(S);
 177:subsystems/ins/vf_float.c ****   // update state
 178:subsystems/ins/vf_float.c ****   Xp = Xm + K*yd;
 179:subsystems/ins/vf_float.c ****   // update covariance
 180:subsystems/ins/vf_float.c ****   Pp = Pm - K*H*Pm;
 181:subsystems/ins/vf_float.c **** */
 182:subsystems/ins/vf_float.c **** __attribute__ ((always_inline)) static inline void update_vz_conf(float vz, float conf) {
 183:subsystems/ins/vf_float.c ****   const float yd = vz - vff_zdot;
 184:subsystems/ins/vf_float.c ****   const float S = vff_P[1][1] + conf;
 185:subsystems/ins/vf_float.c ****   const float K1 = vff_P[0][1] * 1/S;
 186:subsystems/ins/vf_float.c ****   const float K2 = vff_P[1][1] * 1/S;
 187:subsystems/ins/vf_float.c ****   const float K3 = vff_P[2][1] * 1/S;
 188:subsystems/ins/vf_float.c **** 
 189:subsystems/ins/vf_float.c ****   vff_z    = vff_z    + K1 * yd;
 190:subsystems/ins/vf_float.c ****   vff_zdot = vff_zdot + K2 * yd;
 191:subsystems/ins/vf_float.c ****   vff_bias = vff_bias + K3 * yd;
 192:subsystems/ins/vf_float.c **** 
 193:subsystems/ins/vf_float.c ****   const float P11 = -K1 * vff_P[1][0] + vff_P[0][0];
 194:subsystems/ins/vf_float.c ****   const float P12 = -K1 * vff_P[1][1] + vff_P[0][1];
 195:subsystems/ins/vf_float.c ****   const float P13 = -K1 * vff_P[1][2] + vff_P[0][2];
 196:subsystems/ins/vf_float.c ****   const float P21 = (1. - K2) * vff_P[1][0];
 197:subsystems/ins/vf_float.c ****   const float P22 = (1. - K2) * vff_P[1][1];
 198:subsystems/ins/vf_float.c ****   const float P23 = (1. - K2) * vff_P[1][2];
 199:subsystems/ins/vf_float.c ****   const float P31 = -K3 * vff_P[1][0] + vff_P[2][0];
 200:subsystems/ins/vf_float.c ****   const float P32 = -K3 * vff_P[1][1] + vff_P[2][1];
 201:subsystems/ins/vf_float.c ****   const float P33 = -K3 * vff_P[1][2] + vff_P[2][2];
 202:subsystems/ins/vf_float.c **** 
 203:subsystems/ins/vf_float.c ****   vff_P[0][0] = P11;
 204:subsystems/ins/vf_float.c ****   vff_P[0][1] = P12;
 205:subsystems/ins/vf_float.c ****   vff_P[0][2] = P13;
 206:subsystems/ins/vf_float.c ****   vff_P[1][0] = P21;
 207:subsystems/ins/vf_float.c ****   vff_P[1][1] = P22;
 208:subsystems/ins/vf_float.c ****   vff_P[1][2] = P23;
 209:subsystems/ins/vf_float.c ****   vff_P[2][0] = P31;
 210:subsystems/ins/vf_float.c ****   vff_P[2][1] = P32;
 211:subsystems/ins/vf_float.c ****   vff_P[2][2] = P33;
 212:subsystems/ins/vf_float.c **** 
 213:subsystems/ins/vf_float.c **** }
 214:subsystems/ins/vf_float.c **** 
 215:subsystems/ins/vf_float.c **** void vff_update_vz_conf(float vz_meas, float conf) {
 940              		.loc 1 215 0
 941              		.cfi_startproc
 942              		@ args = 0, pretend = 0, frame = 24
 943              		@ frame_needed = 0, uses_anonymous_args = 0
 944              	.LVL80:
 945 0000 2DE9F04F 		push	{r4, r5, r6, r7, r8, r9, sl, fp, lr}
 946              	.LCFI6:
 947              		.cfi_def_cfa_offset 36
 948              		.cfi_offset 14, -4
 949              		.cfi_offset 11, -8
 950              		.cfi_offset 10, -12
 951              		.cfi_offset 9, -16
 952              		.cfi_offset 8, -20
 953              		.cfi_offset 7, -24
 954              		.cfi_offset 6, -28
 955              		.cfi_offset 5, -32
 956              		.cfi_offset 4, -36
 957              	.LBB18:
 958              	.LBB19:
 183:subsystems/ins/vf_float.c ****   const float yd = vz - vff_zdot;
 959              		.loc 1 183 0
 960 0004 DFF87C81 		ldr	r8, .L14+8
 961              	.LBE19:
 962              	.LBE18:
 963              		.loc 1 215 0
 964 0008 87B0     		sub	sp, sp, #28
 965              	.LCFI7:
 966              		.cfi_def_cfa_offset 64
 967              	.LBB22:
 968              	.LBB20:
 183:subsystems/ins/vf_float.c ****   const float yd = vz - vff_zdot;
 969              		.loc 1 183 0
 970 000a D8F800A0 		ldr	sl, [r8, #0]	@ float
 971              	.LBE20:
 972              	.LBE22:
 973              		.loc 1 215 0
 974 000e 0E46     		mov	r6, r1
 975              	.LVL81:
 976              	.LBB23:
 977              	.LBB21:
 183:subsystems/ins/vf_float.c ****   const float yd = vz - vff_zdot;
 978              		.loc 1 183 0
 979 0010 5146     		mov	r1, sl
 980              	.LVL82:
 981 0012 FFF7FEFF 		bl	__aeabi_fsub
 982              	.LVL83:
 184:subsystems/ins/vf_float.c ****   const float S = vff_P[1][1] + conf;
 983              		.loc 1 184 0
 984 0016 594C     		ldr	r4, .L14
 183:subsystems/ins/vf_float.c ****   const float yd = vz - vff_zdot;
 985              		.loc 1 183 0
 986 0018 0746     		mov	r7, r0
 987              	.LVL84:
 184:subsystems/ins/vf_float.c ****   const float S = vff_P[1][1] + conf;
 988              		.loc 1 184 0
 989 001a 2569     		ldr	r5, [r4, #16]	@ float
 990 001c 3146     		mov	r1, r6
 991 001e 2846     		mov	r0, r5
 992              	.LVL85:
 993 0020 FFF7FEFF 		bl	__aeabi_fadd
 185:subsystems/ins/vf_float.c ****   const float K1 = vff_P[0][1] * 1/S;
 994              		.loc 1 185 0
 995 0024 D4F804C0 		ldr	ip, [r4, #4]	@ float
 184:subsystems/ins/vf_float.c ****   const float S = vff_P[1][1] + conf;
 996              		.loc 1 184 0
 997 0028 8346     		mov	fp, r0
 998              	.LVL86:
 185:subsystems/ins/vf_float.c ****   const float K1 = vff_P[0][1] * 1/S;
 999              		.loc 1 185 0
 1000 002a 5946     		mov	r1, fp
 1001 002c 6046     		mov	r0, ip
 1002              	.LVL87:
 1003 002e CDF804C0 		str	ip, [sp, #4]
 1004 0032 FFF7FEFF 		bl	__aeabi_fdiv
 1005              	.LVL88:
 186:subsystems/ins/vf_float.c ****   const float K2 = vff_P[1][1] * 1/S;
 1006              		.loc 1 186 0
 1007 0036 5946     		mov	r1, fp
 185:subsystems/ins/vf_float.c ****   const float K1 = vff_P[0][1] * 1/S;
 1008              		.loc 1 185 0
 1009 0038 0646     		mov	r6, r0
 1010              	.LVL89:
 186:subsystems/ins/vf_float.c ****   const float K2 = vff_P[1][1] * 1/S;
 1011              		.loc 1 186 0
 1012 003a 2846     		mov	r0, r5
 1013              	.LVL90:
 1014 003c FFF7FEFF 		bl	__aeabi_fdiv
 187:subsystems/ins/vf_float.c ****   const float K3 = vff_P[2][1] * 1/S;
 1015              		.loc 1 187 0
 1016 0040 E369     		ldr	r3, [r4, #28]	@ float
 186:subsystems/ins/vf_float.c ****   const float K2 = vff_P[1][1] * 1/S;
 1017              		.loc 1 186 0
 1018 0042 8146     		mov	r9, r0
 1019              	.LVL91:
 187:subsystems/ins/vf_float.c ****   const float K3 = vff_P[2][1] * 1/S;
 1020              		.loc 1 187 0
 1021 0044 5946     		mov	r1, fp
 1022 0046 1846     		mov	r0, r3
 1023              	.LVL92:
 1024 0048 0593     		str	r3, [sp, #20]	@ float
 1025 004a FFF7FEFF 		bl	__aeabi_fdiv
 189:subsystems/ins/vf_float.c ****   vff_z    = vff_z    + K1 * yd;
 1026              		.loc 1 189 0
 1027 004e 3946     		mov	r1, r7
 187:subsystems/ins/vf_float.c ****   const float K3 = vff_P[2][1] * 1/S;
 1028              		.loc 1 187 0
 1029 0050 0490     		str	r0, [sp, #16]	@ float
 1030              	.LVL93:
 189:subsystems/ins/vf_float.c ****   vff_z    = vff_z    + K1 * yd;
 1031              		.loc 1 189 0
 1032 0052 3046     		mov	r0, r6
 1033              	.LVL94:
 1034 0054 FFF7FEFF 		bl	__aeabi_fmul
 1035 0058 DFF82CB1 		ldr	fp, .L14+12
 1036              	.LVL95:
 1037 005c 0146     		mov	r1, r0
 1038 005e DBF80000 		ldr	r0, [fp, #0]	@ float
 1039 0062 FFF7FEFF 		bl	__aeabi_fadd
 190:subsystems/ins/vf_float.c ****   vff_zdot = vff_zdot + K2 * yd;
 1040              		.loc 1 190 0
 1041 0066 3946     		mov	r1, r7
 189:subsystems/ins/vf_float.c ****   vff_z    = vff_z    + K1 * yd;
 1042              		.loc 1 189 0
 1043 0068 CBF80000 		str	r0, [fp, #0]	@ float
 190:subsystems/ins/vf_float.c ****   vff_zdot = vff_zdot + K2 * yd;
 1044              		.loc 1 190 0
 1045 006c 4846     		mov	r0, r9
 1046 006e FFF7FEFF 		bl	__aeabi_fmul
 1047 0072 0146     		mov	r1, r0
 1048 0074 5046     		mov	r0, sl
 1049 0076 FFF7FEFF 		bl	__aeabi_fadd
 191:subsystems/ins/vf_float.c ****   vff_bias = vff_bias + K3 * yd;
 1050              		.loc 1 191 0
 1051 007a 3946     		mov	r1, r7
 190:subsystems/ins/vf_float.c ****   vff_zdot = vff_zdot + K2 * yd;
 1052              		.loc 1 190 0
 1053 007c C8F80000 		str	r0, [r8, #0]	@ float
 191:subsystems/ins/vf_float.c ****   vff_bias = vff_bias + K3 * yd;
 1054              		.loc 1 191 0
 1055 0080 0498     		ldr	r0, [sp, #16]	@ float
 1056 0082 FFF7FEFF 		bl	__aeabi_fmul
 1057 0086 DFF80481 		ldr	r8, .L14+16
 1058 008a 0146     		mov	r1, r0
 1059 008c D8F80000 		ldr	r0, [r8, #0]	@ float
 1060 0090 FFF7FEFF 		bl	__aeabi_fadd
 1061 0094 C8F80000 		str	r0, [r8, #0]	@ float
 195:subsystems/ins/vf_float.c ****   const float P13 = -K1 * vff_P[1][2] + vff_P[0][2];
 1062              		.loc 1 195 0
 1063 0098 D4F81480 		ldr	r8, [r4, #20]	@ float
 193:subsystems/ins/vf_float.c ****   const float P11 = -K1 * vff_P[1][0] + vff_P[0][0];
 1064              		.loc 1 193 0
 1065 009c 06F10046 		add	r6, r6, #-2147483648
 1066              	.LVL96:
 195:subsystems/ins/vf_float.c ****   const float P13 = -K1 * vff_P[1][2] + vff_P[0][2];
 1067              		.loc 1 195 0
 1068 00a0 4146     		mov	r1, r8
 1069 00a2 3046     		mov	r0, r6
 1070 00a4 FFF7FEFF 		bl	__aeabi_fmul
 1071 00a8 A168     		ldr	r1, [r4, #8]	@ float
 1072 00aa FFF7FEFF 		bl	__aeabi_fadd
 1073 00ae 8246     		mov	sl, r0
 196:subsystems/ins/vf_float.c ****   const float P21 = (1. - K2) * vff_P[1][0];
 1074              		.loc 1 196 0
 1075 00b0 4846     		mov	r0, r9
 1076 00b2 FFF7FEFF 		bl	__aeabi_f2d
 1077 00b6 0246     		mov	r2, r0
 1078 00b8 0B46     		mov	r3, r1
 1079 00ba 0020     		movs	r0, #0
 1080 00bc 3049     		ldr	r1, .L14+4
 1081 00be FFF7FEFF 		bl	__aeabi_dsub
 199:subsystems/ins/vf_float.c ****   const float P31 = -K3 * vff_P[1][0] + vff_P[2][0];
 1082              		.loc 1 199 0
 1083 00c2 049B     		ldr	r3, [sp, #16]
 193:subsystems/ins/vf_float.c ****   const float P11 = -K1 * vff_P[1][0] + vff_P[0][0];
 1084              		.loc 1 193 0
 1085 00c4 E768     		ldr	r7, [r4, #12]	@ float
 1086              	.LVL97:
 199:subsystems/ins/vf_float.c ****   const float P31 = -K3 * vff_P[1][0] + vff_P[2][0];
 1087              		.loc 1 199 0
 1088 00c6 03F10049 		add	r9, r3, #-2147483648
 1089              	.LVL98:
 196:subsystems/ins/vf_float.c ****   const float P21 = (1. - K2) * vff_P[1][0];
 1090              		.loc 1 196 0
 1091 00ca CDE90201 		strd	r0, [sp, #8]
 1092              	.LVL99:
 199:subsystems/ins/vf_float.c ****   const float P31 = -K3 * vff_P[1][0] + vff_P[2][0];
 1093              		.loc 1 199 0
 1094 00ce 3946     		mov	r1, r7
 1095 00d0 4846     		mov	r0, r9
 1096              	.LVL100:
 1097 00d2 FFF7FEFF 		bl	__aeabi_fmul
 1098              	.LVL101:
 1099 00d6 A169     		ldr	r1, [r4, #24]	@ float
 1100 00d8 FFF7FEFF 		bl	__aeabi_fadd
 201:subsystems/ins/vf_float.c ****   const float P33 = -K3 * vff_P[1][2] + vff_P[2][2];
 1101              		.loc 1 201 0
 1102 00dc 4146     		mov	r1, r8
 199:subsystems/ins/vf_float.c ****   const float P31 = -K3 * vff_P[1][0] + vff_P[2][0];
 1103              		.loc 1 199 0
 1104 00de 8346     		mov	fp, r0
 1105              	.LVL102:
 201:subsystems/ins/vf_float.c ****   const float P33 = -K3 * vff_P[1][2] + vff_P[2][2];
 1106              		.loc 1 201 0
 1107 00e0 4846     		mov	r0, r9
 1108              	.LVL103:
 1109 00e2 FFF7FEFF 		bl	__aeabi_fmul
 1110 00e6 216A     		ldr	r1, [r4, #32]	@ float
 1111 00e8 FFF7FEFF 		bl	__aeabi_fadd
 193:subsystems/ins/vf_float.c ****   const float P11 = -K1 * vff_P[1][0] + vff_P[0][0];
 1112              		.loc 1 193 0
 1113 00ec 3946     		mov	r1, r7
 201:subsystems/ins/vf_float.c ****   const float P33 = -K3 * vff_P[1][2] + vff_P[2][2];
 1114              		.loc 1 201 0
 1115 00ee 0490     		str	r0, [sp, #16]	@ float
 1116              	.LVL104:
 193:subsystems/ins/vf_float.c ****   const float P11 = -K1 * vff_P[1][0] + vff_P[0][0];
 1117              		.loc 1 193 0
 1118 00f0 3046     		mov	r0, r6
 1119              	.LVL105:
 1120 00f2 FFF7FEFF 		bl	__aeabi_fmul
 1121 00f6 2168     		ldr	r1, [r4, #0]	@ float
 1122              	.LVL106:
 1123 00f8 FFF7FEFF 		bl	__aeabi_fadd
 1124              	.LVL107:
 194:subsystems/ins/vf_float.c ****   const float P12 = -K1 * vff_P[1][1] + vff_P[0][1];
 1125              		.loc 1 194 0
 1126 00fc 2946     		mov	r1, r5
 203:subsystems/ins/vf_float.c ****   vff_P[0][0] = P11;
 1127              		.loc 1 203 0
 1128 00fe 2060     		str	r0, [r4, #0]	@ float
 194:subsystems/ins/vf_float.c ****   const float P12 = -K1 * vff_P[1][1] + vff_P[0][1];
 1129              		.loc 1 194 0
 1130 0100 3046     		mov	r0, r6
 1131 0102 FFF7FEFF 		bl	__aeabi_fmul
 1132 0106 DDF804C0 		ldr	ip, [sp, #4]
 1133 010a 6146     		mov	r1, ip
 1134 010c FFF7FEFF 		bl	__aeabi_fadd
 204:subsystems/ins/vf_float.c ****   vff_P[0][1] = P12;
 1135              		.loc 1 204 0
 1136 0110 6060     		str	r0, [r4, #4]	@ float
 196:subsystems/ins/vf_float.c ****   const float P21 = (1. - K2) * vff_P[1][0];
 1137              		.loc 1 196 0
 1138 0112 3846     		mov	r0, r7
 205:subsystems/ins/vf_float.c ****   vff_P[0][2] = P13;
 1139              		.loc 1 205 0
 1140 0114 C4F808A0 		str	sl, [r4, #8]	@ float
 196:subsystems/ins/vf_float.c ****   const float P21 = (1. - K2) * vff_P[1][0];
 1141              		.loc 1 196 0
 1142 0118 FFF7FEFF 		bl	__aeabi_f2d
 1143 011c 0246     		mov	r2, r0
 1144 011e 0B46     		mov	r3, r1
 1145 0120 DDE90201 		ldrd	r0, [sp, #8]
 1146 0124 FFF7FEFF 		bl	__aeabi_dmul
 1147 0128 FFF7FEFF 		bl	__aeabi_d2f
 1148 012c E060     		str	r0, [r4, #12]	@ float
 197:subsystems/ins/vf_float.c ****   const float P22 = (1. - K2) * vff_P[1][1];
 1149              		.loc 1 197 0
 1150 012e 2846     		mov	r0, r5
 1151 0130 FFF7FEFF 		bl	__aeabi_f2d
 1152 0134 0246     		mov	r2, r0
 1153 0136 0B46     		mov	r3, r1
 1154 0138 DDE90201 		ldrd	r0, [sp, #8]
 1155 013c FFF7FEFF 		bl	__aeabi_dmul
 1156 0140 FFF7FEFF 		bl	__aeabi_d2f
 1157 0144 2061     		str	r0, [r4, #16]	@ float
 198:subsystems/ins/vf_float.c ****   const float P23 = (1. - K2) * vff_P[1][2];
 1158              		.loc 1 198 0
 1159 0146 4046     		mov	r0, r8
 1160 0148 FFF7FEFF 		bl	__aeabi_f2d
 1161 014c 0B46     		mov	r3, r1
 1162 014e 0246     		mov	r2, r0
 1163 0150 DDE90201 		ldrd	r0, [sp, #8]
 1164 0154 FFF7FEFF 		bl	__aeabi_dmul
 1165 0158 FFF7FEFF 		bl	__aeabi_d2f
 200:subsystems/ins/vf_float.c ****   const float P32 = -K3 * vff_P[1][1] + vff_P[2][1];
 1166              		.loc 1 200 0
 1167 015c 2946     		mov	r1, r5
 198:subsystems/ins/vf_float.c ****   const float P23 = (1. - K2) * vff_P[1][2];
 1168              		.loc 1 198 0
 1169 015e 6061     		str	r0, [r4, #20]	@ float
 200:subsystems/ins/vf_float.c ****   const float P32 = -K3 * vff_P[1][1] + vff_P[2][1];
 1170              		.loc 1 200 0
 1171 0160 4846     		mov	r0, r9
 209:subsystems/ins/vf_float.c ****   vff_P[2][0] = P31;
 1172              		.loc 1 209 0
 1173 0162 C4F818B0 		str	fp, [r4, #24]	@ float
 200:subsystems/ins/vf_float.c ****   const float P32 = -K3 * vff_P[1][1] + vff_P[2][1];
 1174              		.loc 1 200 0
 1175 0166 FFF7FEFF 		bl	__aeabi_fmul
 1176 016a 0599     		ldr	r1, [sp, #20]	@ float
 1177 016c FFF7FEFF 		bl	__aeabi_fadd
 211:subsystems/ins/vf_float.c ****   vff_P[2][2] = P33;
 1178              		.loc 1 211 0
 1179 0170 049B     		ldr	r3, [sp, #16]	@ float
 210:subsystems/ins/vf_float.c ****   vff_P[2][1] = P32;
 1180              		.loc 1 210 0
 1181 0172 E061     		str	r0, [r4, #28]	@ float
 211:subsystems/ins/vf_float.c ****   vff_P[2][2] = P33;
 1182              		.loc 1 211 0
 1183 0174 2362     		str	r3, [r4, #32]	@ float
 1184              	.LBE21:
 1185              	.LBE23:
 216:subsystems/ins/vf_float.c ****   update_vz_conf(vz_meas, conf);
 217:subsystems/ins/vf_float.c **** }
 1186              		.loc 1 217 0
 1187 0176 07B0     		add	sp, sp, #28
 1188 0178 BDE8F08F 		pop	{r4, r5, r6, r7, r8, r9, sl, fp, pc}
 1189              	.L15:
 1190              		.align	2
 1191              	.L14:
 1192 017c 00000000 		.word	.LANCHOR3
 1193 0180 0000F03F 		.word	1072693248
 1194 0184 00000000 		.word	.LANCHOR1
 1195 0188 00000000 		.word	.LANCHOR0
 1196 018c 00000000 		.word	.LANCHOR2
 1197              		.cfi_endproc
 1198              	.LFE6:
 1200              		.section	.text.vff_realign,"ax",%progbits
 1201              		.align	1
 1202              		.global	vff_realign
 1203              		.thumb
 1204              		.thumb_func
 1206              	vff_realign:
 1207              	.LFB7:
 218:subsystems/ins/vf_float.c **** 
 219:subsystems/ins/vf_float.c **** void vff_realign(float z_meas) {
 1208              		.loc 1 219 0
 1209              		.cfi_startproc
 1210              		@ args = 0, pretend = 0, frame = 0
 1211              		@ frame_needed = 0, uses_anonymous_args = 0
 1212              		@ link register save eliminated.
 1213              	.LVL108:
 220:subsystems/ins/vf_float.c ****   vff_z = z_meas;
 1214              		.loc 1 220 0
 1215 0000 024B     		ldr	r3, .L17
 221:subsystems/ins/vf_float.c ****   vff_zdot = 0;
 1216              		.loc 1 221 0
 1217 0002 0022     		movs	r2, #0
 220:subsystems/ins/vf_float.c ****   vff_z = z_meas;
 1218              		.loc 1 220 0
 1219 0004 1860     		str	r0, [r3, #0]	@ float
 1220              		.loc 1 221 0
 1221 0006 024B     		ldr	r3, .L17+4
 1222 0008 1A60     		str	r2, [r3, #0]	@ float
 222:subsystems/ins/vf_float.c **** }
 1223              		.loc 1 222 0
 1224 000a 7047     		bx	lr
 1225              	.L18:
 1226              		.align	2
 1227              	.L17:
 1228 000c 00000000 		.word	.LANCHOR0
 1229 0010 00000000 		.word	.LANCHOR1
 1230              		.cfi_endproc
 1231              	.LFE7:
 1233              		.global	vff_z_meas
 1234              		.global	vff_P
 1235              		.global	vff_zdotdot
 1236              		.global	vff_zdot
 1237              		.global	vff_bias
 1238              		.global	vff_z
 1239              		.section	.bss.vff_bias,"aw",%nobits
 1240              		.align	2
 1241              		.set	.LANCHOR2,. + 0
 1244              	vff_bias:
 1245 0000 00000000 		.space	4
 1246              		.section	.bss.vff_P,"aw",%nobits
 1247              		.align	2
 1248              		.set	.LANCHOR3,. + 0
 1251              	vff_P:
 1252 0000 00000000 		.space	36
 1252      00000000 
 1252      00000000 
 1252      00000000 
 1252      00000000 
 1253              		.section	.bss.vff_zdotdot,"aw",%nobits
 1254              		.align	2
 1255              		.set	.LANCHOR4,. + 0
 1258              	vff_zdotdot:
 1259 0000 00000000 		.space	4
 1260              		.section	.bss.vff_z_meas,"aw",%nobits
 1261              		.align	2
 1262              		.set	.LANCHOR5,. + 0
 1265              	vff_z_meas:
 1266 0000 00000000 		.space	4
 1267              		.section	.bss.vff_z,"aw",%nobits
 1268              		.align	2
 1269              		.set	.LANCHOR0,. + 0
 1272              	vff_z:
 1273 0000 00000000 		.space	4
 1274              		.section	.bss.vff_zdot,"aw",%nobits
 1275              		.align	2
 1276              		.set	.LANCHOR1,. + 0
 1279              	vff_zdot:
 1280 0000 00000000 		.space	4
 1281              		.text
 1282              	.Letext0:
 1283              		.file 2 "./subsystems/ins/vf_float.h"