Archive member included because of file (symbol)

/opt/paparazzi/arm-multilib/lib/gcc/arm-none-eabi/4.6.2/../../../../arm-none-eabi/lib/thumb2/libc.a(lib_a-memcpy.o)
                              /home/uav/USTUAV/paparazzi/var/MYAC/ap/arch/stm32/mcu_periph/spi_arch.o (memcpy)
/opt/paparazzi/arm-multilib/lib/gcc/arm-none-eabi/4.6.2/../../../../arm-none-eabi/lib/thumb2/libm.a(lib_a-s_atan.o)
                              /home/uav/USTUAV/paparazzi/var/MYAC/ap/math/pprz_geodetic_float.o (atan)
/opt/paparazzi/arm-multilib/lib/gcc/arm-none-eabi/4.6.2/../../../../arm-none-eabi/lib/thumb2/libm.a(lib_a-s_cos.o)
                              /home/uav/USTUAV/paparazzi/var/MYAC/ap/math/pprz_geodetic_float.o (cos)
/opt/paparazzi/arm-multilib/lib/gcc/arm-none-eabi/4.6.2/../../../../arm-none-eabi/lib/thumb2/libm.a(lib_a-s_fabs.o)
                              /opt/paparazzi/arm-multilib/lib/gcc/arm-none-eabi/4.6.2/../../../../arm-none-eabi/lib/thumb2/libm.a(lib_a-s_atan.o) (fabs)
/opt/paparazzi/arm-multilib/lib/gcc/arm-none-eabi/4.6.2/../../../../arm-none-eabi/lib/thumb2/libm.a(lib_a-s_rint.o)
                              /home/uav/USTUAV/paparazzi/var/MYAC/ap/math/pprz_geodetic_int.o (rint)
/opt/paparazzi/arm-multilib/lib/gcc/arm-none-eabi/4.6.2/../../../../arm-none-eabi/lib/thumb2/libm.a(lib_a-s_sin.o)
                              /home/uav/USTUAV/paparazzi/var/MYAC/ap/math/pprz_geodetic_float.o (sin)
/opt/paparazzi/arm-multilib/lib/gcc/arm-none-eabi/4.6.2/../../../../arm-none-eabi/lib/thumb2/libm.a(lib_a-s_tan.o)
                              /home/uav/USTUAV/paparazzi/var/MYAC/ap/math/pprz_geodetic_float.o (tan)
/opt/paparazzi/arm-multilib/lib/gcc/arm-none-eabi/4.6.2/../../../../arm-none-eabi/lib/thumb2/libm.a(lib_a-sf_atan.o)
                              /home/uav/USTUAV/paparazzi/var/MYAC/ap/math/pprz_geodetic_float.o (atanf)
/opt/paparazzi/arm-multilib/lib/gcc/arm-none-eabi/4.6.2/../../../../arm-none-eabi/lib/thumb2/libm.a(lib_a-sf_cos.o)
                              /home/uav/USTUAV/paparazzi/var/MYAC/ap/math/pprz_geodetic_int.o (cosf)
/opt/paparazzi/arm-multilib/lib/gcc/arm-none-eabi/4.6.2/../../../../arm-none-eabi/lib/thumb2/libm.a(lib_a-sf_fabs.o)
                              /opt/paparazzi/arm-multilib/lib/gcc/arm-none-eabi/4.6.2/../../../../arm-none-eabi/lib/thumb2/libm.a(lib_a-sf_atan.o) (fabsf)
/opt/paparazzi/arm-multilib/lib/gcc/arm-none-eabi/4.6.2/../../../../arm-none-eabi/lib/thumb2/libm.a(lib_a-sf_sin.o)
                              /home/uav/USTUAV/paparazzi/var/MYAC/ap/math/pprz_geodetic_int.o (sinf)
/opt/paparazzi/arm-multilib/lib/gcc/arm-none-eabi/4.6.2/../../../../arm-none-eabi/lib/thumb2/libm.a(lib_a-w_asin.o)
                              /home/uav/USTUAV/paparazzi/var/MYAC/ap/math/pprz_geodetic_float.o (asin)
/opt/paparazzi/arm-multilib/lib/gcc/arm-none-eabi/4.6.2/../../../../arm-none-eabi/lib/thumb2/libm.a(lib_a-w_atan2.o)
                              /home/uav/USTUAV/paparazzi/var/MYAC/ap/math/pprz_geodetic_double.o (atan2)
/opt/paparazzi/arm-multilib/lib/gcc/arm-none-eabi/4.6.2/../../../../arm-none-eabi/lib/thumb2/libm.a(lib_a-w_cosh.o)
                              /home/uav/USTUAV/paparazzi/var/MYAC/ap/math/pprz_geodetic_float.o (cosh)
/opt/paparazzi/arm-multilib/lib/gcc/arm-none-eabi/4.6.2/../../../../arm-none-eabi/lib/thumb2/libm.a(lib_a-w_exp.o)
                              /home/uav/USTUAV/paparazzi/var/MYAC/ap/math/pprz_geodetic_float.o (exp)
/opt/paparazzi/arm-multilib/lib/gcc/arm-none-eabi/4.6.2/../../../../arm-none-eabi/lib/thumb2/libm.a(lib_a-w_log.o)
                              /home/uav/USTUAV/paparazzi/var/MYAC/ap/math/pprz_geodetic_float.o (log)
/opt/paparazzi/arm-multilib/lib/gcc/arm-none-eabi/4.6.2/../../../../arm-none-eabi/lib/thumb2/libm.a(lib_a-w_pow.o)
                              /home/uav/USTUAV/paparazzi/var/MYAC/ap/math/pprz_geodetic_float.o (pow)
/opt/paparazzi/arm-multilib/lib/gcc/arm-none-eabi/4.6.2/../../../../arm-none-eabi/lib/thumb2/libm.a(lib_a-w_sinh.o)
                              /home/uav/USTUAV/paparazzi/var/MYAC/ap/math/pprz_geodetic_float.o (sinh)
/opt/paparazzi/arm-multilib/lib/gcc/arm-none-eabi/4.6.2/../../../../arm-none-eabi/lib/thumb2/libm.a(lib_a-w_sqrt.o)
                              /home/uav/USTUAV/paparazzi/var/MYAC/ap/math/pprz_geodetic_double.o (sqrt)
/opt/paparazzi/arm-multilib/lib/gcc/arm-none-eabi/4.6.2/../../../../arm-none-eabi/lib/thumb2/libm.a(lib_a-wf_asin.o)
                              /home/uav/USTUAV/paparazzi/var/MYAC/ap/subsystems/ahrs/ahrs_float_dcm.o (asinf)
/opt/paparazzi/arm-multilib/lib/gcc/arm-none-eabi/4.6.2/../../../../arm-none-eabi/lib/thumb2/libm.a(lib_a-wf_atan2.o)
                              /home/uav/USTUAV/paparazzi/var/MYAC/ap/math/pprz_geodetic_float.o (atan2f)
/opt/paparazzi/arm-multilib/lib/gcc/arm-none-eabi/4.6.2/../../../../arm-none-eabi/lib/thumb2/libm.a(lib_a-wf_pow.o)
                              /home/uav/USTUAV/paparazzi/var/MYAC/ap/math/pprz_geodetic_float.o (powf)
/opt/paparazzi/arm-multilib/lib/gcc/arm-none-eabi/4.6.2/../../../../arm-none-eabi/lib/thumb2/libm.a(lib_a-wf_sqrt.o)
                              /home/uav/USTUAV/paparazzi/var/MYAC/ap/math/pprz_geodetic_float.o (sqrtf)
/opt/paparazzi/arm-multilib/lib/gcc/arm-none-eabi/4.6.2/../../../../arm-none-eabi/lib/thumb2/libm.a(lib_a-e_asin.o)
                              /opt/paparazzi/arm-multilib/lib/gcc/arm-none-eabi/4.6.2/../../../../arm-none-eabi/lib/thumb2/libm.a(lib_a-w_asin.o) (__ieee754_asin)
/opt/paparazzi/arm-multilib/lib/gcc/arm-none-eabi/4.6.2/../../../../arm-none-eabi/lib/thumb2/libm.a(lib_a-e_atan2.o)
                              /opt/paparazzi/arm-multilib/lib/gcc/arm-none-eabi/4.6.2/../../../../arm-none-eabi/lib/thumb2/libm.a(lib_a-w_atan2.o) (__ieee754_atan2)
/opt/paparazzi/arm-multilib/lib/gcc/arm-none-eabi/4.6.2/../../../../arm-none-eabi/lib/thumb2/libm.a(lib_a-e_cosh.o)
                              /opt/paparazzi/arm-multilib/lib/gcc/arm-none-eabi/4.6.2/../../../../arm-none-eabi/lib/thumb2/libm.a(lib_a-w_cosh.o) (__ieee754_cosh)
/opt/paparazzi/arm-multilib/lib/gcc/arm-none-eabi/4.6.2/../../../../arm-none-eabi/lib/thumb2/libm.a(lib_a-e_exp.o)
                              /opt/paparazzi/arm-multilib/lib/gcc/arm-none-eabi/4.6.2/../../../../arm-none-eabi/lib/thumb2/libm.a(lib_a-w_exp.o) (__ieee754_exp)
/opt/paparazzi/arm-multilib/lib/gcc/arm-none-eabi/4.6.2/../../../../arm-none-eabi/lib/thumb2/libm.a(lib_a-e_log.o)
                              /opt/paparazzi/arm-multilib/lib/gcc/arm-none-eabi/4.6.2/../../../../arm-none-eabi/lib/thumb2/libm.a(lib_a-w_log.o) (__ieee754_log)
/opt/paparazzi/arm-multilib/lib/gcc/arm-none-eabi/4.6.2/../../../../arm-none-eabi/lib/thumb2/libm.a(lib_a-e_pow.o)
                              /opt/paparazzi/arm-multilib/lib/gcc/arm-none-eabi/4.6.2/../../../../arm-none-eabi/lib/thumb2/libm.a(lib_a-w_pow.o) (__ieee754_pow)
/opt/paparazzi/arm-multilib/lib/gcc/arm-none-eabi/4.6.2/../../../../arm-none-eabi/lib/thumb2/libm.a(lib_a-e_rem_pio2.o)
                              /opt/paparazzi/arm-multilib/lib/gcc/arm-none-eabi/4.6.2/../../../../arm-none-eabi/lib/thumb2/libm.a(lib_a-s_cos.o) (__ieee754_rem_pio2)
/opt/paparazzi/arm-multilib/lib/gcc/arm-none-eabi/4.6.2/../../../../arm-none-eabi/lib/thumb2/libm.a(lib_a-e_sinh.o)
                              /opt/paparazzi/arm-multilib/lib/gcc/arm-none-eabi/4.6.2/../../../../arm-none-eabi/lib/thumb2/libm.a(lib_a-w_sinh.o) (__ieee754_sinh)
/opt/paparazzi/arm-multilib/lib/gcc/arm-none-eabi/4.6.2/../../../../arm-none-eabi/lib/thumb2/libm.a(lib_a-e_sqrt.o)
                              /opt/paparazzi/arm-multilib/lib/gcc/arm-none-eabi/4.6.2/../../../../arm-none-eabi/lib/thumb2/libm.a(lib_a-w_sqrt.o) (__ieee754_sqrt)
/opt/paparazzi/arm-multilib/lib/gcc/arm-none-eabi/4.6.2/../../../../arm-none-eabi/lib/thumb2/libm.a(lib_a-ef_asin.o)
                              /opt/paparazzi/arm-multilib/lib/gcc/arm-none-eabi/4.6.2/../../../../arm-none-eabi/lib/thumb2/libm.a(lib_a-wf_asin.o) (__ieee754_asinf)
/opt/paparazzi/arm-multilib/lib/gcc/arm-none-eabi/4.6.2/../../../../arm-none-eabi/lib/thumb2/libm.a(lib_a-ef_atan2.o)
                              /opt/paparazzi/arm-multilib/lib/gcc/arm-none-eabi/4.6.2/../../../../arm-none-eabi/lib/thumb2/libm.a(lib_a-wf_atan2.o) (__ieee754_atan2f)
/opt/paparazzi/arm-multilib/lib/gcc/arm-none-eabi/4.6.2/../../../../arm-none-eabi/lib/thumb2/libm.a(lib_a-ef_pow.o)
                              /opt/paparazzi/arm-multilib/lib/gcc/arm-none-eabi/4.6.2/../../../../arm-none-eabi/lib/thumb2/libm.a(lib_a-wf_pow.o) (__ieee754_powf)
/opt/paparazzi/arm-multilib/lib/gcc/arm-none-eabi/4.6.2/../../../../arm-none-eabi/lib/thumb2/libm.a(lib_a-ef_rem_pio2.o)
                              /opt/paparazzi/arm-multilib/lib/gcc/arm-none-eabi/4.6.2/../../../../arm-none-eabi/lib/thumb2/libm.a(lib_a-sf_cos.o) (__ieee754_rem_pio2f)
/opt/paparazzi/arm-multilib/lib/gcc/arm-none-eabi/4.6.2/../../../../arm-none-eabi/lib/thumb2/libm.a(lib_a-ef_sqrt.o)
                              /opt/paparazzi/arm-multilib/lib/gcc/arm-none-eabi/4.6.2/../../../../arm-none-eabi/lib/thumb2/libm.a(lib_a-wf_sqrt.o) (__ieee754_sqrtf)
/opt/paparazzi/arm-multilib/lib/gcc/arm-none-eabi/4.6.2/../../../../arm-none-eabi/lib/thumb2/libm.a(lib_a-k_cos.o)
                              /opt/paparazzi/arm-multilib/lib/gcc/arm-none-eabi/4.6.2/../../../../arm-none-eabi/lib/thumb2/libm.a(lib_a-s_cos.o) (__kernel_cos)
/opt/paparazzi/arm-multilib/lib/gcc/arm-none-eabi/4.6.2/../../../../arm-none-eabi/lib/thumb2/libm.a(lib_a-k_rem_pio2.o)
                              /opt/paparazzi/arm-multilib/lib/gcc/arm-none-eabi/4.6.2/../../../../arm-none-eabi/lib/thumb2/libm.a(lib_a-e_rem_pio2.o) (__kernel_rem_pio2)
/opt/paparazzi/arm-multilib/lib/gcc/arm-none-eabi/4.6.2/../../../../arm-none-eabi/lib/thumb2/libm.a(lib_a-k_sin.o)
                              /opt/paparazzi/arm-multilib/lib/gcc/arm-none-eabi/4.6.2/../../../../arm-none-eabi/lib/thumb2/libm.a(lib_a-s_cos.o) (__kernel_sin)
/opt/paparazzi/arm-multilib/lib/gcc/arm-none-eabi/4.6.2/../../../../arm-none-eabi/lib/thumb2/libm.a(lib_a-k_tan.o)
                              /opt/paparazzi/arm-multilib/lib/gcc/arm-none-eabi/4.6.2/../../../../arm-none-eabi/lib/thumb2/libm.a(lib_a-s_tan.o) (__kernel_tan)
/opt/paparazzi/arm-multilib/lib/gcc/arm-none-eabi/4.6.2/../../../../arm-none-eabi/lib/thumb2/libm.a(lib_a-kf_cos.o)
                              /opt/paparazzi/arm-multilib/lib/gcc/arm-none-eabi/4.6.2/../../../../arm-none-eabi/lib/thumb2/libm.a(lib_a-sf_cos.o) (__kernel_cosf)
/opt/paparazzi/arm-multilib/lib/gcc/arm-none-eabi/4.6.2/../../../../arm-none-eabi/lib/thumb2/libm.a(lib_a-kf_rem_pio2.o)
                              /opt/paparazzi/arm-multilib/lib/gcc/arm-none-eabi/4.6.2/../../../../arm-none-eabi/lib/thumb2/libm.a(lib_a-ef_rem_pio2.o) (__kernel_rem_pio2f)
/opt/paparazzi/arm-multilib/lib/gcc/arm-none-eabi/4.6.2/../../../../arm-none-eabi/lib/thumb2/libm.a(lib_a-kf_sin.o)
                              /opt/paparazzi/arm-multilib/lib/gcc/arm-none-eabi/4.6.2/../../../../arm-none-eabi/lib/thumb2/libm.a(lib_a-sf_cos.o) (__kernel_sinf)
/opt/paparazzi/arm-multilib/lib/gcc/arm-none-eabi/4.6.2/../../../../arm-none-eabi/lib/thumb2/libm.a(lib_a-s_expm1.o)
                              /opt/paparazzi/arm-multilib/lib/gcc/arm-none-eabi/4.6.2/../../../../arm-none-eabi/lib/thumb2/libm.a(lib_a-e_cosh.o) (expm1)
/opt/paparazzi/arm-multilib/lib/gcc/arm-none-eabi/4.6.2/../../../../arm-none-eabi/lib/thumb2/libm.a(lib_a-s_finite.o)
                              /opt/paparazzi/arm-multilib/lib/gcc/arm-none-eabi/4.6.2/../../../../arm-none-eabi/lib/thumb2/libm.a(lib_a-w_exp.o) (finite)
/opt/paparazzi/arm-multilib/lib/gcc/arm-none-eabi/4.6.2/../../../../arm-none-eabi/lib/thumb2/libm.a(lib_a-s_floor.o)
                              /opt/paparazzi/arm-multilib/lib/gcc/arm-none-eabi/4.6.2/../../../../arm-none-eabi/lib/thumb2/libm.a(lib_a-k_rem_pio2.o) (floor)
/opt/paparazzi/arm-multilib/lib/gcc/arm-none-eabi/4.6.2/../../../../arm-none-eabi/lib/thumb2/libm.a(lib_a-s_fpclassify.o)
                              /opt/paparazzi/arm-multilib/lib/gcc/arm-none-eabi/4.6.2/../../../../arm-none-eabi/lib/thumb2/libm.a(lib_a-w_asin.o) (__fpclassifyd)
/opt/paparazzi/arm-multilib/lib/gcc/arm-none-eabi/4.6.2/../../../../arm-none-eabi/lib/thumb2/libm.a(lib_a-s_lib_ver.o)
                              /opt/paparazzi/arm-multilib/lib/gcc/arm-none-eabi/4.6.2/../../../../arm-none-eabi/lib/thumb2/libm.a(lib_a-w_asin.o) (__fdlib_version)
/opt/paparazzi/arm-multilib/lib/gcc/arm-none-eabi/4.6.2/../../../../arm-none-eabi/lib/thumb2/libm.a(lib_a-s_matherr.o)
                              /opt/paparazzi/arm-multilib/lib/gcc/arm-none-eabi/4.6.2/../../../../arm-none-eabi/lib/thumb2/libm.a(lib_a-w_asin.o) (matherr)
/opt/paparazzi/arm-multilib/lib/gcc/arm-none-eabi/4.6.2/../../../../arm-none-eabi/lib/thumb2/libm.a(lib_a-s_nan.o)
                              /opt/paparazzi/arm-multilib/lib/gcc/arm-none-eabi/4.6.2/../../../../arm-none-eabi/lib/thumb2/libm.a(lib_a-w_asin.o) (nan)
/opt/paparazzi/arm-multilib/lib/gcc/arm-none-eabi/4.6.2/../../../../arm-none-eabi/lib/thumb2/libm.a(lib_a-s_scalbn.o)
                              /opt/paparazzi/arm-multilib/lib/gcc/arm-none-eabi/4.6.2/../../../../arm-none-eabi/lib/thumb2/libm.a(lib_a-e_pow.o) (scalbn)
/opt/paparazzi/arm-multilib/lib/gcc/arm-none-eabi/4.6.2/../../../../arm-none-eabi/lib/thumb2/libm.a(lib_a-sf_finite.o)
                              /opt/paparazzi/arm-multilib/lib/gcc/arm-none-eabi/4.6.2/../../../../arm-none-eabi/lib/thumb2/libm.a(lib_a-wf_pow.o) (finitef)
/opt/paparazzi/arm-multilib/lib/gcc/arm-none-eabi/4.6.2/../../../../arm-none-eabi/lib/thumb2/libm.a(lib_a-sf_floor.o)
                              /opt/paparazzi/arm-multilib/lib/gcc/arm-none-eabi/4.6.2/../../../../arm-none-eabi/lib/thumb2/libm.a(lib_a-kf_rem_pio2.o) (floorf)
/opt/paparazzi/arm-multilib/lib/gcc/arm-none-eabi/4.6.2/../../../../arm-none-eabi/lib/thumb2/libm.a(lib_a-sf_fpclassify.o)
                              /opt/paparazzi/arm-multilib/lib/gcc/arm-none-eabi/4.6.2/../../../../arm-none-eabi/lib/thumb2/libm.a(lib_a-wf_asin.o) (__fpclassifyf)
/opt/paparazzi/arm-multilib/lib/gcc/arm-none-eabi/4.6.2/../../../../arm-none-eabi/lib/thumb2/libm.a(lib_a-sf_nan.o)
                              /opt/paparazzi/arm-multilib/lib/gcc/arm-none-eabi/4.6.2/../../../../arm-none-eabi/lib/thumb2/libm.a(lib_a-ef_pow.o) (nanf)
/opt/paparazzi/arm-multilib/lib/gcc/arm-none-eabi/4.6.2/../../../../arm-none-eabi/lib/thumb2/libm.a(lib_a-sf_scalbn.o)
                              /opt/paparazzi/arm-multilib/lib/gcc/arm-none-eabi/4.6.2/../../../../arm-none-eabi/lib/thumb2/libm.a(lib_a-ef_pow.o) (scalbnf)
/opt/paparazzi/arm-multilib/lib/gcc/arm-none-eabi/4.6.2/../../../../arm-none-eabi/lib/thumb2/libm.a(lib_a-s_copysign.o)
                              /opt/paparazzi/arm-multilib/lib/gcc/arm-none-eabi/4.6.2/../../../../arm-none-eabi/lib/thumb2/libm.a(lib_a-s_scalbn.o) (copysign)
/opt/paparazzi/arm-multilib/lib/gcc/arm-none-eabi/4.6.2/../../../../arm-none-eabi/lib/thumb2/libm.a(lib_a-sf_copysign.o)
                              /opt/paparazzi/arm-multilib/lib/gcc/arm-none-eabi/4.6.2/../../../../arm-none-eabi/lib/thumb2/libm.a(lib_a-sf_scalbn.o) (copysignf)
/opt/paparazzi/arm-multilib/lib/gcc/arm-none-eabi/4.6.2/thumb2/libgcc.a(_divsi3.o)
                              /opt/paparazzi/arm-multilib/lib/gcc/arm-none-eabi/4.6.2/../../../../arm-none-eabi/lib/thumb2/libm.a(lib_a-k_rem_pio2.o) (__aeabi_idiv)
/opt/paparazzi/arm-multilib/lib/gcc/arm-none-eabi/4.6.2/thumb2/libgcc.a(_dvmd_tls.o)
                              /opt/paparazzi/arm-multilib/lib/gcc/arm-none-eabi/4.6.2/thumb2/libgcc.a(_divsi3.o) (__aeabi_idiv0)
/opt/paparazzi/arm-multilib/lib/gcc/arm-none-eabi/4.6.2/thumb2/libgcc.a(_arm_addsubdf3.o)
                              /home/uav/USTUAV/paparazzi/var/MYAC/ap/math/pprz_geodetic_float.o (__aeabi_dsub)
/opt/paparazzi/arm-multilib/lib/gcc/arm-none-eabi/4.6.2/thumb2/libgcc.a(_arm_muldivdf3.o)
                              /home/uav/USTUAV/paparazzi/var/MYAC/ap/math/pprz_geodetic_int.o (__aeabi_dmul)
/opt/paparazzi/arm-multilib/lib/gcc/arm-none-eabi/4.6.2/thumb2/libgcc.a(_arm_cmpdf2.o)
                              /opt/paparazzi/arm-multilib/lib/gcc/arm-none-eabi/4.6.2/../../../../arm-none-eabi/lib/thumb2/libm.a(lib_a-w_log.o) (__aeabi_dcmpeq)
/opt/paparazzi/arm-multilib/lib/gcc/arm-none-eabi/4.6.2/thumb2/libgcc.a(_arm_fixdfsi.o)
                              /home/uav/USTUAV/paparazzi/var/MYAC/ap/math/pprz_geodetic_int.o (__aeabi_d2iz)
/opt/paparazzi/arm-multilib/lib/gcc/arm-none-eabi/4.6.2/thumb2/libgcc.a(_arm_fixunsdfsi.o)
                              /home/uav/USTUAV/paparazzi/var/MYAC/ap/mcu_periph/sys_time.o (__aeabi_d2uiz)
/opt/paparazzi/arm-multilib/lib/gcc/arm-none-eabi/4.6.2/thumb2/libgcc.a(_arm_truncdfsf2.o)
                              /home/uav/USTUAV/paparazzi/var/MYAC/ap/math/pprz_geodetic_float.o (__aeabi_d2f)
/opt/paparazzi/arm-multilib/lib/gcc/arm-none-eabi/4.6.2/thumb2/libgcc.a(_arm_addsubsf3.o)
                              /home/uav/USTUAV/paparazzi/var/MYAC/ap/math/pprz_geodetic_float.o (__aeabi_fsub)
/opt/paparazzi/arm-multilib/lib/gcc/arm-none-eabi/4.6.2/thumb2/libgcc.a(_arm_muldivsf3.o)
                              /home/uav/USTUAV/paparazzi/var/MYAC/ap/math/pprz_geodetic_int.o (__aeabi_fmul)
/opt/paparazzi/arm-multilib/lib/gcc/arm-none-eabi/4.6.2/thumb2/libgcc.a(_arm_cmpsf2.o)
                              /home/uav/USTUAV/paparazzi/var/MYAC/ap/firmwares/fixedwing/datalink.o (__aeabi_fcmpeq)
/opt/paparazzi/arm-multilib/lib/gcc/arm-none-eabi/4.6.2/thumb2/libgcc.a(_arm_fixsfsi.o)
                              /home/uav/USTUAV/paparazzi/var/MYAC/ap/firmwares/fixedwing/main_fbw.o (__aeabi_f2iz)
/opt/paparazzi/arm-multilib/lib/gcc/arm-none-eabi/4.6.2/thumb2/libgcc.a(_arm_fixunssfsi.o)
                              /home/uav/USTUAV/paparazzi/var/MYAC/ap/firmwares/fixedwing/datalink.o (__aeabi_f2uiz)
/opt/paparazzi/arm-multilib/lib/gcc/arm-none-eabi/4.6.2/../../../../arm-none-eabi/lib/libstm32.a(stm32_adc.o)
                              /home/uav/USTUAV/paparazzi/var/MYAC/ap/arch/stm32/mcu_periph/adc_arch.o (ADC_Init)
/opt/paparazzi/arm-multilib/lib/gcc/arm-none-eabi/4.6.2/../../../../arm-none-eabi/lib/libstm32.a(stm32_tim.o)
                              /home/uav/USTUAV/paparazzi/var/MYAC/ap/arch/stm32/mcu_periph/adc_arch.o (TIM_TimeBaseInit)
/opt/paparazzi/arm-multilib/lib/gcc/arm-none-eabi/4.6.2/../../../../arm-none-eabi/lib/libstm32.a(stm32_dma.o)
                              /home/uav/USTUAV/paparazzi/var/MYAC/ap/arch/stm32/mcu_periph/spi_arch.o (DMA_DeInit)
/opt/paparazzi/arm-multilib/lib/gcc/arm-none-eabi/4.6.2/../../../../arm-none-eabi/lib/libstm32.a(stm32_gpio.o)
                              /home/uav/USTUAV/paparazzi/var/MYAC/ap/mcu.o (GPIO_Init)
/opt/paparazzi/arm-multilib/lib/gcc/arm-none-eabi/4.6.2/../../../../arm-none-eabi/lib/libstm32.a(stm32_usart.o)
                              /home/uav/USTUAV/paparazzi/var/MYAC/ap/arch/stm32/mcu_periph/uart_arch.o (USART_Init)
/opt/paparazzi/arm-multilib/lib/gcc/arm-none-eabi/4.6.2/../../../../arm-none-eabi/lib/libstm32.a(stm32_i2c.o)
                              /home/uav/USTUAV/paparazzi/var/MYAC/ap/arch/stm32/mcu_periph/i2c_arch.o (I2C_GenerateSTART)
/opt/paparazzi/arm-multilib/lib/gcc/arm-none-eabi/4.6.2/../../../../arm-none-eabi/lib/libstm32.a(stm32_spi.o)
                              /home/uav/USTUAV/paparazzi/var/MYAC/ap/arch/stm32/mcu_periph/spi_arch.o (SPI_Init)
/opt/paparazzi/arm-multilib/lib/gcc/arm-none-eabi/4.6.2/../../../../arm-none-eabi/lib/libstm32.a(stm32_rcc.o)
                              /home/uav/USTUAV/paparazzi/var/MYAC/ap/arch/stm32/mcu_periph/adc_arch.o (RCC_ADCCLKConfig)
/opt/paparazzi/arm-multilib/lib/gcc/arm-none-eabi/4.6.2/../../../../arm-none-eabi/lib/libstm32.a(stm32_misc.o)
                              /home/uav/USTUAV/paparazzi/var/MYAC/ap/arch/stm32/mcu_periph/uart_arch.o (NVIC_Init)
/opt/paparazzi/arm-multilib/lib/gcc/arm-none-eabi/4.6.2/../../../../arm-none-eabi/lib/libopencm3_stm32.a(rcc.o)
                              /home/uav/USTUAV/paparazzi/var/MYAC/ap/arch/stm32/mcu_arch.o (rcc_clock_setup_in_hse_12mhz_out_72mhz)
/opt/paparazzi/arm-multilib/lib/gcc/arm-none-eabi/4.6.2/../../../../arm-none-eabi/lib/libopencm3_stm32.a(usart.o)
                              /home/uav/USTUAV/paparazzi/var/MYAC/ap/arch/stm32/mcu_periph/uart_arch.o (usart_set_baudrate)
/opt/paparazzi/arm-multilib/lib/gcc/arm-none-eabi/4.6.2/../../../../arm-none-eabi/lib/libopencm3_stm32.a(flash.o)
                              /opt/paparazzi/arm-multilib/lib/gcc/arm-none-eabi/4.6.2/../../../../arm-none-eabi/lib/libopencm3_stm32.a(rcc.o) (flash_set_ws)
/opt/paparazzi/arm-multilib/lib/gcc/arm-none-eabi/4.6.2/../../../../arm-none-eabi/lib/thumb2/libc.a(lib_a-errno.o)
                              /opt/paparazzi/arm-multilib/lib/gcc/arm-none-eabi/4.6.2/../../../../arm-none-eabi/lib/thumb2/libm.a(lib_a-w_asin.o) (__errno)
/opt/paparazzi/arm-multilib/lib/gcc/arm-none-eabi/4.6.2/../../../../arm-none-eabi/lib/thumb2/libc.a(lib_a-impure.o)
                              /opt/paparazzi/arm-multilib/lib/gcc/arm-none-eabi/4.6.2/../../../../arm-none-eabi/lib/thumb2/libc.a(lib_a-errno.o) (_impure_ptr)

Discarded input sections

 .text          0x0000000000000000        0x0 /home/uav/USTUAV/paparazzi/var/MYAC/ap/mcu.o
 .data          0x0000000000000000        0x0 /home/uav/USTUAV/paparazzi/var/MYAC/ap/mcu.o
 .bss           0x0000000000000000        0x0 /home/uav/USTUAV/paparazzi/var/MYAC/ap/mcu.o
 .text          0x0000000000000000        0x0 /home/uav/USTUAV/paparazzi/var/MYAC/ap/arch/stm32/mcu_arch.o
 .data          0x0000000000000000        0x0 /home/uav/USTUAV/paparazzi/var/MYAC/ap/arch/stm32/mcu_arch.o
 .bss           0x0000000000000000        0x0 /home/uav/USTUAV/paparazzi/var/MYAC/ap/arch/stm32/mcu_arch.o
 .text          0x0000000000000000        0x0 /home/uav/USTUAV/paparazzi/var/MYAC/ap/arch/stm32/led_hw.o
 .data          0x0000000000000000        0x0 /home/uav/USTUAV/paparazzi/var/MYAC/ap/arch/stm32/led_hw.o
 .bss           0x0000000000000000        0x0 /home/uav/USTUAV/paparazzi/var/MYAC/ap/arch/stm32/led_hw.o
 .text          0x0000000000000000        0x0 /home/uav/USTUAV/paparazzi/var/MYAC/ap/mcu_periph/sys_time.o
 .data          0x0000000000000000        0x0 /home/uav/USTUAV/paparazzi/var/MYAC/ap/mcu_periph/sys_time.o
 .bss           0x0000000000000000        0x0 /home/uav/USTUAV/paparazzi/var/MYAC/ap/mcu_periph/sys_time.o
 .text.sys_time_cancel_timer
                0x0000000000000000       0x14 /home/uav/USTUAV/paparazzi/var/MYAC/ap/mcu_periph/sys_time.o
 .text.sys_time_update_timer
                0x0000000000000000       0x48 /home/uav/USTUAV/paparazzi/var/MYAC/ap/mcu_periph/sys_time.o
 .text          0x0000000000000000        0x0 /home/uav/USTUAV/paparazzi/var/MYAC/ap/arch/stm32/mcu_periph/sys_time_arch.o
 .data          0x0000000000000000        0x0 /home/uav/USTUAV/paparazzi/var/MYAC/ap/arch/stm32/mcu_periph/sys_time_arch.o
 .bss           0x0000000000000000        0x0 /home/uav/USTUAV/paparazzi/var/MYAC/ap/arch/stm32/mcu_periph/sys_time_arch.o
 .text          0x0000000000000000        0x0 /home/uav/USTUAV/paparazzi/var/MYAC/ap/./inter_mcu.o
 .data          0x0000000000000000        0x0 /home/uav/USTUAV/paparazzi/var/MYAC/ap/./inter_mcu.o
 .bss           0x0000000000000000        0x0 /home/uav/USTUAV/paparazzi/var/MYAC/ap/./inter_mcu.o
 .text          0x0000000000000000        0x0 /home/uav/USTUAV/paparazzi/var/MYAC/ap/math/pprz_geodetic_int.o
 .data          0x0000000000000000        0x0 /home/uav/USTUAV/paparazzi/var/MYAC/ap/math/pprz_geodetic_int.o
 .bss           0x0000000000000000        0x0 /home/uav/USTUAV/paparazzi/var/MYAC/ap/math/pprz_geodetic_int.o
 .text.enu_of_ecef_point_i
                0x0000000000000000       0x62 /home/uav/USTUAV/paparazzi/var/MYAC/ap/math/pprz_geodetic_int.o
 .text.ned_of_ecef_point_i
                0x0000000000000000       0x1a /home/uav/USTUAV/paparazzi/var/MYAC/ap/math/pprz_geodetic_int.o
 .text.enu_of_ecef_vect_i
                0x0000000000000000       0x5a /home/uav/USTUAV/paparazzi/var/MYAC/ap/math/pprz_geodetic_int.o
 .text.ned_of_ecef_vect_i
                0x0000000000000000       0x1a /home/uav/USTUAV/paparazzi/var/MYAC/ap/math/pprz_geodetic_int.o
 .text.ecef_of_enu_point_i
                0x0000000000000000       0x5c /home/uav/USTUAV/paparazzi/var/MYAC/ap/math/pprz_geodetic_int.o
 .text.ecef_of_ned_point_i
                0x0000000000000000       0x1a /home/uav/USTUAV/paparazzi/var/MYAC/ap/math/pprz_geodetic_int.o
 .text.ecef_of_enu_vect_i
                0x0000000000000000       0x46 /home/uav/USTUAV/paparazzi/var/MYAC/ap/math/pprz_geodetic_int.o
 .text.ecef_of_ned_vect_i
                0x0000000000000000       0x1a /home/uav/USTUAV/paparazzi/var/MYAC/ap/math/pprz_geodetic_int.o
 .text.lla_of_ecef_i
                0x0000000000000000       0xa0 /home/uav/USTUAV/paparazzi/var/MYAC/ap/math/pprz_geodetic_int.o
 .text.ltp_def_from_ecef_i
                0x0000000000000000      0x11c /home/uav/USTUAV/paparazzi/var/MYAC/ap/math/pprz_geodetic_int.o
 .text.ecef_of_lla_i
                0x0000000000000000       0x98 /home/uav/USTUAV/paparazzi/var/MYAC/ap/math/pprz_geodetic_int.o
 .text.ned_of_lla_vect_i
                0x0000000000000000       0x1e /home/uav/USTUAV/paparazzi/var/MYAC/ap/math/pprz_geodetic_int.o
 .text.enu_of_lla_vect_i
                0x0000000000000000       0x1e /home/uav/USTUAV/paparazzi/var/MYAC/ap/math/pprz_geodetic_int.o
 .text.ned_of_lla_point_i
                0x0000000000000000       0x1e /home/uav/USTUAV/paparazzi/var/MYAC/ap/math/pprz_geodetic_int.o
 .text.enu_of_lla_point_i
                0x0000000000000000       0x1e /home/uav/USTUAV/paparazzi/var/MYAC/ap/math/pprz_geodetic_int.o
 .text.ltp_def_from_lla_i
                0x0000000000000000      0x118 /home/uav/USTUAV/paparazzi/var/MYAC/ap/math/pprz_geodetic_int.o
 .text          0x0000000000000000        0x0 /home/uav/USTUAV/paparazzi/var/MYAC/ap/math/pprz_geodetic_float.o
 .data          0x0000000000000000        0x0 /home/uav/USTUAV/paparazzi/var/MYAC/ap/math/pprz_geodetic_float.o
 .bss           0x0000000000000000        0x0 /home/uav/USTUAV/paparazzi/var/MYAC/ap/math/pprz_geodetic_float.o
 .text.enu_of_ecef_point_f
                0x0000000000000000       0xb6 /home/uav/USTUAV/paparazzi/var/MYAC/ap/math/pprz_geodetic_float.o
 .text.ned_of_ecef_point_f
                0x0000000000000000       0x1c /home/uav/USTUAV/paparazzi/var/MYAC/ap/math/pprz_geodetic_float.o
 .text.enu_of_ecef_vect_f
                0x0000000000000000       0x9e /home/uav/USTUAV/paparazzi/var/MYAC/ap/math/pprz_geodetic_float.o
 .text.ned_of_ecef_vect_f
                0x0000000000000000       0x1c /home/uav/USTUAV/paparazzi/var/MYAC/ap/math/pprz_geodetic_float.o
 .text.ecef_of_enu_point_f
                0x0000000000000000      0x142 /home/uav/USTUAV/paparazzi/var/MYAC/ap/math/pprz_geodetic_float.o
 .text.ecef_of_ned_point_f
                0x0000000000000000       0x1c /home/uav/USTUAV/paparazzi/var/MYAC/ap/math/pprz_geodetic_float.o
 .text.ecef_of_enu_vect_f
                0x0000000000000000      0x130 /home/uav/USTUAV/paparazzi/var/MYAC/ap/math/pprz_geodetic_float.o
 .text.ecef_of_ned_vect_f
                0x0000000000000000       0x1c /home/uav/USTUAV/paparazzi/var/MYAC/ap/math/pprz_geodetic_float.o
 .text.lla_of_ecef_f
                0x0000000000000000      0x290 /home/uav/USTUAV/paparazzi/var/MYAC/ap/math/pprz_geodetic_float.o
 .text.ltp_def_from_ecef_f
                0x0000000000000000       0x82 /home/uav/USTUAV/paparazzi/var/MYAC/ap/math/pprz_geodetic_float.o
 .text.ecef_of_lla_f
                0x0000000000000000       0xd0 /home/uav/USTUAV/paparazzi/var/MYAC/ap/math/pprz_geodetic_float.o
 .text.ned_of_lla_point_f
                0x0000000000000000       0x1e /home/uav/USTUAV/paparazzi/var/MYAC/ap/math/pprz_geodetic_float.o
 .text.enu_of_lla_point_f
                0x0000000000000000       0x1e /home/uav/USTUAV/paparazzi/var/MYAC/ap/math/pprz_geodetic_float.o
 .text.ltp_def_from_lla_f
                0x0000000000000000       0x80 /home/uav/USTUAV/paparazzi/var/MYAC/ap/math/pprz_geodetic_float.o
 .text.lla_of_utm_f
                0x0000000000000000      0x288 /home/uav/USTUAV/paparazzi/var/MYAC/ap/math/pprz_geodetic_float.o
 .text          0x0000000000000000        0x0 /home/uav/USTUAV/paparazzi/var/MYAC/ap/math/pprz_geodetic_double.o
 .data          0x0000000000000000        0x0 /home/uav/USTUAV/paparazzi/var/MYAC/ap/math/pprz_geodetic_double.o
 .bss           0x0000000000000000        0x0 /home/uav/USTUAV/paparazzi/var/MYAC/ap/math/pprz_geodetic_double.o
 .text.lla_of_ecef_d
                0x0000000000000000      0x388 /home/uav/USTUAV/paparazzi/var/MYAC/ap/math/pprz_geodetic_double.o
 .text.ltp_def_from_ecef_d
                0x0000000000000000       0xcc /home/uav/USTUAV/paparazzi/var/MYAC/ap/math/pprz_geodetic_double.o
 .text.ecef_of_lla_d
                0x0000000000000000      0x100 /home/uav/USTUAV/paparazzi/var/MYAC/ap/math/pprz_geodetic_double.o
 .text.enu_of_ecef_point_d
                0x0000000000000000      0x116 /home/uav/USTUAV/paparazzi/var/MYAC/ap/math/pprz_geodetic_double.o
 .text.ned_of_ecef_point_d
                0x0000000000000000       0x2c /home/uav/USTUAV/paparazzi/var/MYAC/ap/math/pprz_geodetic_double.o
 .text.enu_of_ecef_vect_d
                0x0000000000000000       0xf4 /home/uav/USTUAV/paparazzi/var/MYAC/ap/math/pprz_geodetic_double.o
 .text.ned_of_ecef_vect_d
                0x0000000000000000       0x2c /home/uav/USTUAV/paparazzi/var/MYAC/ap/math/pprz_geodetic_double.o
 .text.ecef_of_enu_point_d
                0x0000000000000000      0x138 /home/uav/USTUAV/paparazzi/var/MYAC/ap/math/pprz_geodetic_double.o
 .text.ecef_of_ned_point_d
                0x0000000000000000       0x2a /home/uav/USTUAV/paparazzi/var/MYAC/ap/math/pprz_geodetic_double.o
 .text.ecef_of_enu_vect_d
                0x0000000000000000       0xf4 /home/uav/USTUAV/paparazzi/var/MYAC/ap/math/pprz_geodetic_double.o
 .text.ecef_of_ned_vect_d
                0x0000000000000000       0x2a /home/uav/USTUAV/paparazzi/var/MYAC/ap/math/pprz_geodetic_double.o
 .text.gc_of_gd_lat_d
                0x0000000000000000       0xd0 /home/uav/USTUAV/paparazzi/var/MYAC/ap/math/pprz_geodetic_double.o
 .text.lla_of_utm_d
                0x0000000000000000      0x318 /home/uav/USTUAV/paparazzi/var/MYAC/ap/math/pprz_geodetic_double.o
 .text          0x0000000000000000        0x0 /home/uav/USTUAV/paparazzi/var/MYAC/ap/math/pprz_trig_int.o
 .data          0x0000000000000000        0x0 /home/uav/USTUAV/paparazzi/var/MYAC/ap/math/pprz_trig_int.o
 .bss           0x0000000000000000        0x0 /home/uav/USTUAV/paparazzi/var/MYAC/ap/math/pprz_trig_int.o
 .text          0x0000000000000000        0x0 /home/uav/USTUAV/paparazzi/var/MYAC/ap/mcu_periph/i2c.o
 .data          0x0000000000000000        0x0 /home/uav/USTUAV/paparazzi/var/MYAC/ap/mcu_periph/i2c.o
 .bss           0x0000000000000000        0x0 /home/uav/USTUAV/paparazzi/var/MYAC/ap/mcu_periph/i2c.o
 .text.i2c_init
                0x0000000000000000       0x10 /home/uav/USTUAV/paparazzi/var/MYAC/ap/mcu_periph/i2c.o
 .text          0x0000000000000000        0x0 /home/uav/USTUAV/paparazzi/var/MYAC/ap/arch/stm32/mcu_periph/i2c_arch.o
 .data          0x0000000000000000        0x0 /home/uav/USTUAV/paparazzi/var/MYAC/ap/arch/stm32/mcu_periph/i2c_arch.o
 .bss           0x0000000000000000        0x0 /home/uav/USTUAV/paparazzi/var/MYAC/ap/arch/stm32/mcu_periph/i2c_arch.o
 .text.i2c_idle
                0x0000000000000000       0x16 /home/uav/USTUAV/paparazzi/var/MYAC/ap/arch/stm32/mcu_periph/i2c_arch.o
 .text.i2c_submit
                0x0000000000000000       0x5a /home/uav/USTUAV/paparazzi/var/MYAC/ap/arch/stm32/mcu_periph/i2c_arch.o
 .text          0x0000000000000000        0x0 /home/uav/USTUAV/paparazzi/var/MYAC/ap/firmwares/fixedwing/main_fbw.o
 .data          0x0000000000000000        0x0 /home/uav/USTUAV/paparazzi/var/MYAC/ap/firmwares/fixedwing/main_fbw.o
 .bss           0x0000000000000000        0x0 /home/uav/USTUAV/paparazzi/var/MYAC/ap/firmwares/fixedwing/main_fbw.o
 .text          0x0000000000000000        0x0 /home/uav/USTUAV/paparazzi/var/MYAC/ap/subsystems/electrical.o
 .data          0x0000000000000000        0x0 /home/uav/USTUAV/paparazzi/var/MYAC/ap/subsystems/electrical.o
 .bss           0x0000000000000000        0x0 /home/uav/USTUAV/paparazzi/var/MYAC/ap/subsystems/electrical.o
 .text          0x0000000000000000        0x0 /home/uav/USTUAV/paparazzi/var/MYAC/ap/./commands.o
 .data          0x0000000000000000        0x0 /home/uav/USTUAV/paparazzi/var/MYAC/ap/./commands.o
 .bss           0x0000000000000000        0x0 /home/uav/USTUAV/paparazzi/var/MYAC/ap/./commands.o
 .text          0x0000000000000000        0x0 /home/uav/USTUAV/paparazzi/var/MYAC/ap/firmwares/fixedwing/fbw_downlink.o
 .data          0x0000000000000000        0x0 /home/uav/USTUAV/paparazzi/var/MYAC/ap/firmwares/fixedwing/fbw_downlink.o
 .bss           0x0000000000000000        0x0 /home/uav/USTUAV/paparazzi/var/MYAC/ap/firmwares/fixedwing/fbw_downlink.o
 .text          0x0000000000000000        0x0 /home/uav/USTUAV/paparazzi/var/MYAC/ap/firmwares/fixedwing/main_ap.o
 .data          0x0000000000000000        0x0 /home/uav/USTUAV/paparazzi/var/MYAC/ap/firmwares/fixedwing/main_ap.o
 .bss           0x0000000000000000        0x0 /home/uav/USTUAV/paparazzi/var/MYAC/ap/firmwares/fixedwing/main_ap.o
 .text          0x0000000000000000        0x0 /home/uav/USTUAV/paparazzi/var/MYAC/ap/./estimator.o
 .data          0x0000000000000000        0x0 /home/uav/USTUAV/paparazzi/var/MYAC/ap/./estimator.o
 .bss           0x0000000000000000        0x0 /home/uav/USTUAV/paparazzi/var/MYAC/ap/./estimator.o
 .bss.estimator_t
                0x0000000000000000        0x4 /home/uav/USTUAV/paparazzi/var/MYAC/ap/./estimator.o
 .bss.estimator_AOA
                0x0000000000000000        0x4 /home/uav/USTUAV/paparazzi/var/MYAC/ap/./estimator.o
 .text          0x0000000000000000        0x0 /home/uav/USTUAV/paparazzi/var/MYAC/ap/firmwares/fixedwing/ap_downlink.o
 .data          0x0000000000000000        0x0 /home/uav/USTUAV/paparazzi/var/MYAC/ap/firmwares/fixedwing/ap_downlink.o
 .bss           0x0000000000000000        0x0 /home/uav/USTUAV/paparazzi/var/MYAC/ap/firmwares/fixedwing/ap_downlink.o
 .text          0x0000000000000000        0x0 /home/uav/USTUAV/paparazzi/var/MYAC/ap/arch/stm32/stm32_exceptions.o
 .data          0x0000000000000000        0x0 /home/uav/USTUAV/paparazzi/var/MYAC/ap/arch/stm32/stm32_exceptions.o
 .bss           0x0000000000000000        0x0 /home/uav/USTUAV/paparazzi/var/MYAC/ap/arch/stm32/stm32_exceptions.o
 .text          0x0000000000000000        0x0 /home/uav/USTUAV/paparazzi/var/MYAC/ap/arch/stm32/stm32_vector_table.o
 .data          0x0000000000000000        0x0 /home/uav/USTUAV/paparazzi/var/MYAC/ap/arch/stm32/stm32_vector_table.o
 .bss           0x0000000000000000        0x0 /home/uav/USTUAV/paparazzi/var/MYAC/ap/arch/stm32/stm32_vector_table.o
 .text.assert_param
                0x0000000000000000        0x2 /home/uav/USTUAV/paparazzi/var/MYAC/ap/arch/stm32/stm32_vector_table.o
 .text          0x0000000000000000        0x0 /home/uav/USTUAV/paparazzi/var/MYAC/ap/lisa/plug_sys.o
 .data          0x0000000000000000        0x0 /home/uav/USTUAV/paparazzi/var/MYAC/ap/lisa/plug_sys.o
 .bss           0x0000000000000000        0x0 /home/uav/USTUAV/paparazzi/var/MYAC/ap/lisa/plug_sys.o
 .text._lseek   0x0000000000000000        0x4 /home/uav/USTUAV/paparazzi/var/MYAC/ap/lisa/plug_sys.o
 .text.abort    0x0000000000000000        0x2 /home/uav/USTUAV/paparazzi/var/MYAC/ap/lisa/plug_sys.o
 .text.getpid   0x0000000000000000        0x4 /home/uav/USTUAV/paparazzi/var/MYAC/ap/lisa/plug_sys.o
 .text.kill     0x0000000000000000        0x4 /home/uav/USTUAV/paparazzi/var/MYAC/ap/lisa/plug_sys.o
 .text._sbrk    0x0000000000000000        0x4 /home/uav/USTUAV/paparazzi/var/MYAC/ap/lisa/plug_sys.o
 .text._write   0x0000000000000000        0x4 /home/uav/USTUAV/paparazzi/var/MYAC/ap/lisa/plug_sys.o
 .text._close   0x0000000000000000        0x4 /home/uav/USTUAV/paparazzi/var/MYAC/ap/lisa/plug_sys.o
 .text._read    0x0000000000000000        0x4 /home/uav/USTUAV/paparazzi/var/MYAC/ap/lisa/plug_sys.o
 .text          0x0000000000000000        0x0 /home/uav/USTUAV/paparazzi/var/MYAC/ap/firmwares/fixedwing/main.o
 .data          0x0000000000000000        0x0 /home/uav/USTUAV/paparazzi/var/MYAC/ap/firmwares/fixedwing/main.o
 .bss           0x0000000000000000        0x0 /home/uav/USTUAV/paparazzi/var/MYAC/ap/firmwares/fixedwing/main.o
 .text          0x0000000000000000        0x0 /home/uav/USTUAV/paparazzi/var/MYAC/ap/mcu_periph/uart.o
 .data          0x0000000000000000        0x0 /home/uav/USTUAV/paparazzi/var/MYAC/ap/mcu_periph/uart.o
 .bss           0x0000000000000000        0x0 /home/uav/USTUAV/paparazzi/var/MYAC/ap/mcu_periph/uart.o
 .text          0x0000000000000000        0x0 /home/uav/USTUAV/paparazzi/var/MYAC/ap/arch/stm32/mcu_periph/uart_arch.o
 .data          0x0000000000000000        0x0 /home/uav/USTUAV/paparazzi/var/MYAC/ap/arch/stm32/mcu_periph/uart_arch.o
 .bss           0x0000000000000000        0x0 /home/uav/USTUAV/paparazzi/var/MYAC/ap/arch/stm32/mcu_periph/uart_arch.o
 .text          0x0000000000000000        0x0 /home/uav/USTUAV/paparazzi/var/MYAC/ap/subsystems/settings.o
 .data          0x0000000000000000        0x0 /home/uav/USTUAV/paparazzi/var/MYAC/ap/subsystems/settings.o
 .bss           0x0000000000000000        0x0 /home/uav/USTUAV/paparazzi/var/MYAC/ap/subsystems/settings.o
 .text.settings_store
                0x0000000000000000        0x2 /home/uav/USTUAV/paparazzi/var/MYAC/ap/subsystems/settings.o
 .bss.settings_store_now
                0x0000000000000000        0x1 /home/uav/USTUAV/paparazzi/var/MYAC/ap/subsystems/settings.o
 .bss.pers_settings
                0x0000000000000000        0x0 /home/uav/USTUAV/paparazzi/var/MYAC/ap/subsystems/settings.o
 .text          0x0000000000000000        0x0 /home/uav/USTUAV/paparazzi/var/MYAC/ap/arch/stm32/subsystems/settings_arch.o
 .data          0x0000000000000000        0x0 /home/uav/USTUAV/paparazzi/var/MYAC/ap/arch/stm32/subsystems/settings_arch.o
 .bss           0x0000000000000000        0x0 /home/uav/USTUAV/paparazzi/var/MYAC/ap/arch/stm32/subsystems/settings_arch.o
 .text.pflash_checksum
                0x0000000000000000       0x98 /home/uav/USTUAV/paparazzi/var/MYAC/ap/arch/stm32/subsystems/settings_arch.o
 .text.flash_detect
                0x0000000000000000       0x70 /home/uav/USTUAV/paparazzi/var/MYAC/ap/arch/stm32/subsystems/settings_arch.o
 .text.persistent_write
                0x0000000000000000      0x106 /home/uav/USTUAV/paparazzi/var/MYAC/ap/arch/stm32/subsystems/settings_arch.o
 .text.persistent_read
                0x0000000000000000       0x64 /home/uav/USTUAV/paparazzi/var/MYAC/ap/arch/stm32/subsystems/settings_arch.o
 .text          0x0000000000000000        0x0 /home/uav/USTUAV/paparazzi/var/MYAC/ap/arch/stm32/mcu_periph/adc_arch.o
 .data          0x0000000000000000        0x0 /home/uav/USTUAV/paparazzi/var/MYAC/ap/arch/stm32/mcu_periph/adc_arch.o
 .bss           0x0000000000000000        0x0 /home/uav/USTUAV/paparazzi/var/MYAC/ap/arch/stm32/mcu_periph/adc_arch.o
 .text          0x0000000000000000        0x0 /home/uav/USTUAV/paparazzi/var/MYAC/ap/arch/stm32/servos_direct_hw.o
 .data          0x0000000000000000        0x0 /home/uav/USTUAV/paparazzi/var/MYAC/ap/arch/stm32/servos_direct_hw.o
 .bss           0x0000000000000000        0x0 /home/uav/USTUAV/paparazzi/var/MYAC/ap/arch/stm32/servos_direct_hw.o
 .text          0x0000000000000000        0x0 /home/uav/USTUAV/paparazzi/var/MYAC/ap/actuators.o
 .data          0x0000000000000000        0x0 /home/uav/USTUAV/paparazzi/var/MYAC/ap/actuators.o
 .bss           0x0000000000000000        0x0 /home/uav/USTUAV/paparazzi/var/MYAC/ap/actuators.o
 .text          0x0000000000000000        0x0 /home/uav/USTUAV/paparazzi/var/MYAC/ap/firmwares/rotorcraft/actuators/arch/stm32/actuators_pwm_arch.o
 .data          0x0000000000000000        0x0 /home/uav/USTUAV/paparazzi/var/MYAC/ap/firmwares/rotorcraft/actuators/arch/stm32/actuators_pwm_arch.o
 .bss           0x0000000000000000        0x0 /home/uav/USTUAV/paparazzi/var/MYAC/ap/firmwares/rotorcraft/actuators/arch/stm32/actuators_pwm_arch.o
 .text          0x0000000000000000        0x0 /home/uav/USTUAV/paparazzi/var/MYAC/ap/subsystems/radio_control.o
 .data          0x0000000000000000        0x0 /home/uav/USTUAV/paparazzi/var/MYAC/ap/subsystems/radio_control.o
 .bss           0x0000000000000000        0x0 /home/uav/USTUAV/paparazzi/var/MYAC/ap/subsystems/radio_control.o
 .text          0x0000000000000000        0x0 /home/uav/USTUAV/paparazzi/var/MYAC/ap/subsystems/radio_control/spektrum.o
 .data          0x0000000000000000        0x0 /home/uav/USTUAV/paparazzi/var/MYAC/ap/subsystems/radio_control/spektrum.o
 .bss           0x0000000000000000        0x0 /home/uav/USTUAV/paparazzi/var/MYAC/ap/subsystems/radio_control/spektrum.o
 .text          0x0000000000000000        0x0 /home/uav/USTUAV/paparazzi/var/MYAC/ap/arch/stm32/subsystems/radio_control/spektrum_arch.o
 .data          0x0000000000000000        0x0 /home/uav/USTUAV/paparazzi/var/MYAC/ap/arch/stm32/subsystems/radio_control/spektrum_arch.o
 .bss           0x0000000000000000        0x0 /home/uav/USTUAV/paparazzi/var/MYAC/ap/arch/stm32/subsystems/radio_control/spektrum_arch.o
 .text.DebugInit
                0x0000000000000000       0x38 /home/uav/USTUAV/paparazzi/var/MYAC/ap/arch/stm32/subsystems/radio_control/spektrum_arch.o
 .text          0x0000000000000000        0x0 /home/uav/USTUAV/paparazzi/var/MYAC/ap/subsystems/datalink/downlink.o
 .data          0x0000000000000000        0x0 /home/uav/USTUAV/paparazzi/var/MYAC/ap/subsystems/datalink/downlink.o
 .bss           0x0000000000000000        0x0 /home/uav/USTUAV/paparazzi/var/MYAC/ap/subsystems/datalink/downlink.o
 .text          0x0000000000000000        0x0 /home/uav/USTUAV/paparazzi/var/MYAC/ap/subsystems/datalink/pprz_transport.o
 .data          0x0000000000000000        0x0 /home/uav/USTUAV/paparazzi/var/MYAC/ap/subsystems/datalink/pprz_transport.o
 .bss           0x0000000000000000        0x0 /home/uav/USTUAV/paparazzi/var/MYAC/ap/subsystems/datalink/pprz_transport.o
 .text          0x0000000000000000        0x0 /home/uav/USTUAV/paparazzi/var/MYAC/ap/firmwares/fixedwing/datalink.o
 .data          0x0000000000000000        0x0 /home/uav/USTUAV/paparazzi/var/MYAC/ap/firmwares/fixedwing/datalink.o
 .bss           0x0000000000000000        0x0 /home/uav/USTUAV/paparazzi/var/MYAC/ap/firmwares/fixedwing/datalink.o
 .text          0x0000000000000000        0x0 /home/uav/USTUAV/paparazzi/var/MYAC/ap/firmwares/fixedwing/stabilization/stabilization_attitude.o
 .data          0x0000000000000000        0x0 /home/uav/USTUAV/paparazzi/var/MYAC/ap/firmwares/fixedwing/stabilization/stabilization_attitude.o
 .bss           0x0000000000000000        0x0 /home/uav/USTUAV/paparazzi/var/MYAC/ap/firmwares/fixedwing/stabilization/stabilization_attitude.o
 .bss.h_ctl_auto1_rate
                0x0000000000000000        0x1 /home/uav/USTUAV/paparazzi/var/MYAC/ap/firmwares/fixedwing/stabilization/stabilization_attitude.o
 .bss.h_ctl_roll_slew
                0x0000000000000000        0x4 /home/uav/USTUAV/paparazzi/var/MYAC/ap/firmwares/fixedwing/stabilization/stabilization_attitude.o
 .bss.h_ctl_roll_pgain
                0x0000000000000000        0x4 /home/uav/USTUAV/paparazzi/var/MYAC/ap/firmwares/fixedwing/stabilization/stabilization_attitude.o
 .text          0x0000000000000000        0x0 /home/uav/USTUAV/paparazzi/var/MYAC/ap/firmwares/fixedwing/guidance/guidance_v.o
 .data          0x0000000000000000        0x0 /home/uav/USTUAV/paparazzi/var/MYAC/ap/firmwares/fixedwing/guidance/guidance_v.o
 .bss           0x0000000000000000        0x0 /home/uav/USTUAV/paparazzi/var/MYAC/ap/firmwares/fixedwing/guidance/guidance_v.o
 .text          0x0000000000000000        0x0 /home/uav/USTUAV/paparazzi/var/MYAC/ap/subsystems/imu.o
 .data          0x0000000000000000        0x0 /home/uav/USTUAV/paparazzi/var/MYAC/ap/subsystems/imu.o
 .bss           0x0000000000000000        0x0 /home/uav/USTUAV/paparazzi/var/MYAC/ap/subsystems/imu.o
 .text.imu_float_init
                0x0000000000000000       0x2c /home/uav/USTUAV/paparazzi/var/MYAC/ap/subsystems/imu.o
 .text          0x0000000000000000        0x0 /home/uav/USTUAV/paparazzi/var/MYAC/ap/subsystems/imu/imu_aspirin2.o
 .data          0x0000000000000000        0x0 /home/uav/USTUAV/paparazzi/var/MYAC/ap/subsystems/imu/imu_aspirin2.o
 .bss           0x0000000000000000        0x0 /home/uav/USTUAV/paparazzi/var/MYAC/ap/subsystems/imu/imu_aspirin2.o
 .text          0x0000000000000000        0x0 /home/uav/USTUAV/paparazzi/var/MYAC/ap/arch/stm32/mcu_periph/spi_arch.o
 .data          0x0000000000000000        0x0 /home/uav/USTUAV/paparazzi/var/MYAC/ap/arch/stm32/mcu_periph/spi_arch.o
 .bss           0x0000000000000000        0x0 /home/uav/USTUAV/paparazzi/var/MYAC/ap/arch/stm32/mcu_periph/spi_arch.o
 .text.spi_arch_int_disable
                0x0000000000000000       0x1e /home/uav/USTUAV/paparazzi/var/MYAC/ap/arch/stm32/mcu_periph/spi_arch.o
 .text          0x0000000000000000        0x0 /home/uav/USTUAV/paparazzi/var/MYAC/ap/mcu_periph/spi.o
 .data          0x0000000000000000        0x0 /home/uav/USTUAV/paparazzi/var/MYAC/ap/mcu_periph/spi.o
 .bss           0x0000000000000000        0x0 /home/uav/USTUAV/paparazzi/var/MYAC/ap/mcu_periph/spi.o
 .bss.spi_buffer_length
                0x0000000000000000        0x1 /home/uav/USTUAV/paparazzi/var/MYAC/ap/mcu_periph/spi.o
 .bss.spi_buffer_input
                0x0000000000000000        0x4 /home/uav/USTUAV/paparazzi/var/MYAC/ap/mcu_periph/spi.o
 .bss.spi_buffer_output
                0x0000000000000000        0x4 /home/uav/USTUAV/paparazzi/var/MYAC/ap/mcu_periph/spi.o
 .text          0x0000000000000000        0x0 /home/uav/USTUAV/paparazzi/var/MYAC/ap/subsystems/ahrs.o
 .data          0x0000000000000000        0x0 /home/uav/USTUAV/paparazzi/var/MYAC/ap/subsystems/ahrs.o
 .bss           0x0000000000000000        0x0 /home/uav/USTUAV/paparazzi/var/MYAC/ap/subsystems/ahrs.o
 .bss.ahrs_mag_offset
                0x0000000000000000        0x4 /home/uav/USTUAV/paparazzi/var/MYAC/ap/subsystems/ahrs.o
 .text          0x0000000000000000        0x0 /home/uav/USTUAV/paparazzi/var/MYAC/ap/subsystems/ahrs/ahrs_aligner.o
 .data          0x0000000000000000        0x0 /home/uav/USTUAV/paparazzi/var/MYAC/ap/subsystems/ahrs/ahrs_aligner.o
 .bss           0x0000000000000000        0x0 /home/uav/USTUAV/paparazzi/var/MYAC/ap/subsystems/ahrs/ahrs_aligner.o
 .text          0x0000000000000000        0x0 /home/uav/USTUAV/paparazzi/var/MYAC/ap/subsystems/ahrs/ahrs_float_dcm.o
 .data          0x0000000000000000        0x0 /home/uav/USTUAV/paparazzi/var/MYAC/ap/subsystems/ahrs/ahrs_float_dcm.o
 .bss           0x0000000000000000        0x0 /home/uav/USTUAV/paparazzi/var/MYAC/ap/subsystems/ahrs/ahrs_float_dcm.o
 .text.ahrs_update_mag
                0x0000000000000000        0x2 /home/uav/USTUAV/paparazzi/var/MYAC/ap/subsystems/ahrs/ahrs_float_dcm.o
 .rodata.G_Dt   0x0000000000000000        0x4 /home/uav/USTUAV/paparazzi/var/MYAC/ap/subsystems/ahrs/ahrs_float_dcm.o
 .text          0x0000000000000000        0x0 /home/uav/USTUAV/paparazzi/var/MYAC/ap/subsystems/gps/gps_ubx.o
 .data          0x0000000000000000        0x0 /home/uav/USTUAV/paparazzi/var/MYAC/ap/subsystems/gps/gps_ubx.o
 .bss           0x0000000000000000        0x0 /home/uav/USTUAV/paparazzi/var/MYAC/ap/subsystems/gps/gps_ubx.o
 .text.ubxsend_cfg_rst
                0x0000000000000000      0x134 /home/uav/USTUAV/paparazzi/var/MYAC/ap/subsystems/gps/gps_ubx.o
 .text          0x0000000000000000        0x0 /home/uav/USTUAV/paparazzi/var/MYAC/ap/subsystems/gps.o
 .data          0x0000000000000000        0x0 /home/uav/USTUAV/paparazzi/var/MYAC/ap/subsystems/gps.o
 .bss           0x0000000000000000        0x0 /home/uav/USTUAV/paparazzi/var/MYAC/ap/subsystems/gps.o
 .text          0x0000000000000000        0x0 /home/uav/USTUAV/paparazzi/var/MYAC/ap/subsystems/nav.o
 .data          0x0000000000000000        0x0 /home/uav/USTUAV/paparazzi/var/MYAC/ap/subsystems/nav.o
 .bss           0x0000000000000000        0x0 /home/uav/USTUAV/paparazzi/var/MYAC/ap/subsystems/nav.o
 .text.nav_eight_init
                0x0000000000000000        0xc /home/uav/USTUAV/paparazzi/var/MYAC/ap/subsystems/nav.o
 .bss.carrot_x  0x0000000000000000        0x4 /home/uav/USTUAV/paparazzi/var/MYAC/ap/subsystems/nav.o
 .bss.carrot_y  0x0000000000000000        0x4 /home/uav/USTUAV/paparazzi/var/MYAC/ap/subsystems/nav.o
 .bss.fp_pitch  0x0000000000000000        0x4 /home/uav/USTUAV/paparazzi/var/MYAC/ap/subsystems/nav.o
 .bss.nav_climb
                0x0000000000000000        0x4 /home/uav/USTUAV/paparazzi/var/MYAC/ap/subsystems/nav.o
 .bss.nav_ground_speed_setpoint
                0x0000000000000000        0x4 /home/uav/USTUAV/paparazzi/var/MYAC/ap/subsystems/nav.o
 .bss.rc_pitch  0x0000000000000000        0x4 /home/uav/USTUAV/paparazzi/var/MYAC/ap/subsystems/nav.o
 .bss.nav_ground_speed_pgain
                0x0000000000000000        0x4 /home/uav/USTUAV/paparazzi/var/MYAC/ap/subsystems/nav.o
 .text          0x0000000000000000        0x0 /home/uav/USTUAV/paparazzi/var/MYAC/ap/subsystems/navigation/common_flight_plan.o
 .data          0x0000000000000000        0x0 /home/uav/USTUAV/paparazzi/var/MYAC/ap/subsystems/navigation/common_flight_plan.o
 .bss           0x0000000000000000        0x0 /home/uav/USTUAV/paparazzi/var/MYAC/ap/subsystems/navigation/common_flight_plan.o
 .text          0x0000000000000000        0x0 /home/uav/USTUAV/paparazzi/var/MYAC/ap/subsystems/navigation/traffic_info.o
 .data          0x0000000000000000        0x0 /home/uav/USTUAV/paparazzi/var/MYAC/ap/subsystems/navigation/traffic_info.o
 .bss           0x0000000000000000        0x0 /home/uav/USTUAV/paparazzi/var/MYAC/ap/subsystems/navigation/traffic_info.o
 .text.get_ac_info
                0x0000000000000000       0x14 /home/uav/USTUAV/paparazzi/var/MYAC/ap/subsystems/navigation/traffic_info.o
 .text          0x0000000000000000        0x0 /home/uav/USTUAV/paparazzi/var/MYAC/ap/subsystems/navigation/nav_survey_rectangle.o
 .data          0x0000000000000000        0x0 /home/uav/USTUAV/paparazzi/var/MYAC/ap/subsystems/navigation/nav_survey_rectangle.o
 .bss           0x0000000000000000        0x0 /home/uav/USTUAV/paparazzi/var/MYAC/ap/subsystems/navigation/nav_survey_rectangle.o
 .text          0x0000000000000000        0x0 /home/uav/USTUAV/paparazzi/var/MYAC/ap/subsystems/navigation/nav_line.o
 .data          0x0000000000000000        0x0 /home/uav/USTUAV/paparazzi/var/MYAC/ap/subsystems/navigation/nav_line.o
 .bss           0x0000000000000000        0x0 /home/uav/USTUAV/paparazzi/var/MYAC/ap/subsystems/navigation/nav_line.o
 .text          0x0000000000000000        0x0 /home/uav/USTUAV/paparazzi/var/MYAC/ap/modules/core/sys_mon.o
 .data          0x0000000000000000        0x0 /home/uav/USTUAV/paparazzi/var/MYAC/ap/modules/core/sys_mon.o
 .bss           0x0000000000000000        0x0 /home/uav/USTUAV/paparazzi/var/MYAC/ap/modules/core/sys_mon.o
 .data          0x0000000000000000        0x0 /opt/paparazzi/arm-multilib/lib/gcc/arm-none-eabi/4.6.2/../../../../arm-none-eabi/lib/thumb2/libc.a(lib_a-memcpy.o)
 .bss           0x0000000000000000        0x0 /opt/paparazzi/arm-multilib/lib/gcc/arm-none-eabi/4.6.2/../../../../arm-none-eabi/lib/thumb2/libc.a(lib_a-memcpy.o)
 .data          0x0000000000000000        0x0 /opt/paparazzi/arm-multilib/lib/gcc/arm-none-eabi/4.6.2/../../../../arm-none-eabi/lib/thumb2/libm.a(lib_a-s_atan.o)
 .bss           0x0000000000000000        0x0 /opt/paparazzi/arm-multilib/lib/gcc/arm-none-eabi/4.6.2/../../../../arm-none-eabi/lib/thumb2/libm.a(lib_a-s_atan.o)
 .data          0x0000000000000000        0x0 /opt/paparazzi/arm-multilib/lib/gcc/arm-none-eabi/4.6.2/../../../../arm-none-eabi/lib/thumb2/libm.a(lib_a-s_cos.o)
 .bss           0x0000000000000000        0x0 /opt/paparazzi/arm-multilib/lib/gcc/arm-none-eabi/4.6.2/../../../../arm-none-eabi/lib/thumb2/libm.a(lib_a-s_cos.o)
 .data          0x0000000000000000        0x0 /opt/paparazzi/arm-multilib/lib/gcc/arm-none-eabi/4.6.2/../../../../arm-none-eabi/lib/thumb2/libm.a(lib_a-s_fabs.o)
 .bss           0x0000000000000000        0x0 /opt/paparazzi/arm-multilib/lib/gcc/arm-none-eabi/4.6.2/../../../../arm-none-eabi/lib/thumb2/libm.a(lib_a-s_fabs.o)
 .data          0x0000000000000000        0x0 /opt/paparazzi/arm-multilib/lib/gcc/arm-none-eabi/4.6.2/../../../../arm-none-eabi/lib/thumb2/libm.a(lib_a-s_rint.o)
 .bss           0x0000000000000000        0x0 /opt/paparazzi/arm-multilib/lib/gcc/arm-none-eabi/4.6.2/../../../../arm-none-eabi/lib/thumb2/libm.a(lib_a-s_rint.o)
 .data          0x0000000000000000        0x0 /opt/paparazzi/arm-multilib/lib/gcc/arm-none-eabi/4.6.2/../../../../arm-none-eabi/lib/thumb2/libm.a(lib_a-s_sin.o)
 .bss           0x0000000000000000        0x0 /opt/paparazzi/arm-multilib/lib/gcc/arm-none-eabi/4.6.2/../../../../arm-none-eabi/lib/thumb2/libm.a(lib_a-s_sin.o)
 .data          0x0000000000000000        0x0 /opt/paparazzi/arm-multilib/lib/gcc/arm-none-eabi/4.6.2/../../../../arm-none-eabi/lib/thumb2/libm.a(lib_a-s_tan.o)
 .bss           0x0000000000000000        0x0 /opt/paparazzi/arm-multilib/lib/gcc/arm-none-eabi/4.6.2/../../../../arm-none-eabi/lib/thumb2/libm.a(lib_a-s_tan.o)
 .data          0x0000000000000000        0x0 /opt/paparazzi/arm-multilib/lib/gcc/arm-none-eabi/4.6.2/../../../../arm-none-eabi/lib/thumb2/libm.a(lib_a-sf_atan.o)
 .bss           0x0000000000000000        0x0 /opt/paparazzi/arm-multilib/lib/gcc/arm-none-eabi/4.6.2/../../../../arm-none-eabi/lib/thumb2/libm.a(lib_a-sf_atan.o)
 .data          0x0000000000000000        0x0 /opt/paparazzi/arm-multilib/lib/gcc/arm-none-eabi/4.6.2/../../../../arm-none-eabi/lib/thumb2/libm.a(lib_a-sf_cos.o)
 .bss           0x0000000000000000        0x0 /opt/paparazzi/arm-multilib/lib/gcc/arm-none-eabi/4.6.2/../../../../arm-none-eabi/lib/thumb2/libm.a(lib_a-sf_cos.o)
 .data          0x0000000000000000        0x0 /opt/paparazzi/arm-multilib/lib/gcc/arm-none-eabi/4.6.2/../../../../arm-none-eabi/lib/thumb2/libm.a(lib_a-sf_fabs.o)
 .bss           0x0000000000000000        0x0 /opt/paparazzi/arm-multilib/lib/gcc/arm-none-eabi/4.6.2/../../../../arm-none-eabi/lib/thumb2/libm.a(lib_a-sf_fabs.o)
 .data          0x0000000000000000        0x0 /opt/paparazzi/arm-multilib/lib/gcc/arm-none-eabi/4.6.2/../../../../arm-none-eabi/lib/thumb2/libm.a(lib_a-sf_sin.o)
 .bss           0x0000000000000000        0x0 /opt/paparazzi/arm-multilib/lib/gcc/arm-none-eabi/4.6.2/../../../../arm-none-eabi/lib/thumb2/libm.a(lib_a-sf_sin.o)
 .data          0x0000000000000000        0x0 /opt/paparazzi/arm-multilib/lib/gcc/arm-none-eabi/4.6.2/../../../../arm-none-eabi/lib/thumb2/libm.a(lib_a-w_asin.o)
 .bss           0x0000000000000000        0x0 /opt/paparazzi/arm-multilib/lib/gcc/arm-none-eabi/4.6.2/../../../../arm-none-eabi/lib/thumb2/libm.a(lib_a-w_asin.o)
 .data          0x0000000000000000        0x0 /opt/paparazzi/arm-multilib/lib/gcc/arm-none-eabi/4.6.2/../../../../arm-none-eabi/lib/thumb2/libm.a(lib_a-w_atan2.o)
 .bss           0x0000000000000000        0x0 /opt/paparazzi/arm-multilib/lib/gcc/arm-none-eabi/4.6.2/../../../../arm-none-eabi/lib/thumb2/libm.a(lib_a-w_atan2.o)
 .data          0x0000000000000000        0x0 /opt/paparazzi/arm-multilib/lib/gcc/arm-none-eabi/4.6.2/../../../../arm-none-eabi/lib/thumb2/libm.a(lib_a-w_cosh.o)
 .bss           0x0000000000000000        0x0 /opt/paparazzi/arm-multilib/lib/gcc/arm-none-eabi/4.6.2/../../../../arm-none-eabi/lib/thumb2/libm.a(lib_a-w_cosh.o)
 .data          0x0000000000000000        0x0 /opt/paparazzi/arm-multilib/lib/gcc/arm-none-eabi/4.6.2/../../../../arm-none-eabi/lib/thumb2/libm.a(lib_a-w_exp.o)
 .bss           0x0000000000000000        0x0 /opt/paparazzi/arm-multilib/lib/gcc/arm-none-eabi/4.6.2/../../../../arm-none-eabi/lib/thumb2/libm.a(lib_a-w_exp.o)
 .data          0x0000000000000000        0x0 /opt/paparazzi/arm-multilib/lib/gcc/arm-none-eabi/4.6.2/../../../../arm-none-eabi/lib/thumb2/libm.a(lib_a-w_log.o)
 .bss           0x0000000000000000        0x0 /opt/paparazzi/arm-multilib/lib/gcc/arm-none-eabi/4.6.2/../../../../arm-none-eabi/lib/thumb2/libm.a(lib_a-w_log.o)
 .data          0x0000000000000000        0x0 /opt/paparazzi/arm-multilib/lib/gcc/arm-none-eabi/4.6.2/../../../../arm-none-eabi/lib/thumb2/libm.a(lib_a-w_pow.o)
 .bss           0x0000000000000000        0x0 /opt/paparazzi/arm-multilib/lib/gcc/arm-none-eabi/4.6.2/../../../../arm-none-eabi/lib/thumb2/libm.a(lib_a-w_pow.o)
 .data          0x0000000000000000        0x0 /opt/paparazzi/arm-multilib/lib/gcc/arm-none-eabi/4.6.2/../../../../arm-none-eabi/lib/thumb2/libm.a(lib_a-w_sinh.o)
 .bss           0x0000000000000000        0x0 /opt/paparazzi/arm-multilib/lib/gcc/arm-none-eabi/4.6.2/../../../../arm-none-eabi/lib/thumb2/libm.a(lib_a-w_sinh.o)
 .data          0x0000000000000000        0x0 /opt/paparazzi/arm-multilib/lib/gcc/arm-none-eabi/4.6.2/../../../../arm-none-eabi/lib/thumb2/libm.a(lib_a-w_sqrt.o)
 .bss           0x0000000000000000        0x0 /opt/paparazzi/arm-multilib/lib/gcc/arm-none-eabi/4.6.2/../../../../arm-none-eabi/lib/thumb2/libm.a(lib_a-w_sqrt.o)
 .data          0x0000000000000000        0x0 /opt/paparazzi/arm-multilib/lib/gcc/arm-none-eabi/4.6.2/../../../../arm-none-eabi/lib/thumb2/libm.a(lib_a-wf_asin.o)
 .bss           0x0000000000000000        0x0 /opt/paparazzi/arm-multilib/lib/gcc/arm-none-eabi/4.6.2/../../../../arm-none-eabi/lib/thumb2/libm.a(lib_a-wf_asin.o)
 .data          0x0000000000000000        0x0 /opt/paparazzi/arm-multilib/lib/gcc/arm-none-eabi/4.6.2/../../../../arm-none-eabi/lib/thumb2/libm.a(lib_a-wf_atan2.o)
 .bss           0x0000000000000000        0x0 /opt/paparazzi/arm-multilib/lib/gcc/arm-none-eabi/4.6.2/../../../../arm-none-eabi/lib/thumb2/libm.a(lib_a-wf_atan2.o)
 .text          0x0000000000000000      0x2dc /opt/paparazzi/arm-multilib/lib/gcc/arm-none-eabi/4.6.2/../../../../arm-none-eabi/lib/thumb2/libm.a(lib_a-wf_pow.o)
 .data          0x0000000000000000        0x0 /opt/paparazzi/arm-multilib/lib/gcc/arm-none-eabi/4.6.2/../../../../arm-none-eabi/lib/thumb2/libm.a(lib_a-wf_pow.o)
 .bss           0x0000000000000000        0x0 /opt/paparazzi/arm-multilib/lib/gcc/arm-none-eabi/4.6.2/../../../../arm-none-eabi/lib/thumb2/libm.a(lib_a-wf_pow.o)
 .rodata.str1.1
                0x0000000000000000        0x5 /opt/paparazzi/arm-multilib/lib/gcc/arm-none-eabi/4.6.2/../../../../arm-none-eabi/lib/thumb2/libm.a(lib_a-wf_pow.o)
 .text          0x0000000000000000       0x9c /opt/paparazzi/arm-multilib/lib/gcc/arm-none-eabi/4.6.2/../../../../arm-none-eabi/lib/thumb2/libm.a(lib_a-wf_sqrt.o)
 .data          0x0000000000000000        0x0 /opt/paparazzi/arm-multilib/lib/gcc/arm-none-eabi/4.6.2/../../../../arm-none-eabi/lib/thumb2/libm.a(lib_a-wf_sqrt.o)
 .bss           0x0000000000000000        0x0 /opt/paparazzi/arm-multilib/lib/gcc/arm-none-eabi/4.6.2/../../../../arm-none-eabi/lib/thumb2/libm.a(lib_a-wf_sqrt.o)
 .rodata.str1.1
                0x0000000000000000        0x6 /opt/paparazzi/arm-multilib/lib/gcc/arm-none-eabi/4.6.2/../../../../arm-none-eabi/lib/thumb2/libm.a(lib_a-wf_sqrt.o)
 .data          0x0000000000000000        0x0 /opt/paparazzi/arm-multilib/lib/gcc/arm-none-eabi/4.6.2/../../../../arm-none-eabi/lib/thumb2/libm.a(lib_a-e_asin.o)
 .bss           0x0000000000000000        0x0 /opt/paparazzi/arm-multilib/lib/gcc/arm-none-eabi/4.6.2/../../../../arm-none-eabi/lib/thumb2/libm.a(lib_a-e_asin.o)
 .data          0x0000000000000000        0x0 /opt/paparazzi/arm-multilib/lib/gcc/arm-none-eabi/4.6.2/../../../../arm-none-eabi/lib/thumb2/libm.a(lib_a-e_atan2.o)
 .bss           0x0000000000000000        0x0 /opt/paparazzi/arm-multilib/lib/gcc/arm-none-eabi/4.6.2/../../../../arm-none-eabi/lib/thumb2/libm.a(lib_a-e_atan2.o)
 .data          0x0000000000000000        0x0 /opt/paparazzi/arm-multilib/lib/gcc/arm-none-eabi/4.6.2/../../../../arm-none-eabi/lib/thumb2/libm.a(lib_a-e_cosh.o)
 .bss           0x0000000000000000        0x0 /opt/paparazzi/arm-multilib/lib/gcc/arm-none-eabi/4.6.2/../../../../arm-none-eabi/lib/thumb2/libm.a(lib_a-e_cosh.o)
 .data          0x0000000000000000        0x0 /opt/paparazzi/arm-multilib/lib/gcc/arm-none-eabi/4.6.2/../../../../arm-none-eabi/lib/thumb2/libm.a(lib_a-e_exp.o)
 .bss           0x0000000000000000        0x0 /opt/paparazzi/arm-multilib/lib/gcc/arm-none-eabi/4.6.2/../../../../arm-none-eabi/lib/thumb2/libm.a(lib_a-e_exp.o)
 .data          0x0000000000000000        0x0 /opt/paparazzi/arm-multilib/lib/gcc/arm-none-eabi/4.6.2/../../../../arm-none-eabi/lib/thumb2/libm.a(lib_a-e_log.o)
 .bss           0x0000000000000000        0x0 /opt/paparazzi/arm-multilib/lib/gcc/arm-none-eabi/4.6.2/../../../../arm-none-eabi/lib/thumb2/libm.a(lib_a-e_log.o)
 .data          0x0000000000000000        0x0 /opt/paparazzi/arm-multilib/lib/gcc/arm-none-eabi/4.6.2/../../../../arm-none-eabi/lib/thumb2/libm.a(lib_a-e_pow.o)
 .bss           0x0000000000000000        0x0 /opt/paparazzi/arm-multilib/lib/gcc/arm-none-eabi/4.6.2/../../../../arm-none-eabi/lib/thumb2/libm.a(lib_a-e_pow.o)
 .data          0x0000000000000000        0x0 /opt/paparazzi/arm-multilib/lib/gcc/arm-none-eabi/4.6.2/../../../../arm-none-eabi/lib/thumb2/libm.a(lib_a-e_rem_pio2.o)
 .bss           0x0000000000000000        0x0 /opt/paparazzi/arm-multilib/lib/gcc/arm-none-eabi/4.6.2/../../../../arm-none-eabi/lib/thumb2/libm.a(lib_a-e_rem_pio2.o)
 .data          0x0000000000000000        0x0 /opt/paparazzi/arm-multilib/lib/gcc/arm-none-eabi/4.6.2/../../../../arm-none-eabi/lib/thumb2/libm.a(lib_a-e_sinh.o)
 .bss           0x0000000000000000        0x0 /opt/paparazzi/arm-multilib/lib/gcc/arm-none-eabi/4.6.2/../../../../arm-none-eabi/lib/thumb2/libm.a(lib_a-e_sinh.o)
 .data          0x0000000000000000        0x0 /opt/paparazzi/arm-multilib/lib/gcc/arm-none-eabi/4.6.2/../../../../arm-none-eabi/lib/thumb2/libm.a(lib_a-e_sqrt.o)
 .bss           0x0000000000000000        0x0 /opt/paparazzi/arm-multilib/lib/gcc/arm-none-eabi/4.6.2/../../../../arm-none-eabi/lib/thumb2/libm.a(lib_a-e_sqrt.o)
 .data          0x0000000000000000        0x0 /opt/paparazzi/arm-multilib/lib/gcc/arm-none-eabi/4.6.2/../../../../arm-none-eabi/lib/thumb2/libm.a(lib_a-ef_asin.o)
 .bss           0x0000000000000000        0x0 /opt/paparazzi/arm-multilib/lib/gcc/arm-none-eabi/4.6.2/../../../../arm-none-eabi/lib/thumb2/libm.a(lib_a-ef_asin.o)
 .data          0x0000000000000000        0x0 /opt/paparazzi/arm-multilib/lib/gcc/arm-none-eabi/4.6.2/../../../../arm-none-eabi/lib/thumb2/libm.a(lib_a-ef_atan2.o)
 .bss           0x0000000000000000        0x0 /opt/paparazzi/arm-multilib/lib/gcc/arm-none-eabi/4.6.2/../../../../arm-none-eabi/lib/thumb2/libm.a(lib_a-ef_atan2.o)
 .text          0x0000000000000000      0x6d4 /opt/paparazzi/arm-multilib/lib/gcc/arm-none-eabi/4.6.2/../../../../arm-none-eabi/lib/thumb2/libm.a(lib_a-ef_pow.o)
 .data          0x0000000000000000        0x0 /opt/paparazzi/arm-multilib/lib/gcc/arm-none-eabi/4.6.2/../../../../arm-none-eabi/lib/thumb2/libm.a(lib_a-ef_pow.o)
 .bss           0x0000000000000000        0x0 /opt/paparazzi/arm-multilib/lib/gcc/arm-none-eabi/4.6.2/../../../../arm-none-eabi/lib/thumb2/libm.a(lib_a-ef_pow.o)
 .rodata        0x0000000000000000       0x18 /opt/paparazzi/arm-multilib/lib/gcc/arm-none-eabi/4.6.2/../../../../arm-none-eabi/lib/thumb2/libm.a(lib_a-ef_pow.o)
 .rodata.str1.1
                0x0000000000000000        0x1 /opt/paparazzi/arm-multilib/lib/gcc/arm-none-eabi/4.6.2/../../../../arm-none-eabi/lib/thumb2/libm.a(lib_a-ef_pow.o)
 .data          0x0000000000000000        0x0 /opt/paparazzi/arm-multilib/lib/gcc/arm-none-eabi/4.6.2/../../../../arm-none-eabi/lib/thumb2/libm.a(lib_a-ef_rem_pio2.o)
 .bss           0x0000000000000000        0x0 /opt/paparazzi/arm-multilib/lib/gcc/arm-none-eabi/4.6.2/../../../../arm-none-eabi/lib/thumb2/libm.a(lib_a-ef_rem_pio2.o)
 .data          0x0000000000000000        0x0 /opt/paparazzi/arm-multilib/lib/gcc/arm-none-eabi/4.6.2/../../../../arm-none-eabi/lib/thumb2/libm.a(lib_a-ef_sqrt.o)
 .bss           0x0000000000000000        0x0 /opt/paparazzi/arm-multilib/lib/gcc/arm-none-eabi/4.6.2/../../../../arm-none-eabi/lib/thumb2/libm.a(lib_a-ef_sqrt.o)
 .data          0x0000000000000000        0x0 /opt/paparazzi/arm-multilib/lib/gcc/arm-none-eabi/4.6.2/../../../../arm-none-eabi/lib/thumb2/libm.a(lib_a-k_cos.o)
 .bss           0x0000000000000000        0x0 /opt/paparazzi/arm-multilib/lib/gcc/arm-none-eabi/4.6.2/../../../../arm-none-eabi/lib/thumb2/libm.a(lib_a-k_cos.o)
 .data          0x0000000000000000        0x0 /opt/paparazzi/arm-multilib/lib/gcc/arm-none-eabi/4.6.2/../../../../arm-none-eabi/lib/thumb2/libm.a(lib_a-k_rem_pio2.o)
 .bss           0x0000000000000000        0x0 /opt/paparazzi/arm-multilib/lib/gcc/arm-none-eabi/4.6.2/../../../../arm-none-eabi/lib/thumb2/libm.a(lib_a-k_rem_pio2.o)
 .data          0x0000000000000000        0x0 /opt/paparazzi/arm-multilib/lib/gcc/arm-none-eabi/4.6.2/../../../../arm-none-eabi/lib/thumb2/libm.a(lib_a-k_sin.o)
 .bss           0x0000000000000000        0x0 /opt/paparazzi/arm-multilib/lib/gcc/arm-none-eabi/4.6.2/../../../../arm-none-eabi/lib/thumb2/libm.a(lib_a-k_sin.o)
 .data          0x0000000000000000        0x0 /opt/paparazzi/arm-multilib/lib/gcc/arm-none-eabi/4.6.2/../../../../arm-none-eabi/lib/thumb2/libm.a(lib_a-k_tan.o)
 .bss           0x0000000000000000        0x0 /opt/paparazzi/arm-multilib/lib/gcc/arm-none-eabi/4.6.2/../../../../arm-none-eabi/lib/thumb2/libm.a(lib_a-k_tan.o)
 .data          0x0000000000000000        0x0 /opt/paparazzi/arm-multilib/lib/gcc/arm-none-eabi/4.6.2/../../../../arm-none-eabi/lib/thumb2/libm.a(lib_a-kf_cos.o)
 .bss           0x0000000000000000        0x0 /opt/paparazzi/arm-multilib/lib/gcc/arm-none-eabi/4.6.2/../../../../arm-none-eabi/lib/thumb2/libm.a(lib_a-kf_cos.o)
 .data          0x0000000000000000        0x0 /opt/paparazzi/arm-multilib/lib/gcc/arm-none-eabi/4.6.2/../../../../arm-none-eabi/lib/thumb2/libm.a(lib_a-kf_rem_pio2.o)
 .bss           0x0000000000000000        0x0 /opt/paparazzi/arm-multilib/lib/gcc/arm-none-eabi/4.6.2/../../../../arm-none-eabi/lib/thumb2/libm.a(lib_a-kf_rem_pio2.o)
 .data          0x0000000000000000        0x0 /opt/paparazzi/arm-multilib/lib/gcc/arm-none-eabi/4.6.2/../../../../arm-none-eabi/lib/thumb2/libm.a(lib_a-kf_sin.o)
 .bss           0x0000000000000000        0x0 /opt/paparazzi/arm-multilib/lib/gcc/arm-none-eabi/4.6.2/../../../../arm-none-eabi/lib/thumb2/libm.a(lib_a-kf_sin.o)
 .data          0x0000000000000000        0x0 /opt/paparazzi/arm-multilib/lib/gcc/arm-none-eabi/4.6.2/../../../../arm-none-eabi/lib/thumb2/libm.a(lib_a-s_expm1.o)
 .bss           0x0000000000000000        0x0 /opt/paparazzi/arm-multilib/lib/gcc/arm-none-eabi/4.6.2/../../../../arm-none-eabi/lib/thumb2/libm.a(lib_a-s_expm1.o)
 .data          0x0000000000000000        0x0 /opt/paparazzi/arm-multilib/lib/gcc/arm-none-eabi/4.6.2/../../../../arm-none-eabi/lib/thumb2/libm.a(lib_a-s_finite.o)
 .bss           0x0000000000000000        0x0 /opt/paparazzi/arm-multilib/lib/gcc/arm-none-eabi/4.6.2/../../../../arm-none-eabi/lib/thumb2/libm.a(lib_a-s_finite.o)
 .data          0x0000000000000000        0x0 /opt/paparazzi/arm-multilib/lib/gcc/arm-none-eabi/4.6.2/../../../../arm-none-eabi/lib/thumb2/libm.a(lib_a-s_floor.o)
 .bss           0x0000000000000000        0x0 /opt/paparazzi/arm-multilib/lib/gcc/arm-none-eabi/4.6.2/../../../../arm-none-eabi/lib/thumb2/libm.a(lib_a-s_floor.o)
 .data          0x0000000000000000        0x0 /opt/paparazzi/arm-multilib/lib/gcc/arm-none-eabi/4.6.2/../../../../arm-none-eabi/lib/thumb2/libm.a(lib_a-s_fpclassify.o)
 .bss           0x0000000000000000        0x0 /opt/paparazzi/arm-multilib/lib/gcc/arm-none-eabi/4.6.2/../../../../arm-none-eabi/lib/thumb2/libm.a(lib_a-s_fpclassify.o)
 .text          0x0000000000000000        0x0 /opt/paparazzi/arm-multilib/lib/gcc/arm-none-eabi/4.6.2/../../../../arm-none-eabi/lib/thumb2/libm.a(lib_a-s_lib_ver.o)
 .bss           0x0000000000000000        0x0 /opt/paparazzi/arm-multilib/lib/gcc/arm-none-eabi/4.6.2/../../../../arm-none-eabi/lib/thumb2/libm.a(lib_a-s_lib_ver.o)
 .data          0x0000000000000000        0x0 /opt/paparazzi/arm-multilib/lib/gcc/arm-none-eabi/4.6.2/../../../../arm-none-eabi/lib/thumb2/libm.a(lib_a-s_matherr.o)
 .bss           0x0000000000000000        0x0 /opt/paparazzi/arm-multilib/lib/gcc/arm-none-eabi/4.6.2/../../../../arm-none-eabi/lib/thumb2/libm.a(lib_a-s_matherr.o)
 .data          0x0000000000000000        0x0 /opt/paparazzi/arm-multilib/lib/gcc/arm-none-eabi/4.6.2/../../../../arm-none-eabi/lib/thumb2/libm.a(lib_a-s_nan.o)
 .bss           0x0000000000000000        0x0 /opt/paparazzi/arm-multilib/lib/gcc/arm-none-eabi/4.6.2/../../../../arm-none-eabi/lib/thumb2/libm.a(lib_a-s_nan.o)
 .data          0x0000000000000000        0x0 /opt/paparazzi/arm-multilib/lib/gcc/arm-none-eabi/4.6.2/../../../../arm-none-eabi/lib/thumb2/libm.a(lib_a-s_scalbn.o)
 .bss           0x0000000000000000        0x0 /opt/paparazzi/arm-multilib/lib/gcc/arm-none-eabi/4.6.2/../../../../arm-none-eabi/lib/thumb2/libm.a(lib_a-s_scalbn.o)
 .text          0x0000000000000000       0x10 /opt/paparazzi/arm-multilib/lib/gcc/arm-none-eabi/4.6.2/../../../../arm-none-eabi/lib/thumb2/libm.a(lib_a-sf_finite.o)
 .data          0x0000000000000000        0x0 /opt/paparazzi/arm-multilib/lib/gcc/arm-none-eabi/4.6.2/../../../../arm-none-eabi/lib/thumb2/libm.a(lib_a-sf_finite.o)
 .bss           0x0000000000000000        0x0 /opt/paparazzi/arm-multilib/lib/gcc/arm-none-eabi/4.6.2/../../../../arm-none-eabi/lib/thumb2/libm.a(lib_a-sf_finite.o)
 .data          0x0000000000000000        0x0 /opt/paparazzi/arm-multilib/lib/gcc/arm-none-eabi/4.6.2/../../../../arm-none-eabi/lib/thumb2/libm.a(lib_a-sf_floor.o)
 .bss           0x0000000000000000        0x0 /opt/paparazzi/arm-multilib/lib/gcc/arm-none-eabi/4.6.2/../../../../arm-none-eabi/lib/thumb2/libm.a(lib_a-sf_floor.o)
 .data          0x0000000000000000        0x0 /opt/paparazzi/arm-multilib/lib/gcc/arm-none-eabi/4.6.2/../../../../arm-none-eabi/lib/thumb2/libm.a(lib_a-sf_fpclassify.o)
 .bss           0x0000000000000000        0x0 /opt/paparazzi/arm-multilib/lib/gcc/arm-none-eabi/4.6.2/../../../../arm-none-eabi/lib/thumb2/libm.a(lib_a-sf_fpclassify.o)
 .text          0x0000000000000000        0x8 /opt/paparazzi/arm-multilib/lib/gcc/arm-none-eabi/4.6.2/../../../../arm-none-eabi/lib/thumb2/libm.a(lib_a-sf_nan.o)
 .data          0x0000000000000000        0x0 /opt/paparazzi/arm-multilib/lib/gcc/arm-none-eabi/4.6.2/../../../../arm-none-eabi/lib/thumb2/libm.a(lib_a-sf_nan.o)
 .bss           0x0000000000000000        0x0 /opt/paparazzi/arm-multilib/lib/gcc/arm-none-eabi/4.6.2/../../../../arm-none-eabi/lib/thumb2/libm.a(lib_a-sf_nan.o)
 .data          0x0000000000000000        0x0 /opt/paparazzi/arm-multilib/lib/gcc/arm-none-eabi/4.6.2/../../../../arm-none-eabi/lib/thumb2/libm.a(lib_a-sf_scalbn.o)
 .bss           0x0000000000000000        0x0 /opt/paparazzi/arm-multilib/lib/gcc/arm-none-eabi/4.6.2/../../../../arm-none-eabi/lib/thumb2/libm.a(lib_a-sf_scalbn.o)
 .data          0x0000000000000000        0x0 /opt/paparazzi/arm-multilib/lib/gcc/arm-none-eabi/4.6.2/../../../../arm-none-eabi/lib/thumb2/libm.a(lib_a-s_copysign.o)
 .bss           0x0000000000000000        0x0 /opt/paparazzi/arm-multilib/lib/gcc/arm-none-eabi/4.6.2/../../../../arm-none-eabi/lib/thumb2/libm.a(lib_a-s_copysign.o)
 .data          0x0000000000000000        0x0 /opt/paparazzi/arm-multilib/lib/gcc/arm-none-eabi/4.6.2/../../../../arm-none-eabi/lib/thumb2/libm.a(lib_a-sf_copysign.o)
 .bss           0x0000000000000000        0x0 /opt/paparazzi/arm-multilib/lib/gcc/arm-none-eabi/4.6.2/../../../../arm-none-eabi/lib/thumb2/libm.a(lib_a-sf_copysign.o)
 .data          0x0000000000000000        0x0 /opt/paparazzi/arm-multilib/lib/gcc/arm-none-eabi/4.6.2/thumb2/libgcc.a(_divsi3.o)
 .bss           0x0000000000000000        0x0 /opt/paparazzi/arm-multilib/lib/gcc/arm-none-eabi/4.6.2/thumb2/libgcc.a(_divsi3.o)
 .data          0x0000000000000000        0x0 /opt/paparazzi/arm-multilib/lib/gcc/arm-none-eabi/4.6.2/thumb2/libgcc.a(_dvmd_tls.o)
 .bss           0x0000000000000000        0x0 /opt/paparazzi/arm-multilib/lib/gcc/arm-none-eabi/4.6.2/thumb2/libgcc.a(_dvmd_tls.o)
 .data          0x0000000000000000        0x0 /opt/paparazzi/arm-multilib/lib/gcc/arm-none-eabi/4.6.2/thumb2/libgcc.a(_arm_addsubdf3.o)
 .bss           0x0000000000000000        0x0 /opt/paparazzi/arm-multilib/lib/gcc/arm-none-eabi/4.6.2/thumb2/libgcc.a(_arm_addsubdf3.o)
 .data          0x0000000000000000        0x0 /opt/paparazzi/arm-multilib/lib/gcc/arm-none-eabi/4.6.2/thumb2/libgcc.a(_arm_muldivdf3.o)
 .bss           0x0000000000000000        0x0 /opt/paparazzi/arm-multilib/lib/gcc/arm-none-eabi/4.6.2/thumb2/libgcc.a(_arm_muldivdf3.o)
 .data          0x0000000000000000        0x0 /opt/paparazzi/arm-multilib/lib/gcc/arm-none-eabi/4.6.2/thumb2/libgcc.a(_arm_cmpdf2.o)
 .bss           0x0000000000000000        0x0 /opt/paparazzi/arm-multilib/lib/gcc/arm-none-eabi/4.6.2/thumb2/libgcc.a(_arm_cmpdf2.o)
 .data          0x0000000000000000        0x0 /opt/paparazzi/arm-multilib/lib/gcc/arm-none-eabi/4.6.2/thumb2/libgcc.a(_arm_fixdfsi.o)
 .bss           0x0000000000000000        0x0 /opt/paparazzi/arm-multilib/lib/gcc/arm-none-eabi/4.6.2/thumb2/libgcc.a(_arm_fixdfsi.o)
 .data          0x0000000000000000        0x0 /opt/paparazzi/arm-multilib/lib/gcc/arm-none-eabi/4.6.2/thumb2/libgcc.a(_arm_fixunsdfsi.o)
 .bss           0x0000000000000000        0x0 /opt/paparazzi/arm-multilib/lib/gcc/arm-none-eabi/4.6.2/thumb2/libgcc.a(_arm_fixunsdfsi.o)
 .data          0x0000000000000000        0x0 /opt/paparazzi/arm-multilib/lib/gcc/arm-none-eabi/4.6.2/thumb2/libgcc.a(_arm_truncdfsf2.o)
 .bss           0x0000000000000000        0x0 /opt/paparazzi/arm-multilib/lib/gcc/arm-none-eabi/4.6.2/thumb2/libgcc.a(_arm_truncdfsf2.o)
 .data          0x0000000000000000        0x0 /opt/paparazzi/arm-multilib/lib/gcc/arm-none-eabi/4.6.2/thumb2/libgcc.a(_arm_addsubsf3.o)
 .bss           0x0000000000000000        0x0 /opt/paparazzi/arm-multilib/lib/gcc/arm-none-eabi/4.6.2/thumb2/libgcc.a(_arm_addsubsf3.o)
 .data          0x0000000000000000        0x0 /opt/paparazzi/arm-multilib/lib/gcc/arm-none-eabi/4.6.2/thumb2/libgcc.a(_arm_muldivsf3.o)
 .bss           0x0000000000000000        0x0 /opt/paparazzi/arm-multilib/lib/gcc/arm-none-eabi/4.6.2/thumb2/libgcc.a(_arm_muldivsf3.o)
 .data          0x0000000000000000        0x0 /opt/paparazzi/arm-multilib/lib/gcc/arm-none-eabi/4.6.2/thumb2/libgcc.a(_arm_cmpsf2.o)
 .bss           0x0000000000000000        0x0 /opt/paparazzi/arm-multilib/lib/gcc/arm-none-eabi/4.6.2/thumb2/libgcc.a(_arm_cmpsf2.o)
 .data          0x0000000000000000        0x0 /opt/paparazzi/arm-multilib/lib/gcc/arm-none-eabi/4.6.2/thumb2/libgcc.a(_arm_fixsfsi.o)
 .bss           0x0000000000000000        0x0 /opt/paparazzi/arm-multilib/lib/gcc/arm-none-eabi/4.6.2/thumb2/libgcc.a(_arm_fixsfsi.o)
 .data          0x0000000000000000        0x0 /opt/paparazzi/arm-multilib/lib/gcc/arm-none-eabi/4.6.2/thumb2/libgcc.a(_arm_fixunssfsi.o)
 .bss           0x0000000000000000        0x0 /opt/paparazzi/arm-multilib/lib/gcc/arm-none-eabi/4.6.2/thumb2/libgcc.a(_arm_fixunssfsi.o)
 .text          0x0000000000000000        0x0 /opt/paparazzi/arm-multilib/lib/gcc/arm-none-eabi/4.6.2/../../../../arm-none-eabi/lib/libstm32.a(stm32_adc.o)
 .data          0x0000000000000000        0x0 /opt/paparazzi/arm-multilib/lib/gcc/arm-none-eabi/4.6.2/../../../../arm-none-eabi/lib/libstm32.a(stm32_adc.o)
 .bss           0x0000000000000000        0x0 /opt/paparazzi/arm-multilib/lib/gcc/arm-none-eabi/4.6.2/../../../../arm-none-eabi/lib/libstm32.a(stm32_adc.o)
 .text.ADC_DeInit
                0x0000000000000000       0x58 /opt/paparazzi/arm-multilib/lib/gcc/arm-none-eabi/4.6.2/../../../../arm-none-eabi/lib/libstm32.a(stm32_adc.o)
 .text.ADC_StructInit
                0x0000000000000000       0x12 /opt/paparazzi/arm-multilib/lib/gcc/arm-none-eabi/4.6.2/../../../../arm-none-eabi/lib/libstm32.a(stm32_adc.o)
 .text.ADC_DMACmd
                0x0000000000000000       0x12 /opt/paparazzi/arm-multilib/lib/gcc/arm-none-eabi/4.6.2/../../../../arm-none-eabi/lib/libstm32.a(stm32_adc.o)
 .text.ADC_SoftwareStartConvCmd
                0x0000000000000000       0x12 /opt/paparazzi/arm-multilib/lib/gcc/arm-none-eabi/4.6.2/../../../../arm-none-eabi/lib/libstm32.a(stm32_adc.o)
 .text.ADC_GetSoftwareStartConvStatus
                0x0000000000000000        0x8 /opt/paparazzi/arm-multilib/lib/gcc/arm-none-eabi/4.6.2/../../../../arm-none-eabi/lib/libstm32.a(stm32_adc.o)
 .text.ADC_DiscModeChannelCountConfig
                0x0000000000000000       0x10 /opt/paparazzi/arm-multilib/lib/gcc/arm-none-eabi/4.6.2/../../../../arm-none-eabi/lib/libstm32.a(stm32_adc.o)
 .text.ADC_DiscModeCmd
                0x0000000000000000       0x12 /opt/paparazzi/arm-multilib/lib/gcc/arm-none-eabi/4.6.2/../../../../arm-none-eabi/lib/libstm32.a(stm32_adc.o)
 .text.ADC_RegularChannelConfig
                0x0000000000000000       0x8c /opt/paparazzi/arm-multilib/lib/gcc/arm-none-eabi/4.6.2/../../../../arm-none-eabi/lib/libstm32.a(stm32_adc.o)
 .text.ADC_ExternalTrigConvCmd
                0x0000000000000000       0x12 /opt/paparazzi/arm-multilib/lib/gcc/arm-none-eabi/4.6.2/../../../../arm-none-eabi/lib/libstm32.a(stm32_adc.o)
 .text.ADC_GetConversionValue
                0x0000000000000000        0x6 /opt/paparazzi/arm-multilib/lib/gcc/arm-none-eabi/4.6.2/../../../../arm-none-eabi/lib/libstm32.a(stm32_adc.o)
 .text.ADC_GetDualModeConversionValue
                0x0000000000000000        0xc /opt/paparazzi/arm-multilib/lib/gcc/arm-none-eabi/4.6.2/../../../../arm-none-eabi/lib/libstm32.a(stm32_adc.o)
 .text.ADC_AutoInjectedConvCmd
                0x0000000000000000       0x12 /opt/paparazzi/arm-multilib/lib/gcc/arm-none-eabi/4.6.2/../../../../arm-none-eabi/lib/libstm32.a(stm32_adc.o)
 .text.ADC_InjectedDiscModeCmd
                0x0000000000000000       0x12 /opt/paparazzi/arm-multilib/lib/gcc/arm-none-eabi/4.6.2/../../../../arm-none-eabi/lib/libstm32.a(stm32_adc.o)
 .text.ADC_SoftwareStartInjectedConvCmd
                0x0000000000000000       0x12 /opt/paparazzi/arm-multilib/lib/gcc/arm-none-eabi/4.6.2/../../../../arm-none-eabi/lib/libstm32.a(stm32_adc.o)
 .text.ADC_GetSoftwareStartInjectedConvCmdStatus
                0x0000000000000000        0x8 /opt/paparazzi/arm-multilib/lib/gcc/arm-none-eabi/4.6.2/../../../../arm-none-eabi/lib/libstm32.a(stm32_adc.o)
 .text.ADC_SetInjectedOffset
                0x0000000000000000        0x4 /opt/paparazzi/arm-multilib/lib/gcc/arm-none-eabi/4.6.2/../../../../arm-none-eabi/lib/libstm32.a(stm32_adc.o)
 .text.ADC_AnalogWatchdogCmd
                0x0000000000000000       0x10 /opt/paparazzi/arm-multilib/lib/gcc/arm-none-eabi/4.6.2/../../../../arm-none-eabi/lib/libstm32.a(stm32_adc.o)
 .text.ADC_AnalogWatchdogThresholdsConfig
                0x0000000000000000        0x6 /opt/paparazzi/arm-multilib/lib/gcc/arm-none-eabi/4.6.2/../../../../arm-none-eabi/lib/libstm32.a(stm32_adc.o)
 .text.ADC_AnalogWatchdogSingleChannelConfig
                0x0000000000000000        0xc /opt/paparazzi/arm-multilib/lib/gcc/arm-none-eabi/4.6.2/../../../../arm-none-eabi/lib/libstm32.a(stm32_adc.o)
 .text.ADC_TempSensorVrefintCmd
                0x0000000000000000       0x18 /opt/paparazzi/arm-multilib/lib/gcc/arm-none-eabi/4.6.2/../../../../arm-none-eabi/lib/libstm32.a(stm32_adc.o)
 .text.ADC_GetFlagStatus
                0x0000000000000000        0xc /opt/paparazzi/arm-multilib/lib/gcc/arm-none-eabi/4.6.2/../../../../arm-none-eabi/lib/libstm32.a(stm32_adc.o)
 .text.ADC_ClearFlag
                0x0000000000000000        0x6 /opt/paparazzi/arm-multilib/lib/gcc/arm-none-eabi/4.6.2/../../../../arm-none-eabi/lib/libstm32.a(stm32_adc.o)
 .text.ADC_GetITStatus
                0x0000000000000000       0x16 /opt/paparazzi/arm-multilib/lib/gcc/arm-none-eabi/4.6.2/../../../../arm-none-eabi/lib/libstm32.a(stm32_adc.o)
 .text          0x0000000000000000        0x0 /opt/paparazzi/arm-multilib/lib/gcc/arm-none-eabi/4.6.2/../../../../arm-none-eabi/lib/libstm32.a(stm32_tim.o)
 .data          0x0000000000000000        0x0 /opt/paparazzi/arm-multilib/lib/gcc/arm-none-eabi/4.6.2/../../../../arm-none-eabi/lib/libstm32.a(stm32_tim.o)
 .bss           0x0000000000000000        0x0 /opt/paparazzi/arm-multilib/lib/gcc/arm-none-eabi/4.6.2/../../../../arm-none-eabi/lib/libstm32.a(stm32_tim.o)
 .text.TI1_Config
                0x0000000000000000       0x32 /opt/paparazzi/arm-multilib/lib/gcc/arm-none-eabi/4.6.2/../../../../arm-none-eabi/lib/libstm32.a(stm32_tim.o)
 .text.TI2_Config
                0x0000000000000000       0x3a /opt/paparazzi/arm-multilib/lib/gcc/arm-none-eabi/4.6.2/../../../../arm-none-eabi/lib/libstm32.a(stm32_tim.o)
 .text.TIM_DeInit
                0x0000000000000000       0xcc /opt/paparazzi/arm-multilib/lib/gcc/arm-none-eabi/4.6.2/../../../../arm-none-eabi/lib/libstm32.a(stm32_tim.o)
 .text.TIM_BDTRConfig
                0x0000000000000000       0x22 /opt/paparazzi/arm-multilib/lib/gcc/arm-none-eabi/4.6.2/../../../../arm-none-eabi/lib/libstm32.a(stm32_tim.o)
 .text.TIM_OCStructInit
                0x0000000000000000       0x14 /opt/paparazzi/arm-multilib/lib/gcc/arm-none-eabi/4.6.2/../../../../arm-none-eabi/lib/libstm32.a(stm32_tim.o)
 .text.TIM_ICStructInit
                0x0000000000000000       0x10 /opt/paparazzi/arm-multilib/lib/gcc/arm-none-eabi/4.6.2/../../../../arm-none-eabi/lib/libstm32.a(stm32_tim.o)
 .text.TIM_BDTRStructInit
                0x0000000000000000       0x12 /opt/paparazzi/arm-multilib/lib/gcc/arm-none-eabi/4.6.2/../../../../arm-none-eabi/lib/libstm32.a(stm32_tim.o)
 .text.TIM_GenerateEvent
                0x0000000000000000        0x4 /opt/paparazzi/arm-multilib/lib/gcc/arm-none-eabi/4.6.2/../../../../arm-none-eabi/lib/libstm32.a(stm32_tim.o)
 .text.TIM_DMAConfig
                0x0000000000000000        0x8 /opt/paparazzi/arm-multilib/lib/gcc/arm-none-eabi/4.6.2/../../../../arm-none-eabi/lib/libstm32.a(stm32_tim.o)
 .text.TIM_DMACmd
                0x0000000000000000       0x12 /opt/paparazzi/arm-multilib/lib/gcc/arm-none-eabi/4.6.2/../../../../arm-none-eabi/lib/libstm32.a(stm32_tim.o)
 .text.TIM_InternalClockConfig
                0x0000000000000000        0xe /opt/paparazzi/arm-multilib/lib/gcc/arm-none-eabi/4.6.2/../../../../arm-none-eabi/lib/libstm32.a(stm32_tim.o)
 .text.TIM_ITRxExternalClockConfig
                0x0000000000000000       0x1a /opt/paparazzi/arm-multilib/lib/gcc/arm-none-eabi/4.6.2/../../../../arm-none-eabi/lib/libstm32.a(stm32_tim.o)
 .text.TIM_TIxExternalClockConfig
                0x0000000000000000       0x32 /opt/paparazzi/arm-multilib/lib/gcc/arm-none-eabi/4.6.2/../../../../arm-none-eabi/lib/libstm32.a(stm32_tim.o)
 .text.TIM_ETRConfig
                0x0000000000000000       0x14 /opt/paparazzi/arm-multilib/lib/gcc/arm-none-eabi/4.6.2/../../../../arm-none-eabi/lib/libstm32.a(stm32_tim.o)
 .text.TIM_ETRClockMode2Config
                0x0000000000000000       0x14 /opt/paparazzi/arm-multilib/lib/gcc/arm-none-eabi/4.6.2/../../../../arm-none-eabi/lib/libstm32.a(stm32_tim.o)
 .text.TIM_ETRClockMode1Config
                0x0000000000000000       0x1a /opt/paparazzi/arm-multilib/lib/gcc/arm-none-eabi/4.6.2/../../../../arm-none-eabi/lib/libstm32.a(stm32_tim.o)
 .text.TIM_PrescalerConfig
                0x0000000000000000        0x6 /opt/paparazzi/arm-multilib/lib/gcc/arm-none-eabi/4.6.2/../../../../arm-none-eabi/lib/libstm32.a(stm32_tim.o)
 .text.TIM_CounterModeConfig
                0x0000000000000000       0x10 /opt/paparazzi/arm-multilib/lib/gcc/arm-none-eabi/4.6.2/../../../../arm-none-eabi/lib/libstm32.a(stm32_tim.o)
 .text.TIM_SelectInputTrigger
                0x0000000000000000       0x10 /opt/paparazzi/arm-multilib/lib/gcc/arm-none-eabi/4.6.2/../../../../arm-none-eabi/lib/libstm32.a(stm32_tim.o)
 .text.TIM_EncoderInterfaceConfig
                0x0000000000000000       0x3c /opt/paparazzi/arm-multilib/lib/gcc/arm-none-eabi/4.6.2/../../../../arm-none-eabi/lib/libstm32.a(stm32_tim.o)
 .text.TIM_ForcedOC1Config
                0x0000000000000000       0x10 /opt/paparazzi/arm-multilib/lib/gcc/arm-none-eabi/4.6.2/../../../../arm-none-eabi/lib/libstm32.a(stm32_tim.o)
 .text.TIM_ForcedOC2Config
                0x0000000000000000       0x14 /opt/paparazzi/arm-multilib/lib/gcc/arm-none-eabi/4.6.2/../../../../arm-none-eabi/lib/libstm32.a(stm32_tim.o)
 .text.TIM_ForcedOC3Config
                0x0000000000000000       0x10 /opt/paparazzi/arm-multilib/lib/gcc/arm-none-eabi/4.6.2/../../../../arm-none-eabi/lib/libstm32.a(stm32_tim.o)
 .text.TIM_ForcedOC4Config
                0x0000000000000000       0x14 /opt/paparazzi/arm-multilib/lib/gcc/arm-none-eabi/4.6.2/../../../../arm-none-eabi/lib/libstm32.a(stm32_tim.o)
 .text.TIM_SelectCOM
                0x0000000000000000       0x18 /opt/paparazzi/arm-multilib/lib/gcc/arm-none-eabi/4.6.2/../../../../arm-none-eabi/lib/libstm32.a(stm32_tim.o)
 .text.TIM_SelectCCDMA
                0x0000000000000000       0x18 /opt/paparazzi/arm-multilib/lib/gcc/arm-none-eabi/4.6.2/../../../../arm-none-eabi/lib/libstm32.a(stm32_tim.o)
 .text.TIM_CCPreloadControl
                0x0000000000000000       0x18 /opt/paparazzi/arm-multilib/lib/gcc/arm-none-eabi/4.6.2/../../../../arm-none-eabi/lib/libstm32.a(stm32_tim.o)
 .text.TIM_OC1FastConfig
                0x0000000000000000       0x10 /opt/paparazzi/arm-multilib/lib/gcc/arm-none-eabi/4.6.2/../../../../arm-none-eabi/lib/libstm32.a(stm32_tim.o)
 .text.TIM_OC2FastConfig
                0x0000000000000000       0x14 /opt/paparazzi/arm-multilib/lib/gcc/arm-none-eabi/4.6.2/../../../../arm-none-eabi/lib/libstm32.a(stm32_tim.o)
 .text.TIM_OC3FastConfig
                0x0000000000000000       0x10 /opt/paparazzi/arm-multilib/lib/gcc/arm-none-eabi/4.6.2/../../../../arm-none-eabi/lib/libstm32.a(stm32_tim.o)
 .text.TIM_OC4FastConfig
                0x0000000000000000       0x14 /opt/paparazzi/arm-multilib/lib/gcc/arm-none-eabi/4.6.2/../../../../arm-none-eabi/lib/libstm32.a(stm32_tim.o)
 .text.TIM_ClearOC1Ref
                0x0000000000000000       0x10 /opt/paparazzi/arm-multilib/lib/gcc/arm-none-eabi/4.6.2/../../../../arm-none-eabi/lib/libstm32.a(stm32_tim.o)
 .text.TIM_ClearOC2Ref
                0x0000000000000000       0x10 /opt/paparazzi/arm-multilib/lib/gcc/arm-none-eabi/4.6.2/../../../../arm-none-eabi/lib/libstm32.a(stm32_tim.o)
 .text.TIM_ClearOC3Ref
                0x0000000000000000       0x10 /opt/paparazzi/arm-multilib/lib/gcc/arm-none-eabi/4.6.2/../../../../arm-none-eabi/lib/libstm32.a(stm32_tim.o)
 .text.TIM_ClearOC4Ref
                0x0000000000000000       0x10 /opt/paparazzi/arm-multilib/lib/gcc/arm-none-eabi/4.6.2/../../../../arm-none-eabi/lib/libstm32.a(stm32_tim.o)
 .text.TIM_OC1PolarityConfig
                0x0000000000000000       0x10 /opt/paparazzi/arm-multilib/lib/gcc/arm-none-eabi/4.6.2/../../../../arm-none-eabi/lib/libstm32.a(stm32_tim.o)
 .text.TIM_OC1NPolarityConfig
                0x0000000000000000       0x10 /opt/paparazzi/arm-multilib/lib/gcc/arm-none-eabi/4.6.2/../../../../arm-none-eabi/lib/libstm32.a(stm32_tim.o)
 .text.TIM_OC2PolarityConfig
                0x0000000000000000       0x14 /opt/paparazzi/arm-multilib/lib/gcc/arm-none-eabi/4.6.2/../../../../arm-none-eabi/lib/libstm32.a(stm32_tim.o)
 .text.TIM_OC2NPolarityConfig
                0x0000000000000000       0x14 /opt/paparazzi/arm-multilib/lib/gcc/arm-none-eabi/4.6.2/../../../../arm-none-eabi/lib/libstm32.a(stm32_tim.o)
 .text.TIM_OC3PolarityConfig
                0x0000000000000000       0x14 /opt/paparazzi/arm-multilib/lib/gcc/arm-none-eabi/4.6.2/../../../../arm-none-eabi/lib/libstm32.a(stm32_tim.o)
 .text.TIM_OC3NPolarityConfig
                0x0000000000000000       0x14 /opt/paparazzi/arm-multilib/lib/gcc/arm-none-eabi/4.6.2/../../../../arm-none-eabi/lib/libstm32.a(stm32_tim.o)
 .text.TIM_OC4PolarityConfig
                0x0000000000000000       0x14 /opt/paparazzi/arm-multilib/lib/gcc/arm-none-eabi/4.6.2/../../../../arm-none-eabi/lib/libstm32.a(stm32_tim.o)
 .text.TIM_CCxCmd
                0x0000000000000000       0x1e /opt/paparazzi/arm-multilib/lib/gcc/arm-none-eabi/4.6.2/../../../../arm-none-eabi/lib/libstm32.a(stm32_tim.o)
 .text.TIM_CCxNCmd
                0x0000000000000000       0x1e /opt/paparazzi/arm-multilib/lib/gcc/arm-none-eabi/4.6.2/../../../../arm-none-eabi/lib/libstm32.a(stm32_tim.o)
 .text.TIM_SelectOCxM
                0x0000000000000000       0x44 /opt/paparazzi/arm-multilib/lib/gcc/arm-none-eabi/4.6.2/../../../../arm-none-eabi/lib/libstm32.a(stm32_tim.o)
 .text.TIM_UpdateDisableConfig
                0x0000000000000000       0x18 /opt/paparazzi/arm-multilib/lib/gcc/arm-none-eabi/4.6.2/../../../../arm-none-eabi/lib/libstm32.a(stm32_tim.o)
 .text.TIM_UpdateRequestConfig
                0x0000000000000000       0x18 /opt/paparazzi/arm-multilib/lib/gcc/arm-none-eabi/4.6.2/../../../../arm-none-eabi/lib/libstm32.a(stm32_tim.o)
 .text.TIM_SelectHallSensor
                0x0000000000000000       0x18 /opt/paparazzi/arm-multilib/lib/gcc/arm-none-eabi/4.6.2/../../../../arm-none-eabi/lib/libstm32.a(stm32_tim.o)
 .text.TIM_SelectOnePulseMode
                0x0000000000000000       0x16 /opt/paparazzi/arm-multilib/lib/gcc/arm-none-eabi/4.6.2/../../../../arm-none-eabi/lib/libstm32.a(stm32_tim.o)
 .text.TIM_SelectSlaveMode
                0x0000000000000000       0x16 /opt/paparazzi/arm-multilib/lib/gcc/arm-none-eabi/4.6.2/../../../../arm-none-eabi/lib/libstm32.a(stm32_tim.o)
 .text.TIM_SelectMasterSlaveMode
                0x0000000000000000       0x16 /opt/paparazzi/arm-multilib/lib/gcc/arm-none-eabi/4.6.2/../../../../arm-none-eabi/lib/libstm32.a(stm32_tim.o)
 .text.TIM_SetCounter
                0x0000000000000000        0x4 /opt/paparazzi/arm-multilib/lib/gcc/arm-none-eabi/4.6.2/../../../../arm-none-eabi/lib/libstm32.a(stm32_tim.o)
 .text.TIM_SetAutoreload
                0x0000000000000000        0x4 /opt/paparazzi/arm-multilib/lib/gcc/arm-none-eabi/4.6.2/../../../../arm-none-eabi/lib/libstm32.a(stm32_tim.o)
 .text.TIM_SetIC1Prescaler
                0x0000000000000000       0x16 /opt/paparazzi/arm-multilib/lib/gcc/arm-none-eabi/4.6.2/../../../../arm-none-eabi/lib/libstm32.a(stm32_tim.o)
 .text.TIM_SetIC2Prescaler
                0x0000000000000000       0x1a /opt/paparazzi/arm-multilib/lib/gcc/arm-none-eabi/4.6.2/../../../../arm-none-eabi/lib/libstm32.a(stm32_tim.o)
 .text.TIM_PWMIConfig
                0x0000000000000000       0x6e /opt/paparazzi/arm-multilib/lib/gcc/arm-none-eabi/4.6.2/../../../../arm-none-eabi/lib/libstm32.a(stm32_tim.o)
 .text.TIM_SetIC3Prescaler
                0x0000000000000000       0x16 /opt/paparazzi/arm-multilib/lib/gcc/arm-none-eabi/4.6.2/../../../../arm-none-eabi/lib/libstm32.a(stm32_tim.o)
 .text.TIM_SetIC4Prescaler
                0x0000000000000000       0x1a /opt/paparazzi/arm-multilib/lib/gcc/arm-none-eabi/4.6.2/../../../../arm-none-eabi/lib/libstm32.a(stm32_tim.o)
 .text.TIM_ICInit
                0x0000000000000000       0xb6 /opt/paparazzi/arm-multilib/lib/gcc/arm-none-eabi/4.6.2/../../../../arm-none-eabi/lib/libstm32.a(stm32_tim.o)
 .text.TIM_SetClockDivision
                0x0000000000000000       0x10 /opt/paparazzi/arm-multilib/lib/gcc/arm-none-eabi/4.6.2/../../../../arm-none-eabi/lib/libstm32.a(stm32_tim.o)
 .text.TIM_GetCapture1
                0x0000000000000000        0x6 /opt/paparazzi/arm-multilib/lib/gcc/arm-none-eabi/4.6.2/../../../../arm-none-eabi/lib/libstm32.a(stm32_tim.o)
 .text.TIM_GetCapture2
                0x0000000000000000        0x6 /opt/paparazzi/arm-multilib/lib/gcc/arm-none-eabi/4.6.2/../../../../arm-none-eabi/lib/libstm32.a(stm32_tim.o)
 .text.TIM_GetCapture3
                0x0000000000000000        0x6 /opt/paparazzi/arm-multilib/lib/gcc/arm-none-eabi/4.6.2/../../../../arm-none-eabi/lib/libstm32.a(stm32_tim.o)
 .text.TIM_GetCapture4
                0x0000000000000000        0x8 /opt/paparazzi/arm-multilib/lib/gcc/arm-none-eabi/4.6.2/../../../../arm-none-eabi/lib/libstm32.a(stm32_tim.o)
 .text.TIM_GetCounter
                0x0000000000000000        0x6 /opt/paparazzi/arm-multilib/lib/gcc/arm-none-eabi/4.6.2/../../../../arm-none-eabi/lib/libstm32.a(stm32_tim.o)
 .text.TIM_GetPrescaler
                0x0000000000000000        0x6 /opt/paparazzi/arm-multilib/lib/gcc/arm-none-eabi/4.6.2/../../../../arm-none-eabi/lib/libstm32.a(stm32_tim.o)
 .text.TIM_GetFlagStatus
                0x0000000000000000        0xc /opt/paparazzi/arm-multilib/lib/gcc/arm-none-eabi/4.6.2/../../../../arm-none-eabi/lib/libstm32.a(stm32_tim.o)
 .text.TIM_GetITStatus
                0x0000000000000000       0x16 /opt/paparazzi/arm-multilib/lib/gcc/arm-none-eabi/4.6.2/../../../../arm-none-eabi/lib/libstm32.a(stm32_tim.o)
 .text          0x0000000000000000        0x0 /opt/paparazzi/arm-multilib/lib/gcc/arm-none-eabi/4.6.2/../../../../arm-none-eabi/lib/libstm32.a(stm32_dma.o)
 .data          0x0000000000000000        0x0 /opt/paparazzi/arm-multilib/lib/gcc/arm-none-eabi/4.6.2/../../../../arm-none-eabi/lib/libstm32.a(stm32_dma.o)
 .bss           0x0000000000000000        0x0 /opt/paparazzi/arm-multilib/lib/gcc/arm-none-eabi/4.6.2/../../../../arm-none-eabi/lib/libstm32.a(stm32_dma.o)
 .text.DMA_StructInit
                0x0000000000000000       0x1a /opt/paparazzi/arm-multilib/lib/gcc/arm-none-eabi/4.6.2/../../../../arm-none-eabi/lib/libstm32.a(stm32_dma.o)
 .text.DMA_GetCurrDataCounter
                0x0000000000000000        0x6 /opt/paparazzi/arm-multilib/lib/gcc/arm-none-eabi/4.6.2/../../../../arm-none-eabi/lib/libstm32.a(stm32_dma.o)
 .text.DMA_GetFlagStatus
                0x0000000000000000       0x1c /opt/paparazzi/arm-multilib/lib/gcc/arm-none-eabi/4.6.2/../../../../arm-none-eabi/lib/libstm32.a(stm32_dma.o)
 .text.DMA_ClearFlag
                0x0000000000000000       0x14 /opt/paparazzi/arm-multilib/lib/gcc/arm-none-eabi/4.6.2/../../../../arm-none-eabi/lib/libstm32.a(stm32_dma.o)
 .text          0x0000000000000000        0x0 /opt/paparazzi/arm-multilib/lib/gcc/arm-none-eabi/4.6.2/../../../../arm-none-eabi/lib/libstm32.a(stm32_gpio.o)
 .data          0x0000000000000000        0x0 /opt/paparazzi/arm-multilib/lib/gcc/arm-none-eabi/4.6.2/../../../../arm-none-eabi/lib/libstm32.a(stm32_gpio.o)
 .bss           0x0000000000000000        0x0 /opt/paparazzi/arm-multilib/lib/gcc/arm-none-eabi/4.6.2/../../../../arm-none-eabi/lib/libstm32.a(stm32_gpio.o)
 .text.GPIO_DeInit
                0x0000000000000000       0xa8 /opt/paparazzi/arm-multilib/lib/gcc/arm-none-eabi/4.6.2/../../../../arm-none-eabi/lib/libstm32.a(stm32_gpio.o)
 .text.GPIO_AFIODeInit
                0x0000000000000000       0x16 /opt/paparazzi/arm-multilib/lib/gcc/arm-none-eabi/4.6.2/../../../../arm-none-eabi/lib/libstm32.a(stm32_gpio.o)
 .text.GPIO_StructInit
                0x0000000000000000       0x10 /opt/paparazzi/arm-multilib/lib/gcc/arm-none-eabi/4.6.2/../../../../arm-none-eabi/lib/libstm32.a(stm32_gpio.o)
 .text.GPIO_ReadInputData
                0x0000000000000000        0x6 /opt/paparazzi/arm-multilib/lib/gcc/arm-none-eabi/4.6.2/../../../../arm-none-eabi/lib/libstm32.a(stm32_gpio.o)
 .text.GPIO_ReadOutputDataBit
                0x0000000000000000        0xc /opt/paparazzi/arm-multilib/lib/gcc/arm-none-eabi/4.6.2/../../../../arm-none-eabi/lib/libstm32.a(stm32_gpio.o)
 .text.GPIO_ReadOutputData
                0x0000000000000000        0x6 /opt/paparazzi/arm-multilib/lib/gcc/arm-none-eabi/4.6.2/../../../../arm-none-eabi/lib/libstm32.a(stm32_gpio.o)
 .text.GPIO_SetBits
                0x0000000000000000        0x4 /opt/paparazzi/arm-multilib/lib/gcc/arm-none-eabi/4.6.2/../../../../arm-none-eabi/lib/libstm32.a(stm32_gpio.o)
 .text.GPIO_ResetBits
                0x0000000000000000        0x4 /opt/paparazzi/arm-multilib/lib/gcc/arm-none-eabi/4.6.2/../../../../arm-none-eabi/lib/libstm32.a(stm32_gpio.o)
 .text.GPIO_Write
                0x0000000000000000        0x4 /opt/paparazzi/arm-multilib/lib/gcc/arm-none-eabi/4.6.2/../../../../arm-none-eabi/lib/libstm32.a(stm32_gpio.o)
 .text.GPIO_PinLockConfig
                0x0000000000000000       0x10 /opt/paparazzi/arm-multilib/lib/gcc/arm-none-eabi/4.6.2/../../../../arm-none-eabi/lib/libstm32.a(stm32_gpio.o)
 .text.GPIO_EventOutputConfig
                0x0000000000000000       0x1c /opt/paparazzi/arm-multilib/lib/gcc/arm-none-eabi/4.6.2/../../../../arm-none-eabi/lib/libstm32.a(stm32_gpio.o)
 .text.GPIO_EventOutputCmd
                0x0000000000000000        0xc /opt/paparazzi/arm-multilib/lib/gcc/arm-none-eabi/4.6.2/../../../../arm-none-eabi/lib/libstm32.a(stm32_gpio.o)
 .text.GPIO_EXTILineConfig
                0x0000000000000000       0x34 /opt/paparazzi/arm-multilib/lib/gcc/arm-none-eabi/4.6.2/../../../../arm-none-eabi/lib/libstm32.a(stm32_gpio.o)
 .text          0x0000000000000000        0x0 /opt/paparazzi/arm-multilib/lib/gcc/arm-none-eabi/4.6.2/../../../../arm-none-eabi/lib/libstm32.a(stm32_usart.o)
 .data          0x0000000000000000        0x0 /opt/paparazzi/arm-multilib/lib/gcc/arm-none-eabi/4.6.2/../../../../arm-none-eabi/lib/libstm32.a(stm32_usart.o)
 .bss           0x0000000000000000        0x0 /opt/paparazzi/arm-multilib/lib/gcc/arm-none-eabi/4.6.2/../../../../arm-none-eabi/lib/libstm32.a(stm32_usart.o)
 .text.USART_DeInit
                0x0000000000000000       0x94 /opt/paparazzi/arm-multilib/lib/gcc/arm-none-eabi/4.6.2/../../../../arm-none-eabi/lib/libstm32.a(stm32_usart.o)
 .text.USART_StructInit
                0x0000000000000000       0x16 /opt/paparazzi/arm-multilib/lib/gcc/arm-none-eabi/4.6.2/../../../../arm-none-eabi/lib/libstm32.a(stm32_usart.o)
 .text.USART_ClockInit
                0x0000000000000000       0x22 /opt/paparazzi/arm-multilib/lib/gcc/arm-none-eabi/4.6.2/../../../../arm-none-eabi/lib/libstm32.a(stm32_usart.o)
 .text.USART_ClockStructInit
                0x0000000000000000        0xc /opt/paparazzi/arm-multilib/lib/gcc/arm-none-eabi/4.6.2/../../../../arm-none-eabi/lib/libstm32.a(stm32_usart.o)
 .text.USART_DMACmd
                0x0000000000000000       0x12 /opt/paparazzi/arm-multilib/lib/gcc/arm-none-eabi/4.6.2/../../../../arm-none-eabi/lib/libstm32.a(stm32_usart.o)
 .text.USART_SetAddress
                0x0000000000000000       0x16 /opt/paparazzi/arm-multilib/lib/gcc/arm-none-eabi/4.6.2/../../../../arm-none-eabi/lib/libstm32.a(stm32_usart.o)
 .text.USART_WakeUpConfig
                0x0000000000000000       0x16 /opt/paparazzi/arm-multilib/lib/gcc/arm-none-eabi/4.6.2/../../../../arm-none-eabi/lib/libstm32.a(stm32_usart.o)
 .text.USART_ReceiverWakeUpCmd
                0x0000000000000000       0x18 /opt/paparazzi/arm-multilib/lib/gcc/arm-none-eabi/4.6.2/../../../../arm-none-eabi/lib/libstm32.a(stm32_usart.o)
 .text.USART_LINBreakDetectLengthConfig
                0x0000000000000000       0x16 /opt/paparazzi/arm-multilib/lib/gcc/arm-none-eabi/4.6.2/../../../../arm-none-eabi/lib/libstm32.a(stm32_usart.o)
 .text.USART_LINCmd
                0x0000000000000000       0x18 /opt/paparazzi/arm-multilib/lib/gcc/arm-none-eabi/4.6.2/../../../../arm-none-eabi/lib/libstm32.a(stm32_usart.o)
 .text.USART_SendBreak
                0x0000000000000000        0xc /opt/paparazzi/arm-multilib/lib/gcc/arm-none-eabi/4.6.2/../../../../arm-none-eabi/lib/libstm32.a(stm32_usart.o)
 .text.USART_SetGuardTime
                0x0000000000000000       0x12 /opt/paparazzi/arm-multilib/lib/gcc/arm-none-eabi/4.6.2/../../../../arm-none-eabi/lib/libstm32.a(stm32_usart.o)
 .text.USART_SetPrescaler
                0x0000000000000000       0x12 /opt/paparazzi/arm-multilib/lib/gcc/arm-none-eabi/4.6.2/../../../../arm-none-eabi/lib/libstm32.a(stm32_usart.o)
 .text.USART_SmartCardCmd
                0x0000000000000000       0x18 /opt/paparazzi/arm-multilib/lib/gcc/arm-none-eabi/4.6.2/../../../../arm-none-eabi/lib/libstm32.a(stm32_usart.o)
 .text.USART_SmartCardNACKCmd
                0x0000000000000000       0x18 /opt/paparazzi/arm-multilib/lib/gcc/arm-none-eabi/4.6.2/../../../../arm-none-eabi/lib/libstm32.a(stm32_usart.o)
 .text.USART_HalfDuplexCmd
                0x0000000000000000       0x18 /opt/paparazzi/arm-multilib/lib/gcc/arm-none-eabi/4.6.2/../../../../arm-none-eabi/lib/libstm32.a(stm32_usart.o)
 .text.USART_IrDAConfig
                0x0000000000000000       0x16 /opt/paparazzi/arm-multilib/lib/gcc/arm-none-eabi/4.6.2/../../../../arm-none-eabi/lib/libstm32.a(stm32_usart.o)
 .text.USART_IrDACmd
                0x0000000000000000       0x18 /opt/paparazzi/arm-multilib/lib/gcc/arm-none-eabi/4.6.2/../../../../arm-none-eabi/lib/libstm32.a(stm32_usart.o)
 .text.USART_GetFlagStatus
                0x0000000000000000        0xc /opt/paparazzi/arm-multilib/lib/gcc/arm-none-eabi/4.6.2/../../../../arm-none-eabi/lib/libstm32.a(stm32_usart.o)
 .text.USART_ClearFlag
                0x0000000000000000        0x8 /opt/paparazzi/arm-multilib/lib/gcc/arm-none-eabi/4.6.2/../../../../arm-none-eabi/lib/libstm32.a(stm32_usart.o)
 .text.USART_ClearITPendingBit
                0x0000000000000000        0xe /opt/paparazzi/arm-multilib/lib/gcc/arm-none-eabi/4.6.2/../../../../arm-none-eabi/lib/libstm32.a(stm32_usart.o)
 .text          0x0000000000000000        0x0 /opt/paparazzi/arm-multilib/lib/gcc/arm-none-eabi/4.6.2/../../../../arm-none-eabi/lib/libstm32.a(stm32_i2c.o)
 .data          0x0000000000000000        0x0 /opt/paparazzi/arm-multilib/lib/gcc/arm-none-eabi/4.6.2/../../../../arm-none-eabi/lib/libstm32.a(stm32_i2c.o)
 .bss           0x0000000000000000        0x0 /opt/paparazzi/arm-multilib/lib/gcc/arm-none-eabi/4.6.2/../../../../arm-none-eabi/lib/libstm32.a(stm32_i2c.o)
 .text.I2C_DeInit
                0x0000000000000000       0x40 /opt/paparazzi/arm-multilib/lib/gcc/arm-none-eabi/4.6.2/../../../../arm-none-eabi/lib/libstm32.a(stm32_i2c.o)
 .text.I2C_Init
                0x0000000000000000       0xd0 /opt/paparazzi/arm-multilib/lib/gcc/arm-none-eabi/4.6.2/../../../../arm-none-eabi/lib/libstm32.a(stm32_i2c.o)
 .text.I2C_StructInit
                0x0000000000000000       0x1c /opt/paparazzi/arm-multilib/lib/gcc/arm-none-eabi/4.6.2/../../../../arm-none-eabi/lib/libstm32.a(stm32_i2c.o)
 .text.I2C_Cmd  0x0000000000000000       0x18 /opt/paparazzi/arm-multilib/lib/gcc/arm-none-eabi/4.6.2/../../../../arm-none-eabi/lib/libstm32.a(stm32_i2c.o)
 .text.I2C_DMACmd
                0x0000000000000000       0x18 /opt/paparazzi/arm-multilib/lib/gcc/arm-none-eabi/4.6.2/../../../../arm-none-eabi/lib/libstm32.a(stm32_i2c.o)
 .text.I2C_DMALastTransferCmd
                0x0000000000000000       0x18 /opt/paparazzi/arm-multilib/lib/gcc/arm-none-eabi/4.6.2/../../../../arm-none-eabi/lib/libstm32.a(stm32_i2c.o)
 .text.I2C_GenerateSTART
                0x0000000000000000       0x18 /opt/paparazzi/arm-multilib/lib/gcc/arm-none-eabi/4.6.2/../../../../arm-none-eabi/lib/libstm32.a(stm32_i2c.o)
 .text.I2C_GenerateSTOP
                0x0000000000000000       0x18 /opt/paparazzi/arm-multilib/lib/gcc/arm-none-eabi/4.6.2/../../../../arm-none-eabi/lib/libstm32.a(stm32_i2c.o)
 .text.I2C_AcknowledgeConfig
                0x0000000000000000       0x18 /opt/paparazzi/arm-multilib/lib/gcc/arm-none-eabi/4.6.2/../../../../arm-none-eabi/lib/libstm32.a(stm32_i2c.o)
 .text.I2C_OwnAddress2Config
                0x0000000000000000       0x12 /opt/paparazzi/arm-multilib/lib/gcc/arm-none-eabi/4.6.2/../../../../arm-none-eabi/lib/libstm32.a(stm32_i2c.o)
 .text.I2C_DualAddressCmd
                0x0000000000000000       0x18 /opt/paparazzi/arm-multilib/lib/gcc/arm-none-eabi/4.6.2/../../../../arm-none-eabi/lib/libstm32.a(stm32_i2c.o)
 .text.I2C_GeneralCallCmd
                0x0000000000000000       0x18 /opt/paparazzi/arm-multilib/lib/gcc/arm-none-eabi/4.6.2/../../../../arm-none-eabi/lib/libstm32.a(stm32_i2c.o)
 .text.I2C_ITConfig
                0x0000000000000000       0x12 /opt/paparazzi/arm-multilib/lib/gcc/arm-none-eabi/4.6.2/../../../../arm-none-eabi/lib/libstm32.a(stm32_i2c.o)
 .text.I2C_SendData
                0x0000000000000000        0x4 /opt/paparazzi/arm-multilib/lib/gcc/arm-none-eabi/4.6.2/../../../../arm-none-eabi/lib/libstm32.a(stm32_i2c.o)
 .text.I2C_ReceiveData
                0x0000000000000000        0x6 /opt/paparazzi/arm-multilib/lib/gcc/arm-none-eabi/4.6.2/../../../../arm-none-eabi/lib/libstm32.a(stm32_i2c.o)
 .text.I2C_Send7bitAddress
                0x0000000000000000       0x10 /opt/paparazzi/arm-multilib/lib/gcc/arm-none-eabi/4.6.2/../../../../arm-none-eabi/lib/libstm32.a(stm32_i2c.o)
 .text.I2C_ReadRegister
                0x0000000000000000        0xe /opt/paparazzi/arm-multilib/lib/gcc/arm-none-eabi/4.6.2/../../../../arm-none-eabi/lib/libstm32.a(stm32_i2c.o)
 .text.I2C_SoftwareResetCmd
                0x0000000000000000       0x18 /opt/paparazzi/arm-multilib/lib/gcc/arm-none-eabi/4.6.2/../../../../arm-none-eabi/lib/libstm32.a(stm32_i2c.o)
 .text.I2C_SMBusAlertConfig
                0x0000000000000000       0x1c /opt/paparazzi/arm-multilib/lib/gcc/arm-none-eabi/4.6.2/../../../../arm-none-eabi/lib/libstm32.a(stm32_i2c.o)
 .text.I2C_TransmitPEC
                0x0000000000000000       0x18 /opt/paparazzi/arm-multilib/lib/gcc/arm-none-eabi/4.6.2/../../../../arm-none-eabi/lib/libstm32.a(stm32_i2c.o)
 .text.I2C_PECPositionConfig
                0x0000000000000000       0x1c /opt/paparazzi/arm-multilib/lib/gcc/arm-none-eabi/4.6.2/../../../../arm-none-eabi/lib/libstm32.a(stm32_i2c.o)
 .text.I2C_CalculatePEC
                0x0000000000000000       0x18 /opt/paparazzi/arm-multilib/lib/gcc/arm-none-eabi/4.6.2/../../../../arm-none-eabi/lib/libstm32.a(stm32_i2c.o)
 .text.I2C_GetPEC
                0x0000000000000000        0x8 /opt/paparazzi/arm-multilib/lib/gcc/arm-none-eabi/4.6.2/../../../../arm-none-eabi/lib/libstm32.a(stm32_i2c.o)
 .text.I2C_ARPCmd
                0x0000000000000000       0x18 /opt/paparazzi/arm-multilib/lib/gcc/arm-none-eabi/4.6.2/../../../../arm-none-eabi/lib/libstm32.a(stm32_i2c.o)
 .text.I2C_StretchClockCmd
                0x0000000000000000       0x18 /opt/paparazzi/arm-multilib/lib/gcc/arm-none-eabi/4.6.2/../../../../arm-none-eabi/lib/libstm32.a(stm32_i2c.o)
 .text.I2C_FastModeDutyCycleConfig
                0x0000000000000000       0x1c /opt/paparazzi/arm-multilib/lib/gcc/arm-none-eabi/4.6.2/../../../../arm-none-eabi/lib/libstm32.a(stm32_i2c.o)
 .text.I2C_GetLastEvent
                0x0000000000000000       0x10 /opt/paparazzi/arm-multilib/lib/gcc/arm-none-eabi/4.6.2/../../../../arm-none-eabi/lib/libstm32.a(stm32_i2c.o)
 .text.I2C_CheckEvent
                0x0000000000000000       0x18 /opt/paparazzi/arm-multilib/lib/gcc/arm-none-eabi/4.6.2/../../../../arm-none-eabi/lib/libstm32.a(stm32_i2c.o)
 .text.I2C_GetFlagStatus
                0x0000000000000000       0x34 /opt/paparazzi/arm-multilib/lib/gcc/arm-none-eabi/4.6.2/../../../../arm-none-eabi/lib/libstm32.a(stm32_i2c.o)
 .text.I2C_ClearFlag
                0x0000000000000000        0x8 /opt/paparazzi/arm-multilib/lib/gcc/arm-none-eabi/4.6.2/../../../../arm-none-eabi/lib/libstm32.a(stm32_i2c.o)
 .text.I2C_GetITStatus
                0x0000000000000000       0x1c /opt/paparazzi/arm-multilib/lib/gcc/arm-none-eabi/4.6.2/../../../../arm-none-eabi/lib/libstm32.a(stm32_i2c.o)
 .text.I2C_ClearITPendingBit
                0x0000000000000000        0x8 /opt/paparazzi/arm-multilib/lib/gcc/arm-none-eabi/4.6.2/../../../../arm-none-eabi/lib/libstm32.a(stm32_i2c.o)
 .text          0x0000000000000000        0x0 /opt/paparazzi/arm-multilib/lib/gcc/arm-none-eabi/4.6.2/../../../../arm-none-eabi/lib/libstm32.a(stm32_spi.o)
 .data          0x0000000000000000        0x0 /opt/paparazzi/arm-multilib/lib/gcc/arm-none-eabi/4.6.2/../../../../arm-none-eabi/lib/libstm32.a(stm32_spi.o)
 .bss           0x0000000000000000        0x0 /opt/paparazzi/arm-multilib/lib/gcc/arm-none-eabi/4.6.2/../../../../arm-none-eabi/lib/libstm32.a(stm32_spi.o)
 .text.SPI_I2S_DeInit
                0x0000000000000000       0x60 /opt/paparazzi/arm-multilib/lib/gcc/arm-none-eabi/4.6.2/../../../../arm-none-eabi/lib/libstm32.a(stm32_spi.o)
 .text.I2S_Init
                0x0000000000000000       0xaa /opt/paparazzi/arm-multilib/lib/gcc/arm-none-eabi/4.6.2/../../../../arm-none-eabi/lib/libstm32.a(stm32_spi.o)
 .text.SPI_StructInit
                0x0000000000000000       0x18 /opt/paparazzi/arm-multilib/lib/gcc/arm-none-eabi/4.6.2/../../../../arm-none-eabi/lib/libstm32.a(stm32_spi.o)
 .text.I2S_StructInit
                0x0000000000000000       0x12 /opt/paparazzi/arm-multilib/lib/gcc/arm-none-eabi/4.6.2/../../../../arm-none-eabi/lib/libstm32.a(stm32_spi.o)
 .text.I2S_Cmd  0x0000000000000000       0x18 /opt/paparazzi/arm-multilib/lib/gcc/arm-none-eabi/4.6.2/../../../../arm-none-eabi/lib/libstm32.a(stm32_spi.o)
 .text.SPI_I2S_ITConfig
                0x0000000000000000       0x1e /opt/paparazzi/arm-multilib/lib/gcc/arm-none-eabi/4.6.2/../../../../arm-none-eabi/lib/libstm32.a(stm32_spi.o)
 .text.SPI_I2S_SendData
                0x0000000000000000        0x4 /opt/paparazzi/arm-multilib/lib/gcc/arm-none-eabi/4.6.2/../../../../arm-none-eabi/lib/libstm32.a(stm32_spi.o)
 .text.SPI_I2S_ReceiveData
                0x0000000000000000        0x6 /opt/paparazzi/arm-multilib/lib/gcc/arm-none-eabi/4.6.2/../../../../arm-none-eabi/lib/libstm32.a(stm32_spi.o)
 .text.SPI_NSSInternalSoftwareConfig
                0x0000000000000000       0x1e /opt/paparazzi/arm-multilib/lib/gcc/arm-none-eabi/4.6.2/../../../../arm-none-eabi/lib/libstm32.a(stm32_spi.o)
 .text.SPI_SSOutputCmd
                0x0000000000000000       0x18 /opt/paparazzi/arm-multilib/lib/gcc/arm-none-eabi/4.6.2/../../../../arm-none-eabi/lib/libstm32.a(stm32_spi.o)
 .text.SPI_DataSizeConfig
                0x0000000000000000       0x16 /opt/paparazzi/arm-multilib/lib/gcc/arm-none-eabi/4.6.2/../../../../arm-none-eabi/lib/libstm32.a(stm32_spi.o)
 .text.SPI_TransmitCRC
                0x0000000000000000        0xc /opt/paparazzi/arm-multilib/lib/gcc/arm-none-eabi/4.6.2/../../../../arm-none-eabi/lib/libstm32.a(stm32_spi.o)
 .text.SPI_CalculateCRC
                0x0000000000000000       0x18 /opt/paparazzi/arm-multilib/lib/gcc/arm-none-eabi/4.6.2/../../../../arm-none-eabi/lib/libstm32.a(stm32_spi.o)
 .text.SPI_GetCRC
                0x0000000000000000       0x10 /opt/paparazzi/arm-multilib/lib/gcc/arm-none-eabi/4.6.2/../../../../arm-none-eabi/lib/libstm32.a(stm32_spi.o)
 .text.SPI_GetCRCPolynomial
                0x0000000000000000        0x6 /opt/paparazzi/arm-multilib/lib/gcc/arm-none-eabi/4.6.2/../../../../arm-none-eabi/lib/libstm32.a(stm32_spi.o)
 .text.SPI_BiDirectionalLineConfig
                0x0000000000000000       0x1c /opt/paparazzi/arm-multilib/lib/gcc/arm-none-eabi/4.6.2/../../../../arm-none-eabi/lib/libstm32.a(stm32_spi.o)
 .text.SPI_I2S_GetFlagStatus
                0x0000000000000000        0xc /opt/paparazzi/arm-multilib/lib/gcc/arm-none-eabi/4.6.2/../../../../arm-none-eabi/lib/libstm32.a(stm32_spi.o)
 .text.SPI_I2S_ClearFlag
                0x0000000000000000        0x8 /opt/paparazzi/arm-multilib/lib/gcc/arm-none-eabi/4.6.2/../../../../arm-none-eabi/lib/libstm32.a(stm32_spi.o)
 .text.SPI_I2S_GetITStatus
                0x0000000000000000       0x26 /opt/paparazzi/arm-multilib/lib/gcc/arm-none-eabi/4.6.2/../../../../arm-none-eabi/lib/libstm32.a(stm32_spi.o)
 .text.SPI_I2S_ClearITPendingBit
                0x0000000000000000       0x10 /opt/paparazzi/arm-multilib/lib/gcc/arm-none-eabi/4.6.2/../../../../arm-none-eabi/lib/libstm32.a(stm32_spi.o)
 .text          0x0000000000000000        0x0 /opt/paparazzi/arm-multilib/lib/gcc/arm-none-eabi/4.6.2/../../../../arm-none-eabi/lib/libstm32.a(stm32_rcc.o)
 .data          0x0000000000000000        0x0 /opt/paparazzi/arm-multilib/lib/gcc/arm-none-eabi/4.6.2/../../../../arm-none-eabi/lib/libstm32.a(stm32_rcc.o)
 .bss           0x0000000000000000        0x0 /opt/paparazzi/arm-multilib/lib/gcc/arm-none-eabi/4.6.2/../../../../arm-none-eabi/lib/libstm32.a(stm32_rcc.o)
 .text.RCC_DeInit
                0x0000000000000000       0x3c /opt/paparazzi/arm-multilib/lib/gcc/arm-none-eabi/4.6.2/../../../../arm-none-eabi/lib/libstm32.a(stm32_rcc.o)
 .text.RCC_HSEConfig
                0x0000000000000000       0x38 /opt/paparazzi/arm-multilib/lib/gcc/arm-none-eabi/4.6.2/../../../../arm-none-eabi/lib/libstm32.a(stm32_rcc.o)
 .text.RCC_AdjustHSICalibrationValue
                0x0000000000000000       0x14 /opt/paparazzi/arm-multilib/lib/gcc/arm-none-eabi/4.6.2/../../../../arm-none-eabi/lib/libstm32.a(stm32_rcc.o)
 .text.RCC_HSICmd
                0x0000000000000000        0xc /opt/paparazzi/arm-multilib/lib/gcc/arm-none-eabi/4.6.2/../../../../arm-none-eabi/lib/libstm32.a(stm32_rcc.o)
 .text.RCC_PLLConfig
                0x0000000000000000       0x14 /opt/paparazzi/arm-multilib/lib/gcc/arm-none-eabi/4.6.2/../../../../arm-none-eabi/lib/libstm32.a(stm32_rcc.o)
 .text.RCC_PLLCmd
                0x0000000000000000        0xc /opt/paparazzi/arm-multilib/lib/gcc/arm-none-eabi/4.6.2/../../../../arm-none-eabi/lib/libstm32.a(stm32_rcc.o)
 .text.RCC_SYSCLKConfig
                0x0000000000000000       0x14 /opt/paparazzi/arm-multilib/lib/gcc/arm-none-eabi/4.6.2/../../../../arm-none-eabi/lib/libstm32.a(stm32_rcc.o)
 .text.RCC_GetSYSCLKSource
                0x0000000000000000       0x10 /opt/paparazzi/arm-multilib/lib/gcc/arm-none-eabi/4.6.2/../../../../arm-none-eabi/lib/libstm32.a(stm32_rcc.o)
 .text.RCC_HCLKConfig
                0x0000000000000000       0x14 /opt/paparazzi/arm-multilib/lib/gcc/arm-none-eabi/4.6.2/../../../../arm-none-eabi/lib/libstm32.a(stm32_rcc.o)
 .text.RCC_PCLK1Config
                0x0000000000000000       0x14 /opt/paparazzi/arm-multilib/lib/gcc/arm-none-eabi/4.6.2/../../../../arm-none-eabi/lib/libstm32.a(stm32_rcc.o)
 .text.RCC_PCLK2Config
                0x0000000000000000       0x14 /opt/paparazzi/arm-multilib/lib/gcc/arm-none-eabi/4.6.2/../../../../arm-none-eabi/lib/libstm32.a(stm32_rcc.o)
 .text.RCC_ITConfig
                0x0000000000000000       0x18 /opt/paparazzi/arm-multilib/lib/gcc/arm-none-eabi/4.6.2/../../../../arm-none-eabi/lib/libstm32.a(stm32_rcc.o)
 .text.RCC_USBCLKConfig
                0x0000000000000000        0xc /opt/paparazzi/arm-multilib/lib/gcc/arm-none-eabi/4.6.2/../../../../arm-none-eabi/lib/libstm32.a(stm32_rcc.o)
 .text.RCC_LSEConfig
                0x0000000000000000       0x20 /opt/paparazzi/arm-multilib/lib/gcc/arm-none-eabi/4.6.2/../../../../arm-none-eabi/lib/libstm32.a(stm32_rcc.o)
 .text.RCC_LSICmd
                0x0000000000000000        0xc /opt/paparazzi/arm-multilib/lib/gcc/arm-none-eabi/4.6.2/../../../../arm-none-eabi/lib/libstm32.a(stm32_rcc.o)
 .text.RCC_RTCCLKConfig
                0x0000000000000000       0x10 /opt/paparazzi/arm-multilib/lib/gcc/arm-none-eabi/4.6.2/../../../../arm-none-eabi/lib/libstm32.a(stm32_rcc.o)
 .text.RCC_RTCCLKCmd
                0x0000000000000000        0xc /opt/paparazzi/arm-multilib/lib/gcc/arm-none-eabi/4.6.2/../../../../arm-none-eabi/lib/libstm32.a(stm32_rcc.o)
 .text.RCC_APB2PeriphResetCmd
                0x0000000000000000       0x18 /opt/paparazzi/arm-multilib/lib/gcc/arm-none-eabi/4.6.2/../../../../arm-none-eabi/lib/libstm32.a(stm32_rcc.o)
 .text.RCC_APB1PeriphResetCmd
                0x0000000000000000       0x18 /opt/paparazzi/arm-multilib/lib/gcc/arm-none-eabi/4.6.2/../../../../arm-none-eabi/lib/libstm32.a(stm32_rcc.o)
 .text.RCC_BackupResetCmd
                0x0000000000000000        0xc /opt/paparazzi/arm-multilib/lib/gcc/arm-none-eabi/4.6.2/../../../../arm-none-eabi/lib/libstm32.a(stm32_rcc.o)
 .text.RCC_ClockSecuritySystemCmd
                0x0000000000000000        0xc /opt/paparazzi/arm-multilib/lib/gcc/arm-none-eabi/4.6.2/../../../../arm-none-eabi/lib/libstm32.a(stm32_rcc.o)
 .text.RCC_MCOConfig
                0x0000000000000000        0xc /opt/paparazzi/arm-multilib/lib/gcc/arm-none-eabi/4.6.2/../../../../arm-none-eabi/lib/libstm32.a(stm32_rcc.o)
 .text.RCC_GetFlagStatus
                0x0000000000000000       0x28 /opt/paparazzi/arm-multilib/lib/gcc/arm-none-eabi/4.6.2/../../../../arm-none-eabi/lib/libstm32.a(stm32_rcc.o)
 .text.RCC_WaitForHSEStartUp
                0x0000000000000000       0x2a /opt/paparazzi/arm-multilib/lib/gcc/arm-none-eabi/4.6.2/../../../../arm-none-eabi/lib/libstm32.a(stm32_rcc.o)
 .text.RCC_ClearFlag
                0x0000000000000000       0x10 /opt/paparazzi/arm-multilib/lib/gcc/arm-none-eabi/4.6.2/../../../../arm-none-eabi/lib/libstm32.a(stm32_rcc.o)
 .text.RCC_GetITStatus
                0x0000000000000000       0x14 /opt/paparazzi/arm-multilib/lib/gcc/arm-none-eabi/4.6.2/../../../../arm-none-eabi/lib/libstm32.a(stm32_rcc.o)
 .text.RCC_ClearITPendingBit
                0x0000000000000000        0xc /opt/paparazzi/arm-multilib/lib/gcc/arm-none-eabi/4.6.2/../../../../arm-none-eabi/lib/libstm32.a(stm32_rcc.o)
 .text          0x0000000000000000        0x0 /opt/paparazzi/arm-multilib/lib/gcc/arm-none-eabi/4.6.2/../../../../arm-none-eabi/lib/libstm32.a(stm32_misc.o)
 .data          0x0000000000000000        0x0 /opt/paparazzi/arm-multilib/lib/gcc/arm-none-eabi/4.6.2/../../../../arm-none-eabi/lib/libstm32.a(stm32_misc.o)
 .bss           0x0000000000000000        0x0 /opt/paparazzi/arm-multilib/lib/gcc/arm-none-eabi/4.6.2/../../../../arm-none-eabi/lib/libstm32.a(stm32_misc.o)
 .text.NVIC_PriorityGroupConfig
                0x0000000000000000       0x14 /opt/paparazzi/arm-multilib/lib/gcc/arm-none-eabi/4.6.2/../../../../arm-none-eabi/lib/libstm32.a(stm32_misc.o)
 .text.NVIC_SystemLPConfig
                0x0000000000000000       0x18 /opt/paparazzi/arm-multilib/lib/gcc/arm-none-eabi/4.6.2/../../../../arm-none-eabi/lib/libstm32.a(stm32_misc.o)
 .text.SysTick_CLKSourceConfig
                0x0000000000000000       0x18 /opt/paparazzi/arm-multilib/lib/gcc/arm-none-eabi/4.6.2/../../../../arm-none-eabi/lib/libstm32.a(stm32_misc.o)
 .text          0x0000000000000000        0x0 /opt/paparazzi/arm-multilib/lib/gcc/arm-none-eabi/4.6.2/../../../../arm-none-eabi/lib/libopencm3_stm32.a(rcc.o)
 .data          0x0000000000000000        0x0 /opt/paparazzi/arm-multilib/lib/gcc/arm-none-eabi/4.6.2/../../../../arm-none-eabi/lib/libopencm3_stm32.a(rcc.o)
 .bss           0x0000000000000000        0x0 /opt/paparazzi/arm-multilib/lib/gcc/arm-none-eabi/4.6.2/../../../../arm-none-eabi/lib/libopencm3_stm32.a(rcc.o)
 .text.rcc_osc_ready_int_clear
                0x0000000000000000       0x48 /opt/paparazzi/arm-multilib/lib/gcc/arm-none-eabi/4.6.2/../../../../arm-none-eabi/lib/libopencm3_stm32.a(rcc.o)
 .text.rcc_osc_ready_int_enable
                0x0000000000000000       0x48 /opt/paparazzi/arm-multilib/lib/gcc/arm-none-eabi/4.6.2/../../../../arm-none-eabi/lib/libopencm3_stm32.a(rcc.o)
 .text.rcc_osc_ready_int_disable
                0x0000000000000000       0x48 /opt/paparazzi/arm-multilib/lib/gcc/arm-none-eabi/4.6.2/../../../../arm-none-eabi/lib/libopencm3_stm32.a(rcc.o)
 .text.rcc_osc_ready_int_flag
                0x0000000000000000       0x4c /opt/paparazzi/arm-multilib/lib/gcc/arm-none-eabi/4.6.2/../../../../arm-none-eabi/lib/libopencm3_stm32.a(rcc.o)
 .text.rcc_css_int_clear
                0x0000000000000000       0x10 /opt/paparazzi/arm-multilib/lib/gcc/arm-none-eabi/4.6.2/../../../../arm-none-eabi/lib/libopencm3_stm32.a(rcc.o)
 .text.rcc_css_int_flag
                0x0000000000000000       0x10 /opt/paparazzi/arm-multilib/lib/gcc/arm-none-eabi/4.6.2/../../../../arm-none-eabi/lib/libopencm3_stm32.a(rcc.o)
 .text.rcc_osc_off
                0x0000000000000000       0x4c /opt/paparazzi/arm-multilib/lib/gcc/arm-none-eabi/4.6.2/../../../../arm-none-eabi/lib/libopencm3_stm32.a(rcc.o)
 .text.rcc_css_enable
                0x0000000000000000       0x10 /opt/paparazzi/arm-multilib/lib/gcc/arm-none-eabi/4.6.2/../../../../arm-none-eabi/lib/libopencm3_stm32.a(rcc.o)
 .text.rcc_css_disable
                0x0000000000000000       0x10 /opt/paparazzi/arm-multilib/lib/gcc/arm-none-eabi/4.6.2/../../../../arm-none-eabi/lib/libopencm3_stm32.a(rcc.o)
 .text.rcc_osc_bypass_enable
                0x0000000000000000       0x2c /opt/paparazzi/arm-multilib/lib/gcc/arm-none-eabi/4.6.2/../../../../arm-none-eabi/lib/libopencm3_stm32.a(rcc.o)
 .text.rcc_osc_bypass_disable
                0x0000000000000000       0x2c /opt/paparazzi/arm-multilib/lib/gcc/arm-none-eabi/4.6.2/../../../../arm-none-eabi/lib/libopencm3_stm32.a(rcc.o)
 .text.rcc_peripheral_enable_clock
                0x0000000000000000        0x8 /opt/paparazzi/arm-multilib/lib/gcc/arm-none-eabi/4.6.2/../../../../arm-none-eabi/lib/libopencm3_stm32.a(rcc.o)
 .text.rcc_peripheral_disable_clock
                0x0000000000000000        0xa /opt/paparazzi/arm-multilib/lib/gcc/arm-none-eabi/4.6.2/../../../../arm-none-eabi/lib/libopencm3_stm32.a(rcc.o)
 .text.rcc_peripheral_reset
                0x0000000000000000        0x8 /opt/paparazzi/arm-multilib/lib/gcc/arm-none-eabi/4.6.2/../../../../arm-none-eabi/lib/libopencm3_stm32.a(rcc.o)
 .text.rcc_peripheral_clear_reset
                0x0000000000000000        0xa /opt/paparazzi/arm-multilib/lib/gcc/arm-none-eabi/4.6.2/../../../../arm-none-eabi/lib/libopencm3_stm32.a(rcc.o)
 .text.rcc_set_usbpre
                0x0000000000000000       0x14 /opt/paparazzi/arm-multilib/lib/gcc/arm-none-eabi/4.6.2/../../../../arm-none-eabi/lib/libopencm3_stm32.a(rcc.o)
 .text.rcc_system_clock_source
                0x0000000000000000       0x10 /opt/paparazzi/arm-multilib/lib/gcc/arm-none-eabi/4.6.2/../../../../arm-none-eabi/lib/libopencm3_stm32.a(rcc.o)
 .text.rcc_clock_setup_in_hsi_out_64mhz
                0x0000000000000000       0x70 /opt/paparazzi/arm-multilib/lib/gcc/arm-none-eabi/4.6.2/../../../../arm-none-eabi/lib/libopencm3_stm32.a(rcc.o)
 .text.rcc_clock_setup_in_hsi_out_48mhz
                0x0000000000000000       0x74 /opt/paparazzi/arm-multilib/lib/gcc/arm-none-eabi/4.6.2/../../../../arm-none-eabi/lib/libopencm3_stm32.a(rcc.o)
 .text.rcc_clock_setup_in_hse_8mhz_out_24mhz
                0x0000000000000000       0x80 /opt/paparazzi/arm-multilib/lib/gcc/arm-none-eabi/4.6.2/../../../../arm-none-eabi/lib/libopencm3_stm32.a(rcc.o)
 .text.rcc_clock_setup_in_hse_8mhz_out_72mhz
                0x0000000000000000       0x88 /opt/paparazzi/arm-multilib/lib/gcc/arm-none-eabi/4.6.2/../../../../arm-none-eabi/lib/libopencm3_stm32.a(rcc.o)
 .text.rcc_clock_setup_in_hse_16mhz_out_72mhz
                0x0000000000000000       0x88 /opt/paparazzi/arm-multilib/lib/gcc/arm-none-eabi/4.6.2/../../../../arm-none-eabi/lib/libopencm3_stm32.a(rcc.o)
 .text.rcc_backupdomain_reset
                0x0000000000000000       0x18 /opt/paparazzi/arm-multilib/lib/gcc/arm-none-eabi/4.6.2/../../../../arm-none-eabi/lib/libopencm3_stm32.a(rcc.o)
 .text          0x0000000000000000        0x0 /opt/paparazzi/arm-multilib/lib/gcc/arm-none-eabi/4.6.2/../../../../arm-none-eabi/lib/libopencm3_stm32.a(usart.o)
 .data          0x0000000000000000        0x0 /opt/paparazzi/arm-multilib/lib/gcc/arm-none-eabi/4.6.2/../../../../arm-none-eabi/lib/libopencm3_stm32.a(usart.o)
 .bss           0x0000000000000000        0x0 /opt/paparazzi/arm-multilib/lib/gcc/arm-none-eabi/4.6.2/../../../../arm-none-eabi/lib/libopencm3_stm32.a(usart.o)
 .text.usart_set_databits
                0x0000000000000000       0x12 /opt/paparazzi/arm-multilib/lib/gcc/arm-none-eabi/4.6.2/../../../../arm-none-eabi/lib/libopencm3_stm32.a(usart.o)
 .text.usart_set_stopbits
                0x0000000000000000        0xc /opt/paparazzi/arm-multilib/lib/gcc/arm-none-eabi/4.6.2/../../../../arm-none-eabi/lib/libopencm3_stm32.a(usart.o)
 .text.usart_set_parity
                0x0000000000000000        0xc /opt/paparazzi/arm-multilib/lib/gcc/arm-none-eabi/4.6.2/../../../../arm-none-eabi/lib/libopencm3_stm32.a(usart.o)
 .text.usart_set_mode
                0x0000000000000000        0xc /opt/paparazzi/arm-multilib/lib/gcc/arm-none-eabi/4.6.2/../../../../arm-none-eabi/lib/libopencm3_stm32.a(usart.o)
 .text.usart_set_flow_control
                0x0000000000000000        0xc /opt/paparazzi/arm-multilib/lib/gcc/arm-none-eabi/4.6.2/../../../../arm-none-eabi/lib/libopencm3_stm32.a(usart.o)
 .text.usart_enable
                0x0000000000000000        0xa /opt/paparazzi/arm-multilib/lib/gcc/arm-none-eabi/4.6.2/../../../../arm-none-eabi/lib/libopencm3_stm32.a(usart.o)
 .text.usart_disable
                0x0000000000000000        0xa /opt/paparazzi/arm-multilib/lib/gcc/arm-none-eabi/4.6.2/../../../../arm-none-eabi/lib/libopencm3_stm32.a(usart.o)
 .text.usart_send
                0x0000000000000000        0x8 /opt/paparazzi/arm-multilib/lib/gcc/arm-none-eabi/4.6.2/../../../../arm-none-eabi/lib/libopencm3_stm32.a(usart.o)
 .text.usart_recv
                0x0000000000000000        0x8 /opt/paparazzi/arm-multilib/lib/gcc/arm-none-eabi/4.6.2/../../../../arm-none-eabi/lib/libopencm3_stm32.a(usart.o)
 .text.usart_wait_send_ready
                0x0000000000000000        0x8 /opt/paparazzi/arm-multilib/lib/gcc/arm-none-eabi/4.6.2/../../../../arm-none-eabi/lib/libopencm3_stm32.a(usart.o)
 .text.usart_wait_recv_ready
                0x0000000000000000        0x8 /opt/paparazzi/arm-multilib/lib/gcc/arm-none-eabi/4.6.2/../../../../arm-none-eabi/lib/libopencm3_stm32.a(usart.o)
 .text.usart_send_blocking
                0x0000000000000000        0xa /opt/paparazzi/arm-multilib/lib/gcc/arm-none-eabi/4.6.2/../../../../arm-none-eabi/lib/libopencm3_stm32.a(usart.o)
 .text.usart_recv_blocking
                0x0000000000000000       0x10 /opt/paparazzi/arm-multilib/lib/gcc/arm-none-eabi/4.6.2/../../../../arm-none-eabi/lib/libopencm3_stm32.a(usart.o)
 .text          0x0000000000000000        0x0 /opt/paparazzi/arm-multilib/lib/gcc/arm-none-eabi/4.6.2/../../../../arm-none-eabi/lib/libopencm3_stm32.a(flash.o)
 .data          0x0000000000000000        0x0 /opt/paparazzi/arm-multilib/lib/gcc/arm-none-eabi/4.6.2/../../../../arm-none-eabi/lib/libopencm3_stm32.a(flash.o)
 .bss           0x0000000000000000        0x0 /opt/paparazzi/arm-multilib/lib/gcc/arm-none-eabi/4.6.2/../../../../arm-none-eabi/lib/libopencm3_stm32.a(flash.o)
 .text.flash_prefetch_buffer_enable
                0x0000000000000000       0x10 /opt/paparazzi/arm-multilib/lib/gcc/arm-none-eabi/4.6.2/../../../../arm-none-eabi/lib/libopencm3_stm32.a(flash.o)
 .text.flash_prefetch_buffer_disable
                0x0000000000000000       0x10 /opt/paparazzi/arm-multilib/lib/gcc/arm-none-eabi/4.6.2/../../../../arm-none-eabi/lib/libopencm3_stm32.a(flash.o)
 .text.flash_halfcycle_enable
                0x0000000000000000       0x10 /opt/paparazzi/arm-multilib/lib/gcc/arm-none-eabi/4.6.2/../../../../arm-none-eabi/lib/libopencm3_stm32.a(flash.o)
 .text.flash_halfcycle_disable
                0x0000000000000000       0x10 /opt/paparazzi/arm-multilib/lib/gcc/arm-none-eabi/4.6.2/../../../../arm-none-eabi/lib/libopencm3_stm32.a(flash.o)
 .text.flash_unlock
                0x0000000000000000       0x18 /opt/paparazzi/arm-multilib/lib/gcc/arm-none-eabi/4.6.2/../../../../arm-none-eabi/lib/libopencm3_stm32.a(flash.o)
 .text.flash_lock
                0x0000000000000000       0x10 /opt/paparazzi/arm-multilib/lib/gcc/arm-none-eabi/4.6.2/../../../../arm-none-eabi/lib/libopencm3_stm32.a(flash.o)
 .text.flash_clear_pgerr_flag
                0x0000000000000000       0x10 /opt/paparazzi/arm-multilib/lib/gcc/arm-none-eabi/4.6.2/../../../../arm-none-eabi/lib/libopencm3_stm32.a(flash.o)
 .text.flash_clear_eop_flag
                0x0000000000000000       0x10 /opt/paparazzi/arm-multilib/lib/gcc/arm-none-eabi/4.6.2/../../../../arm-none-eabi/lib/libopencm3_stm32.a(flash.o)
 .text.flash_clear_wrprterr_flag
                0x0000000000000000       0x10 /opt/paparazzi/arm-multilib/lib/gcc/arm-none-eabi/4.6.2/../../../../arm-none-eabi/lib/libopencm3_stm32.a(flash.o)
 .text.flash_clear_bsy_flag
                0x0000000000000000       0x10 /opt/paparazzi/arm-multilib/lib/gcc/arm-none-eabi/4.6.2/../../../../arm-none-eabi/lib/libopencm3_stm32.a(flash.o)
 .text.flash_clear_status_flags
                0x0000000000000000       0x16 /opt/paparazzi/arm-multilib/lib/gcc/arm-none-eabi/4.6.2/../../../../arm-none-eabi/lib/libopencm3_stm32.a(flash.o)
 .text.flash_unlock_option_bytes
                0x0000000000000000       0x18 /opt/paparazzi/arm-multilib/lib/gcc/arm-none-eabi/4.6.2/../../../../arm-none-eabi/lib/libopencm3_stm32.a(flash.o)
 .text.flash_wait_for_last_operation
                0x0000000000000000       0x10 /opt/paparazzi/arm-multilib/lib/gcc/arm-none-eabi/4.6.2/../../../../arm-none-eabi/lib/libopencm3_stm32.a(flash.o)
 .text.flash_program_word
                0x0000000000000000       0x34 /opt/paparazzi/arm-multilib/lib/gcc/arm-none-eabi/4.6.2/../../../../arm-none-eabi/lib/libopencm3_stm32.a(flash.o)
 .text.flash_program_half_word
                0x0000000000000000       0x28 /opt/paparazzi/arm-multilib/lib/gcc/arm-none-eabi/4.6.2/../../../../arm-none-eabi/lib/libopencm3_stm32.a(flash.o)
 .text.flash_erase_page
                0x0000000000000000       0x34 /opt/paparazzi/arm-multilib/lib/gcc/arm-none-eabi/4.6.2/../../../../arm-none-eabi/lib/libopencm3_stm32.a(flash.o)
 .text.flash_erase_all_pages
                0x0000000000000000       0x2c /opt/paparazzi/arm-multilib/lib/gcc/arm-none-eabi/4.6.2/../../../../arm-none-eabi/lib/libopencm3_stm32.a(flash.o)
 .text.flash_erase_option_bytes
                0x0000000000000000       0x34 /opt/paparazzi/arm-multilib/lib/gcc/arm-none-eabi/4.6.2/../../../../arm-none-eabi/lib/libopencm3_stm32.a(flash.o)
 .text.flash_program_option_bytes
                0x0000000000000000       0x34 /opt/paparazzi/arm-multilib/lib/gcc/arm-none-eabi/4.6.2/../../../../arm-none-eabi/lib/libopencm3_stm32.a(flash.o)
 .data          0x0000000000000000        0x0 /opt/paparazzi/arm-multilib/lib/gcc/arm-none-eabi/4.6.2/../../../../arm-none-eabi/lib/thumb2/libc.a(lib_a-errno.o)
 .bss           0x0000000000000000        0x0 /opt/paparazzi/arm-multilib/lib/gcc/arm-none-eabi/4.6.2/../../../../arm-none-eabi/lib/thumb2/libc.a(lib_a-errno.o)
 .text          0x0000000000000000        0x0 /opt/paparazzi/arm-multilib/lib/gcc/arm-none-eabi/4.6.2/../../../../arm-none-eabi/lib/thumb2/libc.a(lib_a-impure.o)
 .bss           0x0000000000000000        0x0 /opt/paparazzi/arm-multilib/lib/gcc/arm-none-eabi/4.6.2/../../../../arm-none-eabi/lib/thumb2/libc.a(lib_a-impure.o)
 .rodata        0x0000000000000000        0x4 /opt/paparazzi/arm-multilib/lib/gcc/arm-none-eabi/4.6.2/../../../../arm-none-eabi/lib/thumb2/libc.a(lib_a-impure.o)

Memory Configuration

Name             Origin             Length             Attributes
RAM              0x0000000020000000 0x0000000000010000 xrw
FLASH            0x0000000008002000 0x000000000003d800 xr
FLASHB1          0x0000000000000000 0x0000000000000000 xr
*default*        0x0000000000000000 0xffffffffffffffff

Linker script and memory map

LOAD /home/uav/USTUAV/paparazzi/var/MYAC/ap/mcu.o
LOAD /home/uav/USTUAV/paparazzi/var/MYAC/ap/arch/stm32/mcu_arch.o
LOAD /home/uav/USTUAV/paparazzi/var/MYAC/ap/arch/stm32/led_hw.o
LOAD /home/uav/USTUAV/paparazzi/var/MYAC/ap/mcu_periph/sys_time.o
LOAD /home/uav/USTUAV/paparazzi/var/MYAC/ap/arch/stm32/mcu_periph/sys_time_arch.o
LOAD /home/uav/USTUAV/paparazzi/var/MYAC/ap/./inter_mcu.o
LOAD /home/uav/USTUAV/paparazzi/var/MYAC/ap/math/pprz_geodetic_int.o
LOAD /home/uav/USTUAV/paparazzi/var/MYAC/ap/math/pprz_geodetic_float.o
LOAD /home/uav/USTUAV/paparazzi/var/MYAC/ap/math/pprz_geodetic_double.o
LOAD /home/uav/USTUAV/paparazzi/var/MYAC/ap/math/pprz_trig_int.o
LOAD /home/uav/USTUAV/paparazzi/var/MYAC/ap/mcu_periph/i2c.o
LOAD /home/uav/USTUAV/paparazzi/var/MYAC/ap/arch/stm32/mcu_periph/i2c_arch.o
LOAD /home/uav/USTUAV/paparazzi/var/MYAC/ap/firmwares/fixedwing/main_fbw.o
LOAD /home/uav/USTUAV/paparazzi/var/MYAC/ap/subsystems/electrical.o
LOAD /home/uav/USTUAV/paparazzi/var/MYAC/ap/./commands.o
LOAD /home/uav/USTUAV/paparazzi/var/MYAC/ap/firmwares/fixedwing/fbw_downlink.o
LOAD /home/uav/USTUAV/paparazzi/var/MYAC/ap/firmwares/fixedwing/main_ap.o
LOAD /home/uav/USTUAV/paparazzi/var/MYAC/ap/./estimator.o
LOAD /home/uav/USTUAV/paparazzi/var/MYAC/ap/firmwares/fixedwing/ap_downlink.o
LOAD /home/uav/USTUAV/paparazzi/var/MYAC/ap/arch/stm32/stm32_exceptions.o
LOAD /home/uav/USTUAV/paparazzi/var/MYAC/ap/arch/stm32/stm32_vector_table.o
LOAD /home/uav/USTUAV/paparazzi/var/MYAC/ap/lisa/plug_sys.o
LOAD /home/uav/USTUAV/paparazzi/var/MYAC/ap/firmwares/fixedwing/main.o
LOAD /home/uav/USTUAV/paparazzi/var/MYAC/ap/mcu_periph/uart.o
LOAD /home/uav/USTUAV/paparazzi/var/MYAC/ap/arch/stm32/mcu_periph/uart_arch.o
LOAD /home/uav/USTUAV/paparazzi/var/MYAC/ap/subsystems/settings.o
LOAD /home/uav/USTUAV/paparazzi/var/MYAC/ap/arch/stm32/subsystems/settings_arch.o
LOAD /home/uav/USTUAV/paparazzi/var/MYAC/ap/arch/stm32/mcu_periph/adc_arch.o
LOAD /home/uav/USTUAV/paparazzi/var/MYAC/ap/arch/stm32/servos_direct_hw.o
LOAD /home/uav/USTUAV/paparazzi/var/MYAC/ap/actuators.o
LOAD /home/uav/USTUAV/paparazzi/var/MYAC/ap/firmwares/rotorcraft/actuators/arch/stm32/actuators_pwm_arch.o
LOAD /home/uav/USTUAV/paparazzi/var/MYAC/ap/subsystems/radio_control.o
LOAD /home/uav/USTUAV/paparazzi/var/MYAC/ap/subsystems/radio_control/spektrum.o
LOAD /home/uav/USTUAV/paparazzi/var/MYAC/ap/arch/stm32/subsystems/radio_control/spektrum_arch.o
LOAD /home/uav/USTUAV/paparazzi/var/MYAC/ap/subsystems/datalink/downlink.o
LOAD /home/uav/USTUAV/paparazzi/var/MYAC/ap/subsystems/datalink/pprz_transport.o
LOAD /home/uav/USTUAV/paparazzi/var/MYAC/ap/firmwares/fixedwing/datalink.o
LOAD /home/uav/USTUAV/paparazzi/var/MYAC/ap/firmwares/fixedwing/stabilization/stabilization_attitude.o
LOAD /home/uav/USTUAV/paparazzi/var/MYAC/ap/firmwares/fixedwing/guidance/guidance_v.o
LOAD /home/uav/USTUAV/paparazzi/var/MYAC/ap/subsystems/imu.o
LOAD /home/uav/USTUAV/paparazzi/var/MYAC/ap/subsystems/imu/imu_aspirin2.o
LOAD /home/uav/USTUAV/paparazzi/var/MYAC/ap/arch/stm32/mcu_periph/spi_arch.o
LOAD /home/uav/USTUAV/paparazzi/var/MYAC/ap/mcu_periph/spi.o
LOAD /home/uav/USTUAV/paparazzi/var/MYAC/ap/subsystems/ahrs.o
LOAD /home/uav/USTUAV/paparazzi/var/MYAC/ap/subsystems/ahrs/ahrs_aligner.o
LOAD /home/uav/USTUAV/paparazzi/var/MYAC/ap/subsystems/ahrs/ahrs_float_dcm.o
LOAD /home/uav/USTUAV/paparazzi/var/MYAC/ap/subsystems/gps/gps_ubx.o
LOAD /home/uav/USTUAV/paparazzi/var/MYAC/ap/subsystems/gps.o
LOAD /home/uav/USTUAV/paparazzi/var/MYAC/ap/subsystems/nav.o
LOAD /home/uav/USTUAV/paparazzi/var/MYAC/ap/subsystems/navigation/common_flight_plan.o
LOAD /home/uav/USTUAV/paparazzi/var/MYAC/ap/subsystems/navigation/traffic_info.o
LOAD /home/uav/USTUAV/paparazzi/var/MYAC/ap/subsystems/navigation/nav_survey_rectangle.o
LOAD /home/uav/USTUAV/paparazzi/var/MYAC/ap/subsystems/navigation/nav_line.o
LOAD /home/uav/USTUAV/paparazzi/var/MYAC/ap/modules/core/sys_mon.o
LOAD /opt/paparazzi/arm-multilib/lib/gcc/arm-none-eabi/4.6.2/../../../../arm-none-eabi/lib/thumb2/libc.a
LOAD /opt/paparazzi/arm-multilib/lib/gcc/arm-none-eabi/4.6.2/../../../../arm-none-eabi/lib/thumb2/libm.a
LOAD /opt/paparazzi/arm-multilib/lib/gcc/arm-none-eabi/4.6.2/thumb2/libgcc.a
LOAD /opt/paparazzi/arm-multilib/lib/gcc/arm-none-eabi/4.6.2/../../../../arm-none-eabi/lib/libcmsis.a
LOAD /opt/paparazzi/arm-multilib/lib/gcc/arm-none-eabi/4.6.2/../../../../arm-none-eabi/lib/libstm32.a
LOAD /opt/paparazzi/arm-multilib/lib/gcc/arm-none-eabi/4.6.2/../../../../arm-none-eabi/lib/libopencm3_stm32.a
START GROUP
LOAD /opt/paparazzi/arm-multilib/lib/gcc/arm-none-eabi/4.6.2/thumb2/libgcc.a
LOAD /opt/paparazzi/arm-multilib/lib/gcc/arm-none-eabi/4.6.2/../../../../arm-none-eabi/lib/thumb2/libc.a
END GROUP
                0x0000000020010000                _estack = 0x20010000
                0x0000000000001000                __Stack_Size = 0x1000
                0x0000000000001000                PROVIDE (_Stack_Size, __Stack_Size)
                0x000000002000f000                __Stack_Init = (_estack - __Stack_Size)
                0x000000002000f000                PROVIDE (_Stack_Init, __Stack_Init)
                0x0000000000000800                _Minimum_Stack_Size = 0x800
                0x0000000000000001                ASSERT ((ORIGIN (FLASH) == ALIGN (ORIGIN (FLASH), 0x80)), Start of memory region flash not aligned for startup vector table)

.isr_vector     0x0000000008002000      0x130
                0x0000000008002000                . = ALIGN (0x4)
 *(.isr_vector)
 .isr_vector    0x0000000008002000      0x130 /home/uav/USTUAV/paparazzi/var/MYAC/ap/arch/stm32/stm32_vector_table.o
                0x0000000008002000                vector_table
                0x0000000008002130                . = ALIGN (0x4)

.flashtext      0x0000000008002130        0x0
                0x0000000008002130                . = ALIGN (0x4)
 *(.flashtext)
                0x0000000008002130                . = ALIGN (0x4)

.text           0x0000000008002130    0x18b28
                0x0000000008002130                . = ALIGN (0x4)
 *(.text)
 .text          0x0000000008002130       0x12 /opt/paparazzi/arm-multilib/lib/gcc/arm-none-eabi/4.6.2/../../../../arm-none-eabi/lib/thumb2/libc.a(lib_a-memcpy.o)
                0x0000000008002130                memcpy
 *fill*         0x0000000008002142        0x6 00
 .text          0x0000000008002148      0x340 /opt/paparazzi/arm-multilib/lib/gcc/arm-none-eabi/4.6.2/../../../../arm-none-eabi/lib/thumb2/libm.a(lib_a-s_atan.o)
                0x0000000008002148                atan
 .text          0x0000000008002488       0x70 /opt/paparazzi/arm-multilib/lib/gcc/arm-none-eabi/4.6.2/../../../../arm-none-eabi/lib/thumb2/libm.a(lib_a-s_cos.o)
                0x0000000008002488                cos
 .text          0x00000000080024f8        0x6 /opt/paparazzi/arm-multilib/lib/gcc/arm-none-eabi/4.6.2/../../../../arm-none-eabi/lib/thumb2/libm.a(lib_a-s_fabs.o)
                0x00000000080024f8                fabs
 *fill*         0x00000000080024fe        0x2 00
 .text          0x0000000008002500      0x120 /opt/paparazzi/arm-multilib/lib/gcc/arm-none-eabi/4.6.2/../../../../arm-none-eabi/lib/thumb2/libm.a(lib_a-s_rint.o)
                0x0000000008002500                rint
 .text          0x0000000008002620       0x78 /opt/paparazzi/arm-multilib/lib/gcc/arm-none-eabi/4.6.2/../../../../arm-none-eabi/lib/thumb2/libm.a(lib_a-s_sin.o)
                0x0000000008002620                sin
 .text          0x0000000008002698       0x58 /opt/paparazzi/arm-multilib/lib/gcc/arm-none-eabi/4.6.2/../../../../arm-none-eabi/lib/thumb2/libm.a(lib_a-s_tan.o)
                0x0000000008002698                tan
 .text          0x00000000080026f0      0x234 /opt/paparazzi/arm-multilib/lib/gcc/arm-none-eabi/4.6.2/../../../../arm-none-eabi/lib/thumb2/libm.a(lib_a-sf_atan.o)
                0x00000000080026f0                atanf
 .text          0x0000000008002924       0x58 /opt/paparazzi/arm-multilib/lib/gcc/arm-none-eabi/4.6.2/../../../../arm-none-eabi/lib/thumb2/libm.a(lib_a-sf_cos.o)
                0x0000000008002924                cosf
 .text          0x000000000800297c        0x6 /opt/paparazzi/arm-multilib/lib/gcc/arm-none-eabi/4.6.2/../../../../arm-none-eabi/lib/thumb2/libm.a(lib_a-sf_fabs.o)
                0x000000000800297c                fabsf
 *fill*         0x0000000008002982        0x2 00
 .text          0x0000000008002984       0x68 /opt/paparazzi/arm-multilib/lib/gcc/arm-none-eabi/4.6.2/../../../../arm-none-eabi/lib/thumb2/libm.a(lib_a-sf_sin.o)
                0x0000000008002984                sinf
 .text          0x00000000080029ec       0x9c /opt/paparazzi/arm-multilib/lib/gcc/arm-none-eabi/4.6.2/../../../../arm-none-eabi/lib/thumb2/libm.a(lib_a-w_asin.o)
                0x00000000080029ec                asin
 .text          0x0000000008002a88        0x4 /opt/paparazzi/arm-multilib/lib/gcc/arm-none-eabi/4.6.2/../../../../arm-none-eabi/lib/thumb2/libm.a(lib_a-w_atan2.o)
                0x0000000008002a88                atan2
 *fill*         0x0000000008002a8c        0x4 00
 .text          0x0000000008002a90       0xb0 /opt/paparazzi/arm-multilib/lib/gcc/arm-none-eabi/4.6.2/../../../../arm-none-eabi/lib/thumb2/libm.a(lib_a-w_cosh.o)
                0x0000000008002a90                cosh
 .text          0x0000000008002b40       0xe8 /opt/paparazzi/arm-multilib/lib/gcc/arm-none-eabi/4.6.2/../../../../arm-none-eabi/lib/thumb2/libm.a(lib_a-w_exp.o)
                0x0000000008002b40                exp
 .text          0x0000000008002c28       0xd8 /opt/paparazzi/arm-multilib/lib/gcc/arm-none-eabi/4.6.2/../../../../arm-none-eabi/lib/thumb2/libm.a(lib_a-w_log.o)
                0x0000000008002c28                log
 .text          0x0000000008002d00      0x2c0 /opt/paparazzi/arm-multilib/lib/gcc/arm-none-eabi/4.6.2/../../../../arm-none-eabi/lib/thumb2/libm.a(lib_a-w_pow.o)
                0x0000000008002d00                pow
 .text          0x0000000008002fc0       0xc0 /opt/paparazzi/arm-multilib/lib/gcc/arm-none-eabi/4.6.2/../../../../arm-none-eabi/lib/thumb2/libm.a(lib_a-w_sinh.o)
                0x0000000008002fc0                sinh
 .text          0x0000000008003080       0xa4 /opt/paparazzi/arm-multilib/lib/gcc/arm-none-eabi/4.6.2/../../../../arm-none-eabi/lib/thumb2/libm.a(lib_a-w_sqrt.o)
                0x0000000008003080                sqrt
 .text          0x0000000008003124       0x94 /opt/paparazzi/arm-multilib/lib/gcc/arm-none-eabi/4.6.2/../../../../arm-none-eabi/lib/thumb2/libm.a(lib_a-wf_asin.o)
                0x0000000008003124                asinf
 .text          0x00000000080031b8        0x4 /opt/paparazzi/arm-multilib/lib/gcc/arm-none-eabi/4.6.2/../../../../arm-none-eabi/lib/thumb2/libm.a(lib_a-wf_atan2.o)
                0x00000000080031b8                atan2f
 *fill*         0x00000000080031bc        0x4 00
 .text          0x00000000080031c0      0x4a0 /opt/paparazzi/arm-multilib/lib/gcc/arm-none-eabi/4.6.2/../../../../arm-none-eabi/lib/thumb2/libm.a(lib_a-e_asin.o)
                0x00000000080031c0                __ieee754_asin
 .text          0x0000000008003660      0x1e0 /opt/paparazzi/arm-multilib/lib/gcc/arm-none-eabi/4.6.2/../../../../arm-none-eabi/lib/thumb2/libm.a(lib_a-e_atan2.o)
                0x0000000008003660                __ieee754_atan2
 .text          0x0000000008003840      0x130 /opt/paparazzi/arm-multilib/lib/gcc/arm-none-eabi/4.6.2/../../../../arm-none-eabi/lib/thumb2/libm.a(lib_a-e_cosh.o)
                0x0000000008003840                __ieee754_cosh
 .text          0x0000000008003970      0x2e0 /opt/paparazzi/arm-multilib/lib/gcc/arm-none-eabi/4.6.2/../../../../arm-none-eabi/lib/thumb2/libm.a(lib_a-e_exp.o)
                0x0000000008003970                __ieee754_exp
 .text          0x0000000008003c50      0x408 /opt/paparazzi/arm-multilib/lib/gcc/arm-none-eabi/4.6.2/../../../../arm-none-eabi/lib/thumb2/libm.a(lib_a-e_log.o)
                0x0000000008003c50                __ieee754_log
 .text          0x0000000008004058      0xa88 /opt/paparazzi/arm-multilib/lib/gcc/arm-none-eabi/4.6.2/../../../../arm-none-eabi/lib/thumb2/libm.a(lib_a-e_pow.o)
                0x0000000008004058                __ieee754_pow
 .text          0x0000000008004ae0      0x3c8 /opt/paparazzi/arm-multilib/lib/gcc/arm-none-eabi/4.6.2/../../../../arm-none-eabi/lib/thumb2/libm.a(lib_a-e_rem_pio2.o)
                0x0000000008004ae0                __ieee754_rem_pio2
 .text          0x0000000008004ea8      0x168 /opt/paparazzi/arm-multilib/lib/gcc/arm-none-eabi/4.6.2/../../../../arm-none-eabi/lib/thumb2/libm.a(lib_a-e_sinh.o)
                0x0000000008004ea8                __ieee754_sinh
 .text          0x0000000008005010      0x15c /opt/paparazzi/arm-multilib/lib/gcc/arm-none-eabi/4.6.2/../../../../arm-none-eabi/lib/thumb2/libm.a(lib_a-e_sqrt.o)
                0x0000000008005010                __ieee754_sqrt
 .text          0x000000000800516c      0x2ac /opt/paparazzi/arm-multilib/lib/gcc/arm-none-eabi/4.6.2/../../../../arm-none-eabi/lib/thumb2/libm.a(lib_a-ef_asin.o)
                0x000000000800516c                __ieee754_asinf
 .text          0x0000000008005418      0x120 /opt/paparazzi/arm-multilib/lib/gcc/arm-none-eabi/4.6.2/../../../../arm-none-eabi/lib/thumb2/libm.a(lib_a-ef_atan2.o)
                0x0000000008005418                __ieee754_atan2f
 .text          0x0000000008005538      0x2a8 /opt/paparazzi/arm-multilib/lib/gcc/arm-none-eabi/4.6.2/../../../../arm-none-eabi/lib/thumb2/libm.a(lib_a-ef_rem_pio2.o)
                0x0000000008005538                __ieee754_rem_pio2f
 .text          0x00000000080057e0       0x9e /opt/paparazzi/arm-multilib/lib/gcc/arm-none-eabi/4.6.2/../../../../arm-none-eabi/lib/thumb2/libm.a(lib_a-ef_sqrt.o)
                0x00000000080057e0                __ieee754_sqrtf
 *fill*         0x000000000800587e        0x2 00
 .text          0x0000000008005880      0x1d8 /opt/paparazzi/arm-multilib/lib/gcc/arm-none-eabi/4.6.2/../../../../arm-none-eabi/lib/thumb2/libm.a(lib_a-k_cos.o)
                0x0000000008005880                __kernel_cos
 .text          0x0000000008005a58      0x6d8 /opt/paparazzi/arm-multilib/lib/gcc/arm-none-eabi/4.6.2/../../../../arm-none-eabi/lib/thumb2/libm.a(lib_a-k_rem_pio2.o)
                0x0000000008005a58                __kernel_rem_pio2
 .text          0x0000000008006130      0x180 /opt/paparazzi/arm-multilib/lib/gcc/arm-none-eabi/4.6.2/../../../../arm-none-eabi/lib/thumb2/libm.a(lib_a-k_sin.o)
                0x0000000008006130                __kernel_sin
 .text          0x00000000080062b0      0x3e0 /opt/paparazzi/arm-multilib/lib/gcc/arm-none-eabi/4.6.2/../../../../arm-none-eabi/lib/thumb2/libm.a(lib_a-k_tan.o)
                0x00000000080062b0                __kernel_tan
 .text          0x0000000008006690      0x134 /opt/paparazzi/arm-multilib/lib/gcc/arm-none-eabi/4.6.2/../../../../arm-none-eabi/lib/thumb2/libm.a(lib_a-kf_cos.o)
                0x0000000008006690                __kernel_cosf
 .text          0x00000000080067c4      0x608 /opt/paparazzi/arm-multilib/lib/gcc/arm-none-eabi/4.6.2/../../../../arm-none-eabi/lib/thumb2/libm.a(lib_a-kf_rem_pio2.o)
                0x00000000080067c4                __kernel_rem_pio2f
 .text          0x0000000008006dcc       0xf4 /opt/paparazzi/arm-multilib/lib/gcc/arm-none-eabi/4.6.2/../../../../arm-none-eabi/lib/thumb2/libm.a(lib_a-kf_sin.o)
                0x0000000008006dcc                __kernel_sinf
 .text          0x0000000008006ec0      0x420 /opt/paparazzi/arm-multilib/lib/gcc/arm-none-eabi/4.6.2/../../../../arm-none-eabi/lib/thumb2/libm.a(lib_a-s_expm1.o)
                0x0000000008006ec0                expm1
 .text          0x00000000080072e0       0x10 /opt/paparazzi/arm-multilib/lib/gcc/arm-none-eabi/4.6.2/../../../../arm-none-eabi/lib/thumb2/libm.a(lib_a-s_finite.o)
                0x00000000080072e0                finite
 .text          0x00000000080072f0      0x110 /opt/paparazzi/arm-multilib/lib/gcc/arm-none-eabi/4.6.2/../../../../arm-none-eabi/lib/thumb2/libm.a(lib_a-s_floor.o)
                0x00000000080072f0                floor
 .text          0x0000000008007400       0x64 /opt/paparazzi/arm-multilib/lib/gcc/arm-none-eabi/4.6.2/../../../../arm-none-eabi/lib/thumb2/libm.a(lib_a-s_fpclassify.o)
                0x0000000008007400                __fpclassifyd
 .text          0x0000000008007464        0x4 /opt/paparazzi/arm-multilib/lib/gcc/arm-none-eabi/4.6.2/../../../../arm-none-eabi/lib/thumb2/libm.a(lib_a-s_matherr.o)
                0x0000000008007464                matherr
 .text          0x0000000008007468        0xc /opt/paparazzi/arm-multilib/lib/gcc/arm-none-eabi/4.6.2/../../../../arm-none-eabi/lib/thumb2/libm.a(lib_a-s_nan.o)
                0x0000000008007468                nan
 *fill*         0x0000000008007474        0x4 00
 .text          0x0000000008007478       0xe8 /opt/paparazzi/arm-multilib/lib/gcc/arm-none-eabi/4.6.2/../../../../arm-none-eabi/lib/thumb2/libm.a(lib_a-s_scalbn.o)
                0x0000000008007478                scalbn
 .text          0x0000000008007560       0x80 /opt/paparazzi/arm-multilib/lib/gcc/arm-none-eabi/4.6.2/../../../../arm-none-eabi/lib/thumb2/libm.a(lib_a-sf_floor.o)
                0x0000000008007560                floorf
 .text          0x00000000080075e0       0x54 /opt/paparazzi/arm-multilib/lib/gcc/arm-none-eabi/4.6.2/../../../../arm-none-eabi/lib/thumb2/libm.a(lib_a-sf_fpclassify.o)
                0x00000000080075e0                __fpclassifyf
 .text          0x0000000008007634       0x9c /opt/paparazzi/arm-multilib/lib/gcc/arm-none-eabi/4.6.2/../../../../arm-none-eabi/lib/thumb2/libm.a(lib_a-sf_scalbn.o)
                0x0000000008007634                scalbnf
 .text          0x00000000080076d0       0x14 /opt/paparazzi/arm-multilib/lib/gcc/arm-none-eabi/4.6.2/../../../../arm-none-eabi/lib/thumb2/libm.a(lib_a-s_copysign.o)
                0x00000000080076d0                copysign
 .text          0x00000000080076e4        0xc /opt/paparazzi/arm-multilib/lib/gcc/arm-none-eabi/4.6.2/../../../../arm-none-eabi/lib/thumb2/libm.a(lib_a-sf_copysign.o)
                0x00000000080076e4                copysignf
 .text          0x00000000080076f0       0xe0 /opt/paparazzi/arm-multilib/lib/gcc/arm-none-eabi/4.6.2/thumb2/libgcc.a(_divsi3.o)
                0x00000000080076f0                __aeabi_idiv
                0x00000000080076f0                __divsi3
                0x00000000080077b4                __aeabi_idivmod
 .text          0x00000000080077d0        0x4 /opt/paparazzi/arm-multilib/lib/gcc/arm-none-eabi/4.6.2/thumb2/libgcc.a(_dvmd_tls.o)
                0x00000000080077d0                __aeabi_ldiv0
                0x00000000080077d0                __aeabi_idiv0
 .text          0x00000000080077d4      0x370 /opt/paparazzi/arm-multilib/lib/gcc/arm-none-eabi/4.6.2/thumb2/libgcc.a(_arm_addsubdf3.o)
                0x00000000080077d4                __aeabi_drsub
                0x00000000080077dc                __aeabi_dsub
                0x00000000080077dc                __subdf3
                0x00000000080077e0                __adddf3
                0x00000000080077e0                __aeabi_dadd
                0x0000000008007a58                __aeabi_ui2d
                0x0000000008007a58                __floatunsidf
                0x0000000008007a78                __floatsidf
                0x0000000008007a78                __aeabi_i2d
                0x0000000008007a9c                __extendsfdf2
                0x0000000008007a9c                __aeabi_f2d
                0x0000000008007ad8                __aeabi_ul2d
                0x0000000008007ad8                __floatundidf
                0x0000000008007ae8                __floatdidf
                0x0000000008007ae8                __aeabi_l2d
 .text          0x0000000008007b44      0x424 /opt/paparazzi/arm-multilib/lib/gcc/arm-none-eabi/4.6.2/thumb2/libgcc.a(_arm_muldivdf3.o)
                0x0000000008007b44                __aeabi_dmul
                0x0000000008007b44                __muldf3
                0x0000000008007d98                __aeabi_ddiv
                0x0000000008007d98                __divdf3
 .text          0x0000000008007f68      0x110 /opt/paparazzi/arm-multilib/lib/gcc/arm-none-eabi/4.6.2/thumb2/libgcc.a(_arm_cmpdf2.o)
                0x0000000008007f68                __gtdf2
                0x0000000008007f68                __gedf2
                0x0000000008007f70                __ltdf2
                0x0000000008007f70                __ledf2
                0x0000000008007f78                __cmpdf2
                0x0000000008007f78                __eqdf2
                0x0000000008007f78                __nedf2
                0x0000000008007ff4                __aeabi_cdrcmple
                0x0000000008008004                __aeabi_cdcmple
                0x0000000008008004                __aeabi_cdcmpeq
                0x0000000008008014                __aeabi_dcmpeq
                0x0000000008008028                __aeabi_dcmplt
                0x000000000800803c                __aeabi_dcmple
                0x0000000008008050                __aeabi_dcmpge
                0x0000000008008064                __aeabi_dcmpgt
 .text          0x0000000008008078       0x50 /opt/paparazzi/arm-multilib/lib/gcc/arm-none-eabi/4.6.2/thumb2/libgcc.a(_arm_fixdfsi.o)
                0x0000000008008078                __fixdfsi
                0x0000000008008078                __aeabi_d2iz
 .text          0x00000000080080c8       0x40 /opt/paparazzi/arm-multilib/lib/gcc/arm-none-eabi/4.6.2/thumb2/libgcc.a(_arm_fixunsdfsi.o)
                0x00000000080080c8                __fixunsdfsi
                0x00000000080080c8                __aeabi_d2uiz
 .text          0x0000000008008108       0xa0 /opt/paparazzi/arm-multilib/lib/gcc/arm-none-eabi/4.6.2/thumb2/libgcc.a(_arm_truncdfsf2.o)
                0x0000000008008108                __aeabi_d2f
                0x0000000008008108                __truncdfsf2
 .text          0x00000000080081a8      0x21c /opt/paparazzi/arm-multilib/lib/gcc/arm-none-eabi/4.6.2/thumb2/libgcc.a(_arm_addsubsf3.o)
                0x00000000080081a8                __aeabi_frsub
                0x00000000080081b0                __subsf3
                0x00000000080081b0                __aeabi_fsub
                0x00000000080081b4                __aeabi_fadd
                0x00000000080081b4                __addsf3
                0x0000000008008314                __aeabi_ui2f
                0x0000000008008314                __floatunsisf
                0x000000000800831c                __aeabi_i2f
                0x000000000800831c                __floatsisf
                0x0000000008008338                __floatundisf
                0x0000000008008338                __aeabi_ul2f
                0x0000000008008348                __floatdisf
                0x0000000008008348                __aeabi_l2f
 .text          0x00000000080083c4      0x2a0 /opt/paparazzi/arm-multilib/lib/gcc/arm-none-eabi/4.6.2/thumb2/libgcc.a(_arm_muldivsf3.o)
                0x00000000080083c4                __mulsf3
                0x00000000080083c4                __aeabi_fmul
                0x000000000800852c                __divsf3
                0x000000000800852c                __aeabi_fdiv
 .text          0x0000000008008664       0xec /opt/paparazzi/arm-multilib/lib/gcc/arm-none-eabi/4.6.2/thumb2/libgcc.a(_arm_cmpsf2.o)
                0x0000000008008664                __gtsf2
                0x0000000008008664                __gesf2
                0x000000000800866c                __lesf2
                0x000000000800866c                __ltsf2
                0x0000000008008674                __nesf2
                0x0000000008008674                __eqsf2
                0x0000000008008674                __cmpsf2
                0x00000000080086d4                __aeabi_cfrcmple
                0x00000000080086dc                __aeabi_cfcmple
                0x00000000080086dc                __aeabi_cfcmpeq
                0x00000000080086ec                __aeabi_fcmpeq
                0x0000000008008700                __aeabi_fcmplt
                0x0000000008008714                __aeabi_fcmple
                0x0000000008008728                __aeabi_fcmpge
                0x000000000800873c                __aeabi_fcmpgt
 .text          0x0000000008008750       0x4c /opt/paparazzi/arm-multilib/lib/gcc/arm-none-eabi/4.6.2/thumb2/libgcc.a(_arm_fixsfsi.o)
                0x0000000008008750                __fixsfsi
                0x0000000008008750                __aeabi_f2iz
 .text          0x000000000800879c       0x40 /opt/paparazzi/arm-multilib/lib/gcc/arm-none-eabi/4.6.2/thumb2/libgcc.a(_arm_fixunssfsi.o)
                0x000000000800879c                __aeabi_f2uiz
                0x000000000800879c                __fixunssfsi
 .text          0x00000000080087dc        0xc /opt/paparazzi/arm-multilib/lib/gcc/arm-none-eabi/4.6.2/../../../../arm-none-eabi/lib/thumb2/libc.a(lib_a-errno.o)
                0x00000000080087dc                __errno
 *(.text.*)
 .text.mcu_init
                0x00000000080087e8       0xe4 /home/uav/USTUAV/paparazzi/var/MYAC/ap/mcu.o
                0x00000000080087e8                mcu_init
 .text.mcu_arch_init
                0x00000000080088cc       0x16 /home/uav/USTUAV/paparazzi/var/MYAC/ap/arch/stm32/mcu_arch.o
                0x00000000080088cc                mcu_arch_init
 *fill*         0x00000000080088e2        0x6 00
 .text.sys_time_register_timer
                0x00000000080088e8       0x60 /home/uav/USTUAV/paparazzi/var/MYAC/ap/mcu_periph/sys_time.o
                0x00000000080088e8                sys_time_register_timer
 .text.sys_time_init
                0x0000000008008948       0x34 /home/uav/USTUAV/paparazzi/var/MYAC/ap/mcu_periph/sys_time.o
                0x0000000008008948                sys_time_init
 .text.sys_time_arch_init
                0x000000000800897c       0x28 /home/uav/USTUAV/paparazzi/var/MYAC/ap/arch/stm32/mcu_periph/sys_time_arch.o
                0x000000000800897c                sys_time_arch_init
 .text.sys_tick_irq_handler
                0x00000000080089a4       0x80 /home/uav/USTUAV/paparazzi/var/MYAC/ap/arch/stm32/mcu_periph/sys_time_arch.o
                0x00000000080089a4                sys_tick_irq_handler
 *fill*         0x0000000008008a24        0x4 00
 .text.isometric_latitude_fast_f
                0x0000000008008a28       0x38 /home/uav/USTUAV/paparazzi/var/MYAC/ap/math/pprz_geodetic_float.o
 .text.utm_of_lla_f
                0x0000000008008a60      0x280 /home/uav/USTUAV/paparazzi/var/MYAC/ap/math/pprz_geodetic_float.o
                0x0000000008008a60                utm_of_lla_f
 .text.i2c_event
                0x0000000008008ce0        0x2 /home/uav/USTUAV/paparazzi/var/MYAC/ap/arch/stm32/mcu_periph/i2c_arch.o
                0x0000000008008ce0                i2c_event
 *fill*         0x0000000008008ce2        0x2 00
 .text.inter_mcu_fill_fbw_state
                0x0000000008008ce4       0x78 /home/uav/USTUAV/paparazzi/var/MYAC/ap/firmwares/fixedwing/main_fbw.o
 .text.handle_rc_frame
                0x0000000008008d5c       0x40 /home/uav/USTUAV/paparazzi/var/MYAC/ap/firmwares/fixedwing/main_fbw.o
 .text.init_fbw
                0x0000000008008d9c       0xa8 /home/uav/USTUAV/paparazzi/var/MYAC/ap/firmwares/fixedwing/main_fbw.o
                0x0000000008008d9c                init_fbw
 *fill*         0x0000000008008e44        0x4 00
 .text.event_task_fbw
                0x0000000008008e48      0x2d0 /home/uav/USTUAV/paparazzi/var/MYAC/ap/firmwares/fixedwing/main_fbw.o
                0x0000000008008e48                event_task_fbw
 .text.periodic_task_fbw
                0x0000000008009118      0x814 /home/uav/USTUAV/paparazzi/var/MYAC/ap/firmwares/fixedwing/main_fbw.o
                0x0000000008009118                periodic_task_fbw
 .text.handle_periodic_tasks_fbw
                0x000000000800992c       0x48 /home/uav/USTUAV/paparazzi/var/MYAC/ap/firmwares/fixedwing/main_fbw.o
                0x000000000800992c                handle_periodic_tasks_fbw
 .text.electrical_init
                0x0000000008009974       0x28 /home/uav/USTUAV/paparazzi/var/MYAC/ap/subsystems/electrical.o
                0x0000000008009974                electrical_init
 *fill*         0x000000000800999c        0x4 00
 .text.electrical_periodic
                0x00000000080099a0       0xe8 /home/uav/USTUAV/paparazzi/var/MYAC/ap/subsystems/electrical.o
                0x00000000080099a0                electrical_periodic
 .text.init_ap  0x0000000008009a88       0xbc /home/uav/USTUAV/paparazzi/var/MYAC/ap/firmwares/fixedwing/main_ap.o
                0x0000000008009a88                init_ap
 *fill*         0x0000000008009b44        0x4 00
 .text.reporting_task
                0x0000000008009b48     0x5ee0 /home/uav/USTUAV/paparazzi/var/MYAC/ap/firmwares/fixedwing/main_ap.o
                0x0000000008009b48                reporting_task
 .text.navigation_task
                0x000000000800fa28      0x690 /home/uav/USTUAV/paparazzi/var/MYAC/ap/firmwares/fixedwing/main_ap.o
                0x000000000800fa28                navigation_task
 .text.attitude_loop
                0x00000000080100b8       0x40 /home/uav/USTUAV/paparazzi/var/MYAC/ap/firmwares/fixedwing/main_ap.o
                0x00000000080100b8                attitude_loop
 .text.sensors_task
                0x00000000080100f8       0x1c /home/uav/USTUAV/paparazzi/var/MYAC/ap/firmwares/fixedwing/main_ap.o
                0x00000000080100f8                sensors_task
 .text.monitor_task
                0x0000000008010114      0x148 /home/uav/USTUAV/paparazzi/var/MYAC/ap/firmwares/fixedwing/main_ap.o
                0x0000000008010114                monitor_task
 .text.handle_periodic_tasks_ap
                0x000000000801025c      0x120 /home/uav/USTUAV/paparazzi/var/MYAC/ap/firmwares/fixedwing/main_ap.o
                0x000000000801025c                handle_periodic_tasks_ap
 *fill*         0x000000000801037c        0x4 00
 .text.event_task_ap
                0x0000000008010380      0x798 /home/uav/USTUAV/paparazzi/var/MYAC/ap/firmwares/fixedwing/main_ap.o
                0x0000000008010380                event_task_ap
 .text.alt_kalman_reset
                0x0000000008010b18       0x18 /home/uav/USTUAV/paparazzi/var/MYAC/ap/./estimator.o
                0x0000000008010b18                alt_kalman_reset
 .text.alt_kalman_init
                0x0000000008010b30       0x10 /home/uav/USTUAV/paparazzi/var/MYAC/ap/./estimator.o
                0x0000000008010b30                alt_kalman_init
 .text.alt_kalman
                0x0000000008010b40      0x170 /home/uav/USTUAV/paparazzi/var/MYAC/ap/./estimator.o
                0x0000000008010b40                alt_kalman
 .text.estimator_init
                0x0000000008010cb0       0x98 /home/uav/USTUAV/paparazzi/var/MYAC/ap/./estimator.o
                0x0000000008010cb0                estimator_init
 .text.estimator_update_state_gps
                0x0000000008010d48      0x108 /home/uav/USTUAV/paparazzi/var/MYAC/ap/./estimator.o
                0x0000000008010d48                estimator_update_state_gps
 .text.nmi_exception
                0x0000000008010e50        0x2 /home/uav/USTUAV/paparazzi/var/MYAC/ap/arch/stm32/stm32_exceptions.o
                0x0000000008010e50                nmi_exception
 .text.hard_fault_exception
                0x0000000008010e52        0x2 /home/uav/USTUAV/paparazzi/var/MYAC/ap/arch/stm32/stm32_exceptions.o
                0x0000000008010e52                hard_fault_exception
 .text.mem_manage_exception
                0x0000000008010e54        0x2 /home/uav/USTUAV/paparazzi/var/MYAC/ap/arch/stm32/stm32_exceptions.o
                0x0000000008010e54                mem_manage_exception
 .text.bus_fault_exception
                0x0000000008010e56        0x2 /home/uav/USTUAV/paparazzi/var/MYAC/ap/arch/stm32/stm32_exceptions.o
                0x0000000008010e56                bus_fault_exception
 .text.usage_fault_exception
                0x0000000008010e58        0x2 /home/uav/USTUAV/paparazzi/var/MYAC/ap/arch/stm32/stm32_exceptions.o
                0x0000000008010e58                usage_fault_exception
 .text.null_handler
                0x0000000008010e5a        0x2 /home/uav/USTUAV/paparazzi/var/MYAC/ap/arch/stm32/stm32_vector_table.o
                0x0000000008010e5a                null_handler
 .text.reset_handler_stage2
                0x0000000008010e5c       0x3c /home/uav/USTUAV/paparazzi/var/MYAC/ap/arch/stm32/stm32_vector_table.o
                0x0000000008010e5c                reset_handler_stage2
 .text.reset_handler_stage1
                0x0000000008010e98       0x24 /home/uav/USTUAV/paparazzi/var/MYAC/ap/arch/stm32/stm32_vector_table.o
                0x0000000008010e98                reset_handler_stage1
 .text.startup.main
                0x0000000008010ebc       0x1c /home/uav/USTUAV/paparazzi/var/MYAC/ap/firmwares/fixedwing/main.o
                0x0000000008010ebc                main
 .text.uart_periph_init
                0x0000000008010ed8       0x18 /home/uav/USTUAV/paparazzi/var/MYAC/ap/mcu_periph/uart.o
                0x0000000008010ed8                uart_periph_init
 .text.uart_check_free_space
                0x0000000008010ef0       0x28 /home/uav/USTUAV/paparazzi/var/MYAC/ap/mcu_periph/uart.o
                0x0000000008010ef0                uart_check_free_space
 .text.usart_irq_handler
                0x0000000008010f18       0x7e /home/uav/USTUAV/paparazzi/var/MYAC/ap/arch/stm32/mcu_periph/uart_arch.o
 .text.uart_periph_set_baudrate
                0x0000000008010f96       0x52 /home/uav/USTUAV/paparazzi/var/MYAC/ap/arch/stm32/mcu_periph/uart_arch.o
                0x0000000008010f96                uart_periph_set_baudrate
 .text.uart_transmit
                0x0000000008010fe8       0x60 /home/uav/USTUAV/paparazzi/var/MYAC/ap/arch/stm32/mcu_periph/uart_arch.o
                0x0000000008010fe8                uart_transmit
 .text.uart2_init
                0x0000000008011048       0x88 /home/uav/USTUAV/paparazzi/var/MYAC/ap/arch/stm32/mcu_periph/uart_arch.o
                0x0000000008011048                uart2_init
 .text.usart2_irq_handler
                0x00000000080110d0        0xc /home/uav/USTUAV/paparazzi/var/MYAC/ap/arch/stm32/mcu_periph/uart_arch.o
                0x00000000080110d0                usart2_irq_handler
 .text.uart3_init
                0x00000000080110dc       0xa0 /home/uav/USTUAV/paparazzi/var/MYAC/ap/arch/stm32/mcu_periph/uart_arch.o
                0x00000000080110dc                uart3_init
 .text.usart3_irq_handler
                0x000000000801117c        0xc /home/uav/USTUAV/paparazzi/var/MYAC/ap/arch/stm32/mcu_periph/uart_arch.o
                0x000000000801117c                usart3_irq_handler
 .text.settings_init
                0x0000000008011188        0x2 /home/uav/USTUAV/paparazzi/var/MYAC/ap/subsystems/settings.o
                0x0000000008011188                settings_init
 *fill*         0x000000000801118a        0x2 00
 .text.adc_buf_channel
                0x000000000801118c       0x10 /home/uav/USTUAV/paparazzi/var/MYAC/ap/arch/stm32/mcu_periph/adc_arch.o
                0x000000000801118c                adc_buf_channel
 .text.adc_init
                0x000000000801119c      0x180 /home/uav/USTUAV/paparazzi/var/MYAC/ap/arch/stm32/mcu_periph/adc_arch.o
                0x000000000801119c                adc_init
 .text.adc1_2_irq_handler
                0x000000000801131c       0x68 /home/uav/USTUAV/paparazzi/var/MYAC/ap/arch/stm32/mcu_periph/adc_arch.o
                0x000000000801131c                adc1_2_irq_handler
 .text.actuators_init
                0x0000000008011384        0x4 /home/uav/USTUAV/paparazzi/var/MYAC/ap/arch/stm32/servos_direct_hw.o
                0x0000000008011384                actuators_init
 .text.actuators_pwm_arch_init
                0x0000000008011388      0x134 /home/uav/USTUAV/paparazzi/var/MYAC/ap/firmwares/rotorcraft/actuators/arch/stm32/actuators_pwm_arch.o
                0x0000000008011388                actuators_pwm_arch_init
 .text.actuators_pwm_commit
                0x00000000080114bc       0x48 /home/uav/USTUAV/paparazzi/var/MYAC/ap/firmwares/rotorcraft/actuators/arch/stm32/actuators_pwm_arch.o
                0x00000000080114bc                actuators_pwm_commit
 .text.DelayUs  0x0000000008011504       0x18 /home/uav/USTUAV/paparazzi/var/MYAC/ap/arch/stm32/subsystems/radio_control/spektrum_arch.o
 .text.RadioControlEventImp
                0x000000000801151c       0xf4 /home/uav/USTUAV/paparazzi/var/MYAC/ap/arch/stm32/subsystems/radio_control/spektrum_arch.o
                0x000000000801151c                RadioControlEventImp
 .text.SpektrumTimerInit
                0x0000000008011610       0x74 /home/uav/USTUAV/paparazzi/var/MYAC/ap/arch/stm32/subsystems/radio_control/spektrum_arch.o
                0x0000000008011610                SpektrumTimerInit
 .text.tim6_irq_handler
                0x0000000008011684       0x20 /home/uav/USTUAV/paparazzi/var/MYAC/ap/arch/stm32/subsystems/radio_control/spektrum_arch.o
                0x0000000008011684                tim6_irq_handler
 .text.SpektrumUartInit
                0x00000000080116a4       0x94 /home/uav/USTUAV/paparazzi/var/MYAC/ap/arch/stm32/subsystems/radio_control/spektrum_arch.o
                0x00000000080116a4                SpektrumUartInit
 .text.radio_control_impl_init
                0x0000000008011738        0xe /home/uav/USTUAV/paparazzi/var/MYAC/ap/arch/stm32/subsystems/radio_control/spektrum_arch.o
                0x0000000008011738                radio_control_impl_init
 *fill*         0x0000000008011746        0x2 00
 .text.usart1_irq_handler
                0x0000000008011748      0x11c /home/uav/USTUAV/paparazzi/var/MYAC/ap/arch/stm32/subsystems/radio_control/spektrum_arch.o
                0x0000000008011748                usart1_irq_handler
 .text.radio_control_spektrum_try_bind
                0x0000000008011864       0xdc /home/uav/USTUAV/paparazzi/var/MYAC/ap/arch/stm32/subsystems/radio_control/spektrum_arch.o
                0x0000000008011864                radio_control_spektrum_try_bind
 .text.dl_parse_msg
                0x0000000008011940      0xb00 /home/uav/USTUAV/paparazzi/var/MYAC/ap/firmwares/fixedwing/datalink.o
                0x0000000008011940                dl_parse_msg
 .text.h_ctl_init
                0x0000000008012440       0xbc /home/uav/USTUAV/paparazzi/var/MYAC/ap/firmwares/fixedwing/stabilization/stabilization_attitude.o
                0x0000000008012440                h_ctl_init
 *fill*         0x00000000080124fc        0x4 00
 .text.h_ctl_course_loop
                0x0000000008012500      0x1c0 /home/uav/USTUAV/paparazzi/var/MYAC/ap/firmwares/fixedwing/stabilization/stabilization_attitude.o
                0x0000000008012500                h_ctl_course_loop
 .text.h_ctl_attitude_loop
                0x00000000080126c0      0x188 /home/uav/USTUAV/paparazzi/var/MYAC/ap/firmwares/fixedwing/stabilization/stabilization_attitude.o
                0x00000000080126c0                h_ctl_attitude_loop
 .text.v_ctl_init
                0x0000000008012848      0x10c /home/uav/USTUAV/paparazzi/var/MYAC/ap/firmwares/fixedwing/guidance/guidance_v.o
                0x0000000008012848                v_ctl_init
 .text.v_ctl_altitude_loop
                0x0000000008012954       0x78 /home/uav/USTUAV/paparazzi/var/MYAC/ap/firmwares/fixedwing/guidance/guidance_v.o
                0x0000000008012954                v_ctl_altitude_loop
 *fill*         0x00000000080129cc        0x4 00
 .text.v_ctl_climb_loop
                0x00000000080129d0      0x208 /home/uav/USTUAV/paparazzi/var/MYAC/ap/firmwares/fixedwing/guidance/guidance_v.o
                0x00000000080129d0                v_ctl_climb_loop
 .text.v_ctl_throttle_slew
                0x0000000008012bd8       0x58 /home/uav/USTUAV/paparazzi/var/MYAC/ap/firmwares/fixedwing/guidance/guidance_v.o
                0x0000000008012bd8                v_ctl_throttle_slew
 .text.imu_init
                0x0000000008012c30      0x134 /home/uav/USTUAV/paparazzi/var/MYAC/ap/subsystems/imu.o
                0x0000000008012c30                imu_init
 .text.mpu_wait_slave4_ready
                0x0000000008012d64       0x34 /home/uav/USTUAV/paparazzi/var/MYAC/ap/subsystems/imu/imu_aspirin2.o
 .text.mpu_set  0x0000000008012d98       0x20 /home/uav/USTUAV/paparazzi/var/MYAC/ap/subsystems/imu/imu_aspirin2.o
 .text.imu_impl_init
                0x0000000008012db8       0x28 /home/uav/USTUAV/paparazzi/var/MYAC/ap/subsystems/imu/imu_aspirin2.o
                0x0000000008012db8                imu_impl_init
 .text.imu_periodic
                0x0000000008012de0       0xf8 /home/uav/USTUAV/paparazzi/var/MYAC/ap/subsystems/imu/imu_aspirin2.o
                0x0000000008012de0                imu_periodic
 .text.spi_arch_int_enable
                0x0000000008012ed8       0x18 /home/uav/USTUAV/paparazzi/var/MYAC/ap/arch/stm32/mcu_periph/spi_arch.o
                0x0000000008012ed8                spi_arch_int_enable
 .text.spi_init
                0x0000000008012ef0       0xb8 /home/uav/USTUAV/paparazzi/var/MYAC/ap/arch/stm32/mcu_periph/spi_arch.o
                0x0000000008012ef0                spi_init
 .text.spi_rw   0x0000000008012fa8       0xe0 /home/uav/USTUAV/paparazzi/var/MYAC/ap/arch/stm32/mcu_periph/spi_arch.o
                0x0000000008012fa8                spi_rw
 .text.dma1_c4_irq_handler
                0x0000000008013088       0x78 /home/uav/USTUAV/paparazzi/var/MYAC/ap/arch/stm32/mcu_periph/spi_arch.o
                0x0000000008013088                dma1_c4_irq_handler
 .text.ahrs_aligner_init
                0x0000000008013100       0x40 /home/uav/USTUAV/paparazzi/var/MYAC/ap/subsystems/ahrs/ahrs_aligner.o
                0x0000000008013100                ahrs_aligner_init
 .text.ahrs_aligner_run
                0x0000000008013140      0x1a8 /home/uav/USTUAV/paparazzi/var/MYAC/ap/subsystems/ahrs/ahrs_aligner.o
                0x0000000008013140                ahrs_aligner_run
 .text.Vector_Dot_Product
                0x00000000080132e8       0x34 /home/uav/USTUAV/paparazzi/var/MYAC/ap/subsystems/ahrs/ahrs_float_dcm.o
 .text.Vector_Scale
                0x000000000801331c       0x28 /home/uav/USTUAV/paparazzi/var/MYAC/ap/subsystems/ahrs/ahrs_float_dcm.o
 .text.Vector_Add
                0x0000000008013344       0x28 /home/uav/USTUAV/paparazzi/var/MYAC/ap/subsystems/ahrs/ahrs_float_dcm.o
 .text.set_dcm_matrix_from_rmat
                0x000000000801336c       0x2c /home/uav/USTUAV/paparazzi/var/MYAC/ap/subsystems/ahrs/ahrs_float_dcm.o
 .text.compute_body_orientation_and_rates
                0x0000000008013398      0x434 /home/uav/USTUAV/paparazzi/var/MYAC/ap/subsystems/ahrs/ahrs_float_dcm.o
 .text.ahrs_init
                0x00000000080137cc       0xb0 /home/uav/USTUAV/paparazzi/var/MYAC/ap/subsystems/ahrs/ahrs_float_dcm.o
                0x00000000080137cc                ahrs_init
 *fill*         0x000000000801387c        0x4 00
 .text.ahrs_align
                0x0000000008013880      0x448 /home/uav/USTUAV/paparazzi/var/MYAC/ap/subsystems/ahrs/ahrs_float_dcm.o
                0x0000000008013880                ahrs_align
 .text.ahrs_update_gps
                0x0000000008013cc8        0x2 /home/uav/USTUAV/paparazzi/var/MYAC/ap/subsystems/ahrs/ahrs_float_dcm.o
                0x0000000008013cc8                ahrs_update_gps
 *fill*         0x0000000008013cca        0x2 00
 .text.Normalize
                0x0000000008013ccc      0x268 /home/uav/USTUAV/paparazzi/var/MYAC/ap/subsystems/ahrs/ahrs_float_dcm.o
                0x0000000008013ccc                Normalize
 *fill*         0x0000000008013f34        0x4 00
 .text.Drift_correction
                0x0000000008013f38      0x2e8 /home/uav/USTUAV/paparazzi/var/MYAC/ap/subsystems/ahrs/ahrs_float_dcm.o
                0x0000000008013f38                Drift_correction
 .text.ahrs_update_accel
                0x0000000008014220       0xe0 /home/uav/USTUAV/paparazzi/var/MYAC/ap/subsystems/ahrs/ahrs_float_dcm.o
                0x0000000008014220                ahrs_update_accel
 .text.Matrix_update
                0x0000000008014300      0x128 /home/uav/USTUAV/paparazzi/var/MYAC/ap/subsystems/ahrs/ahrs_float_dcm.o
                0x0000000008014300                Matrix_update
 .text.ahrs_propagate
                0x0000000008014428      0x2d0 /home/uav/USTUAV/paparazzi/var/MYAC/ap/subsystems/ahrs/ahrs_float_dcm.o
                0x0000000008014428                ahrs_propagate
 .text.ahrs_update_fw_estimator
                0x00000000080146f8       0x64 /home/uav/USTUAV/paparazzi/var/MYAC/ap/subsystems/ahrs/ahrs_float_dcm.o
                0x00000000080146f8                ahrs_update_fw_estimator
 .text.gps_ubx_ucenter_enable_msg.constprop.0
                0x000000000801475c      0x150 /home/uav/USTUAV/paparazzi/var/MYAC/ap/subsystems/gps/gps_ubx.o
 .text.gps_impl_init
                0x00000000080148ac       0x1c /home/uav/USTUAV/paparazzi/var/MYAC/ap/subsystems/gps/gps_ubx.o
                0x00000000080148ac                gps_impl_init
 .text.gps_ubx_read_message
                0x00000000080148c8      0x3b8 /home/uav/USTUAV/paparazzi/var/MYAC/ap/subsystems/gps/gps_ubx.o
                0x00000000080148c8                gps_ubx_read_message
 .text.gps_ubx_parse
                0x0000000008014c80      0x104 /home/uav/USTUAV/paparazzi/var/MYAC/ap/subsystems/gps/gps_ubx.o
                0x0000000008014c80                gps_ubx_parse
 .text.gps_ubx_ucenter_init
                0x0000000008014d84       0x2c /home/uav/USTUAV/paparazzi/var/MYAC/ap/subsystems/gps/gps_ubx.o
                0x0000000008014d84                gps_ubx_ucenter_init
 .text.gps_ubx_ucenter_periodic
                0x0000000008014db0     0x1514 /home/uav/USTUAV/paparazzi/var/MYAC/ap/subsystems/gps/gps_ubx.o
                0x0000000008014db0                gps_ubx_ucenter_periodic
 .text.gps_ubx_ucenter_event
                0x00000000080162c4       0x70 /home/uav/USTUAV/paparazzi/var/MYAC/ap/subsystems/gps/gps_ubx.o
                0x00000000080162c4                gps_ubx_ucenter_event
 .text.gps_init
                0x0000000008016334       0x1c /home/uav/USTUAV/paparazzi/var/MYAC/ap/subsystems/gps.o
                0x0000000008016334                gps_init
 .text.nav_set_altitude
                0x0000000008016350       0x3c /home/uav/USTUAV/paparazzi/var/MYAC/ap/subsystems/nav.o
 .text.nav_init_stage
                0x000000000801638c       0x58 /home/uav/USTUAV/paparazzi/var/MYAC/ap/subsystems/nav.o
                0x000000000801638c                nav_init_stage
 .text.nav_approaching_xy
                0x00000000080163e4       0xac /home/uav/USTUAV/paparazzi/var/MYAC/ap/subsystems/nav.o
                0x00000000080163e4                nav_approaching_xy
 .text.fly_to_xy
                0x0000000008016490      0x208 /home/uav/USTUAV/paparazzi/var/MYAC/ap/subsystems/nav.o
                0x0000000008016490                fly_to_xy
 .text.nav_circle_XY
                0x0000000008016698      0x340 /home/uav/USTUAV/paparazzi/var/MYAC/ap/subsystems/nav.o
                0x0000000008016698                nav_circle_XY
 .text.nav_route_xy
                0x00000000080169d8      0x180 /home/uav/USTUAV/paparazzi/var/MYAC/ap/subsystems/nav.o
                0x00000000080169d8                nav_route_xy
 .text.compute_dist2_to_home
                0x0000000008016b58       0x64 /home/uav/USTUAV/paparazzi/var/MYAC/ap/subsystems/nav.o
                0x0000000008016b58                compute_dist2_to_home
 *fill*         0x0000000008016bbc        0x4 00
 .text.nav_reset_reference
                0x0000000008016bc0       0xe0 /home/uav/USTUAV/paparazzi/var/MYAC/ap/subsystems/nav.o
                0x0000000008016bc0                nav_reset_reference
 .text.nav_update_waypoints_alt
                0x0000000008016ca0       0x38 /home/uav/USTUAV/paparazzi/var/MYAC/ap/subsystems/nav.o
                0x0000000008016ca0                nav_update_waypoints_alt
 .text.common_nav_periodic_task_4Hz
                0x0000000008016cd8       0x30 /home/uav/USTUAV/paparazzi/var/MYAC/ap/subsystems/nav.o
                0x0000000008016cd8                common_nav_periodic_task_4Hz
 .text.nav_move_waypoint
                0x0000000008016d08       0xc8 /home/uav/USTUAV/paparazzi/var/MYAC/ap/subsystems/nav.o
                0x0000000008016d08                nav_move_waypoint
 .text.nav_home
                0x0000000008016dd0       0x60 /home/uav/USTUAV/paparazzi/var/MYAC/ap/subsystems/nav.o
                0x0000000008016dd0                nav_home
 .text.nav_init
                0x0000000008016e30       0x4c /home/uav/USTUAV/paparazzi/var/MYAC/ap/subsystems/nav.o
                0x0000000008016e30                nav_init
 .text.nav_without_gps
                0x0000000008016e7c       0x3c /home/uav/USTUAV/paparazzi/var/MYAC/ap/subsystems/nav.o
                0x0000000008016e7c                nav_without_gps
 .text.nav_eight
                0x0000000008016eb8      0x538 /home/uav/USTUAV/paparazzi/var/MYAC/ap/subsystems/nav.o
                0x0000000008016eb8                nav_eight
 .text.nav_oval_init
                0x00000000080173f0       0x18 /home/uav/USTUAV/paparazzi/var/MYAC/ap/subsystems/nav.o
                0x00000000080173f0                nav_oval_init
 .text.nav_oval
                0x0000000008017408      0x4c8 /home/uav/USTUAV/paparazzi/var/MYAC/ap/subsystems/nav.o
                0x0000000008017408                nav_oval
 .text.nav_periodic_task
                0x00000000080178d0      0x998 /home/uav/USTUAV/paparazzi/var/MYAC/ap/subsystems/nav.o
                0x00000000080178d0                nav_periodic_task
 .text.nav_init_block
                0x0000000008018268       0x28 /home/uav/USTUAV/paparazzi/var/MYAC/ap/subsystems/navigation/common_flight_plan.o
                0x0000000008018268                nav_init_block
 .text.nav_goto_block
                0x0000000008018290       0x2c /home/uav/USTUAV/paparazzi/var/MYAC/ap/subsystems/navigation/common_flight_plan.o
                0x0000000008018290                nav_goto_block
 .text.traffic_info_init
                0x00000000080182bc       0x24 /home/uav/USTUAV/paparazzi/var/MYAC/ap/subsystems/navigation/traffic_info.o
                0x00000000080182bc                traffic_info_init
 .text.nav_survey_rectangle_init
                0x00000000080182e0      0x2a8 /home/uav/USTUAV/paparazzi/var/MYAC/ap/subsystems/navigation/nav_survey_rectangle.o
                0x00000000080182e0                nav_survey_rectangle_init
 .text.nav_survey_rectangle
                0x0000000008018588      0x640 /home/uav/USTUAV/paparazzi/var/MYAC/ap/subsystems/navigation/nav_survey_rectangle.o
                0x0000000008018588                nav_survey_rectangle
 .text.nav_line_init
                0x0000000008018bc8        0xc /home/uav/USTUAV/paparazzi/var/MYAC/ap/subsystems/navigation/nav_line.o
                0x0000000008018bc8                nav_line_init
 *fill*         0x0000000008018bd4        0x4 00
 .text.nav_line
                0x0000000008018bd8      0xa60 /home/uav/USTUAV/paparazzi/var/MYAC/ap/subsystems/navigation/nav_line.o
                0x0000000008018bd8                nav_line
 .text.init_sysmon
                0x0000000008019638       0x60 /home/uav/USTUAV/paparazzi/var/MYAC/ap/modules/core/sys_mon.o
                0x0000000008019638                init_sysmon
 .text.periodic_report_sysmon
                0x0000000008019698      0x1f0 /home/uav/USTUAV/paparazzi/var/MYAC/ap/modules/core/sys_mon.o
                0x0000000008019698                periodic_report_sysmon
 .text.periodic_sysmon
                0x0000000008019888       0xc8 /home/uav/USTUAV/paparazzi/var/MYAC/ap/modules/core/sys_mon.o
                0x0000000008019888                periodic_sysmon
 .text.event_sysmon
                0x0000000008019950       0x88 /home/uav/USTUAV/paparazzi/var/MYAC/ap/modules/core/sys_mon.o
                0x0000000008019950                event_sysmon
 .text.ADC_Init
                0x00000000080199d8       0x48 /opt/paparazzi/arm-multilib/lib/gcc/arm-none-eabi/4.6.2/../../../../arm-none-eabi/lib/libstm32.a(stm32_adc.o)
                0x00000000080199d8                ADC_Init
 .text.ADC_Cmd  0x0000000008019a20       0x12 /opt/paparazzi/arm-multilib/lib/gcc/arm-none-eabi/4.6.2/../../../../arm-none-eabi/lib/libstm32.a(stm32_adc.o)
                0x0000000008019a20                ADC_Cmd
 .text.ADC_ITConfig
                0x0000000008019a32       0x12 /opt/paparazzi/arm-multilib/lib/gcc/arm-none-eabi/4.6.2/../../../../arm-none-eabi/lib/libstm32.a(stm32_adc.o)
                0x0000000008019a32                ADC_ITConfig
 .text.ADC_ResetCalibration
                0x0000000008019a44        0xa /opt/paparazzi/arm-multilib/lib/gcc/arm-none-eabi/4.6.2/../../../../arm-none-eabi/lib/libstm32.a(stm32_adc.o)
                0x0000000008019a44                ADC_ResetCalibration
 .text.ADC_GetResetCalibrationStatus
                0x0000000008019a4e        0x8 /opt/paparazzi/arm-multilib/lib/gcc/arm-none-eabi/4.6.2/../../../../arm-none-eabi/lib/libstm32.a(stm32_adc.o)
                0x0000000008019a4e                ADC_GetResetCalibrationStatus
 .text.ADC_StartCalibration
                0x0000000008019a56        0xa /opt/paparazzi/arm-multilib/lib/gcc/arm-none-eabi/4.6.2/../../../../arm-none-eabi/lib/libstm32.a(stm32_adc.o)
                0x0000000008019a56                ADC_StartCalibration
 .text.ADC_GetCalibrationStatus
                0x0000000008019a60        0x8 /opt/paparazzi/arm-multilib/lib/gcc/arm-none-eabi/4.6.2/../../../../arm-none-eabi/lib/libstm32.a(stm32_adc.o)
                0x0000000008019a60                ADC_GetCalibrationStatus
 .text.ADC_ExternalTrigInjectedConvConfig
                0x0000000008019a68        0xc /opt/paparazzi/arm-multilib/lib/gcc/arm-none-eabi/4.6.2/../../../../arm-none-eabi/lib/libstm32.a(stm32_adc.o)
                0x0000000008019a68                ADC_ExternalTrigInjectedConvConfig
 .text.ADC_ExternalTrigInjectedConvCmd
                0x0000000008019a74       0x12 /opt/paparazzi/arm-multilib/lib/gcc/arm-none-eabi/4.6.2/../../../../arm-none-eabi/lib/libstm32.a(stm32_adc.o)
                0x0000000008019a74                ADC_ExternalTrigInjectedConvCmd
 .text.ADC_InjectedChannelConfig
                0x0000000008019a86       0x58 /opt/paparazzi/arm-multilib/lib/gcc/arm-none-eabi/4.6.2/../../../../arm-none-eabi/lib/libstm32.a(stm32_adc.o)
                0x0000000008019a86                ADC_InjectedChannelConfig
 .text.ADC_InjectedSequencerLengthConfig
                0x0000000008019ade       0x10 /opt/paparazzi/arm-multilib/lib/gcc/arm-none-eabi/4.6.2/../../../../arm-none-eabi/lib/libstm32.a(stm32_adc.o)
                0x0000000008019ade                ADC_InjectedSequencerLengthConfig
 .text.ADC_GetInjectedConversionValue
                0x0000000008019aee        0x8 /opt/paparazzi/arm-multilib/lib/gcc/arm-none-eabi/4.6.2/../../../../arm-none-eabi/lib/libstm32.a(stm32_adc.o)
                0x0000000008019aee                ADC_GetInjectedConversionValue
 .text.ADC_ClearITPendingBit
                0x0000000008019af6        0x8 /opt/paparazzi/arm-multilib/lib/gcc/arm-none-eabi/4.6.2/../../../../arm-none-eabi/lib/libstm32.a(stm32_adc.o)
                0x0000000008019af6                ADC_ClearITPendingBit
 *fill*         0x0000000008019afe        0x2 00
 .text.TIM_TimeBaseInit
                0x0000000008019b00       0x3c /opt/paparazzi/arm-multilib/lib/gcc/arm-none-eabi/4.6.2/../../../../arm-none-eabi/lib/libstm32.a(stm32_tim.o)
                0x0000000008019b00                TIM_TimeBaseInit
 .text.TIM_OC1Init
                0x0000000008019b3c       0x74 /opt/paparazzi/arm-multilib/lib/gcc/arm-none-eabi/4.6.2/../../../../arm-none-eabi/lib/libstm32.a(stm32_tim.o)
                0x0000000008019b3c                TIM_OC1Init
 .text.TIM_OC2Init
                0x0000000008019bb0       0x88 /opt/paparazzi/arm-multilib/lib/gcc/arm-none-eabi/4.6.2/../../../../arm-none-eabi/lib/libstm32.a(stm32_tim.o)
                0x0000000008019bb0                TIM_OC2Init
 .text.TIM_OC3Init
                0x0000000008019c38       0x84 /opt/paparazzi/arm-multilib/lib/gcc/arm-none-eabi/4.6.2/../../../../arm-none-eabi/lib/libstm32.a(stm32_tim.o)
                0x0000000008019c38                TIM_OC3Init
 .text.TIM_OC4Init
                0x0000000008019cbc       0x68 /opt/paparazzi/arm-multilib/lib/gcc/arm-none-eabi/4.6.2/../../../../arm-none-eabi/lib/libstm32.a(stm32_tim.o)
                0x0000000008019cbc                TIM_OC4Init
 .text.TIM_TimeBaseStructInit
                0x0000000008019d24       0x12 /opt/paparazzi/arm-multilib/lib/gcc/arm-none-eabi/4.6.2/../../../../arm-none-eabi/lib/libstm32.a(stm32_tim.o)
                0x0000000008019d24                TIM_TimeBaseStructInit
 .text.TIM_Cmd  0x0000000008019d36       0x18 /opt/paparazzi/arm-multilib/lib/gcc/arm-none-eabi/4.6.2/../../../../arm-none-eabi/lib/libstm32.a(stm32_tim.o)
                0x0000000008019d36                TIM_Cmd
 .text.TIM_CtrlPWMOutputs
                0x0000000008019d4e       0x1c /opt/paparazzi/arm-multilib/lib/gcc/arm-none-eabi/4.6.2/../../../../arm-none-eabi/lib/libstm32.a(stm32_tim.o)
                0x0000000008019d4e                TIM_CtrlPWMOutputs
 .text.TIM_ITConfig
                0x0000000008019d6a       0x12 /opt/paparazzi/arm-multilib/lib/gcc/arm-none-eabi/4.6.2/../../../../arm-none-eabi/lib/libstm32.a(stm32_tim.o)
                0x0000000008019d6a                TIM_ITConfig
 .text.TIM_ARRPreloadConfig
                0x0000000008019d7c       0x18 /opt/paparazzi/arm-multilib/lib/gcc/arm-none-eabi/4.6.2/../../../../arm-none-eabi/lib/libstm32.a(stm32_tim.o)
                0x0000000008019d7c                TIM_ARRPreloadConfig
 .text.TIM_OC1PreloadConfig
                0x0000000008019d94       0x10 /opt/paparazzi/arm-multilib/lib/gcc/arm-none-eabi/4.6.2/../../../../arm-none-eabi/lib/libstm32.a(stm32_tim.o)
                0x0000000008019d94                TIM_OC1PreloadConfig
 .text.TIM_OC2PreloadConfig
                0x0000000008019da4       0x14 /opt/paparazzi/arm-multilib/lib/gcc/arm-none-eabi/4.6.2/../../../../arm-none-eabi/lib/libstm32.a(stm32_tim.o)
                0x0000000008019da4                TIM_OC2PreloadConfig
 .text.TIM_OC3PreloadConfig
                0x0000000008019db8       0x10 /opt/paparazzi/arm-multilib/lib/gcc/arm-none-eabi/4.6.2/../../../../arm-none-eabi/lib/libstm32.a(stm32_tim.o)
                0x0000000008019db8                TIM_OC3PreloadConfig
 .text.TIM_OC4PreloadConfig
                0x0000000008019dc8       0x14 /opt/paparazzi/arm-multilib/lib/gcc/arm-none-eabi/4.6.2/../../../../arm-none-eabi/lib/libstm32.a(stm32_tim.o)
                0x0000000008019dc8                TIM_OC4PreloadConfig
 .text.TIM_SelectOutputTrigger
                0x0000000008019ddc       0x16 /opt/paparazzi/arm-multilib/lib/gcc/arm-none-eabi/4.6.2/../../../../arm-none-eabi/lib/libstm32.a(stm32_tim.o)
                0x0000000008019ddc                TIM_SelectOutputTrigger
 .text.TIM_SetCompare1
                0x0000000008019df2        0x4 /opt/paparazzi/arm-multilib/lib/gcc/arm-none-eabi/4.6.2/../../../../arm-none-eabi/lib/libstm32.a(stm32_tim.o)
                0x0000000008019df2                TIM_SetCompare1
 .text.TIM_SetCompare2
                0x0000000008019df6        0x4 /opt/paparazzi/arm-multilib/lib/gcc/arm-none-eabi/4.6.2/../../../../arm-none-eabi/lib/libstm32.a(stm32_tim.o)
                0x0000000008019df6                TIM_SetCompare2
 .text.TIM_SetCompare3
                0x0000000008019dfa        0x4 /opt/paparazzi/arm-multilib/lib/gcc/arm-none-eabi/4.6.2/../../../../arm-none-eabi/lib/libstm32.a(stm32_tim.o)
                0x0000000008019dfa                TIM_SetCompare3
 .text.TIM_SetCompare4
                0x0000000008019dfe        0x6 /opt/paparazzi/arm-multilib/lib/gcc/arm-none-eabi/4.6.2/../../../../arm-none-eabi/lib/libstm32.a(stm32_tim.o)
                0x0000000008019dfe                TIM_SetCompare4
 .text.TIM_ClearFlag
                0x0000000008019e04        0x8 /opt/paparazzi/arm-multilib/lib/gcc/arm-none-eabi/4.6.2/../../../../arm-none-eabi/lib/libstm32.a(stm32_tim.o)
                0x0000000008019e04                TIM_ClearFlag
 .text.TIM_ClearITPendingBit
                0x0000000008019e0c        0x8 /opt/paparazzi/arm-multilib/lib/gcc/arm-none-eabi/4.6.2/../../../../arm-none-eabi/lib/libstm32.a(stm32_tim.o)
                0x0000000008019e0c                TIM_ClearITPendingBit
 .text.DMA_DeInit
                0x0000000008019e14       0xe8 /opt/paparazzi/arm-multilib/lib/gcc/arm-none-eabi/4.6.2/../../../../arm-none-eabi/lib/libstm32.a(stm32_dma.o)
                0x0000000008019e14                DMA_DeInit
 .text.DMA_Init
                0x0000000008019efc       0x3c /opt/paparazzi/arm-multilib/lib/gcc/arm-none-eabi/4.6.2/../../../../arm-none-eabi/lib/libstm32.a(stm32_dma.o)
                0x0000000008019efc                DMA_Init
 .text.DMA_Cmd  0x0000000008019f38       0x12 /opt/paparazzi/arm-multilib/lib/gcc/arm-none-eabi/4.6.2/../../../../arm-none-eabi/lib/libstm32.a(stm32_dma.o)
                0x0000000008019f38                DMA_Cmd
 .text.DMA_ITConfig
                0x0000000008019f4a       0x10 /opt/paparazzi/arm-multilib/lib/gcc/arm-none-eabi/4.6.2/../../../../arm-none-eabi/lib/libstm32.a(stm32_dma.o)
                0x0000000008019f4a                DMA_ITConfig
 *fill*         0x0000000008019f5a        0x2 00
 .text.DMA_GetITStatus
                0x0000000008019f5c       0x1c /opt/paparazzi/arm-multilib/lib/gcc/arm-none-eabi/4.6.2/../../../../arm-none-eabi/lib/libstm32.a(stm32_dma.o)
                0x0000000008019f5c                DMA_GetITStatus
 .text.DMA_ClearITPendingBit
                0x0000000008019f78       0x14 /opt/paparazzi/arm-multilib/lib/gcc/arm-none-eabi/4.6.2/../../../../arm-none-eabi/lib/libstm32.a(stm32_dma.o)
                0x0000000008019f78                DMA_ClearITPendingBit
 .text.GPIO_Init
                0x0000000008019f8c       0xaa /opt/paparazzi/arm-multilib/lib/gcc/arm-none-eabi/4.6.2/../../../../arm-none-eabi/lib/libstm32.a(stm32_gpio.o)
                0x0000000008019f8c                GPIO_Init
 .text.GPIO_ReadInputDataBit
                0x000000000801a036        0xc /opt/paparazzi/arm-multilib/lib/gcc/arm-none-eabi/4.6.2/../../../../arm-none-eabi/lib/libstm32.a(stm32_gpio.o)
                0x000000000801a036                GPIO_ReadInputDataBit
 .text.GPIO_WriteBit
                0x000000000801a042        0xa /opt/paparazzi/arm-multilib/lib/gcc/arm-none-eabi/4.6.2/../../../../arm-none-eabi/lib/libstm32.a(stm32_gpio.o)
                0x000000000801a042                GPIO_WriteBit
 .text.GPIO_PinRemapConfig
                0x000000000801a04c       0x54 /opt/paparazzi/arm-multilib/lib/gcc/arm-none-eabi/4.6.2/../../../../arm-none-eabi/lib/libstm32.a(stm32_gpio.o)
                0x000000000801a04c                GPIO_PinRemapConfig
 .text.USART_Init
                0x000000000801a0a0       0x8c /opt/paparazzi/arm-multilib/lib/gcc/arm-none-eabi/4.6.2/../../../../arm-none-eabi/lib/libstm32.a(stm32_usart.o)
                0x000000000801a0a0                USART_Init
 .text.USART_Cmd
                0x000000000801a12c       0x18 /opt/paparazzi/arm-multilib/lib/gcc/arm-none-eabi/4.6.2/../../../../arm-none-eabi/lib/libstm32.a(stm32_usart.o)
                0x000000000801a12c                USART_Cmd
 .text.USART_ITConfig
                0x000000000801a144       0x32 /opt/paparazzi/arm-multilib/lib/gcc/arm-none-eabi/4.6.2/../../../../arm-none-eabi/lib/libstm32.a(stm32_usart.o)
                0x000000000801a144                USART_ITConfig
 .text.USART_SendData
                0x000000000801a176        0x8 /opt/paparazzi/arm-multilib/lib/gcc/arm-none-eabi/4.6.2/../../../../arm-none-eabi/lib/libstm32.a(stm32_usart.o)
                0x000000000801a176                USART_SendData
 .text.USART_ReceiveData
                0x000000000801a17e        0x8 /opt/paparazzi/arm-multilib/lib/gcc/arm-none-eabi/4.6.2/../../../../arm-none-eabi/lib/libstm32.a(stm32_usart.o)
                0x000000000801a17e                USART_ReceiveData
 .text.USART_GetITStatus
                0x000000000801a186       0x3e /opt/paparazzi/arm-multilib/lib/gcc/arm-none-eabi/4.6.2/../../../../arm-none-eabi/lib/libstm32.a(stm32_usart.o)
                0x000000000801a186                USART_GetITStatus
 .text.SPI_Init
                0x000000000801a1c4       0x3e /opt/paparazzi/arm-multilib/lib/gcc/arm-none-eabi/4.6.2/../../../../arm-none-eabi/lib/libstm32.a(stm32_spi.o)
                0x000000000801a1c4                SPI_Init
 .text.SPI_Cmd  0x000000000801a202       0x18 /opt/paparazzi/arm-multilib/lib/gcc/arm-none-eabi/4.6.2/../../../../arm-none-eabi/lib/libstm32.a(stm32_spi.o)
                0x000000000801a202                SPI_Cmd
 .text.SPI_I2S_DMACmd
                0x000000000801a21a       0x12 /opt/paparazzi/arm-multilib/lib/gcc/arm-none-eabi/4.6.2/../../../../arm-none-eabi/lib/libstm32.a(stm32_spi.o)
                0x000000000801a21a                SPI_I2S_DMACmd
 .text.RCC_ADCCLKConfig
                0x000000000801a22c       0x14 /opt/paparazzi/arm-multilib/lib/gcc/arm-none-eabi/4.6.2/../../../../arm-none-eabi/lib/libstm32.a(stm32_rcc.o)
                0x000000000801a22c                RCC_ADCCLKConfig
 .text.RCC_GetClocksFreq
                0x000000000801a240       0x8c /opt/paparazzi/arm-multilib/lib/gcc/arm-none-eabi/4.6.2/../../../../arm-none-eabi/lib/libstm32.a(stm32_rcc.o)
                0x000000000801a240                RCC_GetClocksFreq
 .text.RCC_AHBPeriphClockCmd
                0x000000000801a2cc       0x18 /opt/paparazzi/arm-multilib/lib/gcc/arm-none-eabi/4.6.2/../../../../arm-none-eabi/lib/libstm32.a(stm32_rcc.o)
                0x000000000801a2cc                RCC_AHBPeriphClockCmd
 .text.RCC_APB2PeriphClockCmd
                0x000000000801a2e4       0x18 /opt/paparazzi/arm-multilib/lib/gcc/arm-none-eabi/4.6.2/../../../../arm-none-eabi/lib/libstm32.a(stm32_rcc.o)
                0x000000000801a2e4                RCC_APB2PeriphClockCmd
 .text.RCC_APB1PeriphClockCmd
                0x000000000801a2fc       0x18 /opt/paparazzi/arm-multilib/lib/gcc/arm-none-eabi/4.6.2/../../../../arm-none-eabi/lib/libstm32.a(stm32_rcc.o)
                0x000000000801a2fc                RCC_APB1PeriphClockCmd
 .text.NVIC_Init
                0x000000000801a314       0x64 /opt/paparazzi/arm-multilib/lib/gcc/arm-none-eabi/4.6.2/../../../../arm-none-eabi/lib/libstm32.a(stm32_misc.o)
                0x000000000801a314                NVIC_Init
 .text.NVIC_SetVectorTable
                0x000000000801a378       0x14 /opt/paparazzi/arm-multilib/lib/gcc/arm-none-eabi/4.6.2/../../../../arm-none-eabi/lib/libstm32.a(stm32_misc.o)
                0x000000000801a378                NVIC_SetVectorTable
 .text.rcc_wait_for_osc_ready
                0x000000000801a38c       0x4c /opt/paparazzi/arm-multilib/lib/gcc/arm-none-eabi/4.6.2/../../../../arm-none-eabi/lib/libopencm3_stm32.a(rcc.o)
                0x000000000801a38c                rcc_wait_for_osc_ready
 .text.rcc_osc_on
                0x000000000801a3d8       0x4c /opt/paparazzi/arm-multilib/lib/gcc/arm-none-eabi/4.6.2/../../../../arm-none-eabi/lib/libopencm3_stm32.a(rcc.o)
                0x000000000801a3d8                rcc_osc_on
 .text.rcc_set_sysclk_source
                0x000000000801a424       0x14 /opt/paparazzi/arm-multilib/lib/gcc/arm-none-eabi/4.6.2/../../../../arm-none-eabi/lib/libopencm3_stm32.a(rcc.o)
                0x000000000801a424                rcc_set_sysclk_source
 .text.rcc_set_pll_multiplication_factor
                0x000000000801a438       0x14 /opt/paparazzi/arm-multilib/lib/gcc/arm-none-eabi/4.6.2/../../../../arm-none-eabi/lib/libopencm3_stm32.a(rcc.o)
                0x000000000801a438                rcc_set_pll_multiplication_factor
 .text.rcc_set_pll_source
                0x000000000801a44c       0x14 /opt/paparazzi/arm-multilib/lib/gcc/arm-none-eabi/4.6.2/../../../../arm-none-eabi/lib/libopencm3_stm32.a(rcc.o)
                0x000000000801a44c                rcc_set_pll_source
 .text.rcc_set_pllxtpre
                0x000000000801a460       0x14 /opt/paparazzi/arm-multilib/lib/gcc/arm-none-eabi/4.6.2/../../../../arm-none-eabi/lib/libopencm3_stm32.a(rcc.o)
                0x000000000801a460                rcc_set_pllxtpre
 .text.rcc_set_adcpre
                0x000000000801a474       0x14 /opt/paparazzi/arm-multilib/lib/gcc/arm-none-eabi/4.6.2/../../../../arm-none-eabi/lib/libopencm3_stm32.a(rcc.o)
                0x000000000801a474                rcc_set_adcpre
 .text.rcc_set_ppre2
                0x000000000801a488       0x14 /opt/paparazzi/arm-multilib/lib/gcc/arm-none-eabi/4.6.2/../../../../arm-none-eabi/lib/libopencm3_stm32.a(rcc.o)
                0x000000000801a488                rcc_set_ppre2
 .text.rcc_set_ppre1
                0x000000000801a49c       0x14 /opt/paparazzi/arm-multilib/lib/gcc/arm-none-eabi/4.6.2/../../../../arm-none-eabi/lib/libopencm3_stm32.a(rcc.o)
                0x000000000801a49c                rcc_set_ppre1
 .text.rcc_set_hpre
                0x000000000801a4b0       0x14 /opt/paparazzi/arm-multilib/lib/gcc/arm-none-eabi/4.6.2/../../../../arm-none-eabi/lib/libopencm3_stm32.a(rcc.o)
                0x000000000801a4b0                rcc_set_hpre
 .text.rcc_clock_setup_in_hse_12mhz_out_72mhz
                0x000000000801a4c4       0x88 /opt/paparazzi/arm-multilib/lib/gcc/arm-none-eabi/4.6.2/../../../../arm-none-eabi/lib/libopencm3_stm32.a(rcc.o)
                0x000000000801a4c4                rcc_clock_setup_in_hse_12mhz_out_72mhz
 .text.usart_set_baudrate
                0x000000000801a54c       0x24 /opt/paparazzi/arm-multilib/lib/gcc/arm-none-eabi/4.6.2/../../../../arm-none-eabi/lib/libopencm3_stm32.a(usart.o)
                0x000000000801a54c                usart_set_baudrate
 .text.flash_set_ws
                0x000000000801a570       0x14 /opt/paparazzi/arm-multilib/lib/gcc/arm-none-eabi/4.6.2/../../../../arm-none-eabi/lib/libopencm3_stm32.a(flash.o)
                0x000000000801a570                flash_set_ws
 *(.rodata)
 .rodata        0x000000000801a584        0x4 /home/uav/USTUAV/paparazzi/var/MYAC/ap/arch/stm32/mcu_periph/spi_arch.o
 .rodata        0x000000000801a588       0x40 /opt/paparazzi/arm-multilib/lib/gcc/arm-none-eabi/4.6.2/../../../../arm-none-eabi/lib/thumb2/libm.a(lib_a-s_atan.o)
 .rodata        0x000000000801a5c8       0x10 /opt/paparazzi/arm-multilib/lib/gcc/arm-none-eabi/4.6.2/../../../../arm-none-eabi/lib/thumb2/libm.a(lib_a-s_rint.o)
 .rodata        0x000000000801a5d8       0x20 /opt/paparazzi/arm-multilib/lib/gcc/arm-none-eabi/4.6.2/../../../../arm-none-eabi/lib/thumb2/libm.a(lib_a-sf_atan.o)
 .rodata        0x000000000801a5f8       0x30 /opt/paparazzi/arm-multilib/lib/gcc/arm-none-eabi/4.6.2/../../../../arm-none-eabi/lib/thumb2/libm.a(lib_a-e_exp.o)
 .rodata        0x000000000801a628       0x30 /opt/paparazzi/arm-multilib/lib/gcc/arm-none-eabi/4.6.2/../../../../arm-none-eabi/lib/thumb2/libm.a(lib_a-e_pow.o)
 .rodata        0x000000000801a658      0x188 /opt/paparazzi/arm-multilib/lib/gcc/arm-none-eabi/4.6.2/../../../../arm-none-eabi/lib/thumb2/libm.a(lib_a-e_rem_pio2.o)
 .rodata        0x000000000801a7e0      0x398 /opt/paparazzi/arm-multilib/lib/gcc/arm-none-eabi/4.6.2/../../../../arm-none-eabi/lib/thumb2/libm.a(lib_a-ef_rem_pio2.o)
 .rodata        0x000000000801ab78       0x50 /opt/paparazzi/arm-multilib/lib/gcc/arm-none-eabi/4.6.2/../../../../arm-none-eabi/lib/thumb2/libm.a(lib_a-k_rem_pio2.o)
 .rodata        0x000000000801abc8       0x38 /opt/paparazzi/arm-multilib/lib/gcc/arm-none-eabi/4.6.2/../../../../arm-none-eabi/lib/thumb2/libm.a(lib_a-kf_rem_pio2.o)
 *(.rodata*)
 .rodata.serie_coeff_proj_mercator
                0x000000000801ac00       0x14 /home/uav/USTUAV/paparazzi/var/MYAC/ap/math/pprz_geodetic_float.o
 .rodata.commands_failsafe
                0x000000000801ac14        0x8 /home/uav/USTUAV/paparazzi/var/MYAC/ap/./commands.o
                0x000000000801ac14                commands_failsafe
 .rodata.version
                0x000000000801ac1c        0x2 /home/uav/USTUAV/paparazzi/var/MYAC/ap/firmwares/fixedwing/main_ap.o
 .rodata.str1.1
                0x000000000801ac1e       0x11 /home/uav/USTUAV/paparazzi/var/MYAC/ap/firmwares/fixedwing/main_ap.o
 .rodata.nb_waypoint
                0x000000000801ac2f        0x1 /home/uav/USTUAV/paparazzi/var/MYAC/ap/subsystems/nav.o
                0x000000000801ac2f                nb_waypoint
 .rodata.str1.1
                0x000000000801ac30        0x5 /opt/paparazzi/arm-multilib/lib/gcc/arm-none-eabi/4.6.2/../../../../arm-none-eabi/lib/thumb2/libm.a(lib_a-w_asin.o)
                                          0x6 (size before relaxing)
 .rodata.str1.1
                0x000000000801ac35        0x5 /opt/paparazzi/arm-multilib/lib/gcc/arm-none-eabi/4.6.2/../../../../arm-none-eabi/lib/thumb2/libm.a(lib_a-w_cosh.o)
 .rodata.str1.1
                0x000000000801ac3a        0x4 /opt/paparazzi/arm-multilib/lib/gcc/arm-none-eabi/4.6.2/../../../../arm-none-eabi/lib/thumb2/libm.a(lib_a-w_exp.o)
 .rodata.str1.1
                0x000000000801ac3e        0x4 /opt/paparazzi/arm-multilib/lib/gcc/arm-none-eabi/4.6.2/../../../../arm-none-eabi/lib/thumb2/libm.a(lib_a-w_log.o)
                                          0x5 (size before relaxing)
 .rodata.str1.1
                0x000000000801ac42        0x4 /opt/paparazzi/arm-multilib/lib/gcc/arm-none-eabi/4.6.2/../../../../arm-none-eabi/lib/thumb2/libm.a(lib_a-w_pow.o)
 .rodata.str1.1
                0x000000000801ac46        0x5 /opt/paparazzi/arm-multilib/lib/gcc/arm-none-eabi/4.6.2/../../../../arm-none-eabi/lib/thumb2/libm.a(lib_a-w_sinh.o)
 .rodata.str1.1
                0x000000000801ac4b        0x5 /opt/paparazzi/arm-multilib/lib/gcc/arm-none-eabi/4.6.2/../../../../arm-none-eabi/lib/thumb2/libm.a(lib_a-w_sqrt.o)
 .rodata.str1.1
                0x000000000801ac50        0x6 /opt/paparazzi/arm-multilib/lib/gcc/arm-none-eabi/4.6.2/../../../../arm-none-eabi/lib/thumb2/libm.a(lib_a-wf_asin.o)
                                          0x7 (size before relaxing)
 .rodata.str1.1
                0x0000000000000000        0x1 /opt/paparazzi/arm-multilib/lib/gcc/arm-none-eabi/4.6.2/../../../../arm-none-eabi/lib/thumb2/libm.a(lib_a-e_pow.o)
 .rodata.str1.1
                0x000000000801ac56        0x2 /opt/paparazzi/arm-multilib/lib/gcc/arm-none-eabi/4.6.2/../../../../arm-none-eabi/lib/thumb2/libc.a(lib_a-impure.o)
 *(.glue_7)
 .glue_7        0x0000000000000000        0x0 linker stubs
 *(.glue_7t)
 .glue_7t       0x0000000000000000        0x0 linker stubs
                0x000000000801ac58                . = ALIGN (0x4)
                0x000000000801ac58                _etext = .
                0x000000000801ac58                _sidata = _etext

.vfp11_veneer   0x000000000801ac58        0x0
 .vfp11_veneer  0x0000000000000000        0x0 linker stubs

.v4_bx          0x000000000801ac58        0x0
 .v4_bx         0x0000000000000000        0x0 linker stubs

.data           0x0000000020000000     0x37c4 load address 0x000000000801ac58
                0x0000000020000000                . = ALIGN (0x4)
                0x0000000020000000                _sdata = .
 *(.data)
 .data          0x0000000020000000        0x1 /opt/paparazzi/arm-multilib/lib/gcc/arm-none-eabi/4.6.2/../../../../arm-none-eabi/lib/thumb2/libm.a(lib_a-s_lib_ver.o)
                0x0000000020000000                __fdlib_version
 *fill*         0x0000000020000001        0x7 00
 .data          0x0000000020000008      0x430 /opt/paparazzi/arm-multilib/lib/gcc/arm-none-eabi/4.6.2/../../../../arm-none-eabi/lib/thumb2/libc.a(lib_a-impure.o)
                0x0000000020000008                _impure_ptr
 *(.data.*)
 .data.fbw_state
                0x0000000020000438        0x4 /home/uav/USTUAV/paparazzi/var/MYAC/ap/./inter_mcu.o
                0x0000000020000438                fbw_state
 .data.ap_state
                0x000000002000043c        0x4 /home/uav/USTUAV/paparazzi/var/MYAC/ap/./inter_mcu.o
                0x000000002000043c                ap_state
 .data.pprz_trig_int
                0x0000000020000440     0x3244 /home/uav/USTUAV/paparazzi/var/MYAC/ap/math/pprz_trig_int.o
                0x0000000020000440                pprz_trig_int
 .data.pprz_mode
                0x0000000020003684        0x1 /home/uav/USTUAV/paparazzi/var/MYAC/ap/firmwares/fixedwing/main_ap.o
                0x0000000020003684                pprz_mode
 .data.boot.4496
                0x0000000020003685        0x1 /home/uav/USTUAV/paparazzi/var/MYAC/ap/firmwares/fixedwing/main_ap.o
 .data.SpektrumSigns
                0x0000000020003686        0xc /home/uav/USTUAV/paparazzi/var/MYAC/ap/arch/stm32/subsystems/radio_control/spektrum_arch.o
                0x0000000020003686                SpektrumSigns
 .data.PrimarySpektrumState
                0x0000000020003692       0x28 /home/uav/USTUAV/paparazzi/var/MYAC/ap/arch/stm32/subsystems/radio_control/spektrum_arch.o
                0x0000000020003692                PrimarySpektrumState
 *fill*         0x00000000200036ba        0x2 00
 .data.Update_Matrix
                0x00000000200036bc       0x24 /home/uav/USTUAV/paparazzi/var/MYAC/ap/subsystems/ahrs/ahrs_float_dcm.o
                0x00000000200036bc                Update_Matrix
 .data.DCM_Matrix
                0x00000000200036e0       0x24 /home/uav/USTUAV/paparazzi/var/MYAC/ap/subsystems/ahrs/ahrs_float_dcm.o
                0x00000000200036e0                DCM_Matrix
 .data.max_dist_from_home
                0x0000000020003704        0x4 /home/uav/USTUAV/paparazzi/var/MYAC/ap/subsystems/nav.o
                0x0000000020003704                max_dist_from_home
 .data.nav_altitude
                0x0000000020003708        0x4 /home/uav/USTUAV/paparazzi/var/MYAC/ap/subsystems/nav.o
                0x0000000020003708                nav_altitude
 .data.nav_utm_zone0
                0x000000002000370c        0x1 /home/uav/USTUAV/paparazzi/var/MYAC/ap/subsystems/nav.o
                0x000000002000370c                nav_utm_zone0
 *fill*         0x000000002000370d        0x3 00
 .data.nav_utm_north0
                0x0000000020003710        0x4 /home/uav/USTUAV/paparazzi/var/MYAC/ap/subsystems/nav.o
                0x0000000020003710                nav_utm_north0
 .data.waypoints
                0x0000000020003714       0x90 /home/uav/USTUAV/paparazzi/var/MYAC/ap/subsystems/nav.o
                0x0000000020003714                waypoints
 .data.nav_utm_east0
                0x00000000200037a4        0x4 /home/uav/USTUAV/paparazzi/var/MYAC/ap/subsystems/nav.o
                0x00000000200037a4                nav_utm_east0
 .data.ADCPrescTable
                0x00000000200037a8        0x4 /opt/paparazzi/arm-multilib/lib/gcc/arm-none-eabi/4.6.2/../../../../arm-none-eabi/lib/libstm32.a(stm32_rcc.o)
 .data.APBAHBPrescTable
                0x00000000200037ac       0x10 /opt/paparazzi/arm-multilib/lib/gcc/arm-none-eabi/4.6.2/../../../../arm-none-eabi/lib/libstm32.a(stm32_rcc.o)
 .data.rcc_ppre1_frequency
                0x00000000200037bc        0x4 /opt/paparazzi/arm-multilib/lib/gcc/arm-none-eabi/4.6.2/../../../../arm-none-eabi/lib/libopencm3_stm32.a(rcc.o)
                0x00000000200037bc                rcc_ppre1_frequency
 .data.rcc_ppre2_frequency
                0x00000000200037c0        0x4 /opt/paparazzi/arm-multilib/lib/gcc/arm-none-eabi/4.6.2/../../../../arm-none-eabi/lib/libopencm3_stm32.a(rcc.o)
                0x00000000200037c0                rcc_ppre2_frequency
                0x00000000200037c4                . = ALIGN (0x4)
                0x00000000200037c4                _edata = .

.bss            0x00000000200037c8     0x143c load address 0x000000000801e420
                0x00000000200037c8                . = ALIGN (0x4)
                0x00000000200037c8                _sbss = .
 *(.dynbss)
 *(.bss .bss.* .gnu.linkonce.b.*)
 .bss.sys_time  0x00000000200037c8       0xac /home/uav/USTUAV/paparazzi/var/MYAC/ap/mcu_periph/sys_time.o
                0x00000000200037c8                sys_time
 .bss.inter_mcu_received_ap
                0x0000000020003874        0x1 /home/uav/USTUAV/paparazzi/var/MYAC/ap/./inter_mcu.o
                0x0000000020003874                inter_mcu_received_ap
 *fill*         0x0000000020003875        0x1 00
 .bss._ap_state
                0x0000000020003876        0xc /home/uav/USTUAV/paparazzi/var/MYAC/ap/./inter_mcu.o
 .bss.ap_ok     0x0000000020003882        0x1 /home/uav/USTUAV/paparazzi/var/MYAC/ap/./inter_mcu.o
                0x0000000020003882                ap_ok
 .bss.time_since_last_ap
                0x0000000020003883        0x1 /home/uav/USTUAV/paparazzi/var/MYAC/ap/./inter_mcu.o
                0x0000000020003883                time_since_last_ap
 .bss.inter_mcu_received_fbw
                0x0000000020003884        0x1 /home/uav/USTUAV/paparazzi/var/MYAC/ap/./inter_mcu.o
                0x0000000020003884                inter_mcu_received_fbw
 *fill*         0x0000000020003885        0x3 00
 .bss._fbw_state
                0x0000000020003888       0x20 /home/uav/USTUAV/paparazzi/var/MYAC/ap/./inter_mcu.o
 .bss.i30.3622  0x00000000200038a8        0x1 /home/uav/USTUAV/paparazzi/var/MYAC/ap/firmwares/fixedwing/main_fbw.o
 *fill*         0x00000000200038a9        0x1 00
 .bss.i300.3624
                0x00000000200038aa        0x2 /home/uav/USTUAV/paparazzi/var/MYAC/ap/firmwares/fixedwing/main_fbw.o
 .bss.i60.3623  0x00000000200038ac        0x1 /home/uav/USTUAV/paparazzi/var/MYAC/ap/firmwares/fixedwing/main_fbw.o
 .bss.fbw_mode  0x00000000200038ad        0x1 /home/uav/USTUAV/paparazzi/var/MYAC/ap/firmwares/fixedwing/main_fbw.o
                0x00000000200038ad                fbw_mode
 .bss.fbw_periodic_tid
                0x00000000200038ae        0x1 /home/uav/USTUAV/paparazzi/var/MYAC/ap/firmwares/fixedwing/main_fbw.o
                0x00000000200038ae                fbw_periodic_tid
 .bss.i120.3597
                0x00000000200038af        0x1 /home/uav/USTUAV/paparazzi/var/MYAC/ap/firmwares/fixedwing/main_fbw.o
 .bss._1Hz.3375
                0x00000000200038b0        0x1 /home/uav/USTUAV/paparazzi/var/MYAC/ap/firmwares/fixedwing/main_fbw.o
 .bss.fbw_new_actuators
                0x00000000200038b1        0x1 /home/uav/USTUAV/paparazzi/var/MYAC/ap/firmwares/fixedwing/main_fbw.o
                0x00000000200038b1                fbw_new_actuators
 .bss.electrical_tid
                0x00000000200038b2        0x1 /home/uav/USTUAV/paparazzi/var/MYAC/ap/firmwares/fixedwing/main_fbw.o
                0x00000000200038b2                electrical_tid
 *fill*         0x00000000200038b3        0x1 00
 .bss.i300.3598
                0x00000000200038b4        0x2 /home/uav/USTUAV/paparazzi/var/MYAC/ap/firmwares/fixedwing/main_fbw.o
 *fill*         0x00000000200038b6        0x2 00
 .bss.electrical_priv
                0x00000000200038b8       0x4c /home/uav/USTUAV/paparazzi/var/MYAC/ap/subsystems/electrical.o
 .bss.electrical
                0x0000000020003904        0x8 /home/uav/USTUAV/paparazzi/var/MYAC/ap/subsystems/electrical.o
                0x0000000020003904                electrical
 .bss.commands  0x000000002000390c        0x8 /home/uav/USTUAV/paparazzi/var/MYAC/ap/./commands.o
                0x000000002000390c                commands
 .bss.command_roll_trim
                0x0000000020003914        0x2 /home/uav/USTUAV/paparazzi/var/MYAC/ap/./commands.o
                0x0000000020003914                command_roll_trim
 .bss.command_pitch_trim
                0x0000000020003916        0x2 /home/uav/USTUAV/paparazzi/var/MYAC/ap/./commands.o
                0x0000000020003916                command_pitch_trim
 .bss.telemetry_mode_Fbw
                0x0000000020003918        0x1 /home/uav/USTUAV/paparazzi/var/MYAC/ap/firmwares/fixedwing/fbw_downlink.o
                0x0000000020003918                telemetry_mode_Fbw
 .bss.mcu1_ppm_cpt
                0x0000000020003919        0x1 /home/uav/USTUAV/paparazzi/var/MYAC/ap/firmwares/fixedwing/main_ap.o
 .bss.modules_tid
                0x000000002000391a        0x1 /home/uav/USTUAV/paparazzi/var/MYAC/ap/firmwares/fixedwing/main_ap.o
                0x000000002000391a                modules_tid
 *fill*         0x000000002000391b        0x1 00
 .bss.i342.5127
                0x000000002000391c        0x2 /home/uav/USTUAV/paparazzi/var/MYAC/ap/firmwares/fixedwing/main_ap.o
 .bss.vsupply   0x000000002000391e        0x1 /home/uav/USTUAV/paparazzi/var/MYAC/ap/firmwares/fixedwing/main_ap.o
                0x000000002000391e                vsupply
 *fill*         0x000000002000391f        0x1 00
 .bss.i300.5122
                0x0000000020003920        0x2 /home/uav/USTUAV/paparazzi/var/MYAC/ap/firmwares/fixedwing/main_ap.o
 .bss.i192.4827
                0x0000000020003922        0x1 /home/uav/USTUAV/paparazzi/var/MYAC/ap/firmwares/fixedwing/main_ap.o
 .bss.i66.4504  0x0000000020003923        0x1 /home/uav/USTUAV/paparazzi/var/MYAC/ap/firmwares/fixedwing/main_ap.o
 .bss.sensors_tid
                0x0000000020003924        0x1 /home/uav/USTUAV/paparazzi/var/MYAC/ap/firmwares/fixedwing/main_ap.o
                0x0000000020003924                sensors_tid
 .bss.i1.4275   0x0000000020003925        0x1 /home/uav/USTUAV/paparazzi/var/MYAC/ap/firmwares/fixedwing/main_ap.o
 .bss.i63.4503  0x0000000020003926        0x1 /home/uav/USTUAV/paparazzi/var/MYAC/ap/firmwares/fixedwing/main_ap.o
 .bss.i66.4820  0x0000000020003927        0x1 /home/uav/USTUAV/paparazzi/var/MYAC/ap/firmwares/fixedwing/main_ap.o
 .bss.i.5137    0x0000000020003928        0x1 /home/uav/USTUAV/paparazzi/var/MYAC/ap/firmwares/fixedwing/main_ap.o
 .bss.i.4705    0x0000000020003929        0x1 /home/uav/USTUAV/paparazzi/var/MYAC/ap/firmwares/fixedwing/main_ap.o
 .bss.i183.4826
                0x000000002000392a        0x1 /home/uav/USTUAV/paparazzi/var/MYAC/ap/firmwares/fixedwing/main_ap.o
 .bss.attitude_tid
                0x000000002000392b        0x1 /home/uav/USTUAV/paparazzi/var/MYAC/ap/firmwares/fixedwing/main_ap.o
                0x000000002000392b                attitude_tid
 .bss.i60.4502  0x000000002000392c        0x1 /home/uav/USTUAV/paparazzi/var/MYAC/ap/firmwares/fixedwing/main_ap.o
 *fill*         0x000000002000392d        0x1 00
 .bss.i330.5126
                0x000000002000392e        0x2 /home/uav/USTUAV/paparazzi/var/MYAC/ap/firmwares/fixedwing/main_ap.o
 .bss.launch    0x0000000020003930        0x1 /home/uav/USTUAV/paparazzi/var/MYAC/ap/firmwares/fixedwing/main_ap.o
                0x0000000020003930                launch
 .bss.i180.4825
                0x0000000020003931        0x1 /home/uav/USTUAV/paparazzi/var/MYAC/ap/firmwares/fixedwing/main_ap.o
 .bss.i318.5124
                0x0000000020003932        0x2 /home/uav/USTUAV/paparazzi/var/MYAC/ap/firmwares/fixedwing/main_ap.o
 .bss.i606.5129
                0x0000000020003934        0x2 /home/uav/USTUAV/paparazzi/var/MYAC/ap/firmwares/fixedwing/main_ap.o
 .bss.i.4901    0x0000000020003936        0x1 /home/uav/USTUAV/paparazzi/var/MYAC/ap/firmwares/fixedwing/main_ap.o
 .bss.gps_ubx_gps_ubx_ucenter_periodic_status
                0x0000000020003937        0x1 /home/uav/USTUAV/paparazzi/var/MYAC/ap/firmwares/fixedwing/main_ap.o
                0x0000000020003937                gps_ubx_gps_ubx_ucenter_periodic_status
 .bss.i324.5125
                0x0000000020003938        0x2 /home/uav/USTUAV/paparazzi/var/MYAC/ap/firmwares/fixedwing/main_ap.o
 .bss.i15.4500  0x000000002000393a        0x1 /home/uav/USTUAV/paparazzi/var/MYAC/ap/firmwares/fixedwing/main_ap.o
 .bss.lateral_mode
                0x000000002000393b        0x1 /home/uav/USTUAV/paparazzi/var/MYAC/ap/firmwares/fixedwing/main_ap.o
                0x000000002000393b                lateral_mode
 .bss.mcu1_status
                0x000000002000393c        0x1 /home/uav/USTUAV/paparazzi/var/MYAC/ap/firmwares/fixedwing/main_ap.o
 *fill*         0x000000002000393d        0x1 00
 .bss.i606.4834
                0x000000002000393e        0x2 /home/uav/USTUAV/paparazzi/var/MYAC/ap/firmwares/fixedwing/main_ap.o
 .bss.energy    0x0000000020003940        0x4 /home/uav/USTUAV/paparazzi/var/MYAC/ap/firmwares/fixedwing/main_ap.o
                0x0000000020003940                energy
 .bss.gyr_avg.5358
                0x0000000020003944        0xc /home/uav/USTUAV/paparazzi/var/MYAC/ap/firmwares/fixedwing/main_ap.o
 .bss.i126.4824
                0x0000000020003950        0x1 /home/uav/USTUAV/paparazzi/var/MYAC/ap/firmwares/fixedwing/main_ap.o
 *fill*         0x0000000020003951        0x1 00
 .bss.last.5216
                0x0000000020003952        0x2 /home/uav/USTUAV/paparazzi/var/MYAC/ap/firmwares/fixedwing/main_ap.o
 .bss.i.4513    0x0000000020003954        0x1 /home/uav/USTUAV/paparazzi/var/MYAC/ap/firmwares/fixedwing/main_ap.o
 .bss.i90.4506  0x0000000020003955        0x1 /home/uav/USTUAV/paparazzi/var/MYAC/ap/firmwares/fixedwing/main_ap.o
 .bss.telemetry_tid
                0x0000000020003956        0x1 /home/uav/USTUAV/paparazzi/var/MYAC/ap/firmwares/fixedwing/main_ap.o
                0x0000000020003956                telemetry_tid
 *fill*         0x0000000020003957        0x1 00
 .bss.i306.4511
                0x0000000020003958        0x2 /home/uav/USTUAV/paparazzi/var/MYAC/ap/firmwares/fixedwing/main_ap.o
 *fill*         0x000000002000395a        0x2 00
 .bss.acc_avg.5357
                0x000000002000395c        0xc /home/uav/USTUAV/paparazzi/var/MYAC/ap/firmwares/fixedwing/main_ap.o
 .bss.i612.5130
                0x0000000020003968        0x2 /home/uav/USTUAV/paparazzi/var/MYAC/ap/firmwares/fixedwing/main_ap.o
 .bss.i540.4512
                0x000000002000396a        0x2 /home/uav/USTUAV/paparazzi/var/MYAC/ap/firmwares/fixedwing/main_ap.o
 .bss.i90.4823  0x000000002000396c        0x1 /home/uav/USTUAV/paparazzi/var/MYAC/ap/firmwares/fixedwing/main_ap.o
 .bss.i.4835    0x000000002000396d        0x1 /home/uav/USTUAV/paparazzi/var/MYAC/ap/firmwares/fixedwing/main_ap.o
 .bss.i126.4508
                0x000000002000396e        0x1 /home/uav/USTUAV/paparazzi/var/MYAC/ap/firmwares/fixedwing/main_ap.o
 .bss.kill_throttle
                0x000000002000396f        0x1 /home/uav/USTUAV/paparazzi/var/MYAC/ap/firmwares/fixedwing/main_ap.o
                0x000000002000396f                kill_throttle
 .bss.i300.4830
                0x0000000020003970        0x2 /home/uav/USTUAV/paparazzi/var/MYAC/ap/firmwares/fixedwing/main_ap.o
 .bss.i306.4831
                0x0000000020003972        0x2 /home/uav/USTUAV/paparazzi/var/MYAC/ap/firmwares/fixedwing/main_ap.o
 .bss.i243.4829
                0x0000000020003974        0x1 /home/uav/USTUAV/paparazzi/var/MYAC/ap/firmwares/fixedwing/main_ap.o
 .bss.i.4575    0x0000000020003975        0x1 /home/uav/USTUAV/paparazzi/var/MYAC/ap/firmwares/fixedwing/main_ap.o
 .bss.i300.4510
                0x0000000020003976        0x2 /home/uav/USTUAV/paparazzi/var/MYAC/ap/firmwares/fixedwing/main_ap.o
 .bss.i540.4833
                0x0000000020003978        0x2 /home/uav/USTUAV/paparazzi/var/MYAC/ap/firmwares/fixedwing/main_ap.o
 .bss._reduced_correction_rate.5356
                0x000000002000397a        0x1 /home/uav/USTUAV/paparazzi/var/MYAC/ap/firmwares/fixedwing/main_ap.o
 .bss.i240.4828
                0x000000002000397b        0x1 /home/uav/USTUAV/paparazzi/var/MYAC/ap/firmwares/fixedwing/main_ap.o
 .bss.i120.4507
                0x000000002000397c        0x1 /home/uav/USTUAV/paparazzi/var/MYAC/ap/firmwares/fixedwing/main_ap.o
 .bss.power_switch
                0x000000002000397d        0x1 /home/uav/USTUAV/paparazzi/var/MYAC/ap/firmwares/fixedwing/main_ap.o
                0x000000002000397d                power_switch
 .bss.i312.4832
                0x000000002000397e        0x2 /home/uav/USTUAV/paparazzi/var/MYAC/ap/firmwares/fixedwing/main_ap.o
 .bss.monitor_tid
                0x0000000020003980        0x1 /home/uav/USTUAV/paparazzi/var/MYAC/ap/firmwares/fixedwing/main_ap.o
                0x0000000020003980                monitor_tid
 .bss.i63.4819  0x0000000020003981        0x1 /home/uav/USTUAV/paparazzi/var/MYAC/ap/firmwares/fixedwing/main_ap.o
 .bss.i84.4822  0x0000000020003982        0x1 /home/uav/USTUAV/paparazzi/var/MYAC/ap/firmwares/fixedwing/main_ap.o
 .bss._reduced_propagation_rate.5355
                0x0000000020003983        0x1 /home/uav/USTUAV/paparazzi/var/MYAC/ap/firmwares/fixedwing/main_ap.o
 .bss.new_ins_attitude
                0x0000000020003984        0x1 /home/uav/USTUAV/paparazzi/var/MYAC/ap/firmwares/fixedwing/main_ap.o
                0x0000000020003984                new_ins_attitude
 *fill*         0x0000000020003985        0x1 00
 .bss.i306.5123
                0x0000000020003986        0x2 /home/uav/USTUAV/paparazzi/var/MYAC/ap/firmwares/fixedwing/main_ap.o
 .bss.i78.4821  0x0000000020003988        0x1 /home/uav/USTUAV/paparazzi/var/MYAC/ap/firmwares/fixedwing/main_ap.o
 *fill*         0x0000000020003989        0x3 00
 .bss.current   0x000000002000398c        0x4 /home/uav/USTUAV/paparazzi/var/MYAC/ap/firmwares/fixedwing/main_ap.o
 .bss.gps_lost  0x0000000020003990        0x1 /home/uav/USTUAV/paparazzi/var/MYAC/ap/firmwares/fixedwing/main_ap.o
                0x0000000020003990                gps_lost
 *fill*         0x0000000020003991        0x1 00
 .bss.last.4801
                0x0000000020003992        0x2 /home/uav/USTUAV/paparazzi/var/MYAC/ap/firmwares/fixedwing/main_ap.o
 .bss.ahrs_timeout_counter
                0x0000000020003994        0x1 /home/uav/USTUAV/paparazzi/var/MYAC/ap/firmwares/fixedwing/main_ap.o
                0x0000000020003994                ahrs_timeout_counter
 .bss.i150.4509
                0x0000000020003995        0x1 /home/uav/USTUAV/paparazzi/var/MYAC/ap/firmwares/fixedwing/main_ap.o
 .bss.i72.4505  0x0000000020003996        0x1 /home/uav/USTUAV/paparazzi/var/MYAC/ap/firmwares/fixedwing/main_ap.o
 .bss.i30.4501  0x0000000020003997        0x1 /home/uav/USTUAV/paparazzi/var/MYAC/ap/firmwares/fixedwing/main_ap.o
 .bss.i.4919    0x0000000020003998        0x1 /home/uav/USTUAV/paparazzi/var/MYAC/ap/firmwares/fixedwing/main_ap.o
 .bss.i60.4277  0x0000000020003999        0x1 /home/uav/USTUAV/paparazzi/var/MYAC/ap/firmwares/fixedwing/main_ap.o
 .bss.last_pprz_mode.5279
                0x000000002000399a        0x1 /home/uav/USTUAV/paparazzi/var/MYAC/ap/firmwares/fixedwing/main_ap.o
 *fill*         0x000000002000399b        0x1 00
 .bss.last.5090
                0x000000002000399c        0x2 /home/uav/USTUAV/paparazzi/var/MYAC/ap/firmwares/fixedwing/main_ap.o
 .bss.i15.4276  0x000000002000399e        0x1 /home/uav/USTUAV/paparazzi/var/MYAC/ap/firmwares/fixedwing/main_ap.o
 *fill*         0x000000002000399f        0x1 00
 .bss.i420.5128
                0x00000000200039a0        0x2 /home/uav/USTUAV/paparazzi/var/MYAC/ap/firmwares/fixedwing/main_ap.o
 .bss.navigation_tid
                0x00000000200039a2        0x1 /home/uav/USTUAV/paparazzi/var/MYAC/ap/firmwares/fixedwing/main_ap.o
                0x00000000200039a2                navigation_tid
 .bss.t.5328    0x00000000200039a3        0x1 /home/uav/USTUAV/paparazzi/var/MYAC/ap/firmwares/fixedwing/main_ap.o
 .bss.estimator_hspeed_dir
                0x00000000200039a4        0x4 /home/uav/USTUAV/paparazzi/var/MYAC/ap/./estimator.o
                0x00000000200039a4                estimator_hspeed_dir
 .bss.estimator_airspeed
                0x00000000200039a8        0x4 /home/uav/USTUAV/paparazzi/var/MYAC/ap/./estimator.o
                0x00000000200039a8                estimator_airspeed
 .bss.p         0x00000000200039ac       0x10 /home/uav/USTUAV/paparazzi/var/MYAC/ap/./estimator.o
 .bss.estimator_z_dot
                0x00000000200039bc        0x4 /home/uav/USTUAV/paparazzi/var/MYAC/ap/./estimator.o
                0x00000000200039bc                estimator_z_dot
 .bss.estimator_flight_time
                0x00000000200039c0        0x2 /home/uav/USTUAV/paparazzi/var/MYAC/ap/./estimator.o
                0x00000000200039c0                estimator_flight_time
 *fill*         0x00000000200039c2        0x2 00
 .bss.wind_east
                0x00000000200039c4        0x4 /home/uav/USTUAV/paparazzi/var/MYAC/ap/./estimator.o
                0x00000000200039c4                wind_east
 .bss.alt_kalman_enabled
                0x00000000200039c8        0x1 /home/uav/USTUAV/paparazzi/var/MYAC/ap/./estimator.o
                0x00000000200039c8                alt_kalman_enabled
 *fill*         0x00000000200039c9        0x3 00
 .bss.estimator_psi
                0x00000000200039cc        0x4 /home/uav/USTUAV/paparazzi/var/MYAC/ap/./estimator.o
                0x00000000200039cc                estimator_psi
 .bss.estimator_r
                0x00000000200039d0        0x4 /home/uav/USTUAV/paparazzi/var/MYAC/ap/./estimator.o
                0x00000000200039d0                estimator_r
 .bss.wind_north
                0x00000000200039d4        0x4 /home/uav/USTUAV/paparazzi/var/MYAC/ap/./estimator.o
                0x00000000200039d4                wind_north
 .bss.estimator_p
                0x00000000200039d8        0x4 /home/uav/USTUAV/paparazzi/var/MYAC/ap/./estimator.o
                0x00000000200039d8                estimator_p
 .bss.estimator_theta
                0x00000000200039dc        0x4 /home/uav/USTUAV/paparazzi/var/MYAC/ap/./estimator.o
                0x00000000200039dc                estimator_theta
 .bss.estimator_q
                0x00000000200039e0        0x4 /home/uav/USTUAV/paparazzi/var/MYAC/ap/./estimator.o
                0x00000000200039e0                estimator_q
 .bss.estimator_x
                0x00000000200039e4        0x4 /home/uav/USTUAV/paparazzi/var/MYAC/ap/./estimator.o
                0x00000000200039e4                estimator_x
 .bss.estimator_y
                0x00000000200039e8        0x4 /home/uav/USTUAV/paparazzi/var/MYAC/ap/./estimator.o
                0x00000000200039e8                estimator_y
 .bss.estimator_z
                0x00000000200039ec        0x4 /home/uav/USTUAV/paparazzi/var/MYAC/ap/./estimator.o
                0x00000000200039ec                estimator_z
 .bss.estimator_hspeed_mod
                0x00000000200039f0        0x4 /home/uav/USTUAV/paparazzi/var/MYAC/ap/./estimator.o
                0x00000000200039f0                estimator_hspeed_mod
 .bss.estimator_phi
                0x00000000200039f4        0x4 /home/uav/USTUAV/paparazzi/var/MYAC/ap/./estimator.o
                0x00000000200039f4                estimator_phi
 .bss.telemetry_mode_Ap
                0x00000000200039f8        0x1 /home/uav/USTUAV/paparazzi/var/MYAC/ap/firmwares/fixedwing/ap_downlink.o
                0x00000000200039f8                telemetry_mode_Ap
 *fill*         0x00000000200039f9        0x3 00
 .bss.uart2     0x00000000200039fc      0x120 /home/uav/USTUAV/paparazzi/var/MYAC/ap/mcu_periph/uart.o
                0x00000000200039fc                uart2
 .bss.uart3     0x0000000020003b1c      0x120 /home/uav/USTUAV/paparazzi/var/MYAC/ap/mcu_periph/uart.o
                0x0000000020003b1c                uart3
 .bss.adc_new_data_trigger
                0x0000000020003c3c        0x1 /home/uav/USTUAV/paparazzi/var/MYAC/ap/arch/stm32/mcu_periph/adc_arch.o
                0x0000000020003c3c                adc_new_data_trigger
 *fill*         0x0000000020003c3d        0x3 00
 .bss.adc1_buffers
                0x0000000020003c40       0x10 /home/uav/USTUAV/paparazzi/var/MYAC/ap/arch/stm32/mcu_periph/adc_arch.o
 .bss.adc_channel_map
                0x0000000020003c50        0x4 /home/uav/USTUAV/paparazzi/var/MYAC/ap/arch/stm32/mcu_periph/adc_arch.o
 .bss.adc_injected_channels
                0x0000000020003c54        0x4 /home/uav/USTUAV/paparazzi/var/MYAC/ap/arch/stm32/mcu_periph/adc_arch.o
 .bss.actuators_pwm_values
                0x0000000020003c58       0x18 /home/uav/USTUAV/paparazzi/var/MYAC/ap/arch/stm32/servos_direct_hw.o
                0x0000000020003c58                actuators_pwm_values
 .bss.actuators
                0x0000000020003c70        0xc /home/uav/USTUAV/paparazzi/var/MYAC/ap/actuators.o
                0x0000000020003c70                actuators
 .bss.radio_control
                0x0000000020003c7c       0x1e /home/uav/USTUAV/paparazzi/var/MYAC/ap/subsystems/radio_control.o
                0x0000000020003c7c                radio_control
 .bss.TmpEncType.3420
                0x0000000020003c9a        0x1 /home/uav/USTUAV/paparazzi/var/MYAC/ap/arch/stm32/subsystems/radio_control/spektrum_arch.o
 .bss.ExpectedFrames
                0x0000000020003c9b        0x1 /home/uav/USTUAV/paparazzi/var/MYAC/ap/arch/stm32/subsystems/radio_control/spektrum_arch.o
 .bss.SpektrumBuf
                0x0000000020003c9c       0x1c /home/uav/USTUAV/paparazzi/var/MYAC/ap/arch/stm32/subsystems/radio_control/spektrum_arch.o
                0x0000000020003c9c                SpektrumBuf
 .bss.EncodingType
                0x0000000020003cb8        0x1 /home/uav/USTUAV/paparazzi/var/MYAC/ap/arch/stm32/subsystems/radio_control/spektrum_arch.o
 .bss.TmpExpFrames.3421
                0x0000000020003cb9        0x1 /home/uav/USTUAV/paparazzi/var/MYAC/ap/arch/stm32/subsystems/radio_control/spektrum_arch.o
 .bss.downlink_nb_msgs
                0x0000000020003cba        0x2 /home/uav/USTUAV/paparazzi/var/MYAC/ap/subsystems/datalink/downlink.o
                0x0000000020003cba                downlink_nb_msgs
 .bss.downlink_nb_ovrn
                0x0000000020003cbc        0x1 /home/uav/USTUAV/paparazzi/var/MYAC/ap/subsystems/datalink/downlink.o
                0x0000000020003cbc                downlink_nb_ovrn
 *fill*         0x0000000020003cbd        0x1 00
 .bss.downlink_nb_bytes
                0x0000000020003cbe        0x2 /home/uav/USTUAV/paparazzi/var/MYAC/ap/subsystems/datalink/downlink.o
                0x0000000020003cbe                downlink_nb_bytes
 .bss.pprz_tp   0x0000000020003cc0      0x108 /home/uav/USTUAV/paparazzi/var/MYAC/ap/subsystems/datalink/pprz_transport.o
                0x0000000020003cc0                pprz_tp
 .bss.ck_a      0x0000000020003dc8        0x1 /home/uav/USTUAV/paparazzi/var/MYAC/ap/subsystems/datalink/pprz_transport.o
                0x0000000020003dc8                ck_a
 .bss.ck_b      0x0000000020003dc9        0x1 /home/uav/USTUAV/paparazzi/var/MYAC/ap/subsystems/datalink/pprz_transport.o
                0x0000000020003dc9                ck_b
 .bss.dl_msg_available
                0x0000000020003dca        0x1 /home/uav/USTUAV/paparazzi/var/MYAC/ap/firmwares/fixedwing/datalink.o
                0x0000000020003dca                dl_msg_available
 *fill*         0x0000000020003dcb        0x5 00
 .bss.dl_buffer
                0x0000000020003dd0       0x80 /home/uav/USTUAV/paparazzi/var/MYAC/ap/firmwares/fixedwing/datalink.o
                0x0000000020003dd0                dl_buffer
 .bss.datalink_time
                0x0000000020003e50        0x2 /home/uav/USTUAV/paparazzi/var/MYAC/ap/firmwares/fixedwing/datalink.o
                0x0000000020003e50                datalink_time
 .bss.h_ctl_elevator_setpoint
                0x0000000020003e52        0x2 /home/uav/USTUAV/paparazzi/var/MYAC/ap/firmwares/fixedwing/stabilization/stabilization_attitude.o
                0x0000000020003e52                h_ctl_elevator_setpoint
 .bss.h_ctl_pitch_pgain
                0x0000000020003e54        0x4 /home/uav/USTUAV/paparazzi/var/MYAC/ap/firmwares/fixedwing/stabilization/stabilization_attitude.o
                0x0000000020003e54                h_ctl_pitch_pgain
 .bss.h_ctl_roll_max_setpoint
                0x0000000020003e58        0x4 /home/uav/USTUAV/paparazzi/var/MYAC/ap/firmwares/fixedwing/stabilization/stabilization_attitude.o
                0x0000000020003e58                h_ctl_roll_max_setpoint
 .bss.h_ctl_roll_setpoint
                0x0000000020003e5c        0x4 /home/uav/USTUAV/paparazzi/var/MYAC/ap/firmwares/fixedwing/stabilization/stabilization_attitude.o
                0x0000000020003e5c                h_ctl_roll_setpoint
 .bss.h_ctl_course_setpoint
                0x0000000020003e60        0x4 /home/uav/USTUAV/paparazzi/var/MYAC/ap/firmwares/fixedwing/stabilization/stabilization_attitude.o
                0x0000000020003e60                h_ctl_course_setpoint
 .bss.h_ctl_aileron_setpoint
                0x0000000020003e64        0x2 /home/uav/USTUAV/paparazzi/var/MYAC/ap/firmwares/fixedwing/stabilization/stabilization_attitude.o
                0x0000000020003e64                h_ctl_aileron_setpoint
 *fill*         0x0000000020003e66        0x2 00
 .bss.h_ctl_roll_attitude_gain
                0x0000000020003e68        0x4 /home/uav/USTUAV/paparazzi/var/MYAC/ap/firmwares/fixedwing/stabilization/stabilization_attitude.o
                0x0000000020003e68                h_ctl_roll_attitude_gain
 .bss.h_ctl_pitch_setpoint
                0x0000000020003e6c        0x4 /home/uav/USTUAV/paparazzi/var/MYAC/ap/firmwares/fixedwing/stabilization/stabilization_attitude.o
                0x0000000020003e6c                h_ctl_pitch_setpoint
 .bss.h_ctl_aileron_of_throttle
                0x0000000020003e70        0x4 /home/uav/USTUAV/paparazzi/var/MYAC/ap/firmwares/fixedwing/stabilization/stabilization_attitude.o
                0x0000000020003e70                h_ctl_aileron_of_throttle
 .bss.h_ctl_roll_rate_gain
                0x0000000020003e74        0x4 /home/uav/USTUAV/paparazzi/var/MYAC/ap/firmwares/fixedwing/stabilization/stabilization_attitude.o
                0x0000000020003e74                h_ctl_roll_rate_gain
 .bss.h_ctl_disabled
                0x0000000020003e78        0x1 /home/uav/USTUAV/paparazzi/var/MYAC/ap/firmwares/fixedwing/stabilization/stabilization_attitude.o
                0x0000000020003e78                h_ctl_disabled
 *fill*         0x0000000020003e79        0x3 00
 .bss.h_ctl_pitch_loop_setpoint
                0x0000000020003e7c        0x4 /home/uav/USTUAV/paparazzi/var/MYAC/ap/firmwares/fixedwing/stabilization/stabilization_attitude.o
                0x0000000020003e7c                h_ctl_pitch_loop_setpoint
 .bss.h_ctl_course_pgain
                0x0000000020003e80        0x4 /home/uav/USTUAV/paparazzi/var/MYAC/ap/firmwares/fixedwing/stabilization/stabilization_attitude.o
                0x0000000020003e80                h_ctl_course_pgain
 .bss.h_ctl_elevator_of_roll
                0x0000000020003e84        0x4 /home/uav/USTUAV/paparazzi/var/MYAC/ap/firmwares/fixedwing/stabilization/stabilization_attitude.o
                0x0000000020003e84                h_ctl_elevator_of_roll
 .bss.h_ctl_course_dgain
                0x0000000020003e88        0x4 /home/uav/USTUAV/paparazzi/var/MYAC/ap/firmwares/fixedwing/stabilization/stabilization_attitude.o
                0x0000000020003e88                h_ctl_course_dgain
 .bss.h_ctl_course_pre_bank_correction
                0x0000000020003e8c        0x4 /home/uav/USTUAV/paparazzi/var/MYAC/ap/firmwares/fixedwing/stabilization/stabilization_attitude.o
                0x0000000020003e8c                h_ctl_course_pre_bank_correction
 .bss.last_err.3580
                0x0000000020003e90        0x4 /home/uav/USTUAV/paparazzi/var/MYAC/ap/firmwares/fixedwing/stabilization/stabilization_attitude.o
 .bss.h_ctl_course_pre_bank
                0x0000000020003e94        0x4 /home/uav/USTUAV/paparazzi/var/MYAC/ap/firmwares/fixedwing/stabilization/stabilization_attitude.o
                0x0000000020003e94                h_ctl_course_pre_bank
 .bss.last_err.3609
                0x0000000020003e98        0x4 /home/uav/USTUAV/paparazzi/var/MYAC/ap/firmwares/fixedwing/stabilization/stabilization_attitude.o
 .bss.h_ctl_pitch_dgain
                0x0000000020003e9c        0x4 /home/uav/USTUAV/paparazzi/var/MYAC/ap/firmwares/fixedwing/stabilization/stabilization_attitude.o
                0x0000000020003e9c                h_ctl_pitch_dgain
 .bss.v_ctl_auto_throttle_nominal_cruise_throttle
                0x0000000020003ea0        0x4 /home/uav/USTUAV/paparazzi/var/MYAC/ap/firmwares/fixedwing/guidance/guidance_v.o
                0x0000000020003ea0                v_ctl_auto_throttle_nominal_cruise_throttle
 .bss.v_ctl_auto_throttle_igain
                0x0000000020003ea4        0x4 /home/uav/USTUAV/paparazzi/var/MYAC/ap/firmwares/fixedwing/guidance/guidance_v.o
                0x0000000020003ea4                v_ctl_auto_throttle_igain
 .bss.v_ctl_auto_throttle_max_cruise_throttle
                0x0000000020003ea8        0x4 /home/uav/USTUAV/paparazzi/var/MYAC/ap/firmwares/fixedwing/guidance/guidance_v.o
                0x0000000020003ea8                v_ctl_auto_throttle_max_cruise_throttle
 .bss.v_ctl_throttle_setpoint
                0x0000000020003eac        0x2 /home/uav/USTUAV/paparazzi/var/MYAC/ap/firmwares/fixedwing/guidance/guidance_v.o
                0x0000000020003eac                v_ctl_throttle_setpoint
 *fill*         0x0000000020003eae        0x2 00
 .bss.v_ctl_altitude_pre_climb_correction
                0x0000000020003eb0        0x4 /home/uav/USTUAV/paparazzi/var/MYAC/ap/firmwares/fixedwing/guidance/guidance_v.o
                0x0000000020003eb0                v_ctl_altitude_pre_climb_correction
 .bss.v_ctl_altitude_setpoint
                0x0000000020003eb4        0x4 /home/uav/USTUAV/paparazzi/var/MYAC/ap/firmwares/fixedwing/guidance/guidance_v.o
                0x0000000020003eb4                v_ctl_altitude_setpoint
 .bss.v_ctl_auto_throttle_dgain
                0x0000000020003eb8        0x4 /home/uav/USTUAV/paparazzi/var/MYAC/ap/firmwares/fixedwing/guidance/guidance_v.o
                0x0000000020003eb8                v_ctl_auto_throttle_dgain
 .bss.v_ctl_mode
                0x0000000020003ebc        0x1 /home/uav/USTUAV/paparazzi/var/MYAC/ap/firmwares/fixedwing/guidance/guidance_v.o
                0x0000000020003ebc                v_ctl_mode
 *fill*         0x0000000020003ebd        0x3 00
 .bss.v_ctl_auto_throttle_pitch_of_vz_pgain
                0x0000000020003ec0        0x4 /home/uav/USTUAV/paparazzi/var/MYAC/ap/firmwares/fixedwing/guidance/guidance_v.o
                0x0000000020003ec0                v_ctl_auto_throttle_pitch_of_vz_pgain
 .bss.v_ctl_auto_throttle_pitch_of_vz_dgain
                0x0000000020003ec4        0x4 /home/uav/USTUAV/paparazzi/var/MYAC/ap/firmwares/fixedwing/guidance/guidance_v.o
                0x0000000020003ec4                v_ctl_auto_throttle_pitch_of_vz_dgain
 .bss.last_err.3561
                0x0000000020003ec8        0x4 /home/uav/USTUAV/paparazzi/var/MYAC/ap/firmwares/fixedwing/guidance/guidance_v.o
 .bss.v_ctl_auto_pitch_pgain
                0x0000000020003ecc        0x4 /home/uav/USTUAV/paparazzi/var/MYAC/ap/firmwares/fixedwing/guidance/guidance_v.o
                0x0000000020003ecc                v_ctl_auto_pitch_pgain
 .bss.v_ctl_auto_throttle_climb_throttle_increment
                0x0000000020003ed0        0x4 /home/uav/USTUAV/paparazzi/var/MYAC/ap/firmwares/fixedwing/guidance/guidance_v.o
                0x0000000020003ed0                v_ctl_auto_throttle_climb_throttle_increment
 .bss.v_ctl_altitude_pre_climb
                0x0000000020003ed4        0x4 /home/uav/USTUAV/paparazzi/var/MYAC/ap/firmwares/fixedwing/guidance/guidance_v.o
                0x0000000020003ed4                v_ctl_altitude_pre_climb
 .bss.v_ctl_auto_throttle_sum_err
                0x0000000020003ed8        0x4 /home/uav/USTUAV/paparazzi/var/MYAC/ap/firmwares/fixedwing/guidance/guidance_v.o
                0x0000000020003ed8                v_ctl_auto_throttle_sum_err
 .bss.v_ctl_climb_setpoint
                0x0000000020003edc        0x4 /home/uav/USTUAV/paparazzi/var/MYAC/ap/firmwares/fixedwing/guidance/guidance_v.o
                0x0000000020003edc                v_ctl_climb_setpoint
 .bss.v_ctl_auto_pitch_sum_err
                0x0000000020003ee0        0x4 /home/uav/USTUAV/paparazzi/var/MYAC/ap/firmwares/fixedwing/guidance/guidance_v.o
                0x0000000020003ee0                v_ctl_auto_pitch_sum_err
 .bss.v_ctl_throttle_slewed
                0x0000000020003ee4        0x2 /home/uav/USTUAV/paparazzi/var/MYAC/ap/firmwares/fixedwing/guidance/guidance_v.o
                0x0000000020003ee4                v_ctl_throttle_slewed
 .bss.v_ctl_auto_throttle_submode
                0x0000000020003ee6        0x1 /home/uav/USTUAV/paparazzi/var/MYAC/ap/firmwares/fixedwing/guidance/guidance_v.o
                0x0000000020003ee6                v_ctl_auto_throttle_submode
 *fill*         0x0000000020003ee7        0x1 00
 .bss.v_ctl_auto_throttle_pgain
                0x0000000020003ee8        0x4 /home/uav/USTUAV/paparazzi/var/MYAC/ap/firmwares/fixedwing/guidance/guidance_v.o
                0x0000000020003ee8                v_ctl_auto_throttle_pgain
 .bss.v_ctl_auto_pitch_igain
                0x0000000020003eec        0x4 /home/uav/USTUAV/paparazzi/var/MYAC/ap/firmwares/fixedwing/guidance/guidance_v.o
                0x0000000020003eec                v_ctl_auto_pitch_igain
 .bss.v_ctl_climb_mode
                0x0000000020003ef0        0x1 /home/uav/USTUAV/paparazzi/var/MYAC/ap/firmwares/fixedwing/guidance/guidance_v.o
                0x0000000020003ef0                v_ctl_climb_mode
 *fill*         0x0000000020003ef1        0x3 00
 .bss.v_ctl_altitude_error
                0x0000000020003ef4        0x4 /home/uav/USTUAV/paparazzi/var/MYAC/ap/firmwares/fixedwing/guidance/guidance_v.o
                0x0000000020003ef4                v_ctl_altitude_error
 .bss.v_ctl_auto_throttle_cruise_throttle
                0x0000000020003ef8        0x4 /home/uav/USTUAV/paparazzi/var/MYAC/ap/firmwares/fixedwing/guidance/guidance_v.o
                0x0000000020003ef8                v_ctl_auto_throttle_cruise_throttle
 .bss.v_ctl_auto_throttle_min_cruise_throttle
                0x0000000020003efc        0x4 /home/uav/USTUAV/paparazzi/var/MYAC/ap/firmwares/fixedwing/guidance/guidance_v.o
                0x0000000020003efc                v_ctl_auto_throttle_min_cruise_throttle
 .bss.v_ctl_altitude_pgain
                0x0000000020003f00        0x4 /home/uav/USTUAV/paparazzi/var/MYAC/ap/firmwares/fixedwing/guidance/guidance_v.o
                0x0000000020003f00                v_ctl_altitude_pgain
 .bss.v_ctl_altitude_max_climb
                0x0000000020003f04        0x4 /home/uav/USTUAV/paparazzi/var/MYAC/ap/firmwares/fixedwing/guidance/guidance_v.o
                0x0000000020003f04                v_ctl_altitude_max_climb
 .bss.imu       0x0000000020003f08       0xb8 /home/uav/USTUAV/paparazzi/var/MYAC/ap/subsystems/imu.o
                0x0000000020003f08                imu
 .bss.imu_aspirin2
                0x0000000020003fc0       0x82 /home/uav/USTUAV/paparazzi/var/MYAC/ap/subsystems/imu/imu_aspirin2.o
                0x0000000020003fc0                imu_aspirin2
 *fill*         0x0000000020004042        0x2 00
 .bss.aspirin2_mpu60x0
                0x0000000020004044       0x10 /home/uav/USTUAV/paparazzi/var/MYAC/ap/subsystems/imu/imu_aspirin2.o
                0x0000000020004044                aspirin2_mpu60x0
 .bss.slave0    0x0000000020004054        0x4 /home/uav/USTUAV/paparazzi/var/MYAC/ap/arch/stm32/mcu_periph/spi_arch.o
                0x0000000020004054                slave0
 .bss.spi_message_received
                0x0000000020004058        0x1 /home/uav/USTUAV/paparazzi/var/MYAC/ap/mcu_periph/spi.o
                0x0000000020004058                spi_message_received
 *fill*         0x0000000020004059        0x3 00
 .bss.ahrs      0x000000002000405c       0x9c /home/uav/USTUAV/paparazzi/var/MYAC/ap/subsystems/ahrs.o
                0x000000002000405c                ahrs
 .bss.ahrs_float
                0x00000000200040f8       0xbc /home/uav/USTUAV/paparazzi/var/MYAC/ap/subsystems/ahrs.o
                0x00000000200040f8                ahrs_float
 .bss.gyro_sum  0x00000000200041b4        0xc /home/uav/USTUAV/paparazzi/var/MYAC/ap/subsystems/ahrs/ahrs_aligner.o
 .bss.mag_sum   0x00000000200041c0        0xc /home/uav/USTUAV/paparazzi/var/MYAC/ap/subsystems/ahrs/ahrs_aligner.o
 .bss.samples_idx
                0x00000000200041cc        0x4 /home/uav/USTUAV/paparazzi/var/MYAC/ap/subsystems/ahrs/ahrs_aligner.o
 .bss.ahrs_aligner
                0x00000000200041d0       0x30 /home/uav/USTUAV/paparazzi/var/MYAC/ap/subsystems/ahrs/ahrs_aligner.o
                0x00000000200041d0                ahrs_aligner
 .bss.ref_sensor_samples
                0x0000000020004200      0x1e0 /home/uav/USTUAV/paparazzi/var/MYAC/ap/subsystems/ahrs/ahrs_aligner.o
 .bss.accel_sum
                0x00000000200043e0        0xc /home/uav/USTUAV/paparazzi/var/MYAC/ap/subsystems/ahrs/ahrs_aligner.o
 .bss.prescaler.3617
                0x00000000200043ec        0x2 /home/uav/USTUAV/paparazzi/var/MYAC/ap/subsystems/ahrs/ahrs_aligner.o
 *fill*         0x00000000200043ee        0x2 00
 .bss.Temporary_Matrix
                0x00000000200043f0       0x24 /home/uav/USTUAV/paparazzi/var/MYAC/ap/subsystems/ahrs/ahrs_float_dcm.o
                0x00000000200043f0                Temporary_Matrix
 .bss.ahrs_impl
                0x0000000020004414       0x4c /home/uav/USTUAV/paparazzi/var/MYAC/ap/subsystems/ahrs/ahrs_float_dcm.o
                0x0000000020004414                ahrs_impl
 .bss.Scaled_Omega_P.4168
                0x0000000020004460        0xc /home/uav/USTUAV/paparazzi/var/MYAC/ap/subsystems/ahrs/ahrs_float_dcm.o
 .bss.Omega     0x000000002000446c        0xc /home/uav/USTUAV/paparazzi/var/MYAC/ap/subsystems/ahrs/ahrs_float_dcm.o
                0x000000002000446c                Omega
 .bss.renorm_sqrt_count
                0x0000000020004478        0x4 /home/uav/USTUAV/paparazzi/var/MYAC/ap/subsystems/ahrs/ahrs_float_dcm.o
                0x0000000020004478                renorm_sqrt_count
 .bss.renorm_blowup_count
                0x000000002000447c        0x4 /home/uav/USTUAV/paparazzi/var/MYAC/ap/subsystems/ahrs/ahrs_float_dcm.o
                0x000000002000447c                renorm_blowup_count
 .bss.ins_pitch_neutral
                0x0000000020004480        0x4 /home/uav/USTUAV/paparazzi/var/MYAC/ap/subsystems/ahrs/ahrs_float_dcm.o
                0x0000000020004480                ins_pitch_neutral
 .bss.Omega_Vector
                0x0000000020004484        0xc /home/uav/USTUAV/paparazzi/var/MYAC/ap/subsystems/ahrs/ahrs_float_dcm.o
                0x0000000020004484                Omega_Vector
 .bss.ins_roll_neutral
                0x0000000020004490        0x4 /home/uav/USTUAV/paparazzi/var/MYAC/ap/subsystems/ahrs/ahrs_float_dcm.o
                0x0000000020004490                ins_roll_neutral
 .bss.imu_health
                0x0000000020004494        0x4 /home/uav/USTUAV/paparazzi/var/MYAC/ap/subsystems/ahrs/ahrs_float_dcm.o
                0x0000000020004494                imu_health
 .bss.Omega_I   0x0000000020004498        0xc /home/uav/USTUAV/paparazzi/var/MYAC/ap/subsystems/ahrs/ahrs_float_dcm.o
                0x0000000020004498                Omega_I
 .bss.Scaled_Omega_I.4169
                0x00000000200044a4        0xc /home/uav/USTUAV/paparazzi/var/MYAC/ap/subsystems/ahrs/ahrs_float_dcm.o
 .bss.Omega_P   0x00000000200044b0        0xc /home/uav/USTUAV/paparazzi/var/MYAC/ap/subsystems/ahrs/ahrs_float_dcm.o
                0x00000000200044b0                Omega_P
 .bss.accel_float
                0x00000000200044bc        0xc /home/uav/USTUAV/paparazzi/var/MYAC/ap/subsystems/ahrs/ahrs_float_dcm.o
                0x00000000200044bc                accel_float
 .bss.gps_ubx_ucenter
                0x00000000200044c8       0x20 /home/uav/USTUAV/paparazzi/var/MYAC/ap/subsystems/gps/gps_ubx.o
                0x00000000200044c8                gps_ubx_ucenter
 .bss.gps_ubx   0x00000000200044e8      0x118 /home/uav/USTUAV/paparazzi/var/MYAC/ap/subsystems/gps/gps_ubx.o
                0x00000000200044e8                gps_ubx
 .bss.gps       0x0000000020004600       0xf4 /home/uav/USTUAV/paparazzi/var/MYAC/ap/subsystems/gps.o
                0x0000000020004600                gps
 .bss.ground_alt
                0x00000000200046f4        0x4 /home/uav/USTUAV/paparazzi/var/MYAC/ap/subsystems/nav.o
                0x00000000200046f4                ground_alt
 .bss.nav_survey_east
                0x00000000200046f8        0x4 /home/uav/USTUAV/paparazzi/var/MYAC/ap/subsystems/nav.o
                0x00000000200046f8                nav_survey_east
 .bss.nav_mode  0x00000000200046fc        0x4 /home/uav/USTUAV/paparazzi/var/MYAC/ap/subsystems/nav.o
                0x00000000200046fc                nav_mode
 .bss.desired_x
                0x0000000020004700        0x4 /home/uav/USTUAV/paparazzi/var/MYAC/ap/subsystems/nav.o
                0x0000000020004700                desired_x
 .bss.desired_y
                0x0000000020004704        0x4 /home/uav/USTUAV/paparazzi/var/MYAC/ap/subsystems/nav.o
                0x0000000020004704                desired_y
 .bss.previous_ground_alt
                0x0000000020004708        0x4 /home/uav/USTUAV/paparazzi/var/MYAC/ap/subsystems/nav.o
 .bss.nav_shift
                0x000000002000470c        0x4 /home/uav/USTUAV/paparazzi/var/MYAC/ap/subsystems/nav.o
                0x000000002000470c                nav_shift
 .bss.nav_throttle_setpoint
                0x0000000020004710        0x2 /home/uav/USTUAV/paparazzi/var/MYAC/ap/subsystems/nav.o
                0x0000000020004710                nav_throttle_setpoint
 .bss.prescaler.4519
                0x0000000020004712        0x2 /home/uav/USTUAV/paparazzi/var/MYAC/ap/subsystems/nav.o
 .bss.flight_altitude
                0x0000000020004714        0x4 /home/uav/USTUAV/paparazzi/var/MYAC/ap/subsystems/nav.o
                0x0000000020004714                flight_altitude
 .bss.nav_survey_active
                0x0000000020004718        0x1 /home/uav/USTUAV/paparazzi/var/MYAC/ap/subsystems/nav.o
                0x0000000020004718                nav_survey_active
 *fill*         0x0000000020004719        0x3 00
 .bss.nav_survey_west
                0x000000002000471c        0x4 /home/uav/USTUAV/paparazzi/var/MYAC/ap/subsystems/nav.o
                0x000000002000471c                nav_survey_west
 .bss.nav_radius
                0x0000000020004720        0x4 /home/uav/USTUAV/paparazzi/var/MYAC/ap/subsystems/nav.o
                0x0000000020004720                nav_radius
 .bss.oval_status
                0x0000000020004724        0x1 /home/uav/USTUAV/paparazzi/var/MYAC/ap/subsystems/nav.o
                0x0000000020004724                oval_status
 *fill*         0x0000000020004725        0x3 00
 .bss.nav_segment_y_1
                0x0000000020004728        0x4 /home/uav/USTUAV/paparazzi/var/MYAC/ap/subsystems/nav.o
                0x0000000020004728                nav_segment_y_1
 .bss.nav_segment_y_2
                0x000000002000472c        0x4 /home/uav/USTUAV/paparazzi/var/MYAC/ap/subsystems/nav.o
                0x000000002000472c                nav_segment_y_2
 .bss.nav_in_segment
                0x0000000020004730        0x1 /home/uav/USTUAV/paparazzi/var/MYAC/ap/subsystems/nav.o
                0x0000000020004730                nav_in_segment
 *fill*         0x0000000020004731        0x3 00
 .bss.nav_circle_radians
                0x0000000020004734        0x4 /home/uav/USTUAV/paparazzi/var/MYAC/ap/subsystems/nav.o
                0x0000000020004734                nav_circle_radians
 .bss.nav_leg_progress
                0x0000000020004738        0x4 /home/uav/USTUAV/paparazzi/var/MYAC/ap/subsystems/nav.o
 .bss.dist2_to_wp
                0x000000002000473c        0x4 /home/uav/USTUAV/paparazzi/var/MYAC/ap/subsystems/nav.o
                0x000000002000473c                dist2_to_wp
 .bss.last_nav_altitude.4531
                0x0000000020004740        0x4 /home/uav/USTUAV/paparazzi/var/MYAC/ap/subsystems/nav.o
 .bss.nav_in_circle
                0x0000000020004744        0x1 /home/uav/USTUAV/paparazzi/var/MYAC/ap/subsystems/nav.o
                0x0000000020004744                nav_in_circle
 *fill*         0x0000000020004745        0x3 00
 .bss.nav_course
                0x0000000020004748        0x4 /home/uav/USTUAV/paparazzi/var/MYAC/ap/subsystems/nav.o
                0x0000000020004748                nav_course
 .bss.nav_survey_north
                0x000000002000474c        0x4 /home/uav/USTUAV/paparazzi/var/MYAC/ap/subsystems/nav.o
                0x000000002000474c                nav_survey_north
 .bss.nav_glide_pitch_trim
                0x0000000020004750        0x4 /home/uav/USTUAV/paparazzi/var/MYAC/ap/subsystems/nav.o
                0x0000000020004750                nav_glide_pitch_trim
 .bss.dist2_to_home
                0x0000000020004754        0x4 /home/uav/USTUAV/paparazzi/var/MYAC/ap/subsystems/nav.o
                0x0000000020004754                dist2_to_home
 .bss.last_wp   0x0000000020004758        0x1 /home/uav/USTUAV/paparazzi/var/MYAC/ap/subsystems/nav.o
 .bss.nav_oval_count
                0x0000000020004759        0x1 /home/uav/USTUAV/paparazzi/var/MYAC/ap/subsystems/nav.o
                0x0000000020004759                nav_oval_count
 .bss.too_far_from_home
                0x000000002000475a        0x1 /home/uav/USTUAV/paparazzi/var/MYAC/ap/subsystems/nav.o
                0x000000002000475a                too_far_from_home
 *fill*         0x000000002000475b        0x1 00
 .bss.circle_bank
                0x000000002000475c        0x4 /home/uav/USTUAV/paparazzi/var/MYAC/ap/subsystems/nav.o
                0x000000002000475c                circle_bank
 .bss.nav_pitch
                0x0000000020004760        0x4 /home/uav/USTUAV/paparazzi/var/MYAC/ap/subsystems/nav.o
                0x0000000020004760                nav_pitch
 .bss.horizontal_mode
                0x0000000020004764        0x1 /home/uav/USTUAV/paparazzi/var/MYAC/ap/subsystems/nav.o
                0x0000000020004764                horizontal_mode
 *fill*         0x0000000020004765        0x3 00
 .bss.nav_circle_trigo_qdr
                0x0000000020004768        0x4 /home/uav/USTUAV/paparazzi/var/MYAC/ap/subsystems/nav.o
                0x0000000020004768                nav_circle_trigo_qdr
 .bss.nav_circle_radius
                0x000000002000476c        0x4 /home/uav/USTUAV/paparazzi/var/MYAC/ap/subsystems/nav.o
                0x000000002000476c                nav_circle_radius
 .bss.nav_survey_south
                0x0000000020004770        0x4 /home/uav/USTUAV/paparazzi/var/MYAC/ap/subsystems/nav.o
                0x0000000020004770                nav_survey_south
 .bss.eight_status
                0x0000000020004774        0x1 /home/uav/USTUAV/paparazzi/var/MYAC/ap/subsystems/nav.o
 *fill*         0x0000000020004775        0x3 00
 .bss.last_x    0x0000000020004778        0x4 /home/uav/USTUAV/paparazzi/var/MYAC/ap/subsystems/nav.o
                0x0000000020004778                last_x
 .bss.nav_circle_x
                0x000000002000477c        0x4 /home/uav/USTUAV/paparazzi/var/MYAC/ap/subsystems/nav.o
                0x000000002000477c                nav_circle_x
 .bss.nav_circle_y
                0x0000000020004780        0x4 /home/uav/USTUAV/paparazzi/var/MYAC/ap/subsystems/nav.o
                0x0000000020004780                nav_circle_y
 .bss.nav_leg_length
                0x0000000020004784        0x4 /home/uav/USTUAV/paparazzi/var/MYAC/ap/subsystems/nav.o
 .bss.nav_survey_shift
                0x0000000020004788        0x4 /home/uav/USTUAV/paparazzi/var/MYAC/ap/subsystems/nav.o
                0x0000000020004788                nav_survey_shift
 .bss.baseleg_out_qdr
                0x000000002000478c        0x4 /home/uav/USTUAV/paparazzi/var/MYAC/ap/subsystems/nav.o
 .bss.last_y    0x0000000020004790        0x4 /home/uav/USTUAV/paparazzi/var/MYAC/ap/subsystems/nav.o
                0x0000000020004790                last_y
 .bss.nav_segment_x_1
                0x0000000020004794        0x4 /home/uav/USTUAV/paparazzi/var/MYAC/ap/subsystems/nav.o
                0x0000000020004794                nav_segment_x_1
 .bss.nav_segment_x_2
                0x0000000020004798        0x4 /home/uav/USTUAV/paparazzi/var/MYAC/ap/subsystems/nav.o
                0x0000000020004798                nav_segment_x_2
 .bss.stage_time
                0x000000002000479c        0x2 /home/uav/USTUAV/paparazzi/var/MYAC/ap/subsystems/navigation/common_flight_plan.o
                0x000000002000479c                stage_time
 .bss.last_block
                0x000000002000479e        0x1 /home/uav/USTUAV/paparazzi/var/MYAC/ap/subsystems/navigation/common_flight_plan.o
                0x000000002000479e                last_block
 *fill*         0x000000002000479f        0x1 00
 .bss.block_time
                0x00000000200047a0        0x2 /home/uav/USTUAV/paparazzi/var/MYAC/ap/subsystems/navigation/common_flight_plan.o
                0x00000000200047a0                block_time
 .bss.nav_block
                0x00000000200047a2        0x1 /home/uav/USTUAV/paparazzi/var/MYAC/ap/subsystems/navigation/common_flight_plan.o
                0x00000000200047a2                nav_block
 .bss.last_stage
                0x00000000200047a3        0x1 /home/uav/USTUAV/paparazzi/var/MYAC/ap/subsystems/navigation/common_flight_plan.o
                0x00000000200047a3                last_stage
 .bss.nav_stage
                0x00000000200047a4        0x1 /home/uav/USTUAV/paparazzi/var/MYAC/ap/subsystems/navigation/common_flight_plan.o
                0x00000000200047a4                nav_stage
 *fill*         0x00000000200047a5        0x3 00
 .bss.the_acs   0x00000000200047a8      0x300 /home/uav/USTUAV/paparazzi/var/MYAC/ap/subsystems/navigation/traffic_info.o
                0x00000000200047a8                the_acs
 .bss.acs_idx   0x0000000020004aa8        0x1 /home/uav/USTUAV/paparazzi/var/MYAC/ap/subsystems/navigation/traffic_info.o
                0x0000000020004aa8                acs_idx
 .bss.the_acs_id
                0x0000000020004aa9      0x100 /home/uav/USTUAV/paparazzi/var/MYAC/ap/subsystems/navigation/traffic_info.o
                0x0000000020004aa9                the_acs_id
 *fill*         0x0000000020004ba9        0x3 00
 .bss.survey_from
                0x0000000020004bac        0xc /home/uav/USTUAV/paparazzi/var/MYAC/ap/subsystems/navigation/nav_survey_rectangle.o
 .bss.survey_radius.2250
                0x0000000020004bb8        0x4 /home/uav/USTUAV/paparazzi/var/MYAC/ap/subsystems/navigation/nav_survey_rectangle.o
 .bss.survey_orientation
                0x0000000020004bbc        0x1 /home/uav/USTUAV/paparazzi/var/MYAC/ap/subsystems/navigation/nav_survey_rectangle.o
 *fill*         0x0000000020004bbd        0x3 00
 .bss.survey_to
                0x0000000020004bc0        0xc /home/uav/USTUAV/paparazzi/var/MYAC/ap/subsystems/navigation/nav_survey_rectangle.o
 .bss.survey_uturn
                0x0000000020004bcc        0x1 /home/uav/USTUAV/paparazzi/var/MYAC/ap/subsystems/navigation/nav_survey_rectangle.o
 .bss.line_status
                0x0000000020004bcd        0x1 /home/uav/USTUAV/paparazzi/var/MYAC/ap/subsystems/navigation/nav_line.o
 *fill*         0x0000000020004bce        0x2 00
 .bss.periodic_timer
                0x0000000020004bd0        0x4 /home/uav/USTUAV/paparazzi/var/MYAC/ap/modules/core/sys_mon.o
                0x0000000020004bd0                periodic_timer
 .bss.sum_n_event
                0x0000000020004bd4        0x4 /home/uav/USTUAV/paparazzi/var/MYAC/ap/modules/core/sys_mon.o
                0x0000000020004bd4                sum_n_event
 .bss.sum_time_event
                0x0000000020004bd8        0x4 /home/uav/USTUAV/paparazzi/var/MYAC/ap/modules/core/sys_mon.o
                0x0000000020004bd8                sum_time_event
 .bss.n_event   0x0000000020004bdc        0x2 /home/uav/USTUAV/paparazzi/var/MYAC/ap/modules/core/sys_mon.o
                0x0000000020004bdc                n_event
 *fill*         0x0000000020004bde        0x2 00
 .bss.min_time_event
                0x0000000020004be0        0x4 /home/uav/USTUAV/paparazzi/var/MYAC/ap/modules/core/sys_mon.o
                0x0000000020004be0                min_time_event
 .bss.periodic_cycle
                0x0000000020004be4        0x4 /home/uav/USTUAV/paparazzi/var/MYAC/ap/modules/core/sys_mon.o
                0x0000000020004be4                periodic_cycle
 .bss.n_periodic
                0x0000000020004be8        0x2 /home/uav/USTUAV/paparazzi/var/MYAC/ap/modules/core/sys_mon.o
                0x0000000020004be8                n_periodic
 *fill*         0x0000000020004bea        0x2 00
 .bss.event_timer
                0x0000000020004bec        0x4 /home/uav/USTUAV/paparazzi/var/MYAC/ap/modules/core/sys_mon.o
                0x0000000020004bec                event_timer
 .bss.sys_mon   0x0000000020004bf0        0xc /home/uav/USTUAV/paparazzi/var/MYAC/ap/modules/core/sys_mon.o
                0x0000000020004bf0                sys_mon
 .bss.sum_cycle_periodic
                0x0000000020004bfc        0x4 /home/uav/USTUAV/paparazzi/var/MYAC/ap/modules/core/sys_mon.o
                0x0000000020004bfc                sum_cycle_periodic
 .bss.sum_time_periodic
                0x0000000020004c00        0x4 /home/uav/USTUAV/paparazzi/var/MYAC/ap/modules/core/sys_mon.o
                0x0000000020004c00                sum_time_periodic
 *(COMMON)
                0x0000000020004c04                . = ALIGN (0x4)
                0x0000000020004c04                _ebss = .
                0x0000000020004c04                PROVIDE (end, _ebss)
                0x0000000020004c04                PROVIDE (_end, _ebss)

._usrstack      0x0000000020004c04      0x800 load address 0x000000000801f85c
                0x0000000020004c04                . = ALIGN (0x4)
                0x0000000020004c04                _susrstack = .
                0x0000000020005404                . = (. + _Minimum_Stack_Size)
 *fill*         0x0000000020004c04      0x800 00
                0x0000000020005404                . = ALIGN (0x4)
                0x0000000020005404                _eusrstack = .

.b1text
 *(.b1text)
 *(.b1rodata)
 *(.b1rodata*)
                0x0000000020005404                __exidx_start = .

.ARM.exidx
 *(.ARM.exidx* .gnu.linkonce.armexidx.*)
                0x0000000020005404                __exidx_end = .

/DISCARD/
 libc.a(*)
 libm.a(*)
 libgcc.a(*)

.stab
 *(.stab)

.stabstr
 *(.stabstr)

.stab.excl
 *(.stab.excl)

.stab.exclstr
 *(.stab.exclstr)

.stab.index
 *(.stab.index)

.stab.indexstr
 *(.stab.indexstr)

.comment        0x0000000000000000       0x3c
 *(.comment)
 .comment       0x0000000000000000       0x3c /home/uav/USTUAV/paparazzi/var/MYAC/ap/mcu.o
                                         0x3d (size before relaxing)
 .comment       0x0000000000000000       0x3d /home/uav/USTUAV/paparazzi/var/MYAC/ap/arch/stm32/mcu_arch.o
 .comment       0x0000000000000000       0x3d /home/uav/USTUAV/paparazzi/var/MYAC/ap/arch/stm32/led_hw.o
 .comment       0x0000000000000000       0x3d /home/uav/USTUAV/paparazzi/var/MYAC/ap/mcu_periph/sys_time.o
 .comment       0x0000000000000000       0x3d /home/uav/USTUAV/paparazzi/var/MYAC/ap/arch/stm32/mcu_periph/sys_time_arch.o
 .comment       0x0000000000000000       0x3d /home/uav/USTUAV/paparazzi/var/MYAC/ap/./inter_mcu.o
 .comment       0x0000000000000000       0x3d /home/uav/USTUAV/paparazzi/var/MYAC/ap/math/pprz_geodetic_int.o
 .comment       0x0000000000000000       0x3d /home/uav/USTUAV/paparazzi/var/MYAC/ap/math/pprz_geodetic_float.o
 .comment       0x0000000000000000       0x3d /home/uav/USTUAV/paparazzi/var/MYAC/ap/math/pprz_geodetic_double.o
 .comment       0x0000000000000000       0x3d /home/uav/USTUAV/paparazzi/var/MYAC/ap/math/pprz_trig_int.o
 .comment       0x0000000000000000       0x3d /home/uav/USTUAV/paparazzi/var/MYAC/ap/mcu_periph/i2c.o
 .comment       0x0000000000000000       0x3d /home/uav/USTUAV/paparazzi/var/MYAC/ap/arch/stm32/mcu_periph/i2c_arch.o
 .comment       0x0000000000000000       0x3d /home/uav/USTUAV/paparazzi/var/MYAC/ap/firmwares/fixedwing/main_fbw.o
 .comment       0x0000000000000000       0x3d /home/uav/USTUAV/paparazzi/var/MYAC/ap/subsystems/electrical.o
 .comment       0x0000000000000000       0x3d /home/uav/USTUAV/paparazzi/var/MYAC/ap/./commands.o
 .comment       0x0000000000000000       0x3d /home/uav/USTUAV/paparazzi/var/MYAC/ap/firmwares/fixedwing/fbw_downlink.o
 .comment       0x0000000000000000       0x3d /home/uav/USTUAV/paparazzi/var/MYAC/ap/firmwares/fixedwing/main_ap.o
 .comment       0x0000000000000000       0x3d /home/uav/USTUAV/paparazzi/var/MYAC/ap/./estimator.o
 .comment       0x0000000000000000       0x3d /home/uav/USTUAV/paparazzi/var/MYAC/ap/firmwares/fixedwing/ap_downlink.o
 .comment       0x0000000000000000       0x3d /home/uav/USTUAV/paparazzi/var/MYAC/ap/arch/stm32/stm32_exceptions.o
 .comment       0x0000000000000000       0x3d /home/uav/USTUAV/paparazzi/var/MYAC/ap/arch/stm32/stm32_vector_table.o
 .comment       0x0000000000000000       0x3d /home/uav/USTUAV/paparazzi/var/MYAC/ap/lisa/plug_sys.o
 .comment       0x0000000000000000       0x3d /home/uav/USTUAV/paparazzi/var/MYAC/ap/firmwares/fixedwing/main.o
 .comment       0x0000000000000000       0x3d /home/uav/USTUAV/paparazzi/var/MYAC/ap/mcu_periph/uart.o
 .comment       0x0000000000000000       0x3d /home/uav/USTUAV/paparazzi/var/MYAC/ap/arch/stm32/mcu_periph/uart_arch.o
 .comment       0x0000000000000000       0x3d /home/uav/USTUAV/paparazzi/var/MYAC/ap/subsystems/settings.o
 .comment       0x0000000000000000       0x3d /home/uav/USTUAV/paparazzi/var/MYAC/ap/arch/stm32/subsystems/settings_arch.o
 .comment       0x0000000000000000       0x3d /home/uav/USTUAV/paparazzi/var/MYAC/ap/arch/stm32/mcu_periph/adc_arch.o
 .comment       0x0000000000000000       0x3d /home/uav/USTUAV/paparazzi/var/MYAC/ap/arch/stm32/servos_direct_hw.o
 .comment       0x0000000000000000       0x3d /home/uav/USTUAV/paparazzi/var/MYAC/ap/actuators.o
 .comment       0x0000000000000000       0x3d /home/uav/USTUAV/paparazzi/var/MYAC/ap/firmwares/rotorcraft/actuators/arch/stm32/actuators_pwm_arch.o
 .comment       0x0000000000000000       0x3d /home/uav/USTUAV/paparazzi/var/MYAC/ap/subsystems/radio_control.o
 .comment       0x0000000000000000       0x3d /home/uav/USTUAV/paparazzi/var/MYAC/ap/subsystems/radio_control/spektrum.o
 .comment       0x0000000000000000       0x3d /home/uav/USTUAV/paparazzi/var/MYAC/ap/arch/stm32/subsystems/radio_control/spektrum_arch.o
 .comment       0x0000000000000000       0x3d /home/uav/USTUAV/paparazzi/var/MYAC/ap/subsystems/datalink/downlink.o
 .comment       0x0000000000000000       0x3d /home/uav/USTUAV/paparazzi/var/MYAC/ap/subsystems/datalink/pprz_transport.o
 .comment       0x0000000000000000       0x3d /home/uav/USTUAV/paparazzi/var/MYAC/ap/firmwares/fixedwing/datalink.o
 .comment       0x0000000000000000       0x3d /home/uav/USTUAV/paparazzi/var/MYAC/ap/firmwares/fixedwing/stabilization/stabilization_attitude.o
 .comment       0x0000000000000000       0x3d /home/uav/USTUAV/paparazzi/var/MYAC/ap/firmwares/fixedwing/guidance/guidance_v.o
 .comment       0x0000000000000000       0x3d /home/uav/USTUAV/paparazzi/var/MYAC/ap/subsystems/imu.o
 .comment       0x0000000000000000       0x3d /home/uav/USTUAV/paparazzi/var/MYAC/ap/subsystems/imu/imu_aspirin2.o
 .comment       0x0000000000000000       0x3d /home/uav/USTUAV/paparazzi/var/MYAC/ap/arch/stm32/mcu_periph/spi_arch.o
 .comment       0x0000000000000000       0x3d /home/uav/USTUAV/paparazzi/var/MYAC/ap/mcu_periph/spi.o
 .comment       0x0000000000000000       0x3d /home/uav/USTUAV/paparazzi/var/MYAC/ap/subsystems/ahrs.o
 .comment       0x0000000000000000       0x3d /home/uav/USTUAV/paparazzi/var/MYAC/ap/subsystems/ahrs/ahrs_aligner.o
 .comment       0x0000000000000000       0x3d /home/uav/USTUAV/paparazzi/var/MYAC/ap/subsystems/ahrs/ahrs_float_dcm.o
 .comment       0x0000000000000000       0x3d /home/uav/USTUAV/paparazzi/var/MYAC/ap/subsystems/gps/gps_ubx.o
 .comment       0x0000000000000000       0x3d /home/uav/USTUAV/paparazzi/var/MYAC/ap/subsystems/gps.o
 .comment       0x0000000000000000       0x3d /home/uav/USTUAV/paparazzi/var/MYAC/ap/subsystems/nav.o
 .comment       0x0000000000000000       0x3d /home/uav/USTUAV/paparazzi/var/MYAC/ap/subsystems/navigation/common_flight_plan.o
 .comment       0x0000000000000000       0x3d /home/uav/USTUAV/paparazzi/var/MYAC/ap/subsystems/navigation/traffic_info.o
 .comment       0x0000000000000000       0x3d /home/uav/USTUAV/paparazzi/var/MYAC/ap/subsystems/navigation/nav_survey_rectangle.o
 .comment       0x0000000000000000       0x3d /home/uav/USTUAV/paparazzi/var/MYAC/ap/subsystems/navigation/nav_line.o
 .comment       0x0000000000000000       0x3d /home/uav/USTUAV/paparazzi/var/MYAC/ap/modules/core/sys_mon.o
 .comment       0x0000000000000000       0x3d /opt/paparazzi/arm-multilib/lib/gcc/arm-none-eabi/4.6.2/../../../../arm-none-eabi/lib/thumb2/libc.a(lib_a-memcpy.o)
 .comment       0x0000000000000000       0x3d /opt/paparazzi/arm-multilib/lib/gcc/arm-none-eabi/4.6.2/../../../../arm-none-eabi/lib/thumb2/libm.a(lib_a-s_atan.o)
 .comment       0x0000000000000000       0x3d /opt/paparazzi/arm-multilib/lib/gcc/arm-none-eabi/4.6.2/../../../../arm-none-eabi/lib/thumb2/libm.a(lib_a-s_cos.o)
 .comment       0x0000000000000000       0x3d /opt/paparazzi/arm-multilib/lib/gcc/arm-none-eabi/4.6.2/../../../../arm-none-eabi/lib/thumb2/libm.a(lib_a-s_fabs.o)
 .comment       0x0000000000000000       0x3d /opt/paparazzi/arm-multilib/lib/gcc/arm-none-eabi/4.6.2/../../../../arm-none-eabi/lib/thumb2/libm.a(lib_a-s_rint.o)
 .comment       0x0000000000000000       0x3d /opt/paparazzi/arm-multilib/lib/gcc/arm-none-eabi/4.6.2/../../../../arm-none-eabi/lib/thumb2/libm.a(lib_a-s_sin.o)
 .comment       0x0000000000000000       0x3d /opt/paparazzi/arm-multilib/lib/gcc/arm-none-eabi/4.6.2/../../../../arm-none-eabi/lib/thumb2/libm.a(lib_a-s_tan.o)
 .comment       0x0000000000000000       0x3d /opt/paparazzi/arm-multilib/lib/gcc/arm-none-eabi/4.6.2/../../../../arm-none-eabi/lib/thumb2/libm.a(lib_a-sf_atan.o)
 .comment       0x0000000000000000       0x3d /opt/paparazzi/arm-multilib/lib/gcc/arm-none-eabi/4.6.2/../../../../arm-none-eabi/lib/thumb2/libm.a(lib_a-sf_cos.o)
 .comment       0x0000000000000000       0x3d /opt/paparazzi/arm-multilib/lib/gcc/arm-none-eabi/4.6.2/../../../../arm-none-eabi/lib/thumb2/libm.a(lib_a-sf_fabs.o)
 .comment       0x0000000000000000       0x3d /opt/paparazzi/arm-multilib/lib/gcc/arm-none-eabi/4.6.2/../../../../arm-none-eabi/lib/thumb2/libm.a(lib_a-sf_sin.o)
 .comment       0x0000000000000000       0x3d /opt/paparazzi/arm-multilib/lib/gcc/arm-none-eabi/4.6.2/../../../../arm-none-eabi/lib/thumb2/libm.a(lib_a-w_asin.o)
 .comment       0x0000000000000000       0x3d /opt/paparazzi/arm-multilib/lib/gcc/arm-none-eabi/4.6.2/../../../../arm-none-eabi/lib/thumb2/libm.a(lib_a-w_atan2.o)
 .comment       0x0000000000000000       0x3d /opt/paparazzi/arm-multilib/lib/gcc/arm-none-eabi/4.6.2/../../../../arm-none-eabi/lib/thumb2/libm.a(lib_a-w_cosh.o)
 .comment       0x0000000000000000       0x3d /opt/paparazzi/arm-multilib/lib/gcc/arm-none-eabi/4.6.2/../../../../arm-none-eabi/lib/thumb2/libm.a(lib_a-w_exp.o)
 .comment       0x0000000000000000       0x3d /opt/paparazzi/arm-multilib/lib/gcc/arm-none-eabi/4.6.2/../../../../arm-none-eabi/lib/thumb2/libm.a(lib_a-w_log.o)
 .comment       0x0000000000000000       0x3d /opt/paparazzi/arm-multilib/lib/gcc/arm-none-eabi/4.6.2/../../../../arm-none-eabi/lib/thumb2/libm.a(lib_a-w_pow.o)
 .comment       0x0000000000000000       0x3d /opt/paparazzi/arm-multilib/lib/gcc/arm-none-eabi/4.6.2/../../../../arm-none-eabi/lib/thumb2/libm.a(lib_a-w_sinh.o)
 .comment       0x0000000000000000       0x3d /opt/paparazzi/arm-multilib/lib/gcc/arm-none-eabi/4.6.2/../../../../arm-none-eabi/lib/thumb2/libm.a(lib_a-w_sqrt.o)
 .comment       0x0000000000000000       0x3d /opt/paparazzi/arm-multilib/lib/gcc/arm-none-eabi/4.6.2/../../../../arm-none-eabi/lib/thumb2/libm.a(lib_a-wf_asin.o)
 .comment       0x0000000000000000       0x3d /opt/paparazzi/arm-multilib/lib/gcc/arm-none-eabi/4.6.2/../../../../arm-none-eabi/lib/thumb2/libm.a(lib_a-wf_atan2.o)
 .comment       0x0000000000000000       0x3d /opt/paparazzi/arm-multilib/lib/gcc/arm-none-eabi/4.6.2/../../../../arm-none-eabi/lib/thumb2/libm.a(lib_a-wf_pow.o)
 .comment       0x0000000000000000       0x3d /opt/paparazzi/arm-multilib/lib/gcc/arm-none-eabi/4.6.2/../../../../arm-none-eabi/lib/thumb2/libm.a(lib_a-wf_sqrt.o)
 .comment       0x0000000000000000       0x3d /opt/paparazzi/arm-multilib/lib/gcc/arm-none-eabi/4.6.2/../../../../arm-none-eabi/lib/thumb2/libm.a(lib_a-e_asin.o)
 .comment       0x0000000000000000       0x3d /opt/paparazzi/arm-multilib/lib/gcc/arm-none-eabi/4.6.2/../../../../arm-none-eabi/lib/thumb2/libm.a(lib_a-e_atan2.o)
 .comment       0x0000000000000000       0x3d /opt/paparazzi/arm-multilib/lib/gcc/arm-none-eabi/4.6.2/../../../../arm-none-eabi/lib/thumb2/libm.a(lib_a-e_cosh.o)
 .comment       0x0000000000000000       0x3d /opt/paparazzi/arm-multilib/lib/gcc/arm-none-eabi/4.6.2/../../../../arm-none-eabi/lib/thumb2/libm.a(lib_a-e_exp.o)
 .comment       0x0000000000000000       0x3d /opt/paparazzi/arm-multilib/lib/gcc/arm-none-eabi/4.6.2/../../../../arm-none-eabi/lib/thumb2/libm.a(lib_a-e_log.o)
 .comment       0x0000000000000000       0x3d /opt/paparazzi/arm-multilib/lib/gcc/arm-none-eabi/4.6.2/../../../../arm-none-eabi/lib/thumb2/libm.a(lib_a-e_pow.o)
 .comment       0x0000000000000000       0x3d /opt/paparazzi/arm-multilib/lib/gcc/arm-none-eabi/4.6.2/../../../../arm-none-eabi/lib/thumb2/libm.a(lib_a-e_rem_pio2.o)
 .comment       0x0000000000000000       0x3d /opt/paparazzi/arm-multilib/lib/gcc/arm-none-eabi/4.6.2/../../../../arm-none-eabi/lib/thumb2/libm.a(lib_a-e_sinh.o)
 .comment       0x0000000000000000       0x3d /opt/paparazzi/arm-multilib/lib/gcc/arm-none-eabi/4.6.2/../../../../arm-none-eabi/lib/thumb2/libm.a(lib_a-e_sqrt.o)
 .comment       0x0000000000000000       0x3d /opt/paparazzi/arm-multilib/lib/gcc/arm-none-eabi/4.6.2/../../../../arm-none-eabi/lib/thumb2/libm.a(lib_a-ef_asin.o)
 .comment       0x0000000000000000       0x3d /opt/paparazzi/arm-multilib/lib/gcc/arm-none-eabi/4.6.2/../../../../arm-none-eabi/lib/thumb2/libm.a(lib_a-ef_atan2.o)
 .comment       0x0000000000000000       0x3d /opt/paparazzi/arm-multilib/lib/gcc/arm-none-eabi/4.6.2/../../../../arm-none-eabi/lib/thumb2/libm.a(lib_a-ef_pow.o)
 .comment       0x0000000000000000       0x3d /opt/paparazzi/arm-multilib/lib/gcc/arm-none-eabi/4.6.2/../../../../arm-none-eabi/lib/thumb2/libm.a(lib_a-ef_rem_pio2.o)
 .comment       0x0000000000000000       0x3d /opt/paparazzi/arm-multilib/lib/gcc/arm-none-eabi/4.6.2/../../../../arm-none-eabi/lib/thumb2/libm.a(lib_a-ef_sqrt.o)
 .comment       0x0000000000000000       0x3d /opt/paparazzi/arm-multilib/lib/gcc/arm-none-eabi/4.6.2/../../../../arm-none-eabi/lib/thumb2/libm.a(lib_a-k_cos.o)
 .comment       0x0000000000000000       0x3d /opt/paparazzi/arm-multilib/lib/gcc/arm-none-eabi/4.6.2/../../../../arm-none-eabi/lib/thumb2/libm.a(lib_a-k_rem_pio2.o)
 .comment       0x0000000000000000       0x3d /opt/paparazzi/arm-multilib/lib/gcc/arm-none-eabi/4.6.2/../../../../arm-none-eabi/lib/thumb2/libm.a(lib_a-k_sin.o)
 .comment       0x0000000000000000       0x3d /opt/paparazzi/arm-multilib/lib/gcc/arm-none-eabi/4.6.2/../../../../arm-none-eabi/lib/thumb2/libm.a(lib_a-k_tan.o)
 .comment       0x0000000000000000       0x3d /opt/paparazzi/arm-multilib/lib/gcc/arm-none-eabi/4.6.2/../../../../arm-none-eabi/lib/thumb2/libm.a(lib_a-kf_cos.o)
 .comment       0x0000000000000000       0x3d /opt/paparazzi/arm-multilib/lib/gcc/arm-none-eabi/4.6.2/../../../../arm-none-eabi/lib/thumb2/libm.a(lib_a-kf_rem_pio2.o)
 .comment       0x0000000000000000       0x3d /opt/paparazzi/arm-multilib/lib/gcc/arm-none-eabi/4.6.2/../../../../arm-none-eabi/lib/thumb2/libm.a(lib_a-kf_sin.o)
 .comment       0x0000000000000000       0x3d /opt/paparazzi/arm-multilib/lib/gcc/arm-none-eabi/4.6.2/../../../../arm-none-eabi/lib/thumb2/libm.a(lib_a-s_expm1.o)
 .comment       0x0000000000000000       0x3d /opt/paparazzi/arm-multilib/lib/gcc/arm-none-eabi/4.6.2/../../../../arm-none-eabi/lib/thumb2/libm.a(lib_a-s_finite.o)
 .comment       0x0000000000000000       0x3d /opt/paparazzi/arm-multilib/lib/gcc/arm-none-eabi/4.6.2/../../../../arm-none-eabi/lib/thumb2/libm.a(lib_a-s_floor.o)
 .comment       0x0000000000000000       0x3d /opt/paparazzi/arm-multilib/lib/gcc/arm-none-eabi/4.6.2/../../../../arm-none-eabi/lib/thumb2/libm.a(lib_a-s_fpclassify.o)
 .comment       0x0000000000000000       0x3d /opt/paparazzi/arm-multilib/lib/gcc/arm-none-eabi/4.6.2/../../../../arm-none-eabi/lib/thumb2/libm.a(lib_a-s_lib_ver.o)
 .comment       0x0000000000000000       0x3d /opt/paparazzi/arm-multilib/lib/gcc/arm-none-eabi/4.6.2/../../../../arm-none-eabi/lib/thumb2/libm.a(lib_a-s_matherr.o)
 .comment       0x0000000000000000       0x3d /opt/paparazzi/arm-multilib/lib/gcc/arm-none-eabi/4.6.2/../../../../arm-none-eabi/lib/thumb2/libm.a(lib_a-s_nan.o)
 .comment       0x0000000000000000       0x3d /opt/paparazzi/arm-multilib/lib/gcc/arm-none-eabi/4.6.2/../../../../arm-none-eabi/lib/thumb2/libm.a(lib_a-s_scalbn.o)
 .comment       0x0000000000000000       0x3d /opt/paparazzi/arm-multilib/lib/gcc/arm-none-eabi/4.6.2/../../../../arm-none-eabi/lib/thumb2/libm.a(lib_a-sf_finite.o)
 .comment       0x0000000000000000       0x3d /opt/paparazzi/arm-multilib/lib/gcc/arm-none-eabi/4.6.2/../../../../arm-none-eabi/lib/thumb2/libm.a(lib_a-sf_floor.o)
 .comment       0x0000000000000000       0x3d /opt/paparazzi/arm-multilib/lib/gcc/arm-none-eabi/4.6.2/../../../../arm-none-eabi/lib/thumb2/libm.a(lib_a-sf_fpclassify.o)
 .comment       0x0000000000000000       0x3d /opt/paparazzi/arm-multilib/lib/gcc/arm-none-eabi/4.6.2/../../../../arm-none-eabi/lib/thumb2/libm.a(lib_a-sf_nan.o)
 .comment       0x0000000000000000       0x3d /opt/paparazzi/arm-multilib/lib/gcc/arm-none-eabi/4.6.2/../../../../arm-none-eabi/lib/thumb2/libm.a(lib_a-sf_scalbn.o)
 .comment       0x0000000000000000       0x3d /opt/paparazzi/arm-multilib/lib/gcc/arm-none-eabi/4.6.2/../../../../arm-none-eabi/lib/thumb2/libm.a(lib_a-s_copysign.o)
 .comment       0x0000000000000000       0x3d /opt/paparazzi/arm-multilib/lib/gcc/arm-none-eabi/4.6.2/../../../../arm-none-eabi/lib/thumb2/libm.a(lib_a-sf_copysign.o)
 .comment       0x0000000000000000       0x3d /opt/paparazzi/arm-multilib/lib/gcc/arm-none-eabi/4.6.2/../../../../arm-none-eabi/lib/libstm32.a(stm32_adc.o)
 .comment       0x0000000000000000       0x3d /opt/paparazzi/arm-multilib/lib/gcc/arm-none-eabi/4.6.2/../../../../arm-none-eabi/lib/libstm32.a(stm32_tim.o)
 .comment       0x0000000000000000       0x3d /opt/paparazzi/arm-multilib/lib/gcc/arm-none-eabi/4.6.2/../../../../arm-none-eabi/lib/libstm32.a(stm32_dma.o)
 .comment       0x0000000000000000       0x3d /opt/paparazzi/arm-multilib/lib/gcc/arm-none-eabi/4.6.2/../../../../arm-none-eabi/lib/libstm32.a(stm32_gpio.o)
 .comment       0x0000000000000000       0x3d /opt/paparazzi/arm-multilib/lib/gcc/arm-none-eabi/4.6.2/../../../../arm-none-eabi/lib/libstm32.a(stm32_usart.o)
 .comment       0x0000000000000000       0x3d /opt/paparazzi/arm-multilib/lib/gcc/arm-none-eabi/4.6.2/../../../../arm-none-eabi/lib/libstm32.a(stm32_i2c.o)
 .comment       0x0000000000000000       0x3d /opt/paparazzi/arm-multilib/lib/gcc/arm-none-eabi/4.6.2/../../../../arm-none-eabi/lib/libstm32.a(stm32_spi.o)
 .comment       0x0000000000000000       0x3d /opt/paparazzi/arm-multilib/lib/gcc/arm-none-eabi/4.6.2/../../../../arm-none-eabi/lib/libstm32.a(stm32_rcc.o)
 .comment       0x0000000000000000       0x3d /opt/paparazzi/arm-multilib/lib/gcc/arm-none-eabi/4.6.2/../../../../arm-none-eabi/lib/libstm32.a(stm32_misc.o)
 .comment       0x0000000000000000       0x3d /opt/paparazzi/arm-multilib/lib/gcc/arm-none-eabi/4.6.2/../../../../arm-none-eabi/lib/libopencm3_stm32.a(rcc.o)
 .comment       0x0000000000000000       0x3d /opt/paparazzi/arm-multilib/lib/gcc/arm-none-eabi/4.6.2/../../../../arm-none-eabi/lib/libopencm3_stm32.a(usart.o)
 .comment       0x0000000000000000       0x3d /opt/paparazzi/arm-multilib/lib/gcc/arm-none-eabi/4.6.2/../../../../arm-none-eabi/lib/libopencm3_stm32.a(flash.o)
 .comment       0x0000000000000000       0x3d /opt/paparazzi/arm-multilib/lib/gcc/arm-none-eabi/4.6.2/../../../../arm-none-eabi/lib/thumb2/libc.a(lib_a-errno.o)
 .comment       0x0000000000000000       0x3d /opt/paparazzi/arm-multilib/lib/gcc/arm-none-eabi/4.6.2/../../../../arm-none-eabi/lib/thumb2/libc.a(lib_a-impure.o)

.ARM.attributes
                0x0000000000000000       0x31
 .ARM.attributes
                0x0000000000000000       0x31 /home/uav/USTUAV/paparazzi/var/MYAC/ap/mcu.o
 .ARM.attributes
                0x0000000000000031       0x31 /home/uav/USTUAV/paparazzi/var/MYAC/ap/arch/stm32/mcu_arch.o
 .ARM.attributes
                0x0000000000000062       0x31 /home/uav/USTUAV/paparazzi/var/MYAC/ap/arch/stm32/led_hw.o
 .ARM.attributes
                0x0000000000000093       0x31 /home/uav/USTUAV/paparazzi/var/MYAC/ap/mcu_periph/sys_time.o
 .ARM.attributes
                0x00000000000000c4       0x31 /home/uav/USTUAV/paparazzi/var/MYAC/ap/arch/stm32/mcu_periph/sys_time_arch.o
 .ARM.attributes
                0x00000000000000f5       0x31 /home/uav/USTUAV/paparazzi/var/MYAC/ap/./inter_mcu.o
 .ARM.attributes
                0x0000000000000126       0x31 /home/uav/USTUAV/paparazzi/var/MYAC/ap/math/pprz_geodetic_int.o
 .ARM.attributes
                0x0000000000000157       0x31 /home/uav/USTUAV/paparazzi/var/MYAC/ap/math/pprz_geodetic_float.o
 .ARM.attributes
                0x0000000000000188       0x31 /home/uav/USTUAV/paparazzi/var/MYAC/ap/math/pprz_geodetic_double.o
 .ARM.attributes
                0x00000000000001b9       0x31 /home/uav/USTUAV/paparazzi/var/MYAC/ap/math/pprz_trig_int.o
 .ARM.attributes
                0x00000000000001ea       0x31 /home/uav/USTUAV/paparazzi/var/MYAC/ap/mcu_periph/i2c.o
 .ARM.attributes
                0x000000000000021b       0x31 /home/uav/USTUAV/paparazzi/var/MYAC/ap/arch/stm32/mcu_periph/i2c_arch.o
 .ARM.attributes
                0x000000000000024c       0x31 /home/uav/USTUAV/paparazzi/var/MYAC/ap/firmwares/fixedwing/main_fbw.o
 .ARM.attributes
                0x000000000000027d       0x31 /home/uav/USTUAV/paparazzi/var/MYAC/ap/subsystems/electrical.o
 .ARM.attributes
                0x00000000000002ae       0x31 /home/uav/USTUAV/paparazzi/var/MYAC/ap/./commands.o
 .ARM.attributes
                0x00000000000002df       0x31 /home/uav/USTUAV/paparazzi/var/MYAC/ap/firmwares/fixedwing/fbw_downlink.o
 .ARM.attributes
                0x0000000000000310       0x31 /home/uav/USTUAV/paparazzi/var/MYAC/ap/firmwares/fixedwing/main_ap.o
 .ARM.attributes
                0x0000000000000341       0x31 /home/uav/USTUAV/paparazzi/var/MYAC/ap/./estimator.o
 .ARM.attributes
                0x0000000000000372       0x31 /home/uav/USTUAV/paparazzi/var/MYAC/ap/firmwares/fixedwing/ap_downlink.o
 .ARM.attributes
                0x00000000000003a3       0x31 /home/uav/USTUAV/paparazzi/var/MYAC/ap/arch/stm32/stm32_exceptions.o
 .ARM.attributes
                0x00000000000003d4       0x31 /home/uav/USTUAV/paparazzi/var/MYAC/ap/arch/stm32/stm32_vector_table.o
 .ARM.attributes
                0x0000000000000405       0x31 /home/uav/USTUAV/paparazzi/var/MYAC/ap/lisa/plug_sys.o
 .ARM.attributes
                0x0000000000000436       0x31 /home/uav/USTUAV/paparazzi/var/MYAC/ap/firmwares/fixedwing/main.o
 .ARM.attributes
                0x0000000000000467       0x31 /home/uav/USTUAV/paparazzi/var/MYAC/ap/mcu_periph/uart.o
 .ARM.attributes
                0x0000000000000498       0x31 /home/uav/USTUAV/paparazzi/var/MYAC/ap/arch/stm32/mcu_periph/uart_arch.o
 .ARM.attributes
                0x00000000000004c9       0x31 /home/uav/USTUAV/paparazzi/var/MYAC/ap/subsystems/settings.o
 .ARM.attributes
                0x00000000000004fa       0x31 /home/uav/USTUAV/paparazzi/var/MYAC/ap/arch/stm32/subsystems/settings_arch.o
 .ARM.attributes
                0x000000000000052b       0x31 /home/uav/USTUAV/paparazzi/var/MYAC/ap/arch/stm32/mcu_periph/adc_arch.o
 .ARM.attributes
                0x000000000000055c       0x31 /home/uav/USTUAV/paparazzi/var/MYAC/ap/arch/stm32/servos_direct_hw.o
 .ARM.attributes
                0x000000000000058d       0x31 /home/uav/USTUAV/paparazzi/var/MYAC/ap/actuators.o
 .ARM.attributes
                0x00000000000005be       0x31 /home/uav/USTUAV/paparazzi/var/MYAC/ap/firmwares/rotorcraft/actuators/arch/stm32/actuators_pwm_arch.o
 .ARM.attributes
                0x00000000000005ef       0x31 /home/uav/USTUAV/paparazzi/var/MYAC/ap/subsystems/radio_control.o
 .ARM.attributes
                0x0000000000000620       0x31 /home/uav/USTUAV/paparazzi/var/MYAC/ap/subsystems/radio_control/spektrum.o
 .ARM.attributes
                0x0000000000000651       0x31 /home/uav/USTUAV/paparazzi/var/MYAC/ap/arch/stm32/subsystems/radio_control/spektrum_arch.o
 .ARM.attributes
                0x0000000000000682       0x31 /home/uav/USTUAV/paparazzi/var/MYAC/ap/subsystems/datalink/downlink.o
 .ARM.attributes
                0x00000000000006b3       0x31 /home/uav/USTUAV/paparazzi/var/MYAC/ap/subsystems/datalink/pprz_transport.o
 .ARM.attributes
                0x00000000000006e4       0x31 /home/uav/USTUAV/paparazzi/var/MYAC/ap/firmwares/fixedwing/datalink.o
 .ARM.attributes
                0x0000000000000715       0x31 /home/uav/USTUAV/paparazzi/var/MYAC/ap/firmwares/fixedwing/stabilization/stabilization_attitude.o
 .ARM.attributes
                0x0000000000000746       0x31 /home/uav/USTUAV/paparazzi/var/MYAC/ap/firmwares/fixedwing/guidance/guidance_v.o
 .ARM.attributes
                0x0000000000000777       0x31 /home/uav/USTUAV/paparazzi/var/MYAC/ap/subsystems/imu.o
 .ARM.attributes
                0x00000000000007a8       0x31 /home/uav/USTUAV/paparazzi/var/MYAC/ap/subsystems/imu/imu_aspirin2.o
 .ARM.attributes
                0x00000000000007d9       0x31 /home/uav/USTUAV/paparazzi/var/MYAC/ap/arch/stm32/mcu_periph/spi_arch.o
 .ARM.attributes
                0x000000000000080a       0x31 /home/uav/USTUAV/paparazzi/var/MYAC/ap/mcu_periph/spi.o
 .ARM.attributes
                0x000000000000083b       0x31 /home/uav/USTUAV/paparazzi/var/MYAC/ap/subsystems/ahrs.o
 .ARM.attributes
                0x000000000000086c       0x31 /home/uav/USTUAV/paparazzi/var/MYAC/ap/subsystems/ahrs/ahrs_aligner.o
 .ARM.attributes
                0x000000000000089d       0x31 /home/uav/USTUAV/paparazzi/var/MYAC/ap/subsystems/ahrs/ahrs_float_dcm.o
 .ARM.attributes
                0x00000000000008ce       0x31 /home/uav/USTUAV/paparazzi/var/MYAC/ap/subsystems/gps/gps_ubx.o
 .ARM.attributes
                0x00000000000008ff       0x31 /home/uav/USTUAV/paparazzi/var/MYAC/ap/subsystems/gps.o
 .ARM.attributes
                0x0000000000000930       0x31 /home/uav/USTUAV/paparazzi/var/MYAC/ap/subsystems/nav.o
 .ARM.attributes
                0x0000000000000961       0x31 /home/uav/USTUAV/paparazzi/var/MYAC/ap/subsystems/navigation/common_flight_plan.o
 .ARM.attributes
                0x0000000000000992       0x31 /home/uav/USTUAV/paparazzi/var/MYAC/ap/subsystems/navigation/traffic_info.o
 .ARM.attributes
                0x00000000000009c3       0x31 /home/uav/USTUAV/paparazzi/var/MYAC/ap/subsystems/navigation/nav_survey_rectangle.o
 .ARM.attributes
                0x00000000000009f4       0x31 /home/uav/USTUAV/paparazzi/var/MYAC/ap/subsystems/navigation/nav_line.o
 .ARM.attributes
                0x0000000000000a25       0x31 /home/uav/USTUAV/paparazzi/var/MYAC/ap/modules/core/sys_mon.o
 .ARM.attributes
                0x0000000000000a56       0x2b /opt/paparazzi/arm-multilib/lib/gcc/arm-none-eabi/4.6.2/../../../../arm-none-eabi/lib/thumb2/libc.a(lib_a-memcpy.o)
 .ARM.attributes
                0x0000000000000a81       0x2b /opt/paparazzi/arm-multilib/lib/gcc/arm-none-eabi/4.6.2/../../../../arm-none-eabi/lib/thumb2/libm.a(lib_a-s_atan.o)
 .ARM.attributes
                0x0000000000000aac       0x2b /opt/paparazzi/arm-multilib/lib/gcc/arm-none-eabi/4.6.2/../../../../arm-none-eabi/lib/thumb2/libm.a(lib_a-s_cos.o)
 .ARM.attributes
                0x0000000000000ad7       0x2b /opt/paparazzi/arm-multilib/lib/gcc/arm-none-eabi/4.6.2/../../../../arm-none-eabi/lib/thumb2/libm.a(lib_a-s_fabs.o)
 .ARM.attributes
                0x0000000000000b02       0x2b /opt/paparazzi/arm-multilib/lib/gcc/arm-none-eabi/4.6.2/../../../../arm-none-eabi/lib/thumb2/libm.a(lib_a-s_rint.o)
 .ARM.attributes
                0x0000000000000b2d       0x2b /opt/paparazzi/arm-multilib/lib/gcc/arm-none-eabi/4.6.2/../../../../arm-none-eabi/lib/thumb2/libm.a(lib_a-s_sin.o)
 .ARM.attributes
                0x0000000000000b58       0x2b /opt/paparazzi/arm-multilib/lib/gcc/arm-none-eabi/4.6.2/../../../../arm-none-eabi/lib/thumb2/libm.a(lib_a-s_tan.o)
 .ARM.attributes
                0x0000000000000b83       0x2b /opt/paparazzi/arm-multilib/lib/gcc/arm-none-eabi/4.6.2/../../../../arm-none-eabi/lib/thumb2/libm.a(lib_a-sf_atan.o)
 .ARM.attributes
                0x0000000000000bae       0x2b /opt/paparazzi/arm-multilib/lib/gcc/arm-none-eabi/4.6.2/../../../../arm-none-eabi/lib/thumb2/libm.a(lib_a-sf_cos.o)
 .ARM.attributes
                0x0000000000000bd9       0x2b /opt/paparazzi/arm-multilib/lib/gcc/arm-none-eabi/4.6.2/../../../../arm-none-eabi/lib/thumb2/libm.a(lib_a-sf_fabs.o)
 .ARM.attributes
                0x0000000000000c04       0x2b /opt/paparazzi/arm-multilib/lib/gcc/arm-none-eabi/4.6.2/../../../../arm-none-eabi/lib/thumb2/libm.a(lib_a-sf_sin.o)
 .ARM.attributes
                0x0000000000000c2f       0x2b /opt/paparazzi/arm-multilib/lib/gcc/arm-none-eabi/4.6.2/../../../../arm-none-eabi/lib/thumb2/libm.a(lib_a-w_asin.o)
 .ARM.attributes
                0x0000000000000c5a       0x2b /opt/paparazzi/arm-multilib/lib/gcc/arm-none-eabi/4.6.2/../../../../arm-none-eabi/lib/thumb2/libm.a(lib_a-w_atan2.o)
 .ARM.attributes
                0x0000000000000c85       0x2b /opt/paparazzi/arm-multilib/lib/gcc/arm-none-eabi/4.6.2/../../../../arm-none-eabi/lib/thumb2/libm.a(lib_a-w_cosh.o)
 .ARM.attributes
                0x0000000000000cb0       0x2b /opt/paparazzi/arm-multilib/lib/gcc/arm-none-eabi/4.6.2/../../../../arm-none-eabi/lib/thumb2/libm.a(lib_a-w_exp.o)
 .ARM.attributes
                0x0000000000000cdb       0x2b /opt/paparazzi/arm-multilib/lib/gcc/arm-none-eabi/4.6.2/../../../../arm-none-eabi/lib/thumb2/libm.a(lib_a-w_log.o)
 .ARM.attributes
                0x0000000000000d06       0x2b /opt/paparazzi/arm-multilib/lib/gcc/arm-none-eabi/4.6.2/../../../../arm-none-eabi/lib/thumb2/libm.a(lib_a-w_pow.o)
 .ARM.attributes
                0x0000000000000d31       0x2b /opt/paparazzi/arm-multilib/lib/gcc/arm-none-eabi/4.6.2/../../../../arm-none-eabi/lib/thumb2/libm.a(lib_a-w_sinh.o)
 .ARM.attributes
                0x0000000000000d5c       0x2b /opt/paparazzi/arm-multilib/lib/gcc/arm-none-eabi/4.6.2/../../../../arm-none-eabi/lib/thumb2/libm.a(lib_a-w_sqrt.o)
 .ARM.attributes
                0x0000000000000d87       0x2b /opt/paparazzi/arm-multilib/lib/gcc/arm-none-eabi/4.6.2/../../../../arm-none-eabi/lib/thumb2/libm.a(lib_a-wf_asin.o)
 .ARM.attributes
                0x0000000000000db2       0x2b /opt/paparazzi/arm-multilib/lib/gcc/arm-none-eabi/4.6.2/../../../../arm-none-eabi/lib/thumb2/libm.a(lib_a-wf_atan2.o)
 .ARM.attributes
                0x0000000000000ddd       0x2b /opt/paparazzi/arm-multilib/lib/gcc/arm-none-eabi/4.6.2/../../../../arm-none-eabi/lib/thumb2/libm.a(lib_a-wf_pow.o)
 .ARM.attributes
                0x0000000000000e08       0x2b /opt/paparazzi/arm-multilib/lib/gcc/arm-none-eabi/4.6.2/../../../../arm-none-eabi/lib/thumb2/libm.a(lib_a-wf_sqrt.o)
 .ARM.attributes
                0x0000000000000e33       0x2b /opt/paparazzi/arm-multilib/lib/gcc/arm-none-eabi/4.6.2/../../../../arm-none-eabi/lib/thumb2/libm.a(lib_a-e_asin.o)
 .ARM.attributes
                0x0000000000000e5e       0x2b /opt/paparazzi/arm-multilib/lib/gcc/arm-none-eabi/4.6.2/../../../../arm-none-eabi/lib/thumb2/libm.a(lib_a-e_atan2.o)
 .ARM.attributes
                0x0000000000000e89       0x2b /opt/paparazzi/arm-multilib/lib/gcc/arm-none-eabi/4.6.2/../../../../arm-none-eabi/lib/thumb2/libm.a(lib_a-e_cosh.o)
 .ARM.attributes
                0x0000000000000eb4       0x2b /opt/paparazzi/arm-multilib/lib/gcc/arm-none-eabi/4.6.2/../../../../arm-none-eabi/lib/thumb2/libm.a(lib_a-e_exp.o)
 .ARM.attributes
                0x0000000000000edf       0x2b /opt/paparazzi/arm-multilib/lib/gcc/arm-none-eabi/4.6.2/../../../../arm-none-eabi/lib/thumb2/libm.a(lib_a-e_log.o)
 .ARM.attributes
                0x0000000000000f0a       0x2b /opt/paparazzi/arm-multilib/lib/gcc/arm-none-eabi/4.6.2/../../../../arm-none-eabi/lib/thumb2/libm.a(lib_a-e_pow.o)
 .ARM.attributes
                0x0000000000000f35       0x2b /opt/paparazzi/arm-multilib/lib/gcc/arm-none-eabi/4.6.2/../../../../arm-none-eabi/lib/thumb2/libm.a(lib_a-e_rem_pio2.o)
 .ARM.attributes
                0x0000000000000f60       0x2b /opt/paparazzi/arm-multilib/lib/gcc/arm-none-eabi/4.6.2/../../../../arm-none-eabi/lib/thumb2/libm.a(lib_a-e_sinh.o)
 .ARM.attributes
                0x0000000000000f8b       0x2b /opt/paparazzi/arm-multilib/lib/gcc/arm-none-eabi/4.6.2/../../../../arm-none-eabi/lib/thumb2/libm.a(lib_a-e_sqrt.o)
 .ARM.attributes
                0x0000000000000fb6       0x2b /opt/paparazzi/arm-multilib/lib/gcc/arm-none-eabi/4.6.2/../../../../arm-none-eabi/lib/thumb2/libm.a(lib_a-ef_asin.o)
 .ARM.attributes
                0x0000000000000fe1       0x2b /opt/paparazzi/arm-multilib/lib/gcc/arm-none-eabi/4.6.2/../../../../arm-none-eabi/lib/thumb2/libm.a(lib_a-ef_atan2.o)
 .ARM.attributes
                0x000000000000100c       0x2b /opt/paparazzi/arm-multilib/lib/gcc/arm-none-eabi/4.6.2/../../../../arm-none-eabi/lib/thumb2/libm.a(lib_a-ef_pow.o)
 .ARM.attributes
                0x0000000000001037       0x2b /opt/paparazzi/arm-multilib/lib/gcc/arm-none-eabi/4.6.2/../../../../arm-none-eabi/lib/thumb2/libm.a(lib_a-ef_rem_pio2.o)
 .ARM.attributes
                0x0000000000001062       0x2b /opt/paparazzi/arm-multilib/lib/gcc/arm-none-eabi/4.6.2/../../../../arm-none-eabi/lib/thumb2/libm.a(lib_a-ef_sqrt.o)
 .ARM.attributes
                0x000000000000108d       0x2b /opt/paparazzi/arm-multilib/lib/gcc/arm-none-eabi/4.6.2/../../../../arm-none-eabi/lib/thumb2/libm.a(lib_a-k_cos.o)
 .ARM.attributes
                0x00000000000010b8       0x2b /opt/paparazzi/arm-multilib/lib/gcc/arm-none-eabi/4.6.2/../../../../arm-none-eabi/lib/thumb2/libm.a(lib_a-k_rem_pio2.o)
 .ARM.attributes
                0x00000000000010e3       0x2b /opt/paparazzi/arm-multilib/lib/gcc/arm-none-eabi/4.6.2/../../../../arm-none-eabi/lib/thumb2/libm.a(lib_a-k_sin.o)
 .ARM.attributes
                0x000000000000110e       0x2b /opt/paparazzi/arm-multilib/lib/gcc/arm-none-eabi/4.6.2/../../../../arm-none-eabi/lib/thumb2/libm.a(lib_a-k_tan.o)
 .ARM.attributes
                0x0000000000001139       0x2b /opt/paparazzi/arm-multilib/lib/gcc/arm-none-eabi/4.6.2/../../../../arm-none-eabi/lib/thumb2/libm.a(lib_a-kf_cos.o)
 .ARM.attributes
                0x0000000000001164       0x2b /opt/paparazzi/arm-multilib/lib/gcc/arm-none-eabi/4.6.2/../../../../arm-none-eabi/lib/thumb2/libm.a(lib_a-kf_rem_pio2.o)
 .ARM.attributes
                0x000000000000118f       0x2b /opt/paparazzi/arm-multilib/lib/gcc/arm-none-eabi/4.6.2/../../../../arm-none-eabi/lib/thumb2/libm.a(lib_a-kf_sin.o)
 .ARM.attributes
                0x00000000000011ba       0x2b /opt/paparazzi/arm-multilib/lib/gcc/arm-none-eabi/4.6.2/../../../../arm-none-eabi/lib/thumb2/libm.a(lib_a-s_expm1.o)
 .ARM.attributes
                0x00000000000011e5       0x2b /opt/paparazzi/arm-multilib/lib/gcc/arm-none-eabi/4.6.2/../../../../arm-none-eabi/lib/thumb2/libm.a(lib_a-s_finite.o)
 .ARM.attributes
                0x0000000000001210       0x2b /opt/paparazzi/arm-multilib/lib/gcc/arm-none-eabi/4.6.2/../../../../arm-none-eabi/lib/thumb2/libm.a(lib_a-s_floor.o)
 .ARM.attributes
                0x000000000000123b       0x2b /opt/paparazzi/arm-multilib/lib/gcc/arm-none-eabi/4.6.2/../../../../arm-none-eabi/lib/thumb2/libm.a(lib_a-s_fpclassify.o)
 .ARM.attributes
                0x0000000000001266       0x2b /opt/paparazzi/arm-multilib/lib/gcc/arm-none-eabi/4.6.2/../../../../arm-none-eabi/lib/thumb2/libm.a(lib_a-s_lib_ver.o)
 .ARM.attributes
                0x0000000000001291       0x2b /opt/paparazzi/arm-multilib/lib/gcc/arm-none-eabi/4.6.2/../../../../arm-none-eabi/lib/thumb2/libm.a(lib_a-s_matherr.o)
 .ARM.attributes
                0x00000000000012bc       0x2b /opt/paparazzi/arm-multilib/lib/gcc/arm-none-eabi/4.6.2/../../../../arm-none-eabi/lib/thumb2/libm.a(lib_a-s_nan.o)
 .ARM.attributes
                0x00000000000012e7       0x2b /opt/paparazzi/arm-multilib/lib/gcc/arm-none-eabi/4.6.2/../../../../arm-none-eabi/lib/thumb2/libm.a(lib_a-s_scalbn.o)
 .ARM.attributes
                0x0000000000001312       0x2b /opt/paparazzi/arm-multilib/lib/gcc/arm-none-eabi/4.6.2/../../../../arm-none-eabi/lib/thumb2/libm.a(lib_a-sf_finite.o)
 .ARM.attributes
                0x000000000000133d       0x2b /opt/paparazzi/arm-multilib/lib/gcc/arm-none-eabi/4.6.2/../../../../arm-none-eabi/lib/thumb2/libm.a(lib_a-sf_floor.o)
 .ARM.attributes
                0x0000000000001368       0x2b /opt/paparazzi/arm-multilib/lib/gcc/arm-none-eabi/4.6.2/../../../../arm-none-eabi/lib/thumb2/libm.a(lib_a-sf_fpclassify.o)
 .ARM.attributes
                0x0000000000001393       0x2b /opt/paparazzi/arm-multilib/lib/gcc/arm-none-eabi/4.6.2/../../../../arm-none-eabi/lib/thumb2/libm.a(lib_a-sf_nan.o)
 .ARM.attributes
                0x00000000000013be       0x2b /opt/paparazzi/arm-multilib/lib/gcc/arm-none-eabi/4.6.2/../../../../arm-none-eabi/lib/thumb2/libm.a(lib_a-sf_scalbn.o)
 .ARM.attributes
                0x00000000000013e9       0x2b /opt/paparazzi/arm-multilib/lib/gcc/arm-none-eabi/4.6.2/../../../../arm-none-eabi/lib/thumb2/libm.a(lib_a-s_copysign.o)
 .ARM.attributes
                0x0000000000001414       0x2b /opt/paparazzi/arm-multilib/lib/gcc/arm-none-eabi/4.6.2/../../../../arm-none-eabi/lib/thumb2/libm.a(lib_a-sf_copysign.o)
 .ARM.attributes
                0x000000000000143f       0x1d /opt/paparazzi/arm-multilib/lib/gcc/arm-none-eabi/4.6.2/thumb2/libgcc.a(_divsi3.o)
 .ARM.attributes
                0x000000000000145c       0x1d /opt/paparazzi/arm-multilib/lib/gcc/arm-none-eabi/4.6.2/thumb2/libgcc.a(_dvmd_tls.o)
 .ARM.attributes
                0x0000000000001479       0x1d /opt/paparazzi/arm-multilib/lib/gcc/arm-none-eabi/4.6.2/thumb2/libgcc.a(_arm_addsubdf3.o)
 .ARM.attributes
                0x0000000000001496       0x1d /opt/paparazzi/arm-multilib/lib/gcc/arm-none-eabi/4.6.2/thumb2/libgcc.a(_arm_muldivdf3.o)
 .ARM.attributes
                0x00000000000014b3       0x1d /opt/paparazzi/arm-multilib/lib/gcc/arm-none-eabi/4.6.2/thumb2/libgcc.a(_arm_cmpdf2.o)
 .ARM.attributes
                0x00000000000014d0       0x1d /opt/paparazzi/arm-multilib/lib/gcc/arm-none-eabi/4.6.2/thumb2/libgcc.a(_arm_fixdfsi.o)
 .ARM.attributes
                0x00000000000014ed       0x1d /opt/paparazzi/arm-multilib/lib/gcc/arm-none-eabi/4.6.2/thumb2/libgcc.a(_arm_fixunsdfsi.o)
 .ARM.attributes
                0x000000000000150a       0x1d /opt/paparazzi/arm-multilib/lib/gcc/arm-none-eabi/4.6.2/thumb2/libgcc.a(_arm_truncdfsf2.o)
 .ARM.attributes
                0x0000000000001527       0x1d /opt/paparazzi/arm-multilib/lib/gcc/arm-none-eabi/4.6.2/thumb2/libgcc.a(_arm_addsubsf3.o)
 .ARM.attributes
                0x0000000000001544       0x1d /opt/paparazzi/arm-multilib/lib/gcc/arm-none-eabi/4.6.2/thumb2/libgcc.a(_arm_muldivsf3.o)
 .ARM.attributes
                0x0000000000001561       0x1d /opt/paparazzi/arm-multilib/lib/gcc/arm-none-eabi/4.6.2/thumb2/libgcc.a(_arm_cmpsf2.o)
 .ARM.attributes
                0x000000000000157e       0x1d /opt/paparazzi/arm-multilib/lib/gcc/arm-none-eabi/4.6.2/thumb2/libgcc.a(_arm_fixsfsi.o)
 .ARM.attributes
                0x000000000000159b       0x1d /opt/paparazzi/arm-multilib/lib/gcc/arm-none-eabi/4.6.2/thumb2/libgcc.a(_arm_fixunssfsi.o)
 .ARM.attributes
                0x00000000000015b8       0x31 /opt/paparazzi/arm-multilib/lib/gcc/arm-none-eabi/4.6.2/../../../../arm-none-eabi/lib/libstm32.a(stm32_adc.o)
 .ARM.attributes
                0x00000000000015e9       0x31 /opt/paparazzi/arm-multilib/lib/gcc/arm-none-eabi/4.6.2/../../../../arm-none-eabi/lib/libstm32.a(stm32_tim.o)
 .ARM.attributes
                0x000000000000161a       0x31 /opt/paparazzi/arm-multilib/lib/gcc/arm-none-eabi/4.6.2/../../../../arm-none-eabi/lib/libstm32.a(stm32_dma.o)
 .ARM.attributes
                0x000000000000164b       0x31 /opt/paparazzi/arm-multilib/lib/gcc/arm-none-eabi/4.6.2/../../../../arm-none-eabi/lib/libstm32.a(stm32_gpio.o)
 .ARM.attributes
                0x000000000000167c       0x31 /opt/paparazzi/arm-multilib/lib/gcc/arm-none-eabi/4.6.2/../../../../arm-none-eabi/lib/libstm32.a(stm32_usart.o)
 .ARM.attributes
                0x00000000000016ad       0x31 /opt/paparazzi/arm-multilib/lib/gcc/arm-none-eabi/4.6.2/../../../../arm-none-eabi/lib/libstm32.a(stm32_i2c.o)
 .ARM.attributes
                0x00000000000016de       0x31 /opt/paparazzi/arm-multilib/lib/gcc/arm-none-eabi/4.6.2/../../../../arm-none-eabi/lib/libstm32.a(stm32_spi.o)
 .ARM.attributes
                0x000000000000170f       0x31 /opt/paparazzi/arm-multilib/lib/gcc/arm-none-eabi/4.6.2/../../../../arm-none-eabi/lib/libstm32.a(stm32_rcc.o)
 .ARM.attributes
                0x0000000000001740       0x31 /opt/paparazzi/arm-multilib/lib/gcc/arm-none-eabi/4.6.2/../../../../arm-none-eabi/lib/libstm32.a(stm32_misc.o)
 .ARM.attributes
                0x0000000000001771       0x31 /opt/paparazzi/arm-multilib/lib/gcc/arm-none-eabi/4.6.2/../../../../arm-none-eabi/lib/libopencm3_stm32.a(rcc.o)
 .ARM.attributes
                0x00000000000017a2       0x31 /opt/paparazzi/arm-multilib/lib/gcc/arm-none-eabi/4.6.2/../../../../arm-none-eabi/lib/libopencm3_stm32.a(usart.o)
 .ARM.attributes
                0x00000000000017d3       0x31 /opt/paparazzi/arm-multilib/lib/gcc/arm-none-eabi/4.6.2/../../../../arm-none-eabi/lib/libopencm3_stm32.a(flash.o)
 .ARM.attributes
                0x0000000000001804       0x2b /opt/paparazzi/arm-multilib/lib/gcc/arm-none-eabi/4.6.2/../../../../arm-none-eabi/lib/thumb2/libc.a(lib_a-errno.o)
 .ARM.attributes
                0x000000000000182f       0x2b /opt/paparazzi/arm-multilib/lib/gcc/arm-none-eabi/4.6.2/../../../../arm-none-eabi/lib/thumb2/libc.a(lib_a-impure.o)

.debug
 *(.debug)

.line
 *(.line)

.debug_srcinfo
 *(.debug_srcinfo)

.debug_sfnames
 *(.debug_sfnames)

.debug_aranges  0x0000000000000000     0x1ee8
 *(.debug_aranges)
 .debug_aranges
                0x0000000000000000       0x20 /home/uav/USTUAV/paparazzi/var/MYAC/ap/mcu.o
 .debug_aranges
                0x0000000000000020       0x20 /home/uav/USTUAV/paparazzi/var/MYAC/ap/arch/stm32/mcu_arch.o
 .debug_aranges
                0x0000000000000040       0x38 /home/uav/USTUAV/paparazzi/var/MYAC/ap/mcu_periph/sys_time.o
 .debug_aranges
                0x0000000000000078       0x28 /home/uav/USTUAV/paparazzi/var/MYAC/ap/arch/stm32/mcu_periph/sys_time_arch.o
 .debug_aranges
                0x00000000000000a0       0x98 /home/uav/USTUAV/paparazzi/var/MYAC/ap/math/pprz_geodetic_int.o
 .debug_aranges
                0x0000000000000138       0xa0 /home/uav/USTUAV/paparazzi/var/MYAC/ap/math/pprz_geodetic_float.o
 .debug_aranges
                0x00000000000001d8       0x80 /home/uav/USTUAV/paparazzi/var/MYAC/ap/math/pprz_geodetic_double.o
 .debug_aranges
                0x0000000000000258       0x20 /home/uav/USTUAV/paparazzi/var/MYAC/ap/mcu_periph/i2c.o
 .debug_aranges
                0x0000000000000278       0x30 /home/uav/USTUAV/paparazzi/var/MYAC/ap/arch/stm32/mcu_periph/i2c_arch.o
 .debug_aranges
                0x00000000000002a8       0x48 /home/uav/USTUAV/paparazzi/var/MYAC/ap/firmwares/fixedwing/main_fbw.o
 .debug_aranges
                0x00000000000002f0       0x28 /home/uav/USTUAV/paparazzi/var/MYAC/ap/subsystems/electrical.o
 .debug_aranges
                0x0000000000000318       0x58 /home/uav/USTUAV/paparazzi/var/MYAC/ap/firmwares/fixedwing/main_ap.o
 .debug_aranges
                0x0000000000000370       0x40 /home/uav/USTUAV/paparazzi/var/MYAC/ap/./estimator.o
 .debug_aranges
                0x00000000000003b0       0x40 /home/uav/USTUAV/paparazzi/var/MYAC/ap/arch/stm32/stm32_exceptions.o
 .debug_aranges
                0x00000000000003f0       0x38 /home/uav/USTUAV/paparazzi/var/MYAC/ap/arch/stm32/stm32_vector_table.o
 .debug_aranges
                0x0000000000000428       0x58 /home/uav/USTUAV/paparazzi/var/MYAC/ap/lisa/plug_sys.o
 .debug_aranges
                0x0000000000000480       0x20 /home/uav/USTUAV/paparazzi/var/MYAC/ap/firmwares/fixedwing/main.o
 .debug_aranges
                0x00000000000004a0       0x28 /home/uav/USTUAV/paparazzi/var/MYAC/ap/mcu_periph/uart.o
 .debug_aranges
                0x00000000000004c8       0x50 /home/uav/USTUAV/paparazzi/var/MYAC/ap/arch/stm32/mcu_periph/uart_arch.o
 .debug_aranges
                0x0000000000000518       0x28 /home/uav/USTUAV/paparazzi/var/MYAC/ap/subsystems/settings.o
 .debug_aranges
                0x0000000000000540       0x38 /home/uav/USTUAV/paparazzi/var/MYAC/ap/arch/stm32/subsystems/settings_arch.o
 .debug_aranges
                0x0000000000000578       0x30 /home/uav/USTUAV/paparazzi/var/MYAC/ap/arch/stm32/mcu_periph/adc_arch.o
 .debug_aranges
                0x00000000000005a8       0x20 /home/uav/USTUAV/paparazzi/var/MYAC/ap/arch/stm32/servos_direct_hw.o
 .debug_aranges
                0x00000000000005c8       0x28 /home/uav/USTUAV/paparazzi/var/MYAC/ap/firmwares/rotorcraft/actuators/arch/stm32/actuators_pwm_arch.o
 .debug_aranges
                0x00000000000005f0       0x60 /home/uav/USTUAV/paparazzi/var/MYAC/ap/arch/stm32/subsystems/radio_control/spektrum_arch.o
 .debug_aranges
                0x0000000000000650       0x20 /home/uav/USTUAV/paparazzi/var/MYAC/ap/firmwares/fixedwing/datalink.o
 .debug_aranges
                0x0000000000000670       0x30 /home/uav/USTUAV/paparazzi/var/MYAC/ap/firmwares/fixedwing/stabilization/stabilization_attitude.o
 .debug_aranges
                0x00000000000006a0       0x38 /home/uav/USTUAV/paparazzi/var/MYAC/ap/firmwares/fixedwing/guidance/guidance_v.o
 .debug_aranges
                0x00000000000006d8       0x28 /home/uav/USTUAV/paparazzi/var/MYAC/ap/subsystems/imu.o
 .debug_aranges
                0x0000000000000700       0x38 /home/uav/USTUAV/paparazzi/var/MYAC/ap/subsystems/imu/imu_aspirin2.o
 .debug_aranges
                0x0000000000000738       0x40 /home/uav/USTUAV/paparazzi/var/MYAC/ap/arch/stm32/mcu_periph/spi_arch.o
 .debug_aranges
                0x0000000000000778       0x28 /home/uav/USTUAV/paparazzi/var/MYAC/ap/subsystems/ahrs/ahrs_aligner.o
 .debug_aranges
                0x00000000000007a0       0x90 /home/uav/USTUAV/paparazzi/var/MYAC/ap/subsystems/ahrs/ahrs_float_dcm.o
 .debug_aranges
                0x0000000000000830       0x58 /home/uav/USTUAV/paparazzi/var/MYAC/ap/subsystems/gps/gps_ubx.o
 .debug_aranges
                0x0000000000000888       0x20 /home/uav/USTUAV/paparazzi/var/MYAC/ap/subsystems/gps.o
 .debug_aranges
                0x00000000000008a8       0xb0 /home/uav/USTUAV/paparazzi/var/MYAC/ap/subsystems/nav.o
 .debug_aranges
                0x0000000000000958       0x28 /home/uav/USTUAV/paparazzi/var/MYAC/ap/subsystems/navigation/common_flight_plan.o
 .debug_aranges
                0x0000000000000980       0x28 /home/uav/USTUAV/paparazzi/var/MYAC/ap/subsystems/navigation/traffic_info.o
 .debug_aranges
                0x00000000000009a8       0x28 /home/uav/USTUAV/paparazzi/var/MYAC/ap/subsystems/navigation/nav_survey_rectangle.o
 .debug_aranges
                0x00000000000009d0       0x28 /home/uav/USTUAV/paparazzi/var/MYAC/ap/subsystems/navigation/nav_line.o
 .debug_aranges
                0x00000000000009f8       0x38 /home/uav/USTUAV/paparazzi/var/MYAC/ap/modules/core/sys_mon.o
 .debug_aranges
                0x0000000000000a30       0x20 /opt/paparazzi/arm-multilib/lib/gcc/arm-none-eabi/4.6.2/../../../../arm-none-eabi/lib/thumb2/libc.a(lib_a-memcpy.o)
 .debug_aranges
                0x0000000000000a50       0x20 /opt/paparazzi/arm-multilib/lib/gcc/arm-none-eabi/4.6.2/../../../../arm-none-eabi/lib/thumb2/libm.a(lib_a-s_atan.o)
 .debug_aranges
                0x0000000000000a70       0x20 /opt/paparazzi/arm-multilib/lib/gcc/arm-none-eabi/4.6.2/../../../../arm-none-eabi/lib/thumb2/libm.a(lib_a-s_cos.o)
 .debug_aranges
                0x0000000000000a90       0x20 /opt/paparazzi/arm-multilib/lib/gcc/arm-none-eabi/4.6.2/../../../../arm-none-eabi/lib/thumb2/libm.a(lib_a-s_fabs.o)
 .debug_aranges
                0x0000000000000ab0       0x20 /opt/paparazzi/arm-multilib/lib/gcc/arm-none-eabi/4.6.2/../../../../arm-none-eabi/lib/thumb2/libm.a(lib_a-s_rint.o)
 .debug_aranges
                0x0000000000000ad0       0x20 /opt/paparazzi/arm-multilib/lib/gcc/arm-none-eabi/4.6.2/../../../../arm-none-eabi/lib/thumb2/libm.a(lib_a-s_sin.o)
 .debug_aranges
                0x0000000000000af0       0x20 /opt/paparazzi/arm-multilib/lib/gcc/arm-none-eabi/4.6.2/../../../../arm-none-eabi/lib/thumb2/libm.a(lib_a-s_tan.o)
 .debug_aranges
                0x0000000000000b10       0x20 /opt/paparazzi/arm-multilib/lib/gcc/arm-none-eabi/4.6.2/../../../../arm-none-eabi/lib/thumb2/libm.a(lib_a-sf_atan.o)
 .debug_aranges
                0x0000000000000b30       0x20 /opt/paparazzi/arm-multilib/lib/gcc/arm-none-eabi/4.6.2/../../../../arm-none-eabi/lib/thumb2/libm.a(lib_a-sf_cos.o)
 .debug_aranges
                0x0000000000000b50       0x20 /opt/paparazzi/arm-multilib/lib/gcc/arm-none-eabi/4.6.2/../../../../arm-none-eabi/lib/thumb2/libm.a(lib_a-sf_fabs.o)
 .debug_aranges
                0x0000000000000b70       0x20 /opt/paparazzi/arm-multilib/lib/gcc/arm-none-eabi/4.6.2/../../../../arm-none-eabi/lib/thumb2/libm.a(lib_a-sf_sin.o)
 .debug_aranges
                0x0000000000000b90       0x20 /opt/paparazzi/arm-multilib/lib/gcc/arm-none-eabi/4.6.2/../../../../arm-none-eabi/lib/thumb2/libm.a(lib_a-w_asin.o)
 .debug_aranges
                0x0000000000000bb0       0x20 /opt/paparazzi/arm-multilib/lib/gcc/arm-none-eabi/4.6.2/../../../../arm-none-eabi/lib/thumb2/libm.a(lib_a-w_atan2.o)
 .debug_aranges
                0x0000000000000bd0       0x20 /opt/paparazzi/arm-multilib/lib/gcc/arm-none-eabi/4.6.2/../../../../arm-none-eabi/lib/thumb2/libm.a(lib_a-w_cosh.o)
 .debug_aranges
                0x0000000000000bf0       0x20 /opt/paparazzi/arm-multilib/lib/gcc/arm-none-eabi/4.6.2/../../../../arm-none-eabi/lib/thumb2/libm.a(lib_a-w_exp.o)
 .debug_aranges
                0x0000000000000c10       0x20 /opt/paparazzi/arm-multilib/lib/gcc/arm-none-eabi/4.6.2/../../../../arm-none-eabi/lib/thumb2/libm.a(lib_a-w_log.o)
 .debug_aranges
                0x0000000000000c30       0x20 /opt/paparazzi/arm-multilib/lib/gcc/arm-none-eabi/4.6.2/../../../../arm-none-eabi/lib/thumb2/libm.a(lib_a-w_pow.o)
 .debug_aranges
                0x0000000000000c50       0x20 /opt/paparazzi/arm-multilib/lib/gcc/arm-none-eabi/4.6.2/../../../../arm-none-eabi/lib/thumb2/libm.a(lib_a-w_sinh.o)
 .debug_aranges
                0x0000000000000c70       0x20 /opt/paparazzi/arm-multilib/lib/gcc/arm-none-eabi/4.6.2/../../../../arm-none-eabi/lib/thumb2/libm.a(lib_a-w_sqrt.o)
 .debug_aranges
                0x0000000000000c90       0x20 /opt/paparazzi/arm-multilib/lib/gcc/arm-none-eabi/4.6.2/../../../../arm-none-eabi/lib/thumb2/libm.a(lib_a-wf_asin.o)
 .debug_aranges
                0x0000000000000cb0       0x20 /opt/paparazzi/arm-multilib/lib/gcc/arm-none-eabi/4.6.2/../../../../arm-none-eabi/lib/thumb2/libm.a(lib_a-wf_atan2.o)
 .debug_aranges
                0x0000000000000cd0       0x20 /opt/paparazzi/arm-multilib/lib/gcc/arm-none-eabi/4.6.2/../../../../arm-none-eabi/lib/thumb2/libm.a(lib_a-wf_pow.o)
 .debug_aranges
                0x0000000000000cf0       0x20 /opt/paparazzi/arm-multilib/lib/gcc/arm-none-eabi/4.6.2/../../../../arm-none-eabi/lib/thumb2/libm.a(lib_a-wf_sqrt.o)
 .debug_aranges
                0x0000000000000d10       0x20 /opt/paparazzi/arm-multilib/lib/gcc/arm-none-eabi/4.6.2/../../../../arm-none-eabi/lib/thumb2/libm.a(lib_a-e_asin.o)
 .debug_aranges
                0x0000000000000d30       0x20 /opt/paparazzi/arm-multilib/lib/gcc/arm-none-eabi/4.6.2/../../../../arm-none-eabi/lib/thumb2/libm.a(lib_a-e_atan2.o)
 .debug_aranges
                0x0000000000000d50       0x20 /opt/paparazzi/arm-multilib/lib/gcc/arm-none-eabi/4.6.2/../../../../arm-none-eabi/lib/thumb2/libm.a(lib_a-e_cosh.o)
 .debug_aranges
                0x0000000000000d70       0x20 /opt/paparazzi/arm-multilib/lib/gcc/arm-none-eabi/4.6.2/../../../../arm-none-eabi/lib/thumb2/libm.a(lib_a-e_exp.o)
 .debug_aranges
                0x0000000000000d90       0x20 /opt/paparazzi/arm-multilib/lib/gcc/arm-none-eabi/4.6.2/../../../../arm-none-eabi/lib/thumb2/libm.a(lib_a-e_log.o)
 .debug_aranges
                0x0000000000000db0       0x20 /opt/paparazzi/arm-multilib/lib/gcc/arm-none-eabi/4.6.2/../../../../arm-none-eabi/lib/thumb2/libm.a(lib_a-e_pow.o)
 .debug_aranges
                0x0000000000000dd0       0x20 /opt/paparazzi/arm-multilib/lib/gcc/arm-none-eabi/4.6.2/../../../../arm-none-eabi/lib/thumb2/libm.a(lib_a-e_rem_pio2.o)
 .debug_aranges
                0x0000000000000df0       0x20 /opt/paparazzi/arm-multilib/lib/gcc/arm-none-eabi/4.6.2/../../../../arm-none-eabi/lib/thumb2/libm.a(lib_a-e_sinh.o)
 .debug_aranges
                0x0000000000000e10       0x20 /opt/paparazzi/arm-multilib/lib/gcc/arm-none-eabi/4.6.2/../../../../arm-none-eabi/lib/thumb2/libm.a(lib_a-e_sqrt.o)
 .debug_aranges
                0x0000000000000e30       0x20 /opt/paparazzi/arm-multilib/lib/gcc/arm-none-eabi/4.6.2/../../../../arm-none-eabi/lib/thumb2/libm.a(lib_a-ef_asin.o)
 .debug_aranges
                0x0000000000000e50       0x20 /opt/paparazzi/arm-multilib/lib/gcc/arm-none-eabi/4.6.2/../../../../arm-none-eabi/lib/thumb2/libm.a(lib_a-ef_atan2.o)
 .debug_aranges
                0x0000000000000e70       0x20 /opt/paparazzi/arm-multilib/lib/gcc/arm-none-eabi/4.6.2/../../../../arm-none-eabi/lib/thumb2/libm.a(lib_a-ef_pow.o)
 .debug_aranges
                0x0000000000000e90       0x20 /opt/paparazzi/arm-multilib/lib/gcc/arm-none-eabi/4.6.2/../../../../arm-none-eabi/lib/thumb2/libm.a(lib_a-ef_rem_pio2.o)
 .debug_aranges
                0x0000000000000eb0       0x20 /opt/paparazzi/arm-multilib/lib/gcc/arm-none-eabi/4.6.2/../../../../arm-none-eabi/lib/thumb2/libm.a(lib_a-ef_sqrt.o)
 .debug_aranges
                0x0000000000000ed0       0x20 /opt/paparazzi/arm-multilib/lib/gcc/arm-none-eabi/4.6.2/../../../../arm-none-eabi/lib/thumb2/libm.a(lib_a-k_cos.o)
 .debug_aranges
                0x0000000000000ef0       0x20 /opt/paparazzi/arm-multilib/lib/gcc/arm-none-eabi/4.6.2/../../../../arm-none-eabi/lib/thumb2/libm.a(lib_a-k_rem_pio2.o)
 .debug_aranges
                0x0000000000000f10       0x20 /opt/paparazzi/arm-multilib/lib/gcc/arm-none-eabi/4.6.2/../../../../arm-none-eabi/lib/thumb2/libm.a(lib_a-k_sin.o)
 .debug_aranges
                0x0000000000000f30       0x20 /opt/paparazzi/arm-multilib/lib/gcc/arm-none-eabi/4.6.2/../../../../arm-none-eabi/lib/thumb2/libm.a(lib_a-k_tan.o)
 .debug_aranges
                0x0000000000000f50       0x20 /opt/paparazzi/arm-multilib/lib/gcc/arm-none-eabi/4.6.2/../../../../arm-none-eabi/lib/thumb2/libm.a(lib_a-kf_cos.o)
 .debug_aranges
                0x0000000000000f70       0x20 /opt/paparazzi/arm-multilib/lib/gcc/arm-none-eabi/4.6.2/../../../../arm-none-eabi/lib/thumb2/libm.a(lib_a-kf_rem_pio2.o)
 .debug_aranges
                0x0000000000000f90       0x20 /opt/paparazzi/arm-multilib/lib/gcc/arm-none-eabi/4.6.2/../../../../arm-none-eabi/lib/thumb2/libm.a(lib_a-kf_sin.o)
 .debug_aranges
                0x0000000000000fb0       0x20 /opt/paparazzi/arm-multilib/lib/gcc/arm-none-eabi/4.6.2/../../../../arm-none-eabi/lib/thumb2/libm.a(lib_a-s_expm1.o)
 .debug_aranges
                0x0000000000000fd0       0x20 /opt/paparazzi/arm-multilib/lib/gcc/arm-none-eabi/4.6.2/../../../../arm-none-eabi/lib/thumb2/libm.a(lib_a-s_finite.o)
 .debug_aranges
                0x0000000000000ff0       0x20 /opt/paparazzi/arm-multilib/lib/gcc/arm-none-eabi/4.6.2/../../../../arm-none-eabi/lib/thumb2/libm.a(lib_a-s_floor.o)
 .debug_aranges
                0x0000000000001010       0x20 /opt/paparazzi/arm-multilib/lib/gcc/arm-none-eabi/4.6.2/../../../../arm-none-eabi/lib/thumb2/libm.a(lib_a-s_fpclassify.o)
 .debug_aranges
                0x0000000000001030       0x20 /opt/paparazzi/arm-multilib/lib/gcc/arm-none-eabi/4.6.2/../../../../arm-none-eabi/lib/thumb2/libm.a(lib_a-s_matherr.o)
 .debug_aranges
                0x0000000000001050       0x20 /opt/paparazzi/arm-multilib/lib/gcc/arm-none-eabi/4.6.2/../../../../arm-none-eabi/lib/thumb2/libm.a(lib_a-s_nan.o)
 .debug_aranges
                0x0000000000001070       0x20 /opt/paparazzi/arm-multilib/lib/gcc/arm-none-eabi/4.6.2/../../../../arm-none-eabi/lib/thumb2/libm.a(lib_a-s_scalbn.o)
 .debug_aranges
                0x0000000000001090       0x20 /opt/paparazzi/arm-multilib/lib/gcc/arm-none-eabi/4.6.2/../../../../arm-none-eabi/lib/thumb2/libm.a(lib_a-sf_finite.o)
 .debug_aranges
                0x00000000000010b0       0x20 /opt/paparazzi/arm-multilib/lib/gcc/arm-none-eabi/4.6.2/../../../../arm-none-eabi/lib/thumb2/libm.a(lib_a-sf_floor.o)
 .debug_aranges
                0x00000000000010d0       0x20 /opt/paparazzi/arm-multilib/lib/gcc/arm-none-eabi/4.6.2/../../../../arm-none-eabi/lib/thumb2/libm.a(lib_a-sf_fpclassify.o)
 .debug_aranges
                0x00000000000010f0       0x20 /opt/paparazzi/arm-multilib/lib/gcc/arm-none-eabi/4.6.2/../../../../arm-none-eabi/lib/thumb2/libm.a(lib_a-sf_nan.o)
 .debug_aranges
                0x0000000000001110       0x20 /opt/paparazzi/arm-multilib/lib/gcc/arm-none-eabi/4.6.2/../../../../arm-none-eabi/lib/thumb2/libm.a(lib_a-sf_scalbn.o)
 .debug_aranges
                0x0000000000001130       0x20 /opt/paparazzi/arm-multilib/lib/gcc/arm-none-eabi/4.6.2/../../../../arm-none-eabi/lib/thumb2/libm.a(lib_a-s_copysign.o)
 .debug_aranges
                0x0000000000001150       0x20 /opt/paparazzi/arm-multilib/lib/gcc/arm-none-eabi/4.6.2/../../../../arm-none-eabi/lib/thumb2/libm.a(lib_a-sf_copysign.o)
 .debug_aranges
                0x0000000000001170       0x20 /opt/paparazzi/arm-multilib/lib/gcc/arm-none-eabi/4.6.2/thumb2/libgcc.a(_divsi3.o)
 .debug_aranges
                0x0000000000001190       0x20 /opt/paparazzi/arm-multilib/lib/gcc/arm-none-eabi/4.6.2/thumb2/libgcc.a(_dvmd_tls.o)
 .debug_aranges
                0x00000000000011b0       0x20 /opt/paparazzi/arm-multilib/lib/gcc/arm-none-eabi/4.6.2/thumb2/libgcc.a(_arm_addsubdf3.o)
 .debug_aranges
                0x00000000000011d0       0x20 /opt/paparazzi/arm-multilib/lib/gcc/arm-none-eabi/4.6.2/thumb2/libgcc.a(_arm_muldivdf3.o)
 .debug_aranges
                0x00000000000011f0       0x20 /opt/paparazzi/arm-multilib/lib/gcc/arm-none-eabi/4.6.2/thumb2/libgcc.a(_arm_cmpdf2.o)
 .debug_aranges
                0x0000000000001210       0x20 /opt/paparazzi/arm-multilib/lib/gcc/arm-none-eabi/4.6.2/thumb2/libgcc.a(_arm_fixdfsi.o)
 .debug_aranges
                0x0000000000001230       0x20 /opt/paparazzi/arm-multilib/lib/gcc/arm-none-eabi/4.6.2/thumb2/libgcc.a(_arm_fixunsdfsi.o)
 .debug_aranges
                0x0000000000001250       0x20 /opt/paparazzi/arm-multilib/lib/gcc/arm-none-eabi/4.6.2/thumb2/libgcc.a(_arm_truncdfsf2.o)
 .debug_aranges
                0x0000000000001270       0x20 /opt/paparazzi/arm-multilib/lib/gcc/arm-none-eabi/4.6.2/thumb2/libgcc.a(_arm_addsubsf3.o)
 .debug_aranges
                0x0000000000001290       0x20 /opt/paparazzi/arm-multilib/lib/gcc/arm-none-eabi/4.6.2/thumb2/libgcc.a(_arm_muldivsf3.o)
 .debug_aranges
                0x00000000000012b0       0x20 /opt/paparazzi/arm-multilib/lib/gcc/arm-none-eabi/4.6.2/thumb2/libgcc.a(_arm_cmpsf2.o)
 .debug_aranges
                0x00000000000012d0       0x20 /opt/paparazzi/arm-multilib/lib/gcc/arm-none-eabi/4.6.2/thumb2/libgcc.a(_arm_fixsfsi.o)
 .debug_aranges
                0x00000000000012f0       0x20 /opt/paparazzi/arm-multilib/lib/gcc/arm-none-eabi/4.6.2/thumb2/libgcc.a(_arm_fixunssfsi.o)
 .debug_aranges
                0x0000000000001310      0x138 /opt/paparazzi/arm-multilib/lib/gcc/arm-none-eabi/4.6.2/../../../../arm-none-eabi/lib/libstm32.a(stm32_adc.o)
 .debug_aranges
                0x0000000000001448      0x2e0 /opt/paparazzi/arm-multilib/lib/gcc/arm-none-eabi/4.6.2/../../../../arm-none-eabi/lib/libstm32.a(stm32_tim.o)
 .debug_aranges
                0x0000000000001728       0x68 /opt/paparazzi/arm-multilib/lib/gcc/arm-none-eabi/4.6.2/../../../../arm-none-eabi/lib/libstm32.a(stm32_dma.o)
 .debug_aranges
                0x0000000000001790       0xa0 /opt/paparazzi/arm-multilib/lib/gcc/arm-none-eabi/4.6.2/../../../../arm-none-eabi/lib/libstm32.a(stm32_gpio.o)
 .debug_aranges
                0x0000000000001830       0xf0 /opt/paparazzi/arm-multilib/lib/gcc/arm-none-eabi/4.6.2/../../../../arm-none-eabi/lib/libstm32.a(stm32_usart.o)
 .debug_aranges
                0x0000000000001920      0x118 /opt/paparazzi/arm-multilib/lib/gcc/arm-none-eabi/4.6.2/../../../../arm-none-eabi/lib/libstm32.a(stm32_i2c.o)
 .debug_aranges
                0x0000000000001a38       0xd0 /opt/paparazzi/arm-multilib/lib/gcc/arm-none-eabi/4.6.2/../../../../arm-none-eabi/lib/libstm32.a(stm32_spi.o)
 .debug_aranges
                0x0000000000001b08      0x118 /opt/paparazzi/arm-multilib/lib/gcc/arm-none-eabi/4.6.2/../../../../arm-none-eabi/lib/libstm32.a(stm32_rcc.o)
 .debug_aranges
                0x0000000000001c20       0x40 /opt/paparazzi/arm-multilib/lib/gcc/arm-none-eabi/4.6.2/../../../../arm-none-eabi/lib/libstm32.a(stm32_misc.o)
 .debug_aranges
                0x0000000000001c60      0x128 /opt/paparazzi/arm-multilib/lib/gcc/arm-none-eabi/4.6.2/../../../../arm-none-eabi/lib/libopencm3_stm32.a(rcc.o)
 .debug_aranges
                0x0000000000001d88       0x88 /opt/paparazzi/arm-multilib/lib/gcc/arm-none-eabi/4.6.2/../../../../arm-none-eabi/lib/libopencm3_stm32.a(usart.o)
 .debug_aranges
                0x0000000000001e10       0xb8 /opt/paparazzi/arm-multilib/lib/gcc/arm-none-eabi/4.6.2/../../../../arm-none-eabi/lib/libopencm3_stm32.a(flash.o)
 .debug_aranges
                0x0000000000001ec8       0x20 /opt/paparazzi/arm-multilib/lib/gcc/arm-none-eabi/4.6.2/../../../../arm-none-eabi/lib/thumb2/libc.a(lib_a-errno.o)

.debug_pubnames
 *(.debug_pubnames)

.debug_info     0x0000000000000000    0x2bab8
 *(.debug_info .gnu.linkonce.wi.*)
 .debug_info    0x0000000000000000      0x469 /home/uav/USTUAV/paparazzi/var/MYAC/ap/mcu.o
 .debug_info    0x0000000000000469       0x90 /home/uav/USTUAV/paparazzi/var/MYAC/ap/arch/stm32/mcu_arch.o
 .debug_info    0x00000000000004f9       0x88 /home/uav/USTUAV/paparazzi/var/MYAC/ap/arch/stm32/led_hw.o
 .debug_info    0x0000000000000581      0x28f /home/uav/USTUAV/paparazzi/var/MYAC/ap/mcu_periph/sys_time.o
 .debug_info    0x0000000000000810      0x7d6 /home/uav/USTUAV/paparazzi/var/MYAC/ap/arch/stm32/mcu_periph/sys_time_arch.o
 .debug_info    0x0000000000000fe6      0x322 /home/uav/USTUAV/paparazzi/var/MYAC/ap/./inter_mcu.o
 .debug_info    0x0000000000001308      0x7fc /home/uav/USTUAV/paparazzi/var/MYAC/ap/math/pprz_geodetic_int.o
 .debug_info    0x0000000000001b04      0xd14 /home/uav/USTUAV/paparazzi/var/MYAC/ap/math/pprz_geodetic_float.o
 .debug_info    0x0000000000002818      0xa2d /home/uav/USTUAV/paparazzi/var/MYAC/ap/math/pprz_geodetic_double.o
 .debug_info    0x0000000000003245       0xb6 /home/uav/USTUAV/paparazzi/var/MYAC/ap/math/pprz_trig_int.o
 .debug_info    0x00000000000032fb      0x3a3 /home/uav/USTUAV/paparazzi/var/MYAC/ap/mcu_periph/i2c.o
 .debug_info    0x000000000000369e      0x491 /home/uav/USTUAV/paparazzi/var/MYAC/ap/arch/stm32/mcu_periph/i2c_arch.o
 .debug_info    0x0000000000003b2f     0x1011 /home/uav/USTUAV/paparazzi/var/MYAC/ap/firmwares/fixedwing/main_fbw.o
 .debug_info    0x0000000000004b40      0x215 /home/uav/USTUAV/paparazzi/var/MYAC/ap/subsystems/electrical.o
 .debug_info    0x0000000000004d55       0xdf /home/uav/USTUAV/paparazzi/var/MYAC/ap/./commands.o
 .debug_info    0x0000000000004e34       0xa6 /home/uav/USTUAV/paparazzi/var/MYAC/ap/firmwares/fixedwing/fbw_downlink.o
 .debug_info    0x0000000000004eda     0x70d8 /home/uav/USTUAV/paparazzi/var/MYAC/ap/firmwares/fixedwing/main_ap.o
 .debug_info    0x000000000000bfb2      0x9fe /home/uav/USTUAV/paparazzi/var/MYAC/ap/./estimator.o
 .debug_info    0x000000000000c9b0       0xa5 /home/uav/USTUAV/paparazzi/var/MYAC/ap/firmwares/fixedwing/ap_downlink.o
 .debug_info    0x000000000000ca55       0x8e /home/uav/USTUAV/paparazzi/var/MYAC/ap/arch/stm32/stm32_exceptions.o
 .debug_info    0x000000000000cae3      0x465 /home/uav/USTUAV/paparazzi/var/MYAC/ap/arch/stm32/stm32_vector_table.o
 .debug_info    0x000000000000cf48      0x233 /home/uav/USTUAV/paparazzi/var/MYAC/ap/lisa/plug_sys.o
 .debug_info    0x000000000000d17b       0xa5 /home/uav/USTUAV/paparazzi/var/MYAC/ap/firmwares/fixedwing/main.o
 .debug_info    0x000000000000d220      0x202 /home/uav/USTUAV/paparazzi/var/MYAC/ap/mcu_periph/uart.o
 .debug_info    0x000000000000d422      0x82c /home/uav/USTUAV/paparazzi/var/MYAC/ap/arch/stm32/mcu_periph/uart_arch.o
 .debug_info    0x000000000000dc4e      0x5e1 /home/uav/USTUAV/paparazzi/var/MYAC/ap/subsystems/settings.o
 .debug_info    0x000000000000e22f      0x7ba /home/uav/USTUAV/paparazzi/var/MYAC/ap/arch/stm32/subsystems/settings_arch.o
 .debug_info    0x000000000000e9e9      0xbf5 /home/uav/USTUAV/paparazzi/var/MYAC/ap/arch/stm32/mcu_periph/adc_arch.o
 .debug_info    0x000000000000f5de       0xcd /home/uav/USTUAV/paparazzi/var/MYAC/ap/arch/stm32/servos_direct_hw.o
 .debug_info    0x000000000000f6ab       0xb5 /home/uav/USTUAV/paparazzi/var/MYAC/ap/actuators.o
 .debug_info    0x000000000000f760      0x5cd /home/uav/USTUAV/paparazzi/var/MYAC/ap/firmwares/rotorcraft/actuators/arch/stm32/actuators_pwm_arch.o
 .debug_info    0x000000000000fd2d      0x139 /home/uav/USTUAV/paparazzi/var/MYAC/ap/subsystems/radio_control.o
 .debug_info    0x000000000000fe66      0xd1d /home/uav/USTUAV/paparazzi/var/MYAC/ap/arch/stm32/subsystems/radio_control/spektrum_arch.o
 .debug_info    0x0000000000010b83       0xd4 /home/uav/USTUAV/paparazzi/var/MYAC/ap/subsystems/datalink/downlink.o
 .debug_info    0x0000000000010c57      0x1e2 /home/uav/USTUAV/paparazzi/var/MYAC/ap/subsystems/datalink/pprz_transport.o
 .debug_info    0x0000000000010e39     0x138f /home/uav/USTUAV/paparazzi/var/MYAC/ap/firmwares/fixedwing/datalink.o
 .debug_info    0x00000000000121c8      0x617 /home/uav/USTUAV/paparazzi/var/MYAC/ap/firmwares/fixedwing/stabilization/stabilization_attitude.o
 .debug_info    0x00000000000127df      0x6a5 /home/uav/USTUAV/paparazzi/var/MYAC/ap/firmwares/fixedwing/guidance/guidance_v.o
 .debug_info    0x0000000000012e84      0x8d8 /home/uav/USTUAV/paparazzi/var/MYAC/ap/subsystems/imu.o
 .debug_info    0x000000000001375c      0x452 /home/uav/USTUAV/paparazzi/var/MYAC/ap/subsystems/imu/imu_aspirin2.o
 .debug_info    0x0000000000013bae      0xab0 /home/uav/USTUAV/paparazzi/var/MYAC/ap/arch/stm32/mcu_periph/spi_arch.o
 .debug_info    0x000000000001465e       0xf1 /home/uav/USTUAV/paparazzi/var/MYAC/ap/mcu_periph/spi.o
 .debug_info    0x000000000001474f      0x3af /home/uav/USTUAV/paparazzi/var/MYAC/ap/subsystems/ahrs.o
 .debug_info    0x0000000000014afe      0x4f6 /home/uav/USTUAV/paparazzi/var/MYAC/ap/subsystems/ahrs/ahrs_aligner.o
 .debug_info    0x0000000000014ff4     0x165f /home/uav/USTUAV/paparazzi/var/MYAC/ap/subsystems/ahrs/ahrs_float_dcm.o
 .debug_info    0x0000000000016653     0x2bde /home/uav/USTUAV/paparazzi/var/MYAC/ap/subsystems/gps/gps_ubx.o
 .debug_info    0x0000000000019231      0x417 /home/uav/USTUAV/paparazzi/var/MYAC/ap/subsystems/gps.o
 .debug_info    0x0000000000019648     0x1a4f /home/uav/USTUAV/paparazzi/var/MYAC/ap/subsystems/nav.o
 .debug_info    0x000000000001b097      0x189 /home/uav/USTUAV/paparazzi/var/MYAC/ap/subsystems/navigation/common_flight_plan.o
 .debug_info    0x000000000001b220      0x1cc /home/uav/USTUAV/paparazzi/var/MYAC/ap/subsystems/navigation/traffic_info.o
 .debug_info    0x000000000001b3ec      0x4b3 /home/uav/USTUAV/paparazzi/var/MYAC/ap/subsystems/navigation/nav_survey_rectangle.o
 .debug_info    0x000000000001b89f      0x542 /home/uav/USTUAV/paparazzi/var/MYAC/ap/subsystems/navigation/nav_line.o
 .debug_info    0x000000000001bde1      0x718 /home/uav/USTUAV/paparazzi/var/MYAC/ap/modules/core/sys_mon.o
 .debug_info    0x000000000001c4f9       0xff /opt/paparazzi/arm-multilib/lib/gcc/arm-none-eabi/4.6.2/../../../../arm-none-eabi/lib/thumb2/libc.a(lib_a-memcpy.o)
 .debug_info    0x000000000001c5f8      0x239 /opt/paparazzi/arm-multilib/lib/gcc/arm-none-eabi/4.6.2/../../../../arm-none-eabi/lib/thumb2/libm.a(lib_a-s_atan.o)
 .debug_info    0x000000000001c831      0x103 /opt/paparazzi/arm-multilib/lib/gcc/arm-none-eabi/4.6.2/../../../../arm-none-eabi/lib/thumb2/libm.a(lib_a-s_cos.o)
 .debug_info    0x000000000001c934      0x136 /opt/paparazzi/arm-multilib/lib/gcc/arm-none-eabi/4.6.2/../../../../arm-none-eabi/lib/thumb2/libm.a(lib_a-s_fabs.o)
 .debug_info    0x000000000001ca6a      0x20b /opt/paparazzi/arm-multilib/lib/gcc/arm-none-eabi/4.6.2/../../../../arm-none-eabi/lib/thumb2/libm.a(lib_a-s_rint.o)
 .debug_info    0x000000000001cc75      0x103 /opt/paparazzi/arm-multilib/lib/gcc/arm-none-eabi/4.6.2/../../../../arm-none-eabi/lib/thumb2/libm.a(lib_a-s_sin.o)
 .debug_info    0x000000000001cd78      0x103 /opt/paparazzi/arm-multilib/lib/gcc/arm-none-eabi/4.6.2/../../../../arm-none-eabi/lib/thumb2/libm.a(lib_a-s_tan.o)
 .debug_info    0x000000000001ce7b      0x1f1 /opt/paparazzi/arm-multilib/lib/gcc/arm-none-eabi/4.6.2/../../../../arm-none-eabi/lib/thumb2/libm.a(lib_a-sf_atan.o)
 .debug_info    0x000000000001d06c      0x119 /opt/paparazzi/arm-multilib/lib/gcc/arm-none-eabi/4.6.2/../../../../arm-none-eabi/lib/thumb2/libm.a(lib_a-sf_cos.o)
 .debug_info    0x000000000001d185       0xc4 /opt/paparazzi/arm-multilib/lib/gcc/arm-none-eabi/4.6.2/../../../../arm-none-eabi/lib/thumb2/libm.a(lib_a-sf_fabs.o)
 .debug_info    0x000000000001d249      0x100 /opt/paparazzi/arm-multilib/lib/gcc/arm-none-eabi/4.6.2/../../../../arm-none-eabi/lib/thumb2/libm.a(lib_a-sf_sin.o)
 .debug_info    0x000000000001d349      0x17e /opt/paparazzi/arm-multilib/lib/gcc/arm-none-eabi/4.6.2/../../../../arm-none-eabi/lib/thumb2/libm.a(lib_a-w_asin.o)
 .debug_info    0x000000000001d4c7       0xbb /opt/paparazzi/arm-multilib/lib/gcc/arm-none-eabi/4.6.2/../../../../arm-none-eabi/lib/thumb2/libm.a(lib_a-w_atan2.o)
 .debug_info    0x000000000001d582      0x17e /opt/paparazzi/arm-multilib/lib/gcc/arm-none-eabi/4.6.2/../../../../arm-none-eabi/lib/thumb2/libm.a(lib_a-w_cosh.o)
 .debug_info    0x000000000001d700      0x1ab /opt/paparazzi/arm-multilib/lib/gcc/arm-none-eabi/4.6.2/../../../../arm-none-eabi/lib/thumb2/libm.a(lib_a-w_exp.o)
 .debug_info    0x000000000001d8ab      0x17e /opt/paparazzi/arm-multilib/lib/gcc/arm-none-eabi/4.6.2/../../../../arm-none-eabi/lib/thumb2/libm.a(lib_a-w_log.o)
 .debug_info    0x000000000001da29      0x18c /opt/paparazzi/arm-multilib/lib/gcc/arm-none-eabi/4.6.2/../../../../arm-none-eabi/lib/thumb2/libm.a(lib_a-w_pow.o)
 .debug_info    0x000000000001dbb5      0x17f /opt/paparazzi/arm-multilib/lib/gcc/arm-none-eabi/4.6.2/../../../../arm-none-eabi/lib/thumb2/libm.a(lib_a-w_sinh.o)
 .debug_info    0x000000000001dd34      0x17f /opt/paparazzi/arm-multilib/lib/gcc/arm-none-eabi/4.6.2/../../../../arm-none-eabi/lib/thumb2/libm.a(lib_a-w_sqrt.o)
 .debug_info    0x000000000001deb3      0x17f /opt/paparazzi/arm-multilib/lib/gcc/arm-none-eabi/4.6.2/../../../../arm-none-eabi/lib/thumb2/libm.a(lib_a-wf_asin.o)
 .debug_info    0x000000000001e032       0xbc /opt/paparazzi/arm-multilib/lib/gcc/arm-none-eabi/4.6.2/../../../../arm-none-eabi/lib/thumb2/libm.a(lib_a-wf_atan2.o)
 .debug_info    0x000000000001e0ee      0x18c /opt/paparazzi/arm-multilib/lib/gcc/arm-none-eabi/4.6.2/../../../../arm-none-eabi/lib/thumb2/libm.a(lib_a-wf_pow.o)
 .debug_info    0x000000000001e27a      0x17f /opt/paparazzi/arm-multilib/lib/gcc/arm-none-eabi/4.6.2/../../../../arm-none-eabi/lib/thumb2/libm.a(lib_a-wf_sqrt.o)
 .debug_info    0x000000000001e3f9      0x31a /opt/paparazzi/arm-multilib/lib/gcc/arm-none-eabi/4.6.2/../../../../arm-none-eabi/lib/thumb2/libm.a(lib_a-e_asin.o)
 .debug_info    0x000000000001e713      0x27c /opt/paparazzi/arm-multilib/lib/gcc/arm-none-eabi/4.6.2/../../../../arm-none-eabi/lib/thumb2/libm.a(lib_a-e_atan2.o)
 .debug_info    0x000000000001e98f      0x140 /opt/paparazzi/arm-multilib/lib/gcc/arm-none-eabi/4.6.2/../../../../arm-none-eabi/lib/thumb2/libm.a(lib_a-e_cosh.o)
 .debug_info    0x000000000001eacf      0x35a /opt/paparazzi/arm-multilib/lib/gcc/arm-none-eabi/4.6.2/../../../../arm-none-eabi/lib/thumb2/libm.a(lib_a-e_exp.o)
 .debug_info    0x000000000001ee29      0x2f4 /opt/paparazzi/arm-multilib/lib/gcc/arm-none-eabi/4.6.2/../../../../arm-none-eabi/lib/thumb2/libm.a(lib_a-e_log.o)
 .debug_info    0x000000000001f11d      0x6ab /opt/paparazzi/arm-multilib/lib/gcc/arm-none-eabi/4.6.2/../../../../arm-none-eabi/lib/thumb2/libm.a(lib_a-e_pow.o)
 .debug_info    0x000000000001f7c8      0x35b /opt/paparazzi/arm-multilib/lib/gcc/arm-none-eabi/4.6.2/../../../../arm-none-eabi/lib/thumb2/libm.a(lib_a-e_rem_pio2.o)
 .debug_info    0x000000000001fb23      0x147 /opt/paparazzi/arm-multilib/lib/gcc/arm-none-eabi/4.6.2/../../../../arm-none-eabi/lib/thumb2/libm.a(lib_a-e_sinh.o)
 .debug_info    0x000000000001fc6a      0x22a /opt/paparazzi/arm-multilib/lib/gcc/arm-none-eabi/4.6.2/../../../../arm-none-eabi/lib/thumb2/libm.a(lib_a-e_sqrt.o)
 .debug_info    0x000000000001fe94      0x28c /opt/paparazzi/arm-multilib/lib/gcc/arm-none-eabi/4.6.2/../../../../arm-none-eabi/lib/thumb2/libm.a(lib_a-ef_asin.o)
 .debug_info    0x0000000000020120      0x1fb /opt/paparazzi/arm-multilib/lib/gcc/arm-none-eabi/4.6.2/../../../../arm-none-eabi/lib/thumb2/libm.a(lib_a-ef_atan2.o)
 .debug_info    0x000000000002031b      0x57a /opt/paparazzi/arm-multilib/lib/gcc/arm-none-eabi/4.6.2/../../../../arm-none-eabi/lib/thumb2/libm.a(lib_a-ef_pow.o)
 .debug_info    0x0000000000020895      0x30c /opt/paparazzi/arm-multilib/lib/gcc/arm-none-eabi/4.6.2/../../../../arm-none-eabi/lib/thumb2/libm.a(lib_a-ef_rem_pio2.o)
 .debug_info    0x0000000000020ba1      0x1ac /opt/paparazzi/arm-multilib/lib/gcc/arm-none-eabi/4.6.2/../../../../arm-none-eabi/lib/thumb2/libm.a(lib_a-ef_sqrt.o)
 .debug_info    0x0000000000020d4d      0x219 /opt/paparazzi/arm-multilib/lib/gcc/arm-none-eabi/4.6.2/../../../../arm-none-eabi/lib/thumb2/libm.a(lib_a-k_cos.o)
 .debug_info    0x0000000000020f66      0x2f3 /opt/paparazzi/arm-multilib/lib/gcc/arm-none-eabi/4.6.2/../../../../arm-none-eabi/lib/thumb2/libm.a(lib_a-k_rem_pio2.o)
 .debug_info    0x0000000000021259      0x198 /opt/paparazzi/arm-multilib/lib/gcc/arm-none-eabi/4.6.2/../../../../arm-none-eabi/lib/thumb2/libm.a(lib_a-k_sin.o)
 .debug_info    0x00000000000213f1      0x279 /opt/paparazzi/arm-multilib/lib/gcc/arm-none-eabi/4.6.2/../../../../arm-none-eabi/lib/thumb2/libm.a(lib_a-k_tan.o)
 .debug_info    0x000000000002166a      0x183 /opt/paparazzi/arm-multilib/lib/gcc/arm-none-eabi/4.6.2/../../../../arm-none-eabi/lib/thumb2/libm.a(lib_a-kf_cos.o)
 .debug_info    0x00000000000217ed      0x2d3 /opt/paparazzi/arm-multilib/lib/gcc/arm-none-eabi/4.6.2/../../../../arm-none-eabi/lib/thumb2/libm.a(lib_a-kf_rem_pio2.o)
 .debug_info    0x0000000000021ac0      0x17d /opt/paparazzi/arm-multilib/lib/gcc/arm-none-eabi/4.6.2/../../../../arm-none-eabi/lib/thumb2/libm.a(lib_a-kf_sin.o)
 .debug_info    0x0000000000021c3d      0x393 /opt/paparazzi/arm-multilib/lib/gcc/arm-none-eabi/4.6.2/../../../../arm-none-eabi/lib/thumb2/libm.a(lib_a-s_expm1.o)
 .debug_info    0x0000000000021fd0       0xd0 /opt/paparazzi/arm-multilib/lib/gcc/arm-none-eabi/4.6.2/../../../../arm-none-eabi/lib/thumb2/libm.a(lib_a-s_finite.o)
 .debug_info    0x00000000000220a0      0x1ae /opt/paparazzi/arm-multilib/lib/gcc/arm-none-eabi/4.6.2/../../../../arm-none-eabi/lib/thumb2/libm.a(lib_a-s_floor.o)
 .debug_info    0x000000000002224e       0xd7 /opt/paparazzi/arm-multilib/lib/gcc/arm-none-eabi/4.6.2/../../../../arm-none-eabi/lib/thumb2/libm.a(lib_a-s_fpclassify.o)
 .debug_info    0x0000000000022325       0xc1 /opt/paparazzi/arm-multilib/lib/gcc/arm-none-eabi/4.6.2/../../../../arm-none-eabi/lib/thumb2/libm.a(lib_a-s_lib_ver.o)
 .debug_info    0x00000000000223e6      0x131 /opt/paparazzi/arm-multilib/lib/gcc/arm-none-eabi/4.6.2/../../../../arm-none-eabi/lib/thumb2/libm.a(lib_a-s_matherr.o)
 .debug_info    0x0000000000022517       0xcd /opt/paparazzi/arm-multilib/lib/gcc/arm-none-eabi/4.6.2/../../../../arm-none-eabi/lib/thumb2/libm.a(lib_a-s_nan.o)
 .debug_info    0x00000000000225e4      0x206 /opt/paparazzi/arm-multilib/lib/gcc/arm-none-eabi/4.6.2/../../../../arm-none-eabi/lib/thumb2/libm.a(lib_a-s_scalbn.o)
 .debug_info    0x00000000000227ea       0xc8 /opt/paparazzi/arm-multilib/lib/gcc/arm-none-eabi/4.6.2/../../../../arm-none-eabi/lib/thumb2/libm.a(lib_a-sf_finite.o)
 .debug_info    0x00000000000228b2      0x15d /opt/paparazzi/arm-multilib/lib/gcc/arm-none-eabi/4.6.2/../../../../arm-none-eabi/lib/thumb2/libm.a(lib_a-sf_floor.o)
 .debug_info    0x0000000000022a0f       0xc6 /opt/paparazzi/arm-multilib/lib/gcc/arm-none-eabi/4.6.2/../../../../arm-none-eabi/lib/thumb2/libm.a(lib_a-sf_fpclassify.o)
 .debug_info    0x0000000000022ad5       0xca /opt/paparazzi/arm-multilib/lib/gcc/arm-none-eabi/4.6.2/../../../../arm-none-eabi/lib/thumb2/libm.a(lib_a-sf_nan.o)
 .debug_info    0x0000000000022b9f      0x1df /opt/paparazzi/arm-multilib/lib/gcc/arm-none-eabi/4.6.2/../../../../arm-none-eabi/lib/thumb2/libm.a(lib_a-sf_scalbn.o)
 .debug_info    0x0000000000022d7e      0x168 /opt/paparazzi/arm-multilib/lib/gcc/arm-none-eabi/4.6.2/../../../../arm-none-eabi/lib/thumb2/libm.a(lib_a-s_copysign.o)
 .debug_info    0x0000000000022ee6      0x122 /opt/paparazzi/arm-multilib/lib/gcc/arm-none-eabi/4.6.2/../../../../arm-none-eabi/lib/thumb2/libm.a(lib_a-sf_copysign.o)
 .debug_info    0x0000000000023008       0xcc /opt/paparazzi/arm-multilib/lib/gcc/arm-none-eabi/4.6.2/thumb2/libgcc.a(_divsi3.o)
 .debug_info    0x00000000000230d4       0xcc /opt/paparazzi/arm-multilib/lib/gcc/arm-none-eabi/4.6.2/thumb2/libgcc.a(_dvmd_tls.o)
 .debug_info    0x00000000000231a0       0xcb /opt/paparazzi/arm-multilib/lib/gcc/arm-none-eabi/4.6.2/thumb2/libgcc.a(_arm_addsubdf3.o)
 .debug_info    0x000000000002326b       0xcb /opt/paparazzi/arm-multilib/lib/gcc/arm-none-eabi/4.6.2/thumb2/libgcc.a(_arm_muldivdf3.o)
 .debug_info    0x0000000000023336       0xcb /opt/paparazzi/arm-multilib/lib/gcc/arm-none-eabi/4.6.2/thumb2/libgcc.a(_arm_cmpdf2.o)
 .debug_info    0x0000000000023401       0xcb /opt/paparazzi/arm-multilib/lib/gcc/arm-none-eabi/4.6.2/thumb2/libgcc.a(_arm_fixdfsi.o)
 .debug_info    0x00000000000234cc       0xcb /opt/paparazzi/arm-multilib/lib/gcc/arm-none-eabi/4.6.2/thumb2/libgcc.a(_arm_fixunsdfsi.o)
 .debug_info    0x0000000000023597       0xcb /opt/paparazzi/arm-multilib/lib/gcc/arm-none-eabi/4.6.2/thumb2/libgcc.a(_arm_truncdfsf2.o)
 .debug_info    0x0000000000023662       0xcb /opt/paparazzi/arm-multilib/lib/gcc/arm-none-eabi/4.6.2/thumb2/libgcc.a(_arm_addsubsf3.o)
 .debug_info    0x000000000002372d       0xcb /opt/paparazzi/arm-multilib/lib/gcc/arm-none-eabi/4.6.2/thumb2/libgcc.a(_arm_muldivsf3.o)
 .debug_info    0x00000000000237f8       0xcb /opt/paparazzi/arm-multilib/lib/gcc/arm-none-eabi/4.6.2/thumb2/libgcc.a(_arm_cmpsf2.o)
 .debug_info    0x00000000000238c3       0xcb /opt/paparazzi/arm-multilib/lib/gcc/arm-none-eabi/4.6.2/thumb2/libgcc.a(_arm_fixsfsi.o)
 .debug_info    0x000000000002398e       0xcb /opt/paparazzi/arm-multilib/lib/gcc/arm-none-eabi/4.6.2/thumb2/libgcc.a(_arm_fixunssfsi.o)
 .debug_info    0x0000000000023a59      0xba5 /opt/paparazzi/arm-multilib/lib/gcc/arm-none-eabi/4.6.2/../../../../arm-none-eabi/lib/libstm32.a(stm32_adc.o)
 .debug_info    0x00000000000245fe     0x1e1a /opt/paparazzi/arm-multilib/lib/gcc/arm-none-eabi/4.6.2/../../../../arm-none-eabi/lib/libstm32.a(stm32_tim.o)
 .debug_info    0x0000000000026418      0x437 /opt/paparazzi/arm-multilib/lib/gcc/arm-none-eabi/4.6.2/../../../../arm-none-eabi/lib/libstm32.a(stm32_dma.o)
 .debug_info    0x000000000002684f      0x6a5 /opt/paparazzi/arm-multilib/lib/gcc/arm-none-eabi/4.6.2/../../../../arm-none-eabi/lib/libstm32.a(stm32_gpio.o)
 .debug_info    0x0000000000026ef4      0x9a8 /opt/paparazzi/arm-multilib/lib/gcc/arm-none-eabi/4.6.2/../../../../arm-none-eabi/lib/libstm32.a(stm32_usart.o)
 .debug_info    0x000000000002789c      0xafc /opt/paparazzi/arm-multilib/lib/gcc/arm-none-eabi/4.6.2/../../../../arm-none-eabi/lib/libstm32.a(stm32_i2c.o)
 .debug_info    0x0000000000028398      0x927 /opt/paparazzi/arm-multilib/lib/gcc/arm-none-eabi/4.6.2/../../../../arm-none-eabi/lib/libstm32.a(stm32_spi.o)
 .debug_info    0x0000000000028cbf      0x8b8 /opt/paparazzi/arm-multilib/lib/gcc/arm-none-eabi/4.6.2/../../../../arm-none-eabi/lib/libstm32.a(stm32_rcc.o)
 .debug_info    0x0000000000029577      0x51b /opt/paparazzi/arm-multilib/lib/gcc/arm-none-eabi/4.6.2/../../../../arm-none-eabi/lib/libstm32.a(stm32_misc.o)
 .debug_info    0x0000000000029a92      0x686 /opt/paparazzi/arm-multilib/lib/gcc/arm-none-eabi/4.6.2/../../../../arm-none-eabi/lib/libopencm3_stm32.a(rcc.o)
 .debug_info    0x000000000002a118      0x40c /opt/paparazzi/arm-multilib/lib/gcc/arm-none-eabi/4.6.2/../../../../arm-none-eabi/lib/libopencm3_stm32.a(usart.o)
 .debug_info    0x000000000002a524      0x2ca /opt/paparazzi/arm-multilib/lib/gcc/arm-none-eabi/4.6.2/../../../../arm-none-eabi/lib/libopencm3_stm32.a(flash.o)
 .debug_info    0x000000000002a7ee      0x964 /opt/paparazzi/arm-multilib/lib/gcc/arm-none-eabi/4.6.2/../../../../arm-none-eabi/lib/thumb2/libc.a(lib_a-errno.o)
 .debug_info    0x000000000002b152      0x966 /opt/paparazzi/arm-multilib/lib/gcc/arm-none-eabi/4.6.2/../../../../arm-none-eabi/lib/thumb2/libc.a(lib_a-impure.o)

.debug_abbrev   0x0000000000000000     0x8a4e
 *(.debug_abbrev)
 .debug_abbrev  0x0000000000000000      0x17a /home/uav/USTUAV/paparazzi/var/MYAC/ap/mcu.o
 .debug_abbrev  0x000000000000017a       0x4e /home/uav/USTUAV/paparazzi/var/MYAC/ap/arch/stm32/mcu_arch.o
 .debug_abbrev  0x00000000000001c8       0x2a /home/uav/USTUAV/paparazzi/var/MYAC/ap/arch/stm32/led_hw.o
 .debug_abbrev  0x00000000000001f2      0x15c /home/uav/USTUAV/paparazzi/var/MYAC/ap/mcu_periph/sys_time.o
 .debug_abbrev  0x000000000000034e      0x1e4 /home/uav/USTUAV/paparazzi/var/MYAC/ap/arch/stm32/mcu_periph/sys_time_arch.o
 .debug_abbrev  0x0000000000000532       0xa8 /home/uav/USTUAV/paparazzi/var/MYAC/ap/./inter_mcu.o
 .debug_abbrev  0x00000000000005da      0x12a /home/uav/USTUAV/paparazzi/var/MYAC/ap/math/pprz_geodetic_int.o
 .debug_abbrev  0x0000000000000704      0x24e /home/uav/USTUAV/paparazzi/var/MYAC/ap/math/pprz_geodetic_float.o
 .debug_abbrev  0x0000000000000952      0x1ce /home/uav/USTUAV/paparazzi/var/MYAC/ap/math/pprz_geodetic_double.o
 .debug_abbrev  0x0000000000000b20       0x5a /home/uav/USTUAV/paparazzi/var/MYAC/ap/math/pprz_trig_int.o
 .debug_abbrev  0x0000000000000b7a       0xcd /home/uav/USTUAV/paparazzi/var/MYAC/ap/mcu_periph/i2c.o
 .debug_abbrev  0x0000000000000c47      0x16b /home/uav/USTUAV/paparazzi/var/MYAC/ap/arch/stm32/mcu_periph/i2c_arch.o
 .debug_abbrev  0x0000000000000db2      0x27c /home/uav/USTUAV/paparazzi/var/MYAC/ap/firmwares/fixedwing/main_fbw.o
 .debug_abbrev  0x000000000000102e      0x100 /home/uav/USTUAV/paparazzi/var/MYAC/ap/subsystems/electrical.o
 .debug_abbrev  0x000000000000112e       0x61 /home/uav/USTUAV/paparazzi/var/MYAC/ap/./commands.o
 .debug_abbrev  0x000000000000118f       0x48 /home/uav/USTUAV/paparazzi/var/MYAC/ap/firmwares/fixedwing/fbw_downlink.o
 .debug_abbrev  0x00000000000011d7      0x34e /home/uav/USTUAV/paparazzi/var/MYAC/ap/firmwares/fixedwing/main_ap.o
 .debug_abbrev  0x0000000000001525      0x199 /home/uav/USTUAV/paparazzi/var/MYAC/ap/./estimator.o
 .debug_abbrev  0x00000000000016be       0x48 /home/uav/USTUAV/paparazzi/var/MYAC/ap/firmwares/fixedwing/ap_downlink.o
 .debug_abbrev  0x0000000000001706       0x2b /home/uav/USTUAV/paparazzi/var/MYAC/ap/arch/stm32/stm32_exceptions.o
 .debug_abbrev  0x0000000000001731      0x141 /home/uav/USTUAV/paparazzi/var/MYAC/ap/arch/stm32/stm32_vector_table.o
 .debug_abbrev  0x0000000000001872       0xc8 /home/uav/USTUAV/paparazzi/var/MYAC/ap/lisa/plug_sys.o
 .debug_abbrev  0x000000000000193a       0x43 /home/uav/USTUAV/paparazzi/var/MYAC/ap/firmwares/fixedwing/main.o
 .debug_abbrev  0x000000000000197d       0xf6 /home/uav/USTUAV/paparazzi/var/MYAC/ap/mcu_periph/uart.o
 .debug_abbrev  0x0000000000001a73      0x20a /home/uav/USTUAV/paparazzi/var/MYAC/ap/arch/stm32/mcu_periph/uart_arch.o
 .debug_abbrev  0x0000000000001c7d       0xfe /home/uav/USTUAV/paparazzi/var/MYAC/ap/subsystems/settings.o
 .debug_abbrev  0x0000000000001d7b      0x1c6 /home/uav/USTUAV/paparazzi/var/MYAC/ap/arch/stm32/subsystems/settings_arch.o
 .debug_abbrev  0x0000000000001f41      0x27f /home/uav/USTUAV/paparazzi/var/MYAC/ap/arch/stm32/mcu_periph/adc_arch.o
 .debug_abbrev  0x00000000000021c0       0x71 /home/uav/USTUAV/paparazzi/var/MYAC/ap/arch/stm32/servos_direct_hw.o
 .debug_abbrev  0x0000000000002231       0x5a /home/uav/USTUAV/paparazzi/var/MYAC/ap/actuators.o
 .debug_abbrev  0x000000000000228b      0x108 /home/uav/USTUAV/paparazzi/var/MYAC/ap/firmwares/rotorcraft/actuators/arch/stm32/actuators_pwm_arch.o
 .debug_abbrev  0x0000000000002393       0x89 /home/uav/USTUAV/paparazzi/var/MYAC/ap/subsystems/radio_control.o
 .debug_abbrev  0x000000000000241c        0x1 /home/uav/USTUAV/paparazzi/var/MYAC/ap/subsystems/radio_control/spektrum.o
 .debug_abbrev  0x000000000000241d      0x247 /home/uav/USTUAV/paparazzi/var/MYAC/ap/arch/stm32/subsystems/radio_control/spektrum_arch.o
 .debug_abbrev  0x0000000000002664       0x48 /home/uav/USTUAV/paparazzi/var/MYAC/ap/subsystems/datalink/downlink.o
 .debug_abbrev  0x00000000000026ac       0x90 /home/uav/USTUAV/paparazzi/var/MYAC/ap/subsystems/datalink/pprz_transport.o
 .debug_abbrev  0x000000000000273c      0x212 /home/uav/USTUAV/paparazzi/var/MYAC/ap/firmwares/fixedwing/datalink.o
 .debug_abbrev  0x000000000000294e      0x1a4 /home/uav/USTUAV/paparazzi/var/MYAC/ap/firmwares/fixedwing/stabilization/stabilization_attitude.o
 .debug_abbrev  0x0000000000002af2      0x19f /home/uav/USTUAV/paparazzi/var/MYAC/ap/firmwares/fixedwing/guidance/guidance_v.o
 .debug_abbrev  0x0000000000002c91      0x1c9 /home/uav/USTUAV/paparazzi/var/MYAC/ap/subsystems/imu.o
 .debug_abbrev  0x0000000000002e5a      0x168 /home/uav/USTUAV/paparazzi/var/MYAC/ap/subsystems/imu/imu_aspirin2.o
 .debug_abbrev  0x0000000000002fc2      0x17e /home/uav/USTUAV/paparazzi/var/MYAC/ap/arch/stm32/mcu_periph/spi_arch.o
 .debug_abbrev  0x0000000000003140       0x58 /home/uav/USTUAV/paparazzi/var/MYAC/ap/mcu_periph/spi.o
 .debug_abbrev  0x0000000000003198       0x87 /home/uav/USTUAV/paparazzi/var/MYAC/ap/subsystems/ahrs.o
 .debug_abbrev  0x000000000000321f      0x185 /home/uav/USTUAV/paparazzi/var/MYAC/ap/subsystems/ahrs/ahrs_aligner.o
 .debug_abbrev  0x00000000000033a4      0x35a /home/uav/USTUAV/paparazzi/var/MYAC/ap/subsystems/ahrs/ahrs_float_dcm.o
 .debug_abbrev  0x00000000000036fe      0x357 /home/uav/USTUAV/paparazzi/var/MYAC/ap/subsystems/gps/gps_ubx.o
 .debug_abbrev  0x0000000000003a55       0xee /home/uav/USTUAV/paparazzi/var/MYAC/ap/subsystems/gps.o
 .debug_abbrev  0x0000000000003b43      0x3c5 /home/uav/USTUAV/paparazzi/var/MYAC/ap/subsystems/nav.o
 .debug_abbrev  0x0000000000003f08       0x96 /home/uav/USTUAV/paparazzi/var/MYAC/ap/subsystems/navigation/common_flight_plan.o
 .debug_abbrev  0x0000000000003f9e       0xe0 /home/uav/USTUAV/paparazzi/var/MYAC/ap/subsystems/navigation/traffic_info.o
 .debug_abbrev  0x000000000000407e      0x109 /home/uav/USTUAV/paparazzi/var/MYAC/ap/subsystems/navigation/nav_survey_rectangle.o
 .debug_abbrev  0x0000000000004187      0x131 /home/uav/USTUAV/paparazzi/var/MYAC/ap/subsystems/navigation/nav_line.o
 .debug_abbrev  0x00000000000042b8      0x14b /home/uav/USTUAV/paparazzi/var/MYAC/ap/modules/core/sys_mon.o
 .debug_abbrev  0x0000000000004403       0xa1 /opt/paparazzi/arm-multilib/lib/gcc/arm-none-eabi/4.6.2/../../../../arm-none-eabi/lib/thumb2/libc.a(lib_a-memcpy.o)
 .debug_abbrev  0x00000000000044a4      0x125 /opt/paparazzi/arm-multilib/lib/gcc/arm-none-eabi/4.6.2/../../../../arm-none-eabi/lib/thumb2/libm.a(lib_a-s_atan.o)
 .debug_abbrev  0x00000000000045c9       0x9c /opt/paparazzi/arm-multilib/lib/gcc/arm-none-eabi/4.6.2/../../../../arm-none-eabi/lib/thumb2/libm.a(lib_a-s_cos.o)
 .debug_abbrev  0x0000000000004665       0xc5 /opt/paparazzi/arm-multilib/lib/gcc/arm-none-eabi/4.6.2/../../../../arm-none-eabi/lib/thumb2/libm.a(lib_a-s_fabs.o)
 .debug_abbrev  0x000000000000472a      0x11d /opt/paparazzi/arm-multilib/lib/gcc/arm-none-eabi/4.6.2/../../../../arm-none-eabi/lib/thumb2/libm.a(lib_a-s_rint.o)
 .debug_abbrev  0x0000000000004847       0x9c /opt/paparazzi/arm-multilib/lib/gcc/arm-none-eabi/4.6.2/../../../../arm-none-eabi/lib/thumb2/libm.a(lib_a-s_sin.o)
 .debug_abbrev  0x00000000000048e3       0x9c /opt/paparazzi/arm-multilib/lib/gcc/arm-none-eabi/4.6.2/../../../../arm-none-eabi/lib/thumb2/libm.a(lib_a-s_tan.o)
 .debug_abbrev  0x000000000000497f      0x100 /opt/paparazzi/arm-multilib/lib/gcc/arm-none-eabi/4.6.2/../../../../arm-none-eabi/lib/thumb2/libm.a(lib_a-sf_atan.o)
 .debug_abbrev  0x0000000000004a7f       0xa5 /opt/paparazzi/arm-multilib/lib/gcc/arm-none-eabi/4.6.2/../../../../arm-none-eabi/lib/thumb2/libm.a(lib_a-sf_cos.o)
 .debug_abbrev  0x0000000000004b24       0x6a /opt/paparazzi/arm-multilib/lib/gcc/arm-none-eabi/4.6.2/../../../../arm-none-eabi/lib/thumb2/libm.a(lib_a-sf_fabs.o)
 .debug_abbrev  0x0000000000004b8e       0x9c /opt/paparazzi/arm-multilib/lib/gcc/arm-none-eabi/4.6.2/../../../../arm-none-eabi/lib/thumb2/libm.a(lib_a-sf_sin.o)
 .debug_abbrev  0x0000000000004c2a       0xcf /opt/paparazzi/arm-multilib/lib/gcc/arm-none-eabi/4.6.2/../../../../arm-none-eabi/lib/thumb2/libm.a(lib_a-w_asin.o)
 .debug_abbrev  0x0000000000004cf9       0x50 /opt/paparazzi/arm-multilib/lib/gcc/arm-none-eabi/4.6.2/../../../../arm-none-eabi/lib/thumb2/libm.a(lib_a-w_atan2.o)
 .debug_abbrev  0x0000000000004d49       0xcf /opt/paparazzi/arm-multilib/lib/gcc/arm-none-eabi/4.6.2/../../../../arm-none-eabi/lib/thumb2/libm.a(lib_a-w_cosh.o)
 .debug_abbrev  0x0000000000004e18       0xe5 /opt/paparazzi/arm-multilib/lib/gcc/arm-none-eabi/4.6.2/../../../../arm-none-eabi/lib/thumb2/libm.a(lib_a-w_exp.o)
 .debug_abbrev  0x0000000000004efd       0xcf /opt/paparazzi/arm-multilib/lib/gcc/arm-none-eabi/4.6.2/../../../../arm-none-eabi/lib/thumb2/libm.a(lib_a-w_log.o)
 .debug_abbrev  0x0000000000004fcc       0xcf /opt/paparazzi/arm-multilib/lib/gcc/arm-none-eabi/4.6.2/../../../../arm-none-eabi/lib/thumb2/libm.a(lib_a-w_pow.o)
 .debug_abbrev  0x000000000000509b       0xcf /opt/paparazzi/arm-multilib/lib/gcc/arm-none-eabi/4.6.2/../../../../arm-none-eabi/lib/thumb2/libm.a(lib_a-w_sinh.o)
 .debug_abbrev  0x000000000000516a       0xcf /opt/paparazzi/arm-multilib/lib/gcc/arm-none-eabi/4.6.2/../../../../arm-none-eabi/lib/thumb2/libm.a(lib_a-w_sqrt.o)
 .debug_abbrev  0x0000000000005239       0xcf /opt/paparazzi/arm-multilib/lib/gcc/arm-none-eabi/4.6.2/../../../../arm-none-eabi/lib/thumb2/libm.a(lib_a-wf_asin.o)
 .debug_abbrev  0x0000000000005308       0x50 /opt/paparazzi/arm-multilib/lib/gcc/arm-none-eabi/4.6.2/../../../../arm-none-eabi/lib/thumb2/libm.a(lib_a-wf_atan2.o)
 .debug_abbrev  0x0000000000005358       0xcf /opt/paparazzi/arm-multilib/lib/gcc/arm-none-eabi/4.6.2/../../../../arm-none-eabi/lib/thumb2/libm.a(lib_a-wf_pow.o)
 .debug_abbrev  0x0000000000005427       0xcf /opt/paparazzi/arm-multilib/lib/gcc/arm-none-eabi/4.6.2/../../../../arm-none-eabi/lib/thumb2/libm.a(lib_a-wf_sqrt.o)
 .debug_abbrev  0x00000000000054f6      0x10b /opt/paparazzi/arm-multilib/lib/gcc/arm-none-eabi/4.6.2/../../../../arm-none-eabi/lib/thumb2/libm.a(lib_a-e_asin.o)
 .debug_abbrev  0x0000000000005601      0x120 /opt/paparazzi/arm-multilib/lib/gcc/arm-none-eabi/4.6.2/../../../../arm-none-eabi/lib/thumb2/libm.a(lib_a-e_atan2.o)
 .debug_abbrev  0x0000000000005721       0x93 /opt/paparazzi/arm-multilib/lib/gcc/arm-none-eabi/4.6.2/../../../../arm-none-eabi/lib/thumb2/libm.a(lib_a-e_cosh.o)
 .debug_abbrev  0x00000000000057b4      0x13b /opt/paparazzi/arm-multilib/lib/gcc/arm-none-eabi/4.6.2/../../../../arm-none-eabi/lib/thumb2/libm.a(lib_a-e_exp.o)
 .debug_abbrev  0x00000000000058ef      0x11a /opt/paparazzi/arm-multilib/lib/gcc/arm-none-eabi/4.6.2/../../../../arm-none-eabi/lib/thumb2/libm.a(lib_a-e_log.o)
 .debug_abbrev  0x0000000000005a09      0x16f /opt/paparazzi/arm-multilib/lib/gcc/arm-none-eabi/4.6.2/../../../../arm-none-eabi/lib/thumb2/libm.a(lib_a-e_pow.o)
 .debug_abbrev  0x0000000000005b78      0x13b /opt/paparazzi/arm-multilib/lib/gcc/arm-none-eabi/4.6.2/../../../../arm-none-eabi/lib/thumb2/libm.a(lib_a-e_rem_pio2.o)
 .debug_abbrev  0x0000000000005cb3       0x93 /opt/paparazzi/arm-multilib/lib/gcc/arm-none-eabi/4.6.2/../../../../arm-none-eabi/lib/thumb2/libm.a(lib_a-e_sinh.o)
 .debug_abbrev  0x0000000000005d46      0x104 /opt/paparazzi/arm-multilib/lib/gcc/arm-none-eabi/4.6.2/../../../../arm-none-eabi/lib/thumb2/libm.a(lib_a-e_sqrt.o)
 .debug_abbrev  0x0000000000005e4a       0xe8 /opt/paparazzi/arm-multilib/lib/gcc/arm-none-eabi/4.6.2/../../../../arm-none-eabi/lib/thumb2/libm.a(lib_a-ef_asin.o)
 .debug_abbrev  0x0000000000005f32       0xec /opt/paparazzi/arm-multilib/lib/gcc/arm-none-eabi/4.6.2/../../../../arm-none-eabi/lib/thumb2/libm.a(lib_a-ef_atan2.o)
 .debug_abbrev  0x000000000000601e      0x137 /opt/paparazzi/arm-multilib/lib/gcc/arm-none-eabi/4.6.2/../../../../arm-none-eabi/lib/thumb2/libm.a(lib_a-ef_pow.o)
 .debug_abbrev  0x0000000000006155      0x107 /opt/paparazzi/arm-multilib/lib/gcc/arm-none-eabi/4.6.2/../../../../arm-none-eabi/lib/thumb2/libm.a(lib_a-ef_rem_pio2.o)
 .debug_abbrev  0x000000000000625c       0xd2 /opt/paparazzi/arm-multilib/lib/gcc/arm-none-eabi/4.6.2/../../../../arm-none-eabi/lib/thumb2/libm.a(lib_a-ef_sqrt.o)
 .debug_abbrev  0x000000000000632e       0xec /opt/paparazzi/arm-multilib/lib/gcc/arm-none-eabi/4.6.2/../../../../arm-none-eabi/lib/thumb2/libm.a(lib_a-k_cos.o)
 .debug_abbrev  0x000000000000641a       0xf7 /opt/paparazzi/arm-multilib/lib/gcc/arm-none-eabi/4.6.2/../../../../arm-none-eabi/lib/thumb2/libm.a(lib_a-k_rem_pio2.o)
 .debug_abbrev  0x0000000000006511       0xa2 /opt/paparazzi/arm-multilib/lib/gcc/arm-none-eabi/4.6.2/../../../../arm-none-eabi/lib/thumb2/libm.a(lib_a-k_sin.o)
 .debug_abbrev  0x00000000000065b3      0x144 /opt/paparazzi/arm-multilib/lib/gcc/arm-none-eabi/4.6.2/../../../../arm-none-eabi/lib/thumb2/libm.a(lib_a-k_tan.o)
 .debug_abbrev  0x00000000000066f7       0x91 /opt/paparazzi/arm-multilib/lib/gcc/arm-none-eabi/4.6.2/../../../../arm-none-eabi/lib/thumb2/libm.a(lib_a-kf_cos.o)
 .debug_abbrev  0x0000000000006788       0xf7 /opt/paparazzi/arm-multilib/lib/gcc/arm-none-eabi/4.6.2/../../../../arm-none-eabi/lib/thumb2/libm.a(lib_a-kf_rem_pio2.o)
 .debug_abbrev  0x000000000000687f       0x93 /opt/paparazzi/arm-multilib/lib/gcc/arm-none-eabi/4.6.2/../../../../arm-none-eabi/lib/thumb2/libm.a(lib_a-kf_sin.o)
 .debug_abbrev  0x0000000000006912      0x129 /opt/paparazzi/arm-multilib/lib/gcc/arm-none-eabi/4.6.2/../../../../arm-none-eabi/lib/thumb2/libm.a(lib_a-s_expm1.o)
 .debug_abbrev  0x0000000000006a3b       0x6c /opt/paparazzi/arm-multilib/lib/gcc/arm-none-eabi/4.6.2/../../../../arm-none-eabi/lib/thumb2/libm.a(lib_a-s_finite.o)
 .debug_abbrev  0x0000000000006aa7       0xf7 /opt/paparazzi/arm-multilib/lib/gcc/arm-none-eabi/4.6.2/../../../../arm-none-eabi/lib/thumb2/libm.a(lib_a-s_floor.o)
 .debug_abbrev  0x0000000000006b9e       0x6c /opt/paparazzi/arm-multilib/lib/gcc/arm-none-eabi/4.6.2/../../../../arm-none-eabi/lib/thumb2/libm.a(lib_a-s_fpclassify.o)
 .debug_abbrev  0x0000000000006c0a       0x53 /opt/paparazzi/arm-multilib/lib/gcc/arm-none-eabi/4.6.2/../../../../arm-none-eabi/lib/thumb2/libm.a(lib_a-s_lib_ver.o)
 .debug_abbrev  0x0000000000006c5d       0x97 /opt/paparazzi/arm-multilib/lib/gcc/arm-none-eabi/4.6.2/../../../../arm-none-eabi/lib/thumb2/libm.a(lib_a-s_matherr.o)
 .debug_abbrev  0x0000000000006cf4       0x6f /opt/paparazzi/arm-multilib/lib/gcc/arm-none-eabi/4.6.2/../../../../arm-none-eabi/lib/thumb2/libm.a(lib_a-s_nan.o)
 .debug_abbrev  0x0000000000006d63       0xfe /opt/paparazzi/arm-multilib/lib/gcc/arm-none-eabi/4.6.2/../../../../arm-none-eabi/lib/thumb2/libm.a(lib_a-s_scalbn.o)
 .debug_abbrev  0x0000000000006e61       0x6c /opt/paparazzi/arm-multilib/lib/gcc/arm-none-eabi/4.6.2/../../../../arm-none-eabi/lib/thumb2/libm.a(lib_a-sf_finite.o)
 .debug_abbrev  0x0000000000006ecd       0xc3 /opt/paparazzi/arm-multilib/lib/gcc/arm-none-eabi/4.6.2/../../../../arm-none-eabi/lib/thumb2/libm.a(lib_a-sf_floor.o)
 .debug_abbrev  0x0000000000006f90       0x6c /opt/paparazzi/arm-multilib/lib/gcc/arm-none-eabi/4.6.2/../../../../arm-none-eabi/lib/thumb2/libm.a(lib_a-sf_fpclassify.o)
 .debug_abbrev  0x0000000000006ffc       0x6f /opt/paparazzi/arm-multilib/lib/gcc/arm-none-eabi/4.6.2/../../../../arm-none-eabi/lib/thumb2/libm.a(lib_a-sf_nan.o)
 .debug_abbrev  0x000000000000706b       0xdb /opt/paparazzi/arm-multilib/lib/gcc/arm-none-eabi/4.6.2/../../../../arm-none-eabi/lib/thumb2/libm.a(lib_a-sf_scalbn.o)
 .debug_abbrev  0x0000000000007146       0xec /opt/paparazzi/arm-multilib/lib/gcc/arm-none-eabi/4.6.2/../../../../arm-none-eabi/lib/thumb2/libm.a(lib_a-s_copysign.o)
 .debug_abbrev  0x0000000000007232       0xb6 /opt/paparazzi/arm-multilib/lib/gcc/arm-none-eabi/4.6.2/../../../../arm-none-eabi/lib/thumb2/libm.a(lib_a-sf_copysign.o)
 .debug_abbrev  0x00000000000072e8       0x14 /opt/paparazzi/arm-multilib/lib/gcc/arm-none-eabi/4.6.2/thumb2/libgcc.a(_divsi3.o)
 .debug_abbrev  0x00000000000072fc       0x14 /opt/paparazzi/arm-multilib/lib/gcc/arm-none-eabi/4.6.2/thumb2/libgcc.a(_dvmd_tls.o)
 .debug_abbrev  0x0000000000007310       0x14 /opt/paparazzi/arm-multilib/lib/gcc/arm-none-eabi/4.6.2/thumb2/libgcc.a(_arm_addsubdf3.o)
 .debug_abbrev  0x0000000000007324       0x14 /opt/paparazzi/arm-multilib/lib/gcc/arm-none-eabi/4.6.2/thumb2/libgcc.a(_arm_muldivdf3.o)
 .debug_abbrev  0x0000000000007338       0x14 /opt/paparazzi/arm-multilib/lib/gcc/arm-none-eabi/4.6.2/thumb2/libgcc.a(_arm_cmpdf2.o)
 .debug_abbrev  0x000000000000734c       0x14 /opt/paparazzi/arm-multilib/lib/gcc/arm-none-eabi/4.6.2/thumb2/libgcc.a(_arm_fixdfsi.o)
 .debug_abbrev  0x0000000000007360       0x14 /opt/paparazzi/arm-multilib/lib/gcc/arm-none-eabi/4.6.2/thumb2/libgcc.a(_arm_fixunsdfsi.o)
 .debug_abbrev  0x0000000000007374       0x14 /opt/paparazzi/arm-multilib/lib/gcc/arm-none-eabi/4.6.2/thumb2/libgcc.a(_arm_truncdfsf2.o)
 .debug_abbrev  0x0000000000007388       0x14 /opt/paparazzi/arm-multilib/lib/gcc/arm-none-eabi/4.6.2/thumb2/libgcc.a(_arm_addsubsf3.o)
 .debug_abbrev  0x000000000000739c       0x14 /opt/paparazzi/arm-multilib/lib/gcc/arm-none-eabi/4.6.2/thumb2/libgcc.a(_arm_muldivsf3.o)
 .debug_abbrev  0x00000000000073b0       0x14 /opt/paparazzi/arm-multilib/lib/gcc/arm-none-eabi/4.6.2/thumb2/libgcc.a(_arm_cmpsf2.o)
 .debug_abbrev  0x00000000000073c4       0x14 /opt/paparazzi/arm-multilib/lib/gcc/arm-none-eabi/4.6.2/thumb2/libgcc.a(_arm_fixsfsi.o)
 .debug_abbrev  0x00000000000073d8       0x14 /opt/paparazzi/arm-multilib/lib/gcc/arm-none-eabi/4.6.2/thumb2/libgcc.a(_arm_fixunssfsi.o)
 .debug_abbrev  0x00000000000073ec      0x1ad /opt/paparazzi/arm-multilib/lib/gcc/arm-none-eabi/4.6.2/../../../../arm-none-eabi/lib/libstm32.a(stm32_adc.o)
 .debug_abbrev  0x0000000000007599      0x25a /opt/paparazzi/arm-multilib/lib/gcc/arm-none-eabi/4.6.2/../../../../arm-none-eabi/lib/libstm32.a(stm32_tim.o)
 .debug_abbrev  0x00000000000077f3      0x17a /opt/paparazzi/arm-multilib/lib/gcc/arm-none-eabi/4.6.2/../../../../arm-none-eabi/lib/libstm32.a(stm32_dma.o)
 .debug_abbrev  0x000000000000796d      0x1c5 /opt/paparazzi/arm-multilib/lib/gcc/arm-none-eabi/4.6.2/../../../../arm-none-eabi/lib/libstm32.a(stm32_gpio.o)
 .debug_abbrev  0x0000000000007b32      0x1d7 /opt/paparazzi/arm-multilib/lib/gcc/arm-none-eabi/4.6.2/../../../../arm-none-eabi/lib/libstm32.a(stm32_usart.o)
 .debug_abbrev  0x0000000000007d09      0x18b /opt/paparazzi/arm-multilib/lib/gcc/arm-none-eabi/4.6.2/../../../../arm-none-eabi/lib/libstm32.a(stm32_i2c.o)
 .debug_abbrev  0x0000000000007e94      0x1b6 /opt/paparazzi/arm-multilib/lib/gcc/arm-none-eabi/4.6.2/../../../../arm-none-eabi/lib/libstm32.a(stm32_spi.o)
 .debug_abbrev  0x000000000000804a      0x1f6 /opt/paparazzi/arm-multilib/lib/gcc/arm-none-eabi/4.6.2/../../../../arm-none-eabi/lib/libstm32.a(stm32_rcc.o)
 .debug_abbrev  0x0000000000008240      0x129 /opt/paparazzi/arm-multilib/lib/gcc/arm-none-eabi/4.6.2/../../../../arm-none-eabi/lib/libstm32.a(stm32_misc.o)
 .debug_abbrev  0x0000000000008369      0x218 /opt/paparazzi/arm-multilib/lib/gcc/arm-none-eabi/4.6.2/../../../../arm-none-eabi/lib/libopencm3_stm32.a(rcc.o)
 .debug_abbrev  0x0000000000008581      0x119 /opt/paparazzi/arm-multilib/lib/gcc/arm-none-eabi/4.6.2/../../../../arm-none-eabi/lib/libopencm3_stm32.a(usart.o)
 .debug_abbrev  0x000000000000869a       0xe0 /opt/paparazzi/arm-multilib/lib/gcc/arm-none-eabi/4.6.2/../../../../arm-none-eabi/lib/libopencm3_stm32.a(flash.o)
 .debug_abbrev  0x000000000000877a      0x16e /opt/paparazzi/arm-multilib/lib/gcc/arm-none-eabi/4.6.2/../../../../arm-none-eabi/lib/thumb2/libc.a(lib_a-errno.o)
 .debug_abbrev  0x00000000000088e8      0x166 /opt/paparazzi/arm-multilib/lib/gcc/arm-none-eabi/4.6.2/../../../../arm-none-eabi/lib/thumb2/libc.a(lib_a-impure.o)

.debug_line     0x0000000000000000    0x11929
 *(.debug_line)
 .debug_line    0x0000000000000000      0x219 /home/uav/USTUAV/paparazzi/var/MYAC/ap/mcu.o
 .debug_line    0x0000000000000219       0xb4 /home/uav/USTUAV/paparazzi/var/MYAC/ap/arch/stm32/mcu_arch.o
 .debug_line    0x00000000000002cd       0x1d /home/uav/USTUAV/paparazzi/var/MYAC/ap/arch/stm32/led_hw.o
 .debug_line    0x00000000000002ea      0x172 /home/uav/USTUAV/paparazzi/var/MYAC/ap/mcu_periph/sys_time.o
 .debug_line    0x000000000000045c      0x1e8 /home/uav/USTUAV/paparazzi/var/MYAC/ap/arch/stm32/mcu_periph/sys_time_arch.o
 .debug_line    0x0000000000000644      0x12f /home/uav/USTUAV/paparazzi/var/MYAC/ap/./inter_mcu.o
 .debug_line    0x0000000000000773      0x2a5 /home/uav/USTUAV/paparazzi/var/MYAC/ap/math/pprz_geodetic_int.o
 .debug_line    0x0000000000000a18      0x484 /home/uav/USTUAV/paparazzi/var/MYAC/ap/math/pprz_geodetic_float.o
 .debug_line    0x0000000000000e9c      0x2a6 /home/uav/USTUAV/paparazzi/var/MYAC/ap/math/pprz_geodetic_double.o
 .debug_line    0x0000000000001142       0x9b /home/uav/USTUAV/paparazzi/var/MYAC/ap/math/pprz_trig_int.o
 .debug_line    0x00000000000011dd       0xc0 /home/uav/USTUAV/paparazzi/var/MYAC/ap/mcu_periph/i2c.o
 .debug_line    0x000000000000129d      0x1c5 /home/uav/USTUAV/paparazzi/var/MYAC/ap/arch/stm32/mcu_periph/i2c_arch.o
 .debug_line    0x0000000000001462      0x4fe /home/uav/USTUAV/paparazzi/var/MYAC/ap/firmwares/fixedwing/main_fbw.o
 .debug_line    0x0000000000001960      0x124 /home/uav/USTUAV/paparazzi/var/MYAC/ap/subsystems/electrical.o
 .debug_line    0x0000000000001a84       0xa0 /home/uav/USTUAV/paparazzi/var/MYAC/ap/./commands.o
 .debug_line    0x0000000000001b24       0xc9 /home/uav/USTUAV/paparazzi/var/MYAC/ap/firmwares/fixedwing/fbw_downlink.o
 .debug_line    0x0000000000001bed      0xf7a /home/uav/USTUAV/paparazzi/var/MYAC/ap/firmwares/fixedwing/main_ap.o
 .debug_line    0x0000000000002b67      0x27f /home/uav/USTUAV/paparazzi/var/MYAC/ap/./estimator.o
 .debug_line    0x0000000000002de6       0xc9 /home/uav/USTUAV/paparazzi/var/MYAC/ap/firmwares/fixedwing/ap_downlink.o
 .debug_line    0x0000000000002eaf       0x8a /home/uav/USTUAV/paparazzi/var/MYAC/ap/arch/stm32/stm32_exceptions.o
 .debug_line    0x0000000000002f39      0x1bc /home/uav/USTUAV/paparazzi/var/MYAC/ap/arch/stm32/stm32_vector_table.o
 .debug_line    0x00000000000030f5      0x17c /home/uav/USTUAV/paparazzi/var/MYAC/ap/lisa/plug_sys.o
 .debug_line    0x0000000000003271       0x60 /home/uav/USTUAV/paparazzi/var/MYAC/ap/firmwares/fixedwing/main.o
 .debug_line    0x00000000000032d1      0x107 /home/uav/USTUAV/paparazzi/var/MYAC/ap/mcu_periph/uart.o
 .debug_line    0x00000000000033d8      0x29d /home/uav/USTUAV/paparazzi/var/MYAC/ap/arch/stm32/mcu_periph/uart_arch.o
 .debug_line    0x0000000000003675      0x1d6 /home/uav/USTUAV/paparazzi/var/MYAC/ap/subsystems/settings.o
 .debug_line    0x000000000000384b      0x338 /home/uav/USTUAV/paparazzi/var/MYAC/ap/arch/stm32/subsystems/settings_arch.o
 .debug_line    0x0000000000003b83      0x2ae /home/uav/USTUAV/paparazzi/var/MYAC/ap/arch/stm32/mcu_periph/adc_arch.o
 .debug_line    0x0000000000003e31       0xb3 /home/uav/USTUAV/paparazzi/var/MYAC/ap/arch/stm32/servos_direct_hw.o
 .debug_line    0x0000000000003ee4       0x92 /home/uav/USTUAV/paparazzi/var/MYAC/ap/actuators.o
 .debug_line    0x0000000000003f76      0x247 /home/uav/USTUAV/paparazzi/var/MYAC/ap/firmwares/rotorcraft/actuators/arch/stm32/actuators_pwm_arch.o
 .debug_line    0x00000000000041bd       0xd2 /home/uav/USTUAV/paparazzi/var/MYAC/ap/subsystems/radio_control.o
 .debug_line    0x000000000000428f        0x0 /home/uav/USTUAV/paparazzi/var/MYAC/ap/subsystems/radio_control/spektrum.o
 .debug_line    0x000000000000428f      0x3e7 /home/uav/USTUAV/paparazzi/var/MYAC/ap/arch/stm32/subsystems/radio_control/spektrum_arch.o
 .debug_line    0x0000000000004676       0xa5 /home/uav/USTUAV/paparazzi/var/MYAC/ap/subsystems/datalink/downlink.o
 .debug_line    0x000000000000471b      0x121 /home/uav/USTUAV/paparazzi/var/MYAC/ap/subsystems/datalink/pprz_transport.o
 .debug_line    0x000000000000483c      0x4b8 /home/uav/USTUAV/paparazzi/var/MYAC/ap/firmwares/fixedwing/datalink.o
 .debug_line    0x0000000000004cf4      0x273 /home/uav/USTUAV/paparazzi/var/MYAC/ap/firmwares/fixedwing/stabilization/stabilization_attitude.o
 .debug_line    0x0000000000004f67      0x246 /home/uav/USTUAV/paparazzi/var/MYAC/ap/firmwares/fixedwing/guidance/guidance_v.o
 .debug_line    0x00000000000051ad      0x195 /home/uav/USTUAV/paparazzi/var/MYAC/ap/subsystems/imu.o
 .debug_line    0x0000000000005342      0x1c2 /home/uav/USTUAV/paparazzi/var/MYAC/ap/subsystems/imu/imu_aspirin2.o
 .debug_line    0x0000000000005504      0x30b /home/uav/USTUAV/paparazzi/var/MYAC/ap/arch/stm32/mcu_periph/spi_arch.o
 .debug_line    0x000000000000580f       0xc6 /home/uav/USTUAV/paparazzi/var/MYAC/ap/mcu_periph/spi.o
 .debug_line    0x00000000000058d5       0xe4 /home/uav/USTUAV/paparazzi/var/MYAC/ap/subsystems/ahrs.o
 .debug_line    0x00000000000059b9      0x21c /home/uav/USTUAV/paparazzi/var/MYAC/ap/subsystems/ahrs/ahrs_aligner.o
 .debug_line    0x0000000000005bd5      0x569 /home/uav/USTUAV/paparazzi/var/MYAC/ap/subsystems/ahrs/ahrs_float_dcm.o
 .debug_line    0x000000000000613e      0x4ac /home/uav/USTUAV/paparazzi/var/MYAC/ap/subsystems/gps/gps_ubx.o
 .debug_line    0x00000000000065ea      0x14a /home/uav/USTUAV/paparazzi/var/MYAC/ap/subsystems/gps.o
 .debug_line    0x0000000000006734      0x961 /home/uav/USTUAV/paparazzi/var/MYAC/ap/subsystems/nav.o
 .debug_line    0x0000000000007095      0x10b /home/uav/USTUAV/paparazzi/var/MYAC/ap/subsystems/navigation/common_flight_plan.o
 .debug_line    0x00000000000071a0       0xfa /home/uav/USTUAV/paparazzi/var/MYAC/ap/subsystems/navigation/traffic_info.o
 .debug_line    0x000000000000729a      0x45f /home/uav/USTUAV/paparazzi/var/MYAC/ap/subsystems/navigation/nav_survey_rectangle.o
 .debug_line    0x00000000000076f9      0x412 /home/uav/USTUAV/paparazzi/var/MYAC/ap/subsystems/navigation/nav_line.o
 .debug_line    0x0000000000007b0b      0x25b /home/uav/USTUAV/paparazzi/var/MYAC/ap/modules/core/sys_mon.o
 .debug_line    0x0000000000007d66      0x13e /opt/paparazzi/arm-multilib/lib/gcc/arm-none-eabi/4.6.2/../../../../arm-none-eabi/lib/thumb2/libc.a(lib_a-memcpy.o)
 .debug_line    0x0000000000007ea4      0x1ff /opt/paparazzi/arm-multilib/lib/gcc/arm-none-eabi/4.6.2/../../../../arm-none-eabi/lib/thumb2/libm.a(lib_a-s_atan.o)
 .debug_line    0x00000000000080a3      0x17f /opt/paparazzi/arm-multilib/lib/gcc/arm-none-eabi/4.6.2/../../../../arm-none-eabi/lib/thumb2/libm.a(lib_a-s_cos.o)
 .debug_line    0x0000000000008222      0x1b5 /opt/paparazzi/arm-multilib/lib/gcc/arm-none-eabi/4.6.2/../../../../arm-none-eabi/lib/thumb2/libm.a(lib_a-s_fabs.o)
 .debug_line    0x00000000000083d7      0x1a4 /opt/paparazzi/arm-multilib/lib/gcc/arm-none-eabi/4.6.2/../../../../arm-none-eabi/lib/thumb2/libm.a(lib_a-s_rint.o)
 .debug_line    0x000000000000857b      0x180 /opt/paparazzi/arm-multilib/lib/gcc/arm-none-eabi/4.6.2/../../../../arm-none-eabi/lib/thumb2/libm.a(lib_a-s_sin.o)
 .debug_line    0x00000000000086fb      0x17c /opt/paparazzi/arm-multilib/lib/gcc/arm-none-eabi/4.6.2/../../../../arm-none-eabi/lib/thumb2/libm.a(lib_a-s_tan.o)
 .debug_line    0x0000000000008877      0x1fb /opt/paparazzi/arm-multilib/lib/gcc/arm-none-eabi/4.6.2/../../../../arm-none-eabi/lib/thumb2/libm.a(lib_a-sf_atan.o)
 .debug_line    0x0000000000008a72      0x178 /opt/paparazzi/arm-multilib/lib/gcc/arm-none-eabi/4.6.2/../../../../arm-none-eabi/lib/thumb2/libm.a(lib_a-sf_cos.o)
 .debug_line    0x0000000000008bea      0x15c /opt/paparazzi/arm-multilib/lib/gcc/arm-none-eabi/4.6.2/../../../../arm-none-eabi/lib/thumb2/libm.a(lib_a-sf_fabs.o)
 .debug_line    0x0000000000008d46      0x175 /opt/paparazzi/arm-multilib/lib/gcc/arm-none-eabi/4.6.2/../../../../arm-none-eabi/lib/thumb2/libm.a(lib_a-sf_sin.o)
 .debug_line    0x0000000000008ebb      0x101 /opt/paparazzi/arm-multilib/lib/gcc/arm-none-eabi/4.6.2/../../../../arm-none-eabi/lib/thumb2/libm.a(lib_a-w_asin.o)
 .debug_line    0x0000000000008fbc       0xe5 /opt/paparazzi/arm-multilib/lib/gcc/arm-none-eabi/4.6.2/../../../../arm-none-eabi/lib/thumb2/libm.a(lib_a-w_atan2.o)
 .debug_line    0x00000000000090a1      0x103 /opt/paparazzi/arm-multilib/lib/gcc/arm-none-eabi/4.6.2/../../../../arm-none-eabi/lib/thumb2/libm.a(lib_a-w_cosh.o)
 .debug_line    0x00000000000091a4      0x106 /opt/paparazzi/arm-multilib/lib/gcc/arm-none-eabi/4.6.2/../../../../arm-none-eabi/lib/thumb2/libm.a(lib_a-w_exp.o)
 .debug_line    0x00000000000092aa      0x10c /opt/paparazzi/arm-multilib/lib/gcc/arm-none-eabi/4.6.2/../../../../arm-none-eabi/lib/thumb2/libm.a(lib_a-w_log.o)
 .debug_line    0x00000000000093b6      0x182 /opt/paparazzi/arm-multilib/lib/gcc/arm-none-eabi/4.6.2/../../../../arm-none-eabi/lib/thumb2/libm.a(lib_a-w_pow.o)
 .debug_line    0x0000000000009538      0x118 /opt/paparazzi/arm-multilib/lib/gcc/arm-none-eabi/4.6.2/../../../../arm-none-eabi/lib/thumb2/libm.a(lib_a-w_sinh.o)
 .debug_line    0x0000000000009650      0x102 /opt/paparazzi/arm-multilib/lib/gcc/arm-none-eabi/4.6.2/../../../../arm-none-eabi/lib/thumb2/libm.a(lib_a-w_sqrt.o)
 .debug_line    0x0000000000009752       0xff /opt/paparazzi/arm-multilib/lib/gcc/arm-none-eabi/4.6.2/../../../../arm-none-eabi/lib/thumb2/libm.a(lib_a-wf_asin.o)
 .debug_line    0x0000000000009851       0xe5 /opt/paparazzi/arm-multilib/lib/gcc/arm-none-eabi/4.6.2/../../../../arm-none-eabi/lib/thumb2/libm.a(lib_a-wf_atan2.o)
 .debug_line    0x0000000000009936      0x18b /opt/paparazzi/arm-multilib/lib/gcc/arm-none-eabi/4.6.2/../../../../arm-none-eabi/lib/thumb2/libm.a(lib_a-wf_pow.o)
 .debug_line    0x0000000000009ac1      0x103 /opt/paparazzi/arm-multilib/lib/gcc/arm-none-eabi/4.6.2/../../../../arm-none-eabi/lib/thumb2/libm.a(lib_a-wf_sqrt.o)
 .debug_line    0x0000000000009bc4      0x198 /opt/paparazzi/arm-multilib/lib/gcc/arm-none-eabi/4.6.2/../../../../arm-none-eabi/lib/thumb2/libm.a(lib_a-e_asin.o)
 .debug_line    0x0000000000009d5c      0x1b3 /opt/paparazzi/arm-multilib/lib/gcc/arm-none-eabi/4.6.2/../../../../arm-none-eabi/lib/thumb2/libm.a(lib_a-e_atan2.o)
 .debug_line    0x0000000000009f0f      0x12a /opt/paparazzi/arm-multilib/lib/gcc/arm-none-eabi/4.6.2/../../../../arm-none-eabi/lib/thumb2/libm.a(lib_a-e_cosh.o)
 .debug_line    0x000000000000a039      0x19e /opt/paparazzi/arm-multilib/lib/gcc/arm-none-eabi/4.6.2/../../../../arm-none-eabi/lib/thumb2/libm.a(lib_a-e_exp.o)
 .debug_line    0x000000000000a1d7      0x1ec /opt/paparazzi/arm-multilib/lib/gcc/arm-none-eabi/4.6.2/../../../../arm-none-eabi/lib/thumb2/libm.a(lib_a-e_log.o)
 .debug_line    0x000000000000a3c3      0x306 /opt/paparazzi/arm-multilib/lib/gcc/arm-none-eabi/4.6.2/../../../../arm-none-eabi/lib/thumb2/libm.a(lib_a-e_pow.o)
 .debug_line    0x000000000000a6c9      0x1ef /opt/paparazzi/arm-multilib/lib/gcc/arm-none-eabi/4.6.2/../../../../arm-none-eabi/lib/thumb2/libm.a(lib_a-e_rem_pio2.o)
 .debug_line    0x000000000000a8b8      0x133 /opt/paparazzi/arm-multilib/lib/gcc/arm-none-eabi/4.6.2/../../../../arm-none-eabi/lib/thumb2/libm.a(lib_a-e_sinh.o)
 .debug_line    0x000000000000a9eb      0x1da /opt/paparazzi/arm-multilib/lib/gcc/arm-none-eabi/4.6.2/../../../../arm-none-eabi/lib/thumb2/libm.a(lib_a-e_sqrt.o)
 .debug_line    0x000000000000abc5      0x18f /opt/paparazzi/arm-multilib/lib/gcc/arm-none-eabi/4.6.2/../../../../arm-none-eabi/lib/thumb2/libm.a(lib_a-ef_asin.o)
 .debug_line    0x000000000000ad54      0x1a6 /opt/paparazzi/arm-multilib/lib/gcc/arm-none-eabi/4.6.2/../../../../arm-none-eabi/lib/thumb2/libm.a(lib_a-ef_atan2.o)
 .debug_line    0x000000000000aefa      0x2a7 /opt/paparazzi/arm-multilib/lib/gcc/arm-none-eabi/4.6.2/../../../../arm-none-eabi/lib/thumb2/libm.a(lib_a-ef_pow.o)
 .debug_line    0x000000000000b1a1      0x1d9 /opt/paparazzi/arm-multilib/lib/gcc/arm-none-eabi/4.6.2/../../../../arm-none-eabi/lib/thumb2/libm.a(lib_a-ef_rem_pio2.o)
 .debug_line    0x000000000000b37a      0x195 /opt/paparazzi/arm-multilib/lib/gcc/arm-none-eabi/4.6.2/../../../../arm-none-eabi/lib/thumb2/libm.a(lib_a-ef_sqrt.o)
 .debug_line    0x000000000000b50f      0x16f /opt/paparazzi/arm-multilib/lib/gcc/arm-none-eabi/4.6.2/../../../../arm-none-eabi/lib/thumb2/libm.a(lib_a-k_cos.o)
 .debug_line    0x000000000000b67e      0x3c1 /opt/paparazzi/arm-multilib/lib/gcc/arm-none-eabi/4.6.2/../../../../arm-none-eabi/lib/thumb2/libm.a(lib_a-k_rem_pio2.o)
 .debug_line    0x000000000000ba3f      0x10f /opt/paparazzi/arm-multilib/lib/gcc/arm-none-eabi/4.6.2/../../../../arm-none-eabi/lib/thumb2/libm.a(lib_a-k_sin.o)
 .debug_line    0x000000000000bb4e      0x1ac /opt/paparazzi/arm-multilib/lib/gcc/arm-none-eabi/4.6.2/../../../../arm-none-eabi/lib/thumb2/libm.a(lib_a-k_tan.o)
 .debug_line    0x000000000000bcfa      0x118 /opt/paparazzi/arm-multilib/lib/gcc/arm-none-eabi/4.6.2/../../../../arm-none-eabi/lib/thumb2/libm.a(lib_a-kf_cos.o)
 .debug_line    0x000000000000be12      0x40c /opt/paparazzi/arm-multilib/lib/gcc/arm-none-eabi/4.6.2/../../../../arm-none-eabi/lib/thumb2/libm.a(lib_a-kf_rem_pio2.o)
 .debug_line    0x000000000000c21e      0x10c /opt/paparazzi/arm-multilib/lib/gcc/arm-none-eabi/4.6.2/../../../../arm-none-eabi/lib/thumb2/libm.a(lib_a-kf_sin.o)
 .debug_line    0x000000000000c32a      0x200 /opt/paparazzi/arm-multilib/lib/gcc/arm-none-eabi/4.6.2/../../../../arm-none-eabi/lib/thumb2/libm.a(lib_a-s_expm1.o)
 .debug_line    0x000000000000c52a      0x15f /opt/paparazzi/arm-multilib/lib/gcc/arm-none-eabi/4.6.2/../../../../arm-none-eabi/lib/thumb2/libm.a(lib_a-s_finite.o)
 .debug_line    0x000000000000c689      0x1e9 /opt/paparazzi/arm-multilib/lib/gcc/arm-none-eabi/4.6.2/../../../../arm-none-eabi/lib/thumb2/libm.a(lib_a-s_floor.o)
 .debug_line    0x000000000000c872      0x1a0 /opt/paparazzi/arm-multilib/lib/gcc/arm-none-eabi/4.6.2/../../../../arm-none-eabi/lib/thumb2/libm.a(lib_a-s_fpclassify.o)
 .debug_line    0x000000000000ca12       0x83 /opt/paparazzi/arm-multilib/lib/gcc/arm-none-eabi/4.6.2/../../../../arm-none-eabi/lib/thumb2/libm.a(lib_a-s_lib_ver.o)
 .debug_line    0x000000000000ca95       0xe8 /opt/paparazzi/arm-multilib/lib/gcc/arm-none-eabi/4.6.2/../../../../arm-none-eabi/lib/thumb2/libm.a(lib_a-s_matherr.o)
 .debug_line    0x000000000000cb7d       0xe3 /opt/paparazzi/arm-multilib/lib/gcc/arm-none-eabi/4.6.2/../../../../arm-none-eabi/lib/thumb2/libm.a(lib_a-s_nan.o)
 .debug_line    0x000000000000cc60      0x18d /opt/paparazzi/arm-multilib/lib/gcc/arm-none-eabi/4.6.2/../../../../arm-none-eabi/lib/thumb2/libm.a(lib_a-s_scalbn.o)
 .debug_line    0x000000000000cded      0x160 /opt/paparazzi/arm-multilib/lib/gcc/arm-none-eabi/4.6.2/../../../../arm-none-eabi/lib/thumb2/libm.a(lib_a-sf_finite.o)
 .debug_line    0x000000000000cf4d      0x1d8 /opt/paparazzi/arm-multilib/lib/gcc/arm-none-eabi/4.6.2/../../../../arm-none-eabi/lib/thumb2/libm.a(lib_a-sf_floor.o)
 .debug_line    0x000000000000d125      0x18f /opt/paparazzi/arm-multilib/lib/gcc/arm-none-eabi/4.6.2/../../../../arm-none-eabi/lib/thumb2/libm.a(lib_a-sf_fpclassify.o)
 .debug_line    0x000000000000d2b4       0xe2 /opt/paparazzi/arm-multilib/lib/gcc/arm-none-eabi/4.6.2/../../../../arm-none-eabi/lib/thumb2/libm.a(lib_a-sf_nan.o)
 .debug_line    0x000000000000d396      0x18c /opt/paparazzi/arm-multilib/lib/gcc/arm-none-eabi/4.6.2/../../../../arm-none-eabi/lib/thumb2/libm.a(lib_a-sf_scalbn.o)
 .debug_line    0x000000000000d522      0x171 /opt/paparazzi/arm-multilib/lib/gcc/arm-none-eabi/4.6.2/../../../../arm-none-eabi/lib/thumb2/libm.a(lib_a-s_copysign.o)
 .debug_line    0x000000000000d693      0x16f /opt/paparazzi/arm-multilib/lib/gcc/arm-none-eabi/4.6.2/../../../../arm-none-eabi/lib/thumb2/libm.a(lib_a-sf_copysign.o)
 .debug_line    0x000000000000d802       0xbe /opt/paparazzi/arm-multilib/lib/gcc/arm-none-eabi/4.6.2/thumb2/libgcc.a(_divsi3.o)
 .debug_line    0x000000000000d8c0       0x83 /opt/paparazzi/arm-multilib/lib/gcc/arm-none-eabi/4.6.2/thumb2/libgcc.a(_dvmd_tls.o)
 .debug_line    0x000000000000d943      0x220 /opt/paparazzi/arm-multilib/lib/gcc/arm-none-eabi/4.6.2/thumb2/libgcc.a(_arm_addsubdf3.o)
 .debug_line    0x000000000000db63      0x23c /opt/paparazzi/arm-multilib/lib/gcc/arm-none-eabi/4.6.2/thumb2/libgcc.a(_arm_muldivdf3.o)
 .debug_line    0x000000000000dd9f      0x122 /opt/paparazzi/arm-multilib/lib/gcc/arm-none-eabi/4.6.2/thumb2/libgcc.a(_arm_cmpdf2.o)
 .debug_line    0x000000000000dec1       0x9a /opt/paparazzi/arm-multilib/lib/gcc/arm-none-eabi/4.6.2/thumb2/libgcc.a(_arm_fixdfsi.o)
 .debug_line    0x000000000000df5b       0x96 /opt/paparazzi/arm-multilib/lib/gcc/arm-none-eabi/4.6.2/thumb2/libgcc.a(_arm_fixunsdfsi.o)
 .debug_line    0x000000000000dff1       0xae /opt/paparazzi/arm-multilib/lib/gcc/arm-none-eabi/4.6.2/thumb2/libgcc.a(_arm_truncdfsf2.o)
 .debug_line    0x000000000000e09f      0x13c /opt/paparazzi/arm-multilib/lib/gcc/arm-none-eabi/4.6.2/thumb2/libgcc.a(_arm_addsubsf3.o)
 .debug_line    0x000000000000e1db      0x15d /opt/paparazzi/arm-multilib/lib/gcc/arm-none-eabi/4.6.2/thumb2/libgcc.a(_arm_muldivsf3.o)
 .debug_line    0x000000000000e338      0x116 /opt/paparazzi/arm-multilib/lib/gcc/arm-none-eabi/4.6.2/thumb2/libgcc.a(_arm_cmpsf2.o)
 .debug_line    0x000000000000e44e       0x9a /opt/paparazzi/arm-multilib/lib/gcc/arm-none-eabi/4.6.2/thumb2/libgcc.a(_arm_fixsfsi.o)
 .debug_line    0x000000000000e4e8       0x96 /opt/paparazzi/arm-multilib/lib/gcc/arm-none-eabi/4.6.2/thumb2/libgcc.a(_arm_fixunssfsi.o)
 .debug_line    0x000000000000e57e      0x4d2 /opt/paparazzi/arm-multilib/lib/gcc/arm-none-eabi/4.6.2/../../../../arm-none-eabi/lib/libstm32.a(stm32_adc.o)
 .debug_line    0x000000000000ea50      0xa54 /opt/paparazzi/arm-multilib/lib/gcc/arm-none-eabi/4.6.2/../../../../arm-none-eabi/lib/libstm32.a(stm32_tim.o)
 .debug_line    0x000000000000f4a4      0x298 /opt/paparazzi/arm-multilib/lib/gcc/arm-none-eabi/4.6.2/../../../../arm-none-eabi/lib/libstm32.a(stm32_dma.o)
 .debug_line    0x000000000000f73c      0x34a /opt/paparazzi/arm-multilib/lib/gcc/arm-none-eabi/4.6.2/../../../../arm-none-eabi/lib/libstm32.a(stm32_gpio.o)
 .debug_line    0x000000000000fa86      0x44a /opt/paparazzi/arm-multilib/lib/gcc/arm-none-eabi/4.6.2/../../../../arm-none-eabi/lib/libstm32.a(stm32_usart.o)
 .debug_line    0x000000000000fed0      0x488 /opt/paparazzi/arm-multilib/lib/gcc/arm-none-eabi/4.6.2/../../../../arm-none-eabi/lib/libstm32.a(stm32_i2c.o)
 .debug_line    0x0000000000010358      0x3e7 /opt/paparazzi/arm-multilib/lib/gcc/arm-none-eabi/4.6.2/../../../../arm-none-eabi/lib/libstm32.a(stm32_spi.o)
 .debug_line    0x000000000001073f      0x445 /opt/paparazzi/arm-multilib/lib/gcc/arm-none-eabi/4.6.2/../../../../arm-none-eabi/lib/libstm32.a(stm32_rcc.o)
 .debug_line    0x0000000000010b84      0x21a /opt/paparazzi/arm-multilib/lib/gcc/arm-none-eabi/4.6.2/../../../../arm-none-eabi/lib/libstm32.a(stm32_misc.o)
 .debug_line    0x0000000000010d9e      0x42d /opt/paparazzi/arm-multilib/lib/gcc/arm-none-eabi/4.6.2/../../../../arm-none-eabi/lib/libopencm3_stm32.a(rcc.o)
 .debug_line    0x00000000000111cb      0x23a /opt/paparazzi/arm-multilib/lib/gcc/arm-none-eabi/4.6.2/../../../../arm-none-eabi/lib/libopencm3_stm32.a(usart.o)
 .debug_line    0x0000000000011405      0x290 /opt/paparazzi/arm-multilib/lib/gcc/arm-none-eabi/4.6.2/../../../../arm-none-eabi/lib/libopencm3_stm32.a(flash.o)
 .debug_line    0x0000000000011695      0x157 /opt/paparazzi/arm-multilib/lib/gcc/arm-none-eabi/4.6.2/../../../../arm-none-eabi/lib/thumb2/libc.a(lib_a-errno.o)
 .debug_line    0x00000000000117ec      0x13d /opt/paparazzi/arm-multilib/lib/gcc/arm-none-eabi/4.6.2/../../../../arm-none-eabi/lib/thumb2/libc.a(lib_a-impure.o)

.debug_frame    0x0000000000000000     0x3ffc
 *(.debug_frame)
 .debug_frame   0x0000000000000000       0x3c /home/uav/USTUAV/paparazzi/var/MYAC/ap/mcu.o
 .debug_frame   0x000000000000003c       0x2c /home/uav/USTUAV/paparazzi/var/MYAC/ap/arch/stm32/mcu_arch.o
 .debug_frame   0x0000000000000068       0x7c /home/uav/USTUAV/paparazzi/var/MYAC/ap/mcu_periph/sys_time.o
 .debug_frame   0x00000000000000e4       0x48 /home/uav/USTUAV/paparazzi/var/MYAC/ap/arch/stm32/mcu_periph/sys_time_arch.o
 .debug_frame   0x000000000000012c      0x254 /home/uav/USTUAV/paparazzi/var/MYAC/ap/math/pprz_geodetic_int.o
 .debug_frame   0x0000000000000380      0x2ec /home/uav/USTUAV/paparazzi/var/MYAC/ap/math/pprz_geodetic_float.o
 .debug_frame   0x000000000000066c      0x26c /home/uav/USTUAV/paparazzi/var/MYAC/ap/math/pprz_geodetic_double.o
 .debug_frame   0x00000000000008d8       0x20 /home/uav/USTUAV/paparazzi/var/MYAC/ap/mcu_periph/i2c.o
 .debug_frame   0x00000000000008f8       0x5c /home/uav/USTUAV/paparazzi/var/MYAC/ap/arch/stm32/mcu_periph/i2c_arch.o
 .debug_frame   0x0000000000000954       0xcc /home/uav/USTUAV/paparazzi/var/MYAC/ap/firmwares/fixedwing/main_fbw.o
 .debug_frame   0x0000000000000a20       0x58 /home/uav/USTUAV/paparazzi/var/MYAC/ap/subsystems/electrical.o
 .debug_frame   0x0000000000000a78      0x12c /home/uav/USTUAV/paparazzi/var/MYAC/ap/firmwares/fixedwing/main_ap.o
 .debug_frame   0x0000000000000ba4       0xa0 /home/uav/USTUAV/paparazzi/var/MYAC/ap/./estimator.o
 .debug_frame   0x0000000000000c44       0x60 /home/uav/USTUAV/paparazzi/var/MYAC/ap/arch/stm32/stm32_exceptions.o
 .debug_frame   0x0000000000000ca4       0x60 /home/uav/USTUAV/paparazzi/var/MYAC/ap/arch/stm32/stm32_vector_table.o
 .debug_frame   0x0000000000000d04       0x90 /home/uav/USTUAV/paparazzi/var/MYAC/ap/lisa/plug_sys.o
 .debug_frame   0x0000000000000d94       0x2c /home/uav/USTUAV/paparazzi/var/MYAC/ap/firmwares/fixedwing/main.o
 .debug_frame   0x0000000000000dc0       0x30 /home/uav/USTUAV/paparazzi/var/MYAC/ap/mcu_periph/uart.o
 .debug_frame   0x0000000000000df0       0xe0 /home/uav/USTUAV/paparazzi/var/MYAC/ap/arch/stm32/mcu_periph/uart_arch.o
 .debug_frame   0x0000000000000ed0       0x30 /home/uav/USTUAV/paparazzi/var/MYAC/ap/subsystems/settings.o
 .debug_frame   0x0000000000000f00       0x9c /home/uav/USTUAV/paparazzi/var/MYAC/ap/arch/stm32/subsystems/settings_arch.o
 .debug_frame   0x0000000000000f9c       0x70 /home/uav/USTUAV/paparazzi/var/MYAC/ap/arch/stm32/mcu_periph/adc_arch.o
 .debug_frame   0x000000000000100c       0x20 /home/uav/USTUAV/paparazzi/var/MYAC/ap/arch/stm32/servos_direct_hw.o
 .debug_frame   0x000000000000102c       0x58 /home/uav/USTUAV/paparazzi/var/MYAC/ap/firmwares/rotorcraft/actuators/arch/stm32/actuators_pwm_arch.o
 .debug_frame   0x0000000000001084      0x134 /home/uav/USTUAV/paparazzi/var/MYAC/ap/arch/stm32/subsystems/radio_control/spektrum_arch.o
 .debug_frame   0x00000000000011b8       0x44 /home/uav/USTUAV/paparazzi/var/MYAC/ap/firmwares/fixedwing/datalink.o
 .debug_frame   0x00000000000011fc       0x74 /home/uav/USTUAV/paparazzi/var/MYAC/ap/firmwares/fixedwing/stabilization/stabilization_attitude.o
 .debug_frame   0x0000000000001270       0xa0 /home/uav/USTUAV/paparazzi/var/MYAC/ap/firmwares/fixedwing/guidance/guidance_v.o
 .debug_frame   0x0000000000001310       0x54 /home/uav/USTUAV/paparazzi/var/MYAC/ap/subsystems/imu.o
 .debug_frame   0x0000000000001364       0x84 /home/uav/USTUAV/paparazzi/var/MYAC/ap/subsystems/imu/imu_aspirin2.o
 .debug_frame   0x00000000000013e8       0xc8 /home/uav/USTUAV/paparazzi/var/MYAC/ap/arch/stm32/mcu_periph/spi_arch.o
 .debug_frame   0x00000000000014b0       0x54 /home/uav/USTUAV/paparazzi/var/MYAC/ap/subsystems/ahrs/ahrs_aligner.o
 .debug_frame   0x0000000000001504      0x240 /home/uav/USTUAV/paparazzi/var/MYAC/ap/subsystems/ahrs/ahrs_float_dcm.o
 .debug_frame   0x0000000000001744      0x114 /home/uav/USTUAV/paparazzi/var/MYAC/ap/subsystems/gps/gps_ubx.o
 .debug_frame   0x0000000000001858       0x20 /home/uav/USTUAV/paparazzi/var/MYAC/ap/subsystems/gps.o
 .debug_frame   0x0000000000001878      0x29c /home/uav/USTUAV/paparazzi/var/MYAC/ap/subsystems/nav.o
 .debug_frame   0x0000000000001b14       0x30 /home/uav/USTUAV/paparazzi/var/MYAC/ap/subsystems/navigation/common_flight_plan.o
 .debug_frame   0x0000000000001b44       0x30 /home/uav/USTUAV/paparazzi/var/MYAC/ap/subsystems/navigation/traffic_info.o
 .debug_frame   0x0000000000001b74       0x74 /home/uav/USTUAV/paparazzi/var/MYAC/ap/subsystems/navigation/nav_survey_rectangle.o
 .debug_frame   0x0000000000001be8       0x54 /home/uav/USTUAV/paparazzi/var/MYAC/ap/subsystems/navigation/nav_line.o
 .debug_frame   0x0000000000001c3c       0x84 /home/uav/USTUAV/paparazzi/var/MYAC/ap/modules/core/sys_mon.o
 .debug_frame   0x0000000000001cc0       0x28 /opt/paparazzi/arm-multilib/lib/gcc/arm-none-eabi/4.6.2/../../../../arm-none-eabi/lib/thumb2/libc.a(lib_a-memcpy.o)
 .debug_frame   0x0000000000001ce8       0x38 /opt/paparazzi/arm-multilib/lib/gcc/arm-none-eabi/4.6.2/../../../../arm-none-eabi/lib/thumb2/libm.a(lib_a-s_atan.o)
 .debug_frame   0x0000000000001d20       0x2c /opt/paparazzi/arm-multilib/lib/gcc/arm-none-eabi/4.6.2/../../../../arm-none-eabi/lib/thumb2/libm.a(lib_a-s_cos.o)
 .debug_frame   0x0000000000001d4c       0x20 /opt/paparazzi/arm-multilib/lib/gcc/arm-none-eabi/4.6.2/../../../../arm-none-eabi/lib/thumb2/libm.a(lib_a-s_fabs.o)
 .debug_frame   0x0000000000001d6c       0x38 /opt/paparazzi/arm-multilib/lib/gcc/arm-none-eabi/4.6.2/../../../../arm-none-eabi/lib/thumb2/libm.a(lib_a-s_rint.o)
 .debug_frame   0x0000000000001da4       0x2c /opt/paparazzi/arm-multilib/lib/gcc/arm-none-eabi/4.6.2/../../../../arm-none-eabi/lib/thumb2/libm.a(lib_a-s_sin.o)
 .debug_frame   0x0000000000001dd0       0x2c /opt/paparazzi/arm-multilib/lib/gcc/arm-none-eabi/4.6.2/../../../../arm-none-eabi/lib/thumb2/libm.a(lib_a-s_tan.o)
 .debug_frame   0x0000000000001dfc       0x30 /opt/paparazzi/arm-multilib/lib/gcc/arm-none-eabi/4.6.2/../../../../arm-none-eabi/lib/thumb2/libm.a(lib_a-sf_atan.o)
 .debug_frame   0x0000000000001e2c       0x2c /opt/paparazzi/arm-multilib/lib/gcc/arm-none-eabi/4.6.2/../../../../arm-none-eabi/lib/thumb2/libm.a(lib_a-sf_cos.o)
 .debug_frame   0x0000000000001e58       0x20 /opt/paparazzi/arm-multilib/lib/gcc/arm-none-eabi/4.6.2/../../../../arm-none-eabi/lib/thumb2/libm.a(lib_a-sf_fabs.o)
 .debug_frame   0x0000000000001e78       0x2c /opt/paparazzi/arm-multilib/lib/gcc/arm-none-eabi/4.6.2/../../../../arm-none-eabi/lib/thumb2/libm.a(lib_a-sf_sin.o)
 .debug_frame   0x0000000000001ea4       0x34 /opt/paparazzi/arm-multilib/lib/gcc/arm-none-eabi/4.6.2/../../../../arm-none-eabi/lib/thumb2/libm.a(lib_a-w_asin.o)
 .debug_frame   0x0000000000001ed8       0x20 /opt/paparazzi/arm-multilib/lib/gcc/arm-none-eabi/4.6.2/../../../../arm-none-eabi/lib/thumb2/libm.a(lib_a-w_atan2.o)
 .debug_frame   0x0000000000001ef8       0x34 /opt/paparazzi/arm-multilib/lib/gcc/arm-none-eabi/4.6.2/../../../../arm-none-eabi/lib/thumb2/libm.a(lib_a-w_cosh.o)
 .debug_frame   0x0000000000001f2c       0x34 /opt/paparazzi/arm-multilib/lib/gcc/arm-none-eabi/4.6.2/../../../../arm-none-eabi/lib/thumb2/libm.a(lib_a-w_exp.o)
 .debug_frame   0x0000000000001f60       0x34 /opt/paparazzi/arm-multilib/lib/gcc/arm-none-eabi/4.6.2/../../../../arm-none-eabi/lib/thumb2/libm.a(lib_a-w_log.o)
 .debug_frame   0x0000000000001f94       0x38 /opt/paparazzi/arm-multilib/lib/gcc/arm-none-eabi/4.6.2/../../../../arm-none-eabi/lib/thumb2/libm.a(lib_a-w_pow.o)
 .debug_frame   0x0000000000001fcc       0x34 /opt/paparazzi/arm-multilib/lib/gcc/arm-none-eabi/4.6.2/../../../../arm-none-eabi/lib/thumb2/libm.a(lib_a-w_sinh.o)
 .debug_frame   0x0000000000002000       0x38 /opt/paparazzi/arm-multilib/lib/gcc/arm-none-eabi/4.6.2/../../../../arm-none-eabi/lib/thumb2/libm.a(lib_a-w_sqrt.o)
 .debug_frame   0x0000000000002038       0x30 /opt/paparazzi/arm-multilib/lib/gcc/arm-none-eabi/4.6.2/../../../../arm-none-eabi/lib/thumb2/libm.a(lib_a-wf_asin.o)
 .debug_frame   0x0000000000002068       0x20 /opt/paparazzi/arm-multilib/lib/gcc/arm-none-eabi/4.6.2/../../../../arm-none-eabi/lib/thumb2/libm.a(lib_a-wf_atan2.o)
 .debug_frame   0x0000000000002088       0x34 /opt/paparazzi/arm-multilib/lib/gcc/arm-none-eabi/4.6.2/../../../../arm-none-eabi/lib/thumb2/libm.a(lib_a-wf_pow.o)
 .debug_frame   0x00000000000020bc       0x30 /opt/paparazzi/arm-multilib/lib/gcc/arm-none-eabi/4.6.2/../../../../arm-none-eabi/lib/thumb2/libm.a(lib_a-wf_sqrt.o)
 .debug_frame   0x00000000000020ec       0x38 /opt/paparazzi/arm-multilib/lib/gcc/arm-none-eabi/4.6.2/../../../../arm-none-eabi/lib/thumb2/libm.a(lib_a-e_asin.o)
 .debug_frame   0x0000000000002124       0x3c /opt/paparazzi/arm-multilib/lib/gcc/arm-none-eabi/4.6.2/../../../../arm-none-eabi/lib/thumb2/libm.a(lib_a-e_atan2.o)
 .debug_frame   0x0000000000002160       0x34 /opt/paparazzi/arm-multilib/lib/gcc/arm-none-eabi/4.6.2/../../../../arm-none-eabi/lib/thumb2/libm.a(lib_a-e_cosh.o)
 .debug_frame   0x0000000000002194       0x3c /opt/paparazzi/arm-multilib/lib/gcc/arm-none-eabi/4.6.2/../../../../arm-none-eabi/lib/thumb2/libm.a(lib_a-e_exp.o)
 .debug_frame   0x00000000000021d0       0x38 /opt/paparazzi/arm-multilib/lib/gcc/arm-none-eabi/4.6.2/../../../../arm-none-eabi/lib/thumb2/libm.a(lib_a-e_log.o)
 .debug_frame   0x0000000000002208       0x38 /opt/paparazzi/arm-multilib/lib/gcc/arm-none-eabi/4.6.2/../../../../arm-none-eabi/lib/thumb2/libm.a(lib_a-e_pow.o)
 .debug_frame   0x0000000000002240       0x38 /opt/paparazzi/arm-multilib/lib/gcc/arm-none-eabi/4.6.2/../../../../arm-none-eabi/lib/thumb2/libm.a(lib_a-e_rem_pio2.o)
 .debug_frame   0x0000000000002278       0x38 /opt/paparazzi/arm-multilib/lib/gcc/arm-none-eabi/4.6.2/../../../../arm-none-eabi/lib/thumb2/libm.a(lib_a-e_sinh.o)
 .debug_frame   0x00000000000022b0       0x34 /opt/paparazzi/arm-multilib/lib/gcc/arm-none-eabi/4.6.2/../../../../arm-none-eabi/lib/thumb2/libm.a(lib_a-e_sqrt.o)
 .debug_frame   0x00000000000022e4       0x34 /opt/paparazzi/arm-multilib/lib/gcc/arm-none-eabi/4.6.2/../../../../arm-none-eabi/lib/thumb2/libm.a(lib_a-ef_asin.o)
 .debug_frame   0x0000000000002318       0x30 /opt/paparazzi/arm-multilib/lib/gcc/arm-none-eabi/4.6.2/../../../../arm-none-eabi/lib/thumb2/libm.a(lib_a-ef_atan2.o)
 .debug_frame   0x0000000000002348       0x38 /opt/paparazzi/arm-multilib/lib/gcc/arm-none-eabi/4.6.2/../../../../arm-none-eabi/lib/thumb2/libm.a(lib_a-ef_pow.o)
 .debug_frame   0x0000000000002380       0x38 /opt/paparazzi/arm-multilib/lib/gcc/arm-none-eabi/4.6.2/../../../../arm-none-eabi/lib/thumb2/libm.a(lib_a-ef_rem_pio2.o)
 .debug_frame   0x00000000000023b8       0x2c /opt/paparazzi/arm-multilib/lib/gcc/arm-none-eabi/4.6.2/../../../../arm-none-eabi/lib/thumb2/libm.a(lib_a-ef_sqrt.o)
 .debug_frame   0x00000000000023e4       0x38 /opt/paparazzi/arm-multilib/lib/gcc/arm-none-eabi/4.6.2/../../../../arm-none-eabi/lib/thumb2/libm.a(lib_a-k_cos.o)
 .debug_frame   0x000000000000241c       0x3c /opt/paparazzi/arm-multilib/lib/gcc/arm-none-eabi/4.6.2/../../../../arm-none-eabi/lib/thumb2/libm.a(lib_a-k_rem_pio2.o)
 .debug_frame   0x0000000000002458       0x38 /opt/paparazzi/arm-multilib/lib/gcc/arm-none-eabi/4.6.2/../../../../arm-none-eabi/lib/thumb2/libm.a(lib_a-k_sin.o)
 .debug_frame   0x0000000000002490       0x38 /opt/paparazzi/arm-multilib/lib/gcc/arm-none-eabi/4.6.2/../../../../arm-none-eabi/lib/thumb2/libm.a(lib_a-k_tan.o)
 .debug_frame   0x00000000000024c8       0x34 /opt/paparazzi/arm-multilib/lib/gcc/arm-none-eabi/4.6.2/../../../../arm-none-eabi/lib/thumb2/libm.a(lib_a-kf_cos.o)
 .debug_frame   0x00000000000024fc       0x3c /opt/paparazzi/arm-multilib/lib/gcc/arm-none-eabi/4.6.2/../../../../arm-none-eabi/lib/thumb2/libm.a(lib_a-kf_rem_pio2.o)
 .debug_frame   0x0000000000002538       0x34 /opt/paparazzi/arm-multilib/lib/gcc/arm-none-eabi/4.6.2/../../../../arm-none-eabi/lib/thumb2/libm.a(lib_a-kf_sin.o)
 .debug_frame   0x000000000000256c       0x38 /opt/paparazzi/arm-multilib/lib/gcc/arm-none-eabi/4.6.2/../../../../arm-none-eabi/lib/thumb2/libm.a(lib_a-s_expm1.o)
 .debug_frame   0x00000000000025a4       0x20 /opt/paparazzi/arm-multilib/lib/gcc/arm-none-eabi/4.6.2/../../../../arm-none-eabi/lib/thumb2/libm.a(lib_a-s_finite.o)
 .debug_frame   0x00000000000025c4       0x38 /opt/paparazzi/arm-multilib/lib/gcc/arm-none-eabi/4.6.2/../../../../arm-none-eabi/lib/thumb2/libm.a(lib_a-s_floor.o)
 .debug_frame   0x00000000000025fc       0x20 /opt/paparazzi/arm-multilib/lib/gcc/arm-none-eabi/4.6.2/../../../../arm-none-eabi/lib/thumb2/libm.a(lib_a-s_fpclassify.o)
 .debug_frame   0x000000000000261c       0x20 /opt/paparazzi/arm-multilib/lib/gcc/arm-none-eabi/4.6.2/../../../../arm-none-eabi/lib/thumb2/libm.a(lib_a-s_matherr.o)
 .debug_frame   0x000000000000263c       0x20 /opt/paparazzi/arm-multilib/lib/gcc/arm-none-eabi/4.6.2/../../../../arm-none-eabi/lib/thumb2/libm.a(lib_a-s_nan.o)
 .debug_frame   0x000000000000265c       0x34 /opt/paparazzi/arm-multilib/lib/gcc/arm-none-eabi/4.6.2/../../../../arm-none-eabi/lib/thumb2/libm.a(lib_a-s_scalbn.o)
 .debug_frame   0x0000000000002690       0x20 /opt/paparazzi/arm-multilib/lib/gcc/arm-none-eabi/4.6.2/../../../../arm-none-eabi/lib/thumb2/libm.a(lib_a-sf_finite.o)
 .debug_frame   0x00000000000026b0       0x2c /opt/paparazzi/arm-multilib/lib/gcc/arm-none-eabi/4.6.2/../../../../arm-none-eabi/lib/thumb2/libm.a(lib_a-sf_floor.o)
 .debug_frame   0x00000000000026dc       0x20 /opt/paparazzi/arm-multilib/lib/gcc/arm-none-eabi/4.6.2/../../../../arm-none-eabi/lib/thumb2/libm.a(lib_a-sf_fpclassify.o)
 .debug_frame   0x00000000000026fc       0x20 /opt/paparazzi/arm-multilib/lib/gcc/arm-none-eabi/4.6.2/../../../../arm-none-eabi/lib/thumb2/libm.a(lib_a-sf_nan.o)
 .debug_frame   0x000000000000271c       0x28 /opt/paparazzi/arm-multilib/lib/gcc/arm-none-eabi/4.6.2/../../../../arm-none-eabi/lib/thumb2/libm.a(lib_a-sf_scalbn.o)
 .debug_frame   0x0000000000002744       0x2c /opt/paparazzi/arm-multilib/lib/gcc/arm-none-eabi/4.6.2/../../../../arm-none-eabi/lib/thumb2/libm.a(lib_a-s_copysign.o)
 .debug_frame   0x0000000000002770       0x20 /opt/paparazzi/arm-multilib/lib/gcc/arm-none-eabi/4.6.2/../../../../arm-none-eabi/lib/thumb2/libm.a(lib_a-sf_copysign.o)
 .debug_frame   0x0000000000002790       0x20 /opt/paparazzi/arm-multilib/lib/gcc/arm-none-eabi/4.6.2/thumb2/libgcc.a(_divsi3.o)
 .debug_frame   0x00000000000027b0      0x278 /opt/paparazzi/arm-multilib/lib/gcc/arm-none-eabi/4.6.2/../../../../arm-none-eabi/lib/libstm32.a(stm32_adc.o)
 .debug_frame   0x0000000000002a28      0x658 /opt/paparazzi/arm-multilib/lib/gcc/arm-none-eabi/4.6.2/../../../../arm-none-eabi/lib/libstm32.a(stm32_tim.o)
 .debug_frame   0x0000000000003080       0xb8 /opt/paparazzi/arm-multilib/lib/gcc/arm-none-eabi/4.6.2/../../../../arm-none-eabi/lib/libstm32.a(stm32_dma.o)
 .debug_frame   0x0000000000003138      0x164 /opt/paparazzi/arm-multilib/lib/gcc/arm-none-eabi/4.6.2/../../../../arm-none-eabi/lib/libstm32.a(stm32_gpio.o)
 .debug_frame   0x000000000000329c      0x1ec /opt/paparazzi/arm-multilib/lib/gcc/arm-none-eabi/4.6.2/../../../../arm-none-eabi/lib/libstm32.a(stm32_usart.o)
 .debug_frame   0x0000000000003488      0x230 /opt/paparazzi/arm-multilib/lib/gcc/arm-none-eabi/4.6.2/../../../../arm-none-eabi/lib/libstm32.a(stm32_i2c.o)
 .debug_frame   0x00000000000036b8      0x1a8 /opt/paparazzi/arm-multilib/lib/gcc/arm-none-eabi/4.6.2/../../../../arm-none-eabi/lib/libstm32.a(stm32_spi.o)
 .debug_frame   0x0000000000003860      0x224 /opt/paparazzi/arm-multilib/lib/gcc/arm-none-eabi/4.6.2/../../../../arm-none-eabi/lib/libstm32.a(stm32_rcc.o)
 .debug_frame   0x0000000000003a84       0x68 /opt/paparazzi/arm-multilib/lib/gcc/arm-none-eabi/4.6.2/../../../../arm-none-eabi/lib/libstm32.a(stm32_misc.o)
 .debug_frame   0x0000000000003aec      0x260 /opt/paparazzi/arm-multilib/lib/gcc/arm-none-eabi/4.6.2/../../../../arm-none-eabi/lib/libopencm3_stm32.a(rcc.o)
 .debug_frame   0x0000000000003d4c       0xf8 /opt/paparazzi/arm-multilib/lib/gcc/arm-none-eabi/4.6.2/../../../../arm-none-eabi/lib/libopencm3_stm32.a(usart.o)
 .debug_frame   0x0000000000003e44      0x198 /opt/paparazzi/arm-multilib/lib/gcc/arm-none-eabi/4.6.2/../../../../arm-none-eabi/lib/libopencm3_stm32.a(flash.o)
 .debug_frame   0x0000000000003fdc       0x20 /opt/paparazzi/arm-multilib/lib/gcc/arm-none-eabi/4.6.2/../../../../arm-none-eabi/lib/thumb2/libc.a(lib_a-errno.o)

.debug_str      0x0000000000000000     0x8a80
 *(.debug_str)
 .debug_str     0x0000000000000000      0x2be /home/uav/USTUAV/paparazzi/var/MYAC/ap/mcu.o
                                        0x338 (size before relaxing)
 .debug_str     0x00000000000002be       0x24 /home/uav/USTUAV/paparazzi/var/MYAC/ap/arch/stm32/mcu_arch.o
                                         0xfa (size before relaxing)
 .debug_str     0x00000000000002e2       0x14 /home/uav/USTUAV/paparazzi/var/MYAC/ap/arch/stm32/led_hw.o
                                         0xff (size before relaxing)
 .debug_str     0x00000000000002f6       0x79 /home/uav/USTUAV/paparazzi/var/MYAC/ap/mcu_periph/sys_time.o
                                        0x1e1 (size before relaxing)
 .debug_str     0x000000000000036f      0x4ef /home/uav/USTUAV/paparazzi/var/MYAC/ap/arch/stm32/mcu_periph/sys_time_arch.o
                                        0x693 (size before relaxing)
 .debug_str     0x000000000000085e       0xb7 /home/uav/USTUAV/paparazzi/var/MYAC/ap/./inter_mcu.o
                                        0x261 (size before relaxing)
 .debug_str     0x0000000000000915      0x1ed /home/uav/USTUAV/paparazzi/var/MYAC/ap/math/pprz_geodetic_int.o
                                        0x2e5 (size before relaxing)
 .debug_str     0x0000000000000b02      0x27e /home/uav/USTUAV/paparazzi/var/MYAC/ap/math/pprz_geodetic_float.o
                                        0x3df (size before relaxing)
 .debug_str     0x0000000000000d80      0x17b /home/uav/USTUAV/paparazzi/var/MYAC/ap/math/pprz_geodetic_double.o
                                        0x355 (size before relaxing)
 .debug_str     0x0000000000000efb       0x23 /home/uav/USTUAV/paparazzi/var/MYAC/ap/math/pprz_trig_int.o
                                        0x116 (size before relaxing)
 .debug_str     0x0000000000000f1e      0x299 /home/uav/USTUAV/paparazzi/var/MYAC/ap/mcu_periph/i2c.o
                                        0x3cb (size before relaxing)
 .debug_str     0x00000000000011b7       0x71 /home/uav/USTUAV/paparazzi/var/MYAC/ap/arch/stm32/mcu_periph/i2c_arch.o
                                        0x438 (size before relaxing)
 .debug_str     0x0000000000001228      0x29f /home/uav/USTUAV/paparazzi/var/MYAC/ap/firmwares/fixedwing/main_fbw.o
                                        0x59e (size before relaxing)
 .debug_str     0x00000000000014c7       0x77 /home/uav/USTUAV/paparazzi/var/MYAC/ap/subsystems/electrical.o
                                        0x1d6 (size before relaxing)
 .debug_str     0x000000000000153e        0xb /home/uav/USTUAV/paparazzi/var/MYAC/ap/./commands.o
                                        0x127 (size before relaxing)
 .debug_str     0x0000000000001549       0x23 /home/uav/USTUAV/paparazzi/var/MYAC/ap/firmwares/fixedwing/fbw_downlink.o
                                        0x129 (size before relaxing)
 .debug_str     0x000000000000156c      0xb0c /home/uav/USTUAV/paparazzi/var/MYAC/ap/firmwares/fixedwing/main_ap.o
                                        0xfe6 (size before relaxing)
 .debug_str     0x0000000000002078      0x12b /home/uav/USTUAV/paparazzi/var/MYAC/ap/./estimator.o
                                        0x56c (size before relaxing)
 .debug_str     0x00000000000021a3       0x22 /home/uav/USTUAV/paparazzi/var/MYAC/ap/firmwares/fixedwing/ap_downlink.o
                                        0x127 (size before relaxing)
 .debug_str     0x00000000000021c5       0x80 /home/uav/USTUAV/paparazzi/var/MYAC/ap/arch/stm32/stm32_exceptions.o
                                         0xc9 (size before relaxing)
 .debug_str     0x0000000000002245       0xac /home/uav/USTUAV/paparazzi/var/MYAC/ap/arch/stm32/stm32_vector_table.o
                                        0x26b (size before relaxing)
 .debug_str     0x00000000000022f1       0x4c /home/uav/USTUAV/paparazzi/var/MYAC/ap/lisa/plug_sys.o
                                        0x140 (size before relaxing)
 .debug_str     0x000000000000233d       0x20 /home/uav/USTUAV/paparazzi/var/MYAC/ap/firmwares/fixedwing/main.o
                                        0x10b (size before relaxing)
 .debug_str     0x000000000000235d       0x39 /home/uav/USTUAV/paparazzi/var/MYAC/ap/mcu_periph/uart.o
                                        0x1be (size before relaxing)
 .debug_str     0x0000000000002396      0x1d3 /home/uav/USTUAV/paparazzi/var/MYAC/ap/arch/stm32/mcu_periph/uart_arch.o
                                        0x877 (size before relaxing)
 .debug_str     0x0000000000002569       0x67 /home/uav/USTUAV/paparazzi/var/MYAC/ap/subsystems/settings.o
                                        0x39c (size before relaxing)
 .debug_str     0x00000000000025d0       0xb8 /home/uav/USTUAV/paparazzi/var/MYAC/ap/arch/stm32/subsystems/settings_arch.o
                                        0x3f7 (size before relaxing)
 .debug_str     0x0000000000002688      0x378 /home/uav/USTUAV/paparazzi/var/MYAC/ap/arch/stm32/mcu_periph/adc_arch.o
                                        0xa5d (size before relaxing)
 .debug_str     0x0000000000002a00       0x2d /home/uav/USTUAV/paparazzi/var/MYAC/ap/arch/stm32/servos_direct_hw.o
                                        0x135 (size before relaxing)
 .debug_str     0x0000000000002a2d        0xc /home/uav/USTUAV/paparazzi/var/MYAC/ap/actuators.o
                                        0x10a (size before relaxing)
 .debug_str     0x0000000000002a39      0x108 /home/uav/USTUAV/paparazzi/var/MYAC/ap/firmwares/rotorcraft/actuators/arch/stm32/actuators_pwm_arch.o
                                        0x4ff (size before relaxing)
 .debug_str     0x0000000000002b41       0x1b /home/uav/USTUAV/paparazzi/var/MYAC/ap/subsystems/radio_control.o
                                        0x17e (size before relaxing)
 .debug_str     0x0000000000002b5c      0x22d /home/uav/USTUAV/paparazzi/var/MYAC/ap/arch/stm32/subsystems/radio_control/spektrum_arch.o
                                        0xb63 (size before relaxing)
 .debug_str     0x0000000000002d89       0x1f /home/uav/USTUAV/paparazzi/var/MYAC/ap/subsystems/datalink/downlink.o
                                        0x14f (size before relaxing)
 .debug_str     0x0000000000002da8       0x25 /home/uav/USTUAV/paparazzi/var/MYAC/ap/subsystems/datalink/pprz_transport.o
                                        0x1aa (size before relaxing)
 .debug_str     0x0000000000002dcd       0x8b /home/uav/USTUAV/paparazzi/var/MYAC/ap/firmwares/fixedwing/datalink.o
                                        0x6f7 (size before relaxing)
 .debug_str     0x0000000000002e58      0x1e6 /home/uav/USTUAV/paparazzi/var/MYAC/ap/firmwares/fixedwing/stabilization/stabilization_attitude.o
                                        0x45f (size before relaxing)
 .debug_str     0x000000000000303e      0x331 /home/uav/USTUAV/paparazzi/var/MYAC/ap/firmwares/fixedwing/guidance/guidance_v.o
                                        0x59c (size before relaxing)
 .debug_str     0x000000000000336f      0x196 /home/uav/USTUAV/paparazzi/var/MYAC/ap/subsystems/imu.o
                                        0x456 (size before relaxing)
 .debug_str     0x0000000000003505       0xf6 /home/uav/USTUAV/paparazzi/var/MYAC/ap/subsystems/imu/imu_aspirin2.o
                                        0x354 (size before relaxing)
 .debug_str     0x00000000000035fb      0x26a /home/uav/USTUAV/paparazzi/var/MYAC/ap/arch/stm32/mcu_periph/spi_arch.o
                                        0xb1f (size before relaxing)
 .debug_str     0x0000000000003865       0x46 /home/uav/USTUAV/paparazzi/var/MYAC/ap/mcu_periph/spi.o
                                        0x155 (size before relaxing)
 .debug_str     0x00000000000038ab       0x60 /home/uav/USTUAV/paparazzi/var/MYAC/ap/subsystems/ahrs.o
                                        0x240 (size before relaxing)
 .debug_str     0x000000000000390b       0x95 /home/uav/USTUAV/paparazzi/var/MYAC/ap/subsystems/ahrs/ahrs_aligner.o
                                        0x359 (size before relaxing)
 .debug_str     0x00000000000039a0      0x38d /home/uav/USTUAV/paparazzi/var/MYAC/ap/subsystems/ahrs/ahrs_float_dcm.o
                                        0x94a (size before relaxing)
 .debug_str     0x0000000000003d2d      0x371 /home/uav/USTUAV/paparazzi/var/MYAC/ap/subsystems/gps/gps_ubx.o
                                        0x793 (size before relaxing)
 .debug_str     0x000000000000409e       0x1a /home/uav/USTUAV/paparazzi/var/MYAC/ap/subsystems/gps.o
                                        0x248 (size before relaxing)
 .debug_str     0x00000000000040b8      0x4af /home/uav/USTUAV/paparazzi/var/MYAC/ap/subsystems/nav.o
                                        0xbea (size before relaxing)
 .debug_str     0x0000000000004567       0x5f /home/uav/USTUAV/paparazzi/var/MYAC/ap/subsystems/navigation/common_flight_plan.o
                                        0x185 (size before relaxing)
 .debug_str     0x00000000000045c6       0x43 /home/uav/USTUAV/paparazzi/var/MYAC/ap/subsystems/navigation/traffic_info.o
                                        0x175 (size before relaxing)
 .debug_str     0x0000000000004609       0xc0 /home/uav/USTUAV/paparazzi/var/MYAC/ap/subsystems/navigation/nav_survey_rectangle.o
                                        0x2dd (size before relaxing)
 .debug_str     0x00000000000046c9       0xc8 /home/uav/USTUAV/paparazzi/var/MYAC/ap/subsystems/navigation/nav_line.o
                                        0x252 (size before relaxing)
 .debug_str     0x0000000000004791      0x142 /home/uav/USTUAV/paparazzi/var/MYAC/ap/modules/core/sys_mon.o
                                        0x3b1 (size before relaxing)
 .debug_str     0x00000000000048d3       0xc6 /opt/paparazzi/arm-multilib/lib/gcc/arm-none-eabi/4.6.2/../../../../arm-none-eabi/lib/thumb2/libc.a(lib_a-memcpy.o)
                                        0x178 (size before relaxing)
 .debug_str     0x0000000000004999       0xf1 /opt/paparazzi/arm-multilib/lib/gcc/arm-none-eabi/4.6.2/../../../../arm-none-eabi/lib/thumb2/libm.a(lib_a-s_atan.o)
                                        0x1c0 (size before relaxing)
 .debug_str     0x0000000000004a8a       0x4b /opt/paparazzi/arm-multilib/lib/gcc/arm-none-eabi/4.6.2/../../../../arm-none-eabi/lib/thumb2/libm.a(lib_a-s_cos.o)
                                        0x174 (size before relaxing)
 .debug_str     0x0000000000004ad5       0x5b /opt/paparazzi/arm-multilib/lib/gcc/arm-none-eabi/4.6.2/../../../../arm-none-eabi/lib/thumb2/libm.a(lib_a-s_fabs.o)
                                        0x1a8 (size before relaxing)
 .debug_str     0x0000000000004b30       0xc0 /opt/paparazzi/arm-multilib/lib/gcc/arm-none-eabi/4.6.2/../../../../arm-none-eabi/lib/thumb2/libm.a(lib_a-s_rint.o)
                                        0x1c1 (size before relaxing)
 .debug_str     0x0000000000004bf0       0x4b /opt/paparazzi/arm-multilib/lib/gcc/arm-none-eabi/4.6.2/../../../../arm-none-eabi/lib/thumb2/libm.a(lib_a-s_sin.o)
                                        0x174 (size before relaxing)
 .debug_str     0x0000000000004c3b       0x4b /opt/paparazzi/arm-multilib/lib/gcc/arm-none-eabi/4.6.2/../../../../arm-none-eabi/lib/thumb2/libm.a(lib_a-s_tan.o)
                                        0x174 (size before relaxing)
 .debug_str     0x0000000000004c86       0x6e /opt/paparazzi/arm-multilib/lib/gcc/arm-none-eabi/4.6.2/../../../../arm-none-eabi/lib/thumb2/libm.a(lib_a-sf_atan.o)
                                        0x1c0 (size before relaxing)
 .debug_str     0x0000000000004cf4       0x4c /opt/paparazzi/arm-multilib/lib/gcc/arm-none-eabi/4.6.2/../../../../arm-none-eabi/lib/thumb2/libm.a(lib_a-sf_cos.o)
                                        0x17a (size before relaxing)
 .debug_str     0x0000000000004d40       0x53 /opt/paparazzi/arm-multilib/lib/gcc/arm-none-eabi/4.6.2/../../../../arm-none-eabi/lib/thumb2/libm.a(lib_a-sf_fabs.o)
                                        0x17d (size before relaxing)
 .debug_str     0x0000000000004d93       0x4c /opt/paparazzi/arm-multilib/lib/gcc/arm-none-eabi/4.6.2/../../../../arm-none-eabi/lib/thumb2/libm.a(lib_a-sf_sin.o)
                                        0x17a (size before relaxing)
 .debug_str     0x0000000000004ddf       0xbd /opt/paparazzi/arm-multilib/lib/gcc/arm-none-eabi/4.6.2/../../../../arm-none-eabi/lib/thumb2/libm.a(lib_a-w_asin.o)
                                        0x1f0 (size before relaxing)
 .debug_str     0x0000000000004e9c       0x4d /opt/paparazzi/arm-multilib/lib/gcc/arm-none-eabi/4.6.2/../../../../arm-none-eabi/lib/thumb2/libm.a(lib_a-w_atan2.o)
                                        0x172 (size before relaxing)
 .debug_str     0x0000000000004ee9       0x4c /opt/paparazzi/arm-multilib/lib/gcc/arm-none-eabi/4.6.2/../../../../arm-none-eabi/lib/thumb2/libm.a(lib_a-w_cosh.o)
                                        0x1f0 (size before relaxing)
 .debug_str     0x0000000000004f35       0x63 /opt/paparazzi/arm-multilib/lib/gcc/arm-none-eabi/4.6.2/../../../../arm-none-eabi/lib/thumb2/libm.a(lib_a-w_exp.o)
                                        0x202 (size before relaxing)
 .debug_str     0x0000000000004f98       0x4b /opt/paparazzi/arm-multilib/lib/gcc/arm-none-eabi/4.6.2/../../../../arm-none-eabi/lib/thumb2/libm.a(lib_a-w_log.o)
                                        0x1ea (size before relaxing)
 .debug_str     0x0000000000004fe3       0x4b /opt/paparazzi/arm-multilib/lib/gcc/arm-none-eabi/4.6.2/../../../../arm-none-eabi/lib/thumb2/libm.a(lib_a-w_pow.o)
                                        0x1ea (size before relaxing)
 .debug_str     0x000000000000502e       0x4c /opt/paparazzi/arm-multilib/lib/gcc/arm-none-eabi/4.6.2/../../../../arm-none-eabi/lib/thumb2/libm.a(lib_a-w_sinh.o)
                                        0x1f0 (size before relaxing)
 .debug_str     0x000000000000507a       0x4c /opt/paparazzi/arm-multilib/lib/gcc/arm-none-eabi/4.6.2/../../../../arm-none-eabi/lib/thumb2/libm.a(lib_a-w_sqrt.o)
                                        0x1f0 (size before relaxing)
 .debug_str     0x00000000000050c6       0x4d /opt/paparazzi/arm-multilib/lib/gcc/arm-none-eabi/4.6.2/../../../../arm-none-eabi/lib/thumb2/libm.a(lib_a-wf_asin.o)
                                        0x1f2 (size before relaxing)
 .debug_str     0x0000000000005113       0x4e /opt/paparazzi/arm-multilib/lib/gcc/arm-none-eabi/4.6.2/../../../../arm-none-eabi/lib/thumb2/libm.a(lib_a-wf_atan2.o)
                                        0x174 (size before relaxing)
 .debug_str     0x0000000000005161       0x4c /opt/paparazzi/arm-multilib/lib/gcc/arm-none-eabi/4.6.2/../../../../arm-none-eabi/lib/thumb2/libm.a(lib_a-wf_pow.o)
                                        0x1f0 (size before relaxing)
 .debug_str     0x00000000000051ad       0x4d /opt/paparazzi/arm-multilib/lib/gcc/arm-none-eabi/4.6.2/../../../../arm-none-eabi/lib/thumb2/libm.a(lib_a-wf_sqrt.o)
                                        0x1f2 (size before relaxing)
 .debug_str     0x00000000000051fa       0x7d /opt/paparazzi/arm-multilib/lib/gcc/arm-none-eabi/4.6.2/../../../../arm-none-eabi/lib/thumb2/libm.a(lib_a-e_asin.o)
                                        0x1de (size before relaxing)
 .debug_str     0x0000000000005277       0x7b /opt/paparazzi/arm-multilib/lib/gcc/arm-none-eabi/4.6.2/../../../../arm-none-eabi/lib/thumb2/libm.a(lib_a-e_atan2.o)
                                        0x1dc (size before relaxing)
 .debug_str     0x00000000000052f2       0x60 /opt/paparazzi/arm-multilib/lib/gcc/arm-none-eabi/4.6.2/../../../../arm-none-eabi/lib/thumb2/libm.a(lib_a-e_cosh.o)
                                        0x199 (size before relaxing)
 .debug_str     0x0000000000005352       0x7a /opt/paparazzi/arm-multilib/lib/gcc/arm-none-eabi/4.6.2/../../../../arm-none-eabi/lib/thumb2/libm.a(lib_a-e_exp.o)
                                        0x1fd (size before relaxing)
 .debug_str     0x00000000000053cc       0x72 /opt/paparazzi/arm-multilib/lib/gcc/arm-none-eabi/4.6.2/../../../../arm-none-eabi/lib/thumb2/libm.a(lib_a-e_log.o)
                                        0x1dd (size before relaxing)
 .debug_str     0x000000000000543e       0x9c /opt/paparazzi/arm-multilib/lib/gcc/arm-none-eabi/4.6.2/../../../../arm-none-eabi/lib/thumb2/libm.a(lib_a-e_pow.o)
                                        0x216 (size before relaxing)
 .debug_str     0x00000000000054da       0xb3 /opt/paparazzi/arm-multilib/lib/gcc/arm-none-eabi/4.6.2/../../../../arm-none-eabi/lib/thumb2/libm.a(lib_a-e_rem_pio2.o)
                                        0x223 (size before relaxing)
 .debug_str     0x000000000000558d       0x61 /opt/paparazzi/arm-multilib/lib/gcc/arm-none-eabi/4.6.2/../../../../arm-none-eabi/lib/thumb2/libm.a(lib_a-e_sinh.o)
                                        0x195 (size before relaxing)
 .debug_str     0x00000000000055ee       0x5b /opt/paparazzi/arm-multilib/lib/gcc/arm-none-eabi/4.6.2/../../../../arm-none-eabi/lib/thumb2/libm.a(lib_a-e_sqrt.o)
                                        0x1c6 (size before relaxing)
 .debug_str     0x0000000000005649       0x5d /opt/paparazzi/arm-multilib/lib/gcc/arm-none-eabi/4.6.2/../../../../arm-none-eabi/lib/thumb2/libm.a(lib_a-ef_asin.o)
                                        0x1d4 (size before relaxing)
 .debug_str     0x00000000000056a6       0x5f /opt/paparazzi/arm-multilib/lib/gcc/arm-none-eabi/4.6.2/../../../../arm-none-eabi/lib/thumb2/libm.a(lib_a-ef_atan2.o)
                                        0x1d7 (size before relaxing)
 .debug_str     0x0000000000005705       0x60 /opt/paparazzi/arm-multilib/lib/gcc/arm-none-eabi/4.6.2/../../../../arm-none-eabi/lib/thumb2/libm.a(lib_a-ef_pow.o)
                                        0x20c (size before relaxing)
 .debug_str     0x0000000000005765       0x6a /opt/paparazzi/arm-multilib/lib/gcc/arm-none-eabi/4.6.2/../../../../arm-none-eabi/lib/thumb2/libm.a(lib_a-ef_rem_pio2.o)
                                        0x222 (size before relaxing)
 .debug_str     0x00000000000057cf       0x5d /opt/paparazzi/arm-multilib/lib/gcc/arm-none-eabi/4.6.2/../../../../arm-none-eabi/lib/thumb2/libm.a(lib_a-ef_sqrt.o)
                                        0x1bc (size before relaxing)
 .debug_str     0x000000000000582c       0x58 /opt/paparazzi/arm-multilib/lib/gcc/arm-none-eabi/4.6.2/../../../../arm-none-eabi/lib/thumb2/libm.a(lib_a-k_cos.o)
                                        0x1b4 (size before relaxing)
 .debug_str     0x0000000000005884       0x91 /opt/paparazzi/arm-multilib/lib/gcc/arm-none-eabi/4.6.2/../../../../arm-none-eabi/lib/thumb2/libm.a(lib_a-k_rem_pio2.o)
                                        0x1c5 (size before relaxing)
 .debug_str     0x0000000000005915       0x58 /opt/paparazzi/arm-multilib/lib/gcc/arm-none-eabi/4.6.2/../../../../arm-none-eabi/lib/thumb2/libm.a(lib_a-k_sin.o)
                                        0x186 (size before relaxing)
 .debug_str     0x000000000000596d       0x64 /opt/paparazzi/arm-multilib/lib/gcc/arm-none-eabi/4.6.2/../../../../arm-none-eabi/lib/thumb2/libm.a(lib_a-k_tan.o)
                                        0x1c5 (size before relaxing)
 .debug_str     0x00000000000059d1       0x5a /opt/paparazzi/arm-multilib/lib/gcc/arm-none-eabi/4.6.2/../../../../arm-none-eabi/lib/thumb2/libm.a(lib_a-kf_cos.o)
                                        0x183 (size before relaxing)
 .debug_str     0x0000000000005a2b       0x6a /opt/paparazzi/arm-multilib/lib/gcc/arm-none-eabi/4.6.2/../../../../arm-none-eabi/lib/thumb2/libm.a(lib_a-kf_rem_pio2.o)
                                        0x1c5 (size before relaxing)
 .debug_str     0x0000000000005a95       0x5a /opt/paparazzi/arm-multilib/lib/gcc/arm-none-eabi/4.6.2/../../../../arm-none-eabi/lib/thumb2/libm.a(lib_a-kf_sin.o)
                                        0x188 (size before relaxing)
 .debug_str     0x0000000000005aef       0x55 /opt/paparazzi/arm-multilib/lib/gcc/arm-none-eabi/4.6.2/../../../../arm-none-eabi/lib/thumb2/libm.a(lib_a-s_expm1.o)
                                        0x1e8 (size before relaxing)
 .debug_str     0x0000000000005b44       0x57 /opt/paparazzi/arm-multilib/lib/gcc/arm-none-eabi/4.6.2/../../../../arm-none-eabi/lib/thumb2/libm.a(lib_a-s_finite.o)
                                        0x18d (size before relaxing)
 .debug_str     0x0000000000005b9b       0x53 /opt/paparazzi/arm-multilib/lib/gcc/arm-none-eabi/4.6.2/../../../../arm-none-eabi/lib/thumb2/libm.a(lib_a-s_floor.o)
                                        0x1b9 (size before relaxing)
 .debug_str     0x0000000000005bee       0x62 /opt/paparazzi/arm-multilib/lib/gcc/arm-none-eabi/4.6.2/../../../../arm-none-eabi/lib/thumb2/libm.a(lib_a-s_fpclassify.o)
                                        0x18e (size before relaxing)
 .debug_str     0x0000000000005c50       0x51 /opt/paparazzi/arm-multilib/lib/gcc/arm-none-eabi/4.6.2/../../../../arm-none-eabi/lib/thumb2/libm.a(lib_a-s_lib_ver.o)
                                        0x1cd (size before relaxing)
 .debug_str     0x0000000000005ca1       0x59 /opt/paparazzi/arm-multilib/lib/gcc/arm-none-eabi/4.6.2/../../../../arm-none-eabi/lib/thumb2/libm.a(lib_a-s_matherr.o)
                                        0x19f (size before relaxing)
 .debug_str     0x0000000000005cfa       0x4d /opt/paparazzi/arm-multilib/lib/gcc/arm-none-eabi/4.6.2/../../../../arm-none-eabi/lib/thumb2/libm.a(lib_a-s_nan.o)
                                        0x175 (size before relaxing)
 .debug_str     0x0000000000005d47       0x5e /opt/paparazzi/arm-multilib/lib/gcc/arm-none-eabi/4.6.2/../../../../arm-none-eabi/lib/thumb2/libm.a(lib_a-s_scalbn.o)
                                        0x1d6 (size before relaxing)
 .debug_str     0x0000000000005da5       0x59 /opt/paparazzi/arm-multilib/lib/gcc/arm-none-eabi/4.6.2/../../../../arm-none-eabi/lib/thumb2/libm.a(lib_a-sf_finite.o)
                                        0x184 (size before relaxing)
 .debug_str     0x0000000000005dfe       0x55 /opt/paparazzi/arm-multilib/lib/gcc/arm-none-eabi/4.6.2/../../../../arm-none-eabi/lib/thumb2/libm.a(lib_a-sf_floor.o)
                                        0x1b4 (size before relaxing)
 .debug_str     0x0000000000005e53       0x63 /opt/paparazzi/arm-multilib/lib/gcc/arm-none-eabi/4.6.2/../../../../arm-none-eabi/lib/thumb2/libm.a(lib_a-sf_fpclassify.o)
                                        0x18f (size before relaxing)
 .debug_str     0x0000000000005eb6       0x53 /opt/paparazzi/arm-multilib/lib/gcc/arm-none-eabi/4.6.2/../../../../arm-none-eabi/lib/thumb2/libm.a(lib_a-sf_nan.o)
                                        0x17b (size before relaxing)
 .debug_str     0x0000000000005f09       0x66 /opt/paparazzi/arm-multilib/lib/gcc/arm-none-eabi/4.6.2/../../../../arm-none-eabi/lib/thumb2/libm.a(lib_a-sf_scalbn.o)
                                        0x1d1 (size before relaxing)
 .debug_str     0x0000000000005f6f       0x5b /opt/paparazzi/arm-multilib/lib/gcc/arm-none-eabi/4.6.2/../../../../arm-none-eabi/lib/thumb2/libm.a(lib_a-s_copysign.o)
                                        0x1b4 (size before relaxing)
 .debug_str     0x0000000000005fca       0x5d /opt/paparazzi/arm-multilib/lib/gcc/arm-none-eabi/4.6.2/../../../../arm-none-eabi/lib/thumb2/libm.a(lib_a-sf_copysign.o)
                                        0x1af (size before relaxing)
 .debug_str     0x0000000000006027      0x49d /opt/paparazzi/arm-multilib/lib/gcc/arm-none-eabi/4.6.2/../../../../arm-none-eabi/lib/libstm32.a(stm32_adc.o)
                                        0x671 (size before relaxing)
 .debug_str     0x00000000000064c4      0x9a2 /opt/paparazzi/arm-multilib/lib/gcc/arm-none-eabi/4.6.2/../../../../arm-none-eabi/lib/libstm32.a(stm32_tim.o)
                                        0xd4e (size before relaxing)
 .debug_str     0x0000000000006e66       0xdf /opt/paparazzi/arm-multilib/lib/gcc/arm-none-eabi/4.6.2/../../../../arm-none-eabi/lib/libstm32.a(stm32_dma.o)
                                        0x30c (size before relaxing)
 .debug_str     0x0000000000006f45      0x1dc /opt/paparazzi/arm-multilib/lib/gcc/arm-none-eabi/4.6.2/../../../../arm-none-eabi/lib/libstm32.a(stm32_gpio.o)
                                        0x449 (size before relaxing)
 .debug_str     0x0000000000007121      0x3a3 /opt/paparazzi/arm-multilib/lib/gcc/arm-none-eabi/4.6.2/../../../../arm-none-eabi/lib/libstm32.a(stm32_usart.o)
                                        0x5d9 (size before relaxing)
 .debug_str     0x00000000000074c4      0x377 /opt/paparazzi/arm-multilib/lib/gcc/arm-none-eabi/4.6.2/../../../../arm-none-eabi/lib/libstm32.a(stm32_i2c.o)
                                        0x5b4 (size before relaxing)
 .debug_str     0x000000000000783b      0x282 /opt/paparazzi/arm-multilib/lib/gcc/arm-none-eabi/4.6.2/../../../../arm-none-eabi/lib/libstm32.a(stm32_spi.o)
                                        0x567 (size before relaxing)
 .debug_str     0x0000000000007abd      0x390 /opt/paparazzi/arm-multilib/lib/gcc/arm-none-eabi/4.6.2/../../../../arm-none-eabi/lib/libstm32.a(stm32_rcc.o)
                                        0x590 (size before relaxing)
 .debug_str     0x0000000000007e4d       0xd9 /opt/paparazzi/arm-multilib/lib/gcc/arm-none-eabi/4.6.2/../../../../arm-none-eabi/lib/libstm32.a(stm32_misc.o)
                                        0x343 (size before relaxing)
 .debug_str     0x0000000000007f26      0x39e /opt/paparazzi/arm-multilib/lib/gcc/arm-none-eabi/4.6.2/../../../../arm-none-eabi/lib/libopencm3_stm32.a(rcc.o)
                                        0x48d (size before relaxing)
 .debug_str     0x00000000000082c4      0x101 /opt/paparazzi/arm-multilib/lib/gcc/arm-none-eabi/4.6.2/../../../../arm-none-eabi/lib/libopencm3_stm32.a(usart.o)
                                        0x26c (size before relaxing)
 .debug_str     0x00000000000083c5      0x1d6 /opt/paparazzi/arm-multilib/lib/gcc/arm-none-eabi/4.6.2/../../../../arm-none-eabi/lib/libopencm3_stm32.a(flash.o)
                                        0x2ee (size before relaxing)
 .debug_str     0x000000000000859b      0x41d /opt/paparazzi/arm-multilib/lib/gcc/arm-none-eabi/4.6.2/../../../../arm-none-eabi/lib/thumb2/libc.a(lib_a-errno.o)
                                        0x516 (size before relaxing)
 .debug_str     0x00000000000089b8       0xc8 /opt/paparazzi/arm-multilib/lib/gcc/arm-none-eabi/4.6.2/../../../../arm-none-eabi/lib/thumb2/libc.a(lib_a-impure.o)
                                        0x52e (size before relaxing)

.debug_loc      0x0000000000000000    0x156ad
 *(.debug_loc)
 .debug_loc     0x0000000000000000       0x20 /home/uav/USTUAV/paparazzi/var/MYAC/ap/mcu.o
 .debug_loc     0x0000000000000020       0x20 /home/uav/USTUAV/paparazzi/var/MYAC/ap/arch/stm32/mcu_arch.o
 .debug_loc     0x0000000000000040      0x12d /home/uav/USTUAV/paparazzi/var/MYAC/ap/mcu_periph/sys_time.o
 .debug_loc     0x000000000000016d       0x3f /home/uav/USTUAV/paparazzi/var/MYAC/ap/arch/stm32/mcu_periph/sys_time_arch.o
 .debug_loc     0x00000000000001ac      0x74c /home/uav/USTUAV/paparazzi/var/MYAC/ap/math/pprz_geodetic_int.o
 .debug_loc     0x00000000000008f8      0xebb /home/uav/USTUAV/paparazzi/var/MYAC/ap/math/pprz_geodetic_float.o
 .debug_loc     0x00000000000017b3      0xaf6 /home/uav/USTUAV/paparazzi/var/MYAC/ap/math/pprz_geodetic_double.o
 .debug_loc     0x00000000000022a9       0xbb /home/uav/USTUAV/paparazzi/var/MYAC/ap/arch/stm32/mcu_periph/i2c_arch.o
 .debug_loc     0x0000000000002364      0x5a6 /home/uav/USTUAV/paparazzi/var/MYAC/ap/firmwares/fixedwing/main_fbw.o
 .debug_loc     0x000000000000290a       0x5e /home/uav/USTUAV/paparazzi/var/MYAC/ap/subsystems/electrical.o
 .debug_loc     0x0000000000002968     0x395c /home/uav/USTUAV/paparazzi/var/MYAC/ap/firmwares/fixedwing/main_ap.o
 .debug_loc     0x00000000000062c4      0x16c /home/uav/USTUAV/paparazzi/var/MYAC/ap/./estimator.o
 .debug_loc     0x0000000000006430       0x3e /home/uav/USTUAV/paparazzi/var/MYAC/ap/arch/stm32/stm32_vector_table.o
 .debug_loc     0x000000000000646e       0x72 /home/uav/USTUAV/paparazzi/var/MYAC/ap/lisa/plug_sys.o
 .debug_loc     0x00000000000064e0       0x20 /home/uav/USTUAV/paparazzi/var/MYAC/ap/firmwares/fixedwing/main.o
 .debug_loc     0x0000000000006500       0x31 /home/uav/USTUAV/paparazzi/var/MYAC/ap/mcu_periph/uart.o
 .debug_loc     0x0000000000006531      0x168 /home/uav/USTUAV/paparazzi/var/MYAC/ap/arch/stm32/mcu_periph/uart_arch.o
 .debug_loc     0x0000000000006699      0x231 /home/uav/USTUAV/paparazzi/var/MYAC/ap/arch/stm32/subsystems/settings_arch.o
 .debug_loc     0x00000000000068ca      0x154 /home/uav/USTUAV/paparazzi/var/MYAC/ap/arch/stm32/mcu_periph/adc_arch.o
 .debug_loc     0x0000000000006a1e       0x4c /home/uav/USTUAV/paparazzi/var/MYAC/ap/firmwares/rotorcraft/actuators/arch/stm32/actuators_pwm_arch.o
 .debug_loc     0x0000000000006a6a      0x280 /home/uav/USTUAV/paparazzi/var/MYAC/ap/arch/stm32/subsystems/radio_control/spektrum_arch.o
 .debug_loc     0x0000000000006cea      0x4bf /home/uav/USTUAV/paparazzi/var/MYAC/ap/firmwares/fixedwing/datalink.o
 .debug_loc     0x00000000000071a9      0x14e /home/uav/USTUAV/paparazzi/var/MYAC/ap/firmwares/fixedwing/stabilization/stabilization_attitude.o
 .debug_loc     0x00000000000072f7      0x157 /home/uav/USTUAV/paparazzi/var/MYAC/ap/firmwares/fixedwing/guidance/guidance_v.o
 .debug_loc     0x000000000000744e      0x17e /home/uav/USTUAV/paparazzi/var/MYAC/ap/subsystems/imu.o
 .debug_loc     0x00000000000075cc       0xd5 /home/uav/USTUAV/paparazzi/var/MYAC/ap/subsystems/imu/imu_aspirin2.o
 .debug_loc     0x00000000000076a1       0xdb /home/uav/USTUAV/paparazzi/var/MYAC/ap/arch/stm32/mcu_periph/spi_arch.o
 .debug_loc     0x000000000000777c       0xad /home/uav/USTUAV/paparazzi/var/MYAC/ap/subsystems/ahrs/ahrs_aligner.o
 .debug_loc     0x0000000000007829      0xd36 /home/uav/USTUAV/paparazzi/var/MYAC/ap/subsystems/ahrs/ahrs_float_dcm.o
 .debug_loc     0x000000000000855f     0x1623 /home/uav/USTUAV/paparazzi/var/MYAC/ap/subsystems/gps/gps_ubx.o
 .debug_loc     0x0000000000009b82     0x10d8 /home/uav/USTUAV/paparazzi/var/MYAC/ap/subsystems/nav.o
 .debug_loc     0x000000000000ac5a       0x13 /home/uav/USTUAV/paparazzi/var/MYAC/ap/subsystems/navigation/common_flight_plan.o
 .debug_loc     0x000000000000ac6d       0x13 /home/uav/USTUAV/paparazzi/var/MYAC/ap/subsystems/navigation/traffic_info.o
 .debug_loc     0x000000000000ac80      0x321 /home/uav/USTUAV/paparazzi/var/MYAC/ap/subsystems/navigation/nav_survey_rectangle.o
 .debug_loc     0x000000000000afa1      0x68f /home/uav/USTUAV/paparazzi/var/MYAC/ap/subsystems/navigation/nav_line.o
 .debug_loc     0x000000000000b630      0x16b /home/uav/USTUAV/paparazzi/var/MYAC/ap/modules/core/sys_mon.o
 .debug_loc     0x000000000000b79b       0x59 /opt/paparazzi/arm-multilib/lib/gcc/arm-none-eabi/4.6.2/../../../../arm-none-eabi/lib/thumb2/libc.a(lib_a-memcpy.o)
 .debug_loc     0x000000000000b7f4      0x2ad /opt/paparazzi/arm-multilib/lib/gcc/arm-none-eabi/4.6.2/../../../../arm-none-eabi/lib/thumb2/libm.a(lib_a-s_atan.o)
 .debug_loc     0x000000000000baa1       0x90 /opt/paparazzi/arm-multilib/lib/gcc/arm-none-eabi/4.6.2/../../../../arm-none-eabi/lib/thumb2/libm.a(lib_a-s_cos.o)
 .debug_loc     0x000000000000bb31       0x18 /opt/paparazzi/arm-multilib/lib/gcc/arm-none-eabi/4.6.2/../../../../arm-none-eabi/lib/thumb2/libm.a(lib_a-s_fabs.o)
 .debug_loc     0x000000000000bb49      0x1f1 /opt/paparazzi/arm-multilib/lib/gcc/arm-none-eabi/4.6.2/../../../../arm-none-eabi/lib/thumb2/libm.a(lib_a-s_rint.o)
 .debug_loc     0x000000000000bd3a       0x90 /opt/paparazzi/arm-multilib/lib/gcc/arm-none-eabi/4.6.2/../../../../arm-none-eabi/lib/thumb2/libm.a(lib_a-s_sin.o)
 .debug_loc     0x000000000000bdca       0x90 /opt/paparazzi/arm-multilib/lib/gcc/arm-none-eabi/4.6.2/../../../../arm-none-eabi/lib/thumb2/libm.a(lib_a-s_tan.o)
 .debug_loc     0x000000000000be5a      0x267 /opt/paparazzi/arm-multilib/lib/gcc/arm-none-eabi/4.6.2/../../../../arm-none-eabi/lib/thumb2/libm.a(lib_a-sf_atan.o)
 .debug_loc     0x000000000000c0c1       0x85 /opt/paparazzi/arm-multilib/lib/gcc/arm-none-eabi/4.6.2/../../../../arm-none-eabi/lib/thumb2/libm.a(lib_a-sf_cos.o)
 .debug_loc     0x000000000000c146       0x13 /opt/paparazzi/arm-multilib/lib/gcc/arm-none-eabi/4.6.2/../../../../arm-none-eabi/lib/thumb2/libm.a(lib_a-sf_fabs.o)
 .debug_loc     0x000000000000c159       0x85 /opt/paparazzi/arm-multilib/lib/gcc/arm-none-eabi/4.6.2/../../../../arm-none-eabi/lib/thumb2/libm.a(lib_a-sf_sin.o)
 .debug_loc     0x000000000000c1de       0x5d /opt/paparazzi/arm-multilib/lib/gcc/arm-none-eabi/4.6.2/../../../../arm-none-eabi/lib/thumb2/libm.a(lib_a-w_asin.o)
 .debug_loc     0x000000000000c23b       0x30 /opt/paparazzi/arm-multilib/lib/gcc/arm-none-eabi/4.6.2/../../../../arm-none-eabi/lib/thumb2/libm.a(lib_a-w_atan2.o)
 .debug_loc     0x000000000000c26b       0x5d /opt/paparazzi/arm-multilib/lib/gcc/arm-none-eabi/4.6.2/../../../../arm-none-eabi/lib/thumb2/libm.a(lib_a-w_cosh.o)
 .debug_loc     0x000000000000c2c8       0x5d /opt/paparazzi/arm-multilib/lib/gcc/arm-none-eabi/4.6.2/../../../../arm-none-eabi/lib/thumb2/libm.a(lib_a-w_exp.o)
 .debug_loc     0x000000000000c325       0x5d /opt/paparazzi/arm-multilib/lib/gcc/arm-none-eabi/4.6.2/../../../../arm-none-eabi/lib/thumb2/libm.a(lib_a-w_log.o)
 .debug_loc     0x000000000000c382       0x75 /opt/paparazzi/arm-multilib/lib/gcc/arm-none-eabi/4.6.2/../../../../arm-none-eabi/lib/thumb2/libm.a(lib_a-w_pow.o)
 .debug_loc     0x000000000000c3f7       0x5d /opt/paparazzi/arm-multilib/lib/gcc/arm-none-eabi/4.6.2/../../../../arm-none-eabi/lib/thumb2/libm.a(lib_a-w_sinh.o)
 .debug_loc     0x000000000000c454       0x5d /opt/paparazzi/arm-multilib/lib/gcc/arm-none-eabi/4.6.2/../../../../arm-none-eabi/lib/thumb2/libm.a(lib_a-w_sqrt.o)
 .debug_loc     0x000000000000c4b1       0x68 /opt/paparazzi/arm-multilib/lib/gcc/arm-none-eabi/4.6.2/../../../../arm-none-eabi/lib/thumb2/libm.a(lib_a-wf_asin.o)
 .debug_loc     0x000000000000c519       0x26 /opt/paparazzi/arm-multilib/lib/gcc/arm-none-eabi/4.6.2/../../../../arm-none-eabi/lib/thumb2/libm.a(lib_a-wf_atan2.o)
 .debug_loc     0x000000000000c53f       0xbe /opt/paparazzi/arm-multilib/lib/gcc/arm-none-eabi/4.6.2/../../../../arm-none-eabi/lib/thumb2/libm.a(lib_a-wf_pow.o)
 .debug_loc     0x000000000000c5fd       0x68 /opt/paparazzi/arm-multilib/lib/gcc/arm-none-eabi/4.6.2/../../../../arm-none-eabi/lib/thumb2/libm.a(lib_a-wf_sqrt.o)
 .debug_loc     0x000000000000c665      0x1cd /opt/paparazzi/arm-multilib/lib/gcc/arm-none-eabi/4.6.2/../../../../arm-none-eabi/lib/thumb2/libm.a(lib_a-e_asin.o)
 .debug_loc     0x000000000000c832      0x170 /opt/paparazzi/arm-multilib/lib/gcc/arm-none-eabi/4.6.2/../../../../arm-none-eabi/lib/thumb2/libm.a(lib_a-e_atan2.o)
 .debug_loc     0x000000000000c9a2      0x10f /opt/paparazzi/arm-multilib/lib/gcc/arm-none-eabi/4.6.2/../../../../arm-none-eabi/lib/thumb2/libm.a(lib_a-e_cosh.o)
 .debug_loc     0x000000000000cab1      0x275 /opt/paparazzi/arm-multilib/lib/gcc/arm-none-eabi/4.6.2/../../../../arm-none-eabi/lib/thumb2/libm.a(lib_a-e_exp.o)
 .debug_loc     0x000000000000cd26      0x3ab /opt/paparazzi/arm-multilib/lib/gcc/arm-none-eabi/4.6.2/../../../../arm-none-eabi/lib/thumb2/libm.a(lib_a-e_log.o)
 .debug_loc     0x000000000000d0d1      0xc06 /opt/paparazzi/arm-multilib/lib/gcc/arm-none-eabi/4.6.2/../../../../arm-none-eabi/lib/thumb2/libm.a(lib_a-e_pow.o)
 .debug_loc     0x000000000000dcd7      0x34b /opt/paparazzi/arm-multilib/lib/gcc/arm-none-eabi/4.6.2/../../../../arm-none-eabi/lib/thumb2/libm.a(lib_a-e_rem_pio2.o)
 .debug_loc     0x000000000000e022      0x165 /opt/paparazzi/arm-multilib/lib/gcc/arm-none-eabi/4.6.2/../../../../arm-none-eabi/lib/thumb2/libm.a(lib_a-e_sinh.o)
 .debug_loc     0x000000000000e187      0x2e2 /opt/paparazzi/arm-multilib/lib/gcc/arm-none-eabi/4.6.2/../../../../arm-none-eabi/lib/thumb2/libm.a(lib_a-e_sqrt.o)
 .debug_loc     0x000000000000e469      0x171 /opt/paparazzi/arm-multilib/lib/gcc/arm-none-eabi/4.6.2/../../../../arm-none-eabi/lib/thumb2/libm.a(lib_a-ef_asin.o)
 .debug_loc     0x000000000000e5da      0x320 /opt/paparazzi/arm-multilib/lib/gcc/arm-none-eabi/4.6.2/../../../../arm-none-eabi/lib/thumb2/libm.a(lib_a-ef_atan2.o)
 .debug_loc     0x000000000000e8fa      0x9a0 /opt/paparazzi/arm-multilib/lib/gcc/arm-none-eabi/4.6.2/../../../../arm-none-eabi/lib/thumb2/libm.a(lib_a-ef_pow.o)
 .debug_loc     0x000000000000f29a      0x47e /opt/paparazzi/arm-multilib/lib/gcc/arm-none-eabi/4.6.2/../../../../arm-none-eabi/lib/thumb2/libm.a(lib_a-ef_rem_pio2.o)
 .debug_loc     0x000000000000f718      0x1a4 /opt/paparazzi/arm-multilib/lib/gcc/arm-none-eabi/4.6.2/../../../../arm-none-eabi/lib/thumb2/libm.a(lib_a-ef_sqrt.o)
 .debug_loc     0x000000000000f8bc      0x12d /opt/paparazzi/arm-multilib/lib/gcc/arm-none-eabi/4.6.2/../../../../arm-none-eabi/lib/thumb2/libm.a(lib_a-k_cos.o)
 .debug_loc     0x000000000000f9e9      0x86a /opt/paparazzi/arm-multilib/lib/gcc/arm-none-eabi/4.6.2/../../../../arm-none-eabi/lib/thumb2/libm.a(lib_a-k_rem_pio2.o)
 .debug_loc     0x0000000000010253       0xcb /opt/paparazzi/arm-multilib/lib/gcc/arm-none-eabi/4.6.2/../../../../arm-none-eabi/lib/thumb2/libm.a(lib_a-k_sin.o)
 .debug_loc     0x000000000001031e      0x389 /opt/paparazzi/arm-multilib/lib/gcc/arm-none-eabi/4.6.2/../../../../arm-none-eabi/lib/thumb2/libm.a(lib_a-k_tan.o)
 .debug_loc     0x00000000000106a7       0xea /opt/paparazzi/arm-multilib/lib/gcc/arm-none-eabi/4.6.2/../../../../arm-none-eabi/lib/thumb2/libm.a(lib_a-kf_cos.o)
 .debug_loc     0x0000000000010791      0x7ee /opt/paparazzi/arm-multilib/lib/gcc/arm-none-eabi/4.6.2/../../../../arm-none-eabi/lib/thumb2/libm.a(lib_a-kf_rem_pio2.o)
 .debug_loc     0x0000000000010f7f       0xfa /opt/paparazzi/arm-multilib/lib/gcc/arm-none-eabi/4.6.2/../../../../arm-none-eabi/lib/thumb2/libm.a(lib_a-kf_sin.o)
 .debug_loc     0x0000000000011079      0x526 /opt/paparazzi/arm-multilib/lib/gcc/arm-none-eabi/4.6.2/../../../../arm-none-eabi/lib/thumb2/libm.a(lib_a-s_expm1.o)
 .debug_loc     0x000000000001159f       0x18 /opt/paparazzi/arm-multilib/lib/gcc/arm-none-eabi/4.6.2/../../../../arm-none-eabi/lib/thumb2/libm.a(lib_a-s_finite.o)
 .debug_loc     0x00000000000115b7      0x1e6 /opt/paparazzi/arm-multilib/lib/gcc/arm-none-eabi/4.6.2/../../../../arm-none-eabi/lib/thumb2/libm.a(lib_a-s_floor.o)
 .debug_loc     0x000000000001179d       0xd6 /opt/paparazzi/arm-multilib/lib/gcc/arm-none-eabi/4.6.2/../../../../arm-none-eabi/lib/thumb2/libm.a(lib_a-s_fpclassify.o)
 .debug_loc     0x0000000000011873       0x13 /opt/paparazzi/arm-multilib/lib/gcc/arm-none-eabi/4.6.2/../../../../arm-none-eabi/lib/thumb2/libm.a(lib_a-s_matherr.o)
 .debug_loc     0x0000000000011886       0x13 /opt/paparazzi/arm-multilib/lib/gcc/arm-none-eabi/4.6.2/../../../../arm-none-eabi/lib/thumb2/libm.a(lib_a-s_nan.o)
 .debug_loc     0x0000000000011899      0x142 /opt/paparazzi/arm-multilib/lib/gcc/arm-none-eabi/4.6.2/../../../../arm-none-eabi/lib/thumb2/libm.a(lib_a-s_scalbn.o)
 .debug_loc     0x00000000000119db       0x39 /opt/paparazzi/arm-multilib/lib/gcc/arm-none-eabi/4.6.2/../../../../arm-none-eabi/lib/thumb2/libm.a(lib_a-sf_finite.o)
 .debug_loc     0x0000000000011a14      0x111 /opt/paparazzi/arm-multilib/lib/gcc/arm-none-eabi/4.6.2/../../../../arm-none-eabi/lib/thumb2/libm.a(lib_a-sf_floor.o)
 .debug_loc     0x0000000000011b25       0xa0 /opt/paparazzi/arm-multilib/lib/gcc/arm-none-eabi/4.6.2/../../../../arm-none-eabi/lib/thumb2/libm.a(lib_a-sf_fpclassify.o)
 .debug_loc     0x0000000000011bc5       0x13 /opt/paparazzi/arm-multilib/lib/gcc/arm-none-eabi/4.6.2/../../../../arm-none-eabi/lib/thumb2/libm.a(lib_a-sf_nan.o)
 .debug_loc     0x0000000000011bd8      0x1f6 /opt/paparazzi/arm-multilib/lib/gcc/arm-none-eabi/4.6.2/../../../../arm-none-eabi/lib/thumb2/libm.a(lib_a-sf_scalbn.o)
 .debug_loc     0x0000000000011dce       0x68 /opt/paparazzi/arm-multilib/lib/gcc/arm-none-eabi/4.6.2/../../../../arm-none-eabi/lib/thumb2/libm.a(lib_a-s_copysign.o)
 .debug_loc     0x0000000000011e36       0x26 /opt/paparazzi/arm-multilib/lib/gcc/arm-none-eabi/4.6.2/../../../../arm-none-eabi/lib/thumb2/libm.a(lib_a-sf_copysign.o)
 .debug_loc     0x0000000000011e5c      0x70b /opt/paparazzi/arm-multilib/lib/gcc/arm-none-eabi/4.6.2/../../../../arm-none-eabi/lib/libstm32.a(stm32_adc.o)
 .debug_loc     0x0000000000012567     0x1183 /opt/paparazzi/arm-multilib/lib/gcc/arm-none-eabi/4.6.2/../../../../arm-none-eabi/lib/libstm32.a(stm32_tim.o)
 .debug_loc     0x00000000000136ea      0x142 /opt/paparazzi/arm-multilib/lib/gcc/arm-none-eabi/4.6.2/../../../../arm-none-eabi/lib/libstm32.a(stm32_dma.o)
 .debug_loc     0x000000000001382c      0x45a /opt/paparazzi/arm-multilib/lib/gcc/arm-none-eabi/4.6.2/../../../../arm-none-eabi/lib/libstm32.a(stm32_gpio.o)
 .debug_loc     0x0000000000013c86      0x553 /opt/paparazzi/arm-multilib/lib/gcc/arm-none-eabi/4.6.2/../../../../arm-none-eabi/lib/libstm32.a(stm32_usart.o)
 .debug_loc     0x00000000000141d9      0x5d7 /opt/paparazzi/arm-multilib/lib/gcc/arm-none-eabi/4.6.2/../../../../arm-none-eabi/lib/libstm32.a(stm32_i2c.o)
 .debug_loc     0x00000000000147b0      0x437 /opt/paparazzi/arm-multilib/lib/gcc/arm-none-eabi/4.6.2/../../../../arm-none-eabi/lib/libstm32.a(stm32_spi.o)
 .debug_loc     0x0000000000014be7      0x473 /opt/paparazzi/arm-multilib/lib/gcc/arm-none-eabi/4.6.2/../../../../arm-none-eabi/lib/libstm32.a(stm32_rcc.o)
 .debug_loc     0x000000000001505a      0x11d /opt/paparazzi/arm-multilib/lib/gcc/arm-none-eabi/4.6.2/../../../../arm-none-eabi/lib/libstm32.a(stm32_misc.o)
 .debug_loc     0x0000000000015177      0x272 /opt/paparazzi/arm-multilib/lib/gcc/arm-none-eabi/4.6.2/../../../../arm-none-eabi/lib/libopencm3_stm32.a(rcc.o)
 .debug_loc     0x00000000000153e9      0x128 /opt/paparazzi/arm-multilib/lib/gcc/arm-none-eabi/4.6.2/../../../../arm-none-eabi/lib/libopencm3_stm32.a(usart.o)
 .debug_loc     0x0000000000015511      0x19c /opt/paparazzi/arm-multilib/lib/gcc/arm-none-eabi/4.6.2/../../../../arm-none-eabi/lib/libopencm3_stm32.a(flash.o)

.debug_macinfo
 *(.debug_macinfo)

.debug_weaknames
 *(.debug_weaknames)

.debug_funcnames
 *(.debug_funcnames)

.debug_typenames
 *(.debug_typenames)

.debug_varnames
 *(.debug_varnames)
OUTPUT(/home/uav/USTUAV/paparazzi/var/MYAC/ap/ap.elf elf32-littlearm)

.debug_ranges   0x0000000000000000     0x51b8
 .debug_ranges  0x0000000000000000       0x58 /home/uav/USTUAV/paparazzi/var/MYAC/ap/mcu.o
 .debug_ranges  0x0000000000000058       0x10 /home/uav/USTUAV/paparazzi/var/MYAC/ap/arch/stm32/mcu_arch.o
 .debug_ranges  0x0000000000000068       0x48 /home/uav/USTUAV/paparazzi/var/MYAC/ap/mcu_periph/sys_time.o
 .debug_ranges  0x00000000000000b0       0x38 /home/uav/USTUAV/paparazzi/var/MYAC/ap/arch/stm32/mcu_periph/sys_time_arch.o
 .debug_ranges  0x00000000000000e8       0x88 /home/uav/USTUAV/paparazzi/var/MYAC/ap/math/pprz_geodetic_int.o
 .debug_ranges  0x0000000000000170      0x178 /home/uav/USTUAV/paparazzi/var/MYAC/ap/math/pprz_geodetic_float.o
 .debug_ranges  0x00000000000002e8      0x108 /home/uav/USTUAV/paparazzi/var/MYAC/ap/math/pprz_geodetic_double.o
 .debug_ranges  0x00000000000003f0       0x10 /home/uav/USTUAV/paparazzi/var/MYAC/ap/mcu_periph/i2c.o
 .debug_ranges  0x0000000000000400       0x20 /home/uav/USTUAV/paparazzi/var/MYAC/ap/arch/stm32/mcu_periph/i2c_arch.o
 .debug_ranges  0x0000000000000420      0x278 /home/uav/USTUAV/paparazzi/var/MYAC/ap/firmwares/fixedwing/main_fbw.o
 .debug_ranges  0x0000000000000698       0x18 /home/uav/USTUAV/paparazzi/var/MYAC/ap/subsystems/electrical.o
 .debug_ranges  0x00000000000006b0     0x16d0 /home/uav/USTUAV/paparazzi/var/MYAC/ap/firmwares/fixedwing/main_ap.o
 .debug_ranges  0x0000000000001d80       0x30 /home/uav/USTUAV/paparazzi/var/MYAC/ap/./estimator.o
 .debug_ranges  0x0000000000001db0       0x30 /home/uav/USTUAV/paparazzi/var/MYAC/ap/arch/stm32/stm32_exceptions.o
 .debug_ranges  0x0000000000001de0       0x28 /home/uav/USTUAV/paparazzi/var/MYAC/ap/arch/stm32/stm32_vector_table.o
 .debug_ranges  0x0000000000001e08       0x48 /home/uav/USTUAV/paparazzi/var/MYAC/ap/lisa/plug_sys.o
 .debug_ranges  0x0000000000001e50       0x10 /home/uav/USTUAV/paparazzi/var/MYAC/ap/firmwares/fixedwing/main.o
 .debug_ranges  0x0000000000001e60       0x18 /home/uav/USTUAV/paparazzi/var/MYAC/ap/mcu_periph/uart.o
 .debug_ranges  0x0000000000001e78       0x70 /home/uav/USTUAV/paparazzi/var/MYAC/ap/arch/stm32/mcu_periph/uart_arch.o
 .debug_ranges  0x0000000000001ee8       0x18 /home/uav/USTUAV/paparazzi/var/MYAC/ap/subsystems/settings.o
 .debug_ranges  0x0000000000001f00       0x28 /home/uav/USTUAV/paparazzi/var/MYAC/ap/arch/stm32/subsystems/settings_arch.o
 .debug_ranges  0x0000000000001f28       0x90 /home/uav/USTUAV/paparazzi/var/MYAC/ap/arch/stm32/mcu_periph/adc_arch.o
 .debug_ranges  0x0000000000001fb8       0x10 /home/uav/USTUAV/paparazzi/var/MYAC/ap/arch/stm32/servos_direct_hw.o
 .debug_ranges  0x0000000000001fc8       0x18 /home/uav/USTUAV/paparazzi/var/MYAC/ap/firmwares/rotorcraft/actuators/arch/stm32/actuators_pwm_arch.o
 .debug_ranges  0x0000000000001fe0       0xa8 /home/uav/USTUAV/paparazzi/var/MYAC/ap/arch/stm32/subsystems/radio_control/spektrum_arch.o
 .debug_ranges  0x0000000000002088      0x1a0 /home/uav/USTUAV/paparazzi/var/MYAC/ap/firmwares/fixedwing/datalink.o
 .debug_ranges  0x0000000000002228       0x80 /home/uav/USTUAV/paparazzi/var/MYAC/ap/firmwares/fixedwing/stabilization/stabilization_attitude.o
 .debug_ranges  0x00000000000022a8       0x28 /home/uav/USTUAV/paparazzi/var/MYAC/ap/firmwares/fixedwing/guidance/guidance_v.o
 .debug_ranges  0x00000000000022d0       0xf0 /home/uav/USTUAV/paparazzi/var/MYAC/ap/subsystems/imu.o
 .debug_ranges  0x00000000000023c0       0x28 /home/uav/USTUAV/paparazzi/var/MYAC/ap/subsystems/imu/imu_aspirin2.o
 .debug_ranges  0x00000000000023e8       0x30 /home/uav/USTUAV/paparazzi/var/MYAC/ap/arch/stm32/mcu_periph/spi_arch.o
 .debug_ranges  0x0000000000002418       0x40 /home/uav/USTUAV/paparazzi/var/MYAC/ap/subsystems/ahrs/ahrs_aligner.o
 .debug_ranges  0x0000000000002458      0x250 /home/uav/USTUAV/paparazzi/var/MYAC/ap/subsystems/ahrs/ahrs_float_dcm.o
 .debug_ranges  0x00000000000026a8     0x1710 /home/uav/USTUAV/paparazzi/var/MYAC/ap/subsystems/gps/gps_ubx.o
 .debug_ranges  0x0000000000003db8       0x10 /home/uav/USTUAV/paparazzi/var/MYAC/ap/subsystems/gps.o
 .debug_ranges  0x0000000000003dc8      0x238 /home/uav/USTUAV/paparazzi/var/MYAC/ap/subsystems/nav.o
 .debug_ranges  0x0000000000004000       0x18 /home/uav/USTUAV/paparazzi/var/MYAC/ap/subsystems/navigation/common_flight_plan.o
 .debug_ranges  0x0000000000004018       0x18 /home/uav/USTUAV/paparazzi/var/MYAC/ap/subsystems/navigation/traffic_info.o
 .debug_ranges  0x0000000000004030       0x78 /home/uav/USTUAV/paparazzi/var/MYAC/ap/subsystems/navigation/nav_survey_rectangle.o
 .debug_ranges  0x00000000000040a8      0x210 /home/uav/USTUAV/paparazzi/var/MYAC/ap/subsystems/navigation/nav_line.o
 .debug_ranges  0x00000000000042b8       0x48 /home/uav/USTUAV/paparazzi/var/MYAC/ap/modules/core/sys_mon.o
 .debug_ranges  0x0000000000004300       0x18 /opt/paparazzi/arm-multilib/lib/gcc/arm-none-eabi/4.6.2/../../../../arm-none-eabi/lib/thumb2/libm.a(lib_a-s_rint.o)
 .debug_ranges  0x0000000000004318       0x20 /opt/paparazzi/arm-multilib/lib/gcc/arm-none-eabi/4.6.2/../../../../arm-none-eabi/lib/thumb2/libm.a(lib_a-e_asin.o)
 .debug_ranges  0x0000000000004338       0x48 /opt/paparazzi/arm-multilib/lib/gcc/arm-none-eabi/4.6.2/../../../../arm-none-eabi/lib/thumb2/libm.a(lib_a-e_atan2.o)
 .debug_ranges  0x0000000000004380       0x30 /opt/paparazzi/arm-multilib/lib/gcc/arm-none-eabi/4.6.2/../../../../arm-none-eabi/lib/thumb2/libm.a(lib_a-e_exp.o)
 .debug_ranges  0x00000000000043b0       0x30 /opt/paparazzi/arm-multilib/lib/gcc/arm-none-eabi/4.6.2/../../../../arm-none-eabi/lib/thumb2/libm.a(lib_a-e_log.o)
 .debug_ranges  0x00000000000043e0      0x160 /opt/paparazzi/arm-multilib/lib/gcc/arm-none-eabi/4.6.2/../../../../arm-none-eabi/lib/thumb2/libm.a(lib_a-e_pow.o)
 .debug_ranges  0x0000000000004540       0x18 /opt/paparazzi/arm-multilib/lib/gcc/arm-none-eabi/4.6.2/../../../../arm-none-eabi/lib/thumb2/libm.a(lib_a-e_rem_pio2.o)
 .debug_ranges  0x0000000000004558       0x18 /opt/paparazzi/arm-multilib/lib/gcc/arm-none-eabi/4.6.2/../../../../arm-none-eabi/lib/thumb2/libm.a(lib_a-e_sqrt.o)
 .debug_ranges  0x0000000000004570       0x20 /opt/paparazzi/arm-multilib/lib/gcc/arm-none-eabi/4.6.2/../../../../arm-none-eabi/lib/thumb2/libm.a(lib_a-ef_asin.o)
 .debug_ranges  0x0000000000004590       0x48 /opt/paparazzi/arm-multilib/lib/gcc/arm-none-eabi/4.6.2/../../../../arm-none-eabi/lib/thumb2/libm.a(lib_a-ef_pow.o)
 .debug_ranges  0x00000000000045d8       0x40 /opt/paparazzi/arm-multilib/lib/gcc/arm-none-eabi/4.6.2/../../../../arm-none-eabi/lib/thumb2/libm.a(lib_a-k_tan.o)
 .debug_ranges  0x0000000000004618       0x30 /opt/paparazzi/arm-multilib/lib/gcc/arm-none-eabi/4.6.2/../../../../arm-none-eabi/lib/thumb2/libm.a(lib_a-s_expm1.o)
 .debug_ranges  0x0000000000004648       0x30 /opt/paparazzi/arm-multilib/lib/gcc/arm-none-eabi/4.6.2/../../../../arm-none-eabi/lib/thumb2/libm.a(lib_a-s_scalbn.o)
 .debug_ranges  0x0000000000004678       0x18 /opt/paparazzi/arm-multilib/lib/gcc/arm-none-eabi/4.6.2/../../../../arm-none-eabi/lib/thumb2/libm.a(lib_a-s_copysign.o)
 .debug_ranges  0x0000000000004690      0x128 /opt/paparazzi/arm-multilib/lib/gcc/arm-none-eabi/4.6.2/../../../../arm-none-eabi/lib/libstm32.a(stm32_adc.o)
 .debug_ranges  0x00000000000047b8      0x300 /opt/paparazzi/arm-multilib/lib/gcc/arm-none-eabi/4.6.2/../../../../arm-none-eabi/lib/libstm32.a(stm32_tim.o)
 .debug_ranges  0x0000000000004ab8       0x58 /opt/paparazzi/arm-multilib/lib/gcc/arm-none-eabi/4.6.2/../../../../arm-none-eabi/lib/libstm32.a(stm32_dma.o)
 .debug_ranges  0x0000000000004b10       0x90 /opt/paparazzi/arm-multilib/lib/gcc/arm-none-eabi/4.6.2/../../../../arm-none-eabi/lib/libstm32.a(stm32_gpio.o)
 .debug_ranges  0x0000000000004ba0       0xe0 /opt/paparazzi/arm-multilib/lib/gcc/arm-none-eabi/4.6.2/../../../../arm-none-eabi/lib/libstm32.a(stm32_usart.o)
 .debug_ranges  0x0000000000004c80      0x108 /opt/paparazzi/arm-multilib/lib/gcc/arm-none-eabi/4.6.2/../../../../arm-none-eabi/lib/libstm32.a(stm32_i2c.o)
 .debug_ranges  0x0000000000004d88       0xc0 /opt/paparazzi/arm-multilib/lib/gcc/arm-none-eabi/4.6.2/../../../../arm-none-eabi/lib/libstm32.a(stm32_spi.o)
 .debug_ranges  0x0000000000004e48      0x108 /opt/paparazzi/arm-multilib/lib/gcc/arm-none-eabi/4.6.2/../../../../arm-none-eabi/lib/libstm32.a(stm32_rcc.o)
 .debug_ranges  0x0000000000004f50       0x30 /opt/paparazzi/arm-multilib/lib/gcc/arm-none-eabi/4.6.2/../../../../arm-none-eabi/lib/libstm32.a(stm32_misc.o)
 .debug_ranges  0x0000000000004f80      0x118 /opt/paparazzi/arm-multilib/lib/gcc/arm-none-eabi/4.6.2/../../../../arm-none-eabi/lib/libopencm3_stm32.a(rcc.o)
 .debug_ranges  0x0000000000005098       0x78 /opt/paparazzi/arm-multilib/lib/gcc/arm-none-eabi/4.6.2/../../../../arm-none-eabi/lib/libopencm3_stm32.a(usart.o)
 .debug_ranges  0x0000000000005110       0xa8 /opt/paparazzi/arm-multilib/lib/gcc/arm-none-eabi/4.6.2/../../../../arm-none-eabi/lib/libopencm3_stm32.a(flash.o)

Cross Reference Table

Symbol                                            File
ADC_AnalogWatchdogCmd                             /opt/paparazzi/arm-multilib/lib/gcc/arm-none-eabi/4.6.2/../../../../arm-none-eabi/lib/libstm32.a(stm32_adc.o)
ADC_AnalogWatchdogSingleChannelConfig             /opt/paparazzi/arm-multilib/lib/gcc/arm-none-eabi/4.6.2/../../../../arm-none-eabi/lib/libstm32.a(stm32_adc.o)
ADC_AnalogWatchdogThresholdsConfig                /opt/paparazzi/arm-multilib/lib/gcc/arm-none-eabi/4.6.2/../../../../arm-none-eabi/lib/libstm32.a(stm32_adc.o)
ADC_AutoInjectedConvCmd                           /opt/paparazzi/arm-multilib/lib/gcc/arm-none-eabi/4.6.2/../../../../arm-none-eabi/lib/libstm32.a(stm32_adc.o)
ADC_ClearFlag                                     /opt/paparazzi/arm-multilib/lib/gcc/arm-none-eabi/4.6.2/../../../../arm-none-eabi/lib/libstm32.a(stm32_adc.o)
ADC_ClearITPendingBit                             /opt/paparazzi/arm-multilib/lib/gcc/arm-none-eabi/4.6.2/../../../../arm-none-eabi/lib/libstm32.a(stm32_adc.o)
                                                  /home/uav/USTUAV/paparazzi/var/MYAC/ap/arch/stm32/mcu_periph/adc_arch.o
ADC_Cmd                                           /opt/paparazzi/arm-multilib/lib/gcc/arm-none-eabi/4.6.2/../../../../arm-none-eabi/lib/libstm32.a(stm32_adc.o)
                                                  /home/uav/USTUAV/paparazzi/var/MYAC/ap/arch/stm32/mcu_periph/adc_arch.o
ADC_DMACmd                                        /opt/paparazzi/arm-multilib/lib/gcc/arm-none-eabi/4.6.2/../../../../arm-none-eabi/lib/libstm32.a(stm32_adc.o)
ADC_DeInit                                        /opt/paparazzi/arm-multilib/lib/gcc/arm-none-eabi/4.6.2/../../../../arm-none-eabi/lib/libstm32.a(stm32_adc.o)
ADC_DiscModeChannelCountConfig                    /opt/paparazzi/arm-multilib/lib/gcc/arm-none-eabi/4.6.2/../../../../arm-none-eabi/lib/libstm32.a(stm32_adc.o)
ADC_DiscModeCmd                                   /opt/paparazzi/arm-multilib/lib/gcc/arm-none-eabi/4.6.2/../../../../arm-none-eabi/lib/libstm32.a(stm32_adc.o)
ADC_ExternalTrigConvCmd                           /opt/paparazzi/arm-multilib/lib/gcc/arm-none-eabi/4.6.2/../../../../arm-none-eabi/lib/libstm32.a(stm32_adc.o)
ADC_ExternalTrigInjectedConvCmd                   /opt/paparazzi/arm-multilib/lib/gcc/arm-none-eabi/4.6.2/../../../../arm-none-eabi/lib/libstm32.a(stm32_adc.o)
                                                  /home/uav/USTUAV/paparazzi/var/MYAC/ap/arch/stm32/mcu_periph/adc_arch.o
ADC_ExternalTrigInjectedConvConfig                /opt/paparazzi/arm-multilib/lib/gcc/arm-none-eabi/4.6.2/../../../../arm-none-eabi/lib/libstm32.a(stm32_adc.o)
                                                  /home/uav/USTUAV/paparazzi/var/MYAC/ap/arch/stm32/mcu_periph/adc_arch.o
ADC_GetCalibrationStatus                          /opt/paparazzi/arm-multilib/lib/gcc/arm-none-eabi/4.6.2/../../../../arm-none-eabi/lib/libstm32.a(stm32_adc.o)
                                                  /home/uav/USTUAV/paparazzi/var/MYAC/ap/arch/stm32/mcu_periph/adc_arch.o
ADC_GetConversionValue                            /opt/paparazzi/arm-multilib/lib/gcc/arm-none-eabi/4.6.2/../../../../arm-none-eabi/lib/libstm32.a(stm32_adc.o)
ADC_GetDualModeConversionValue                    /opt/paparazzi/arm-multilib/lib/gcc/arm-none-eabi/4.6.2/../../../../arm-none-eabi/lib/libstm32.a(stm32_adc.o)
ADC_GetFlagStatus                                 /opt/paparazzi/arm-multilib/lib/gcc/arm-none-eabi/4.6.2/../../../../arm-none-eabi/lib/libstm32.a(stm32_adc.o)
ADC_GetITStatus                                   /opt/paparazzi/arm-multilib/lib/gcc/arm-none-eabi/4.6.2/../../../../arm-none-eabi/lib/libstm32.a(stm32_adc.o)
ADC_GetInjectedConversionValue                    /opt/paparazzi/arm-multilib/lib/gcc/arm-none-eabi/4.6.2/../../../../arm-none-eabi/lib/libstm32.a(stm32_adc.o)
                                                  /home/uav/USTUAV/paparazzi/var/MYAC/ap/arch/stm32/mcu_periph/adc_arch.o
ADC_GetResetCalibrationStatus                     /opt/paparazzi/arm-multilib/lib/gcc/arm-none-eabi/4.6.2/../../../../arm-none-eabi/lib/libstm32.a(stm32_adc.o)
                                                  /home/uav/USTUAV/paparazzi/var/MYAC/ap/arch/stm32/mcu_periph/adc_arch.o
ADC_GetSoftwareStartConvStatus                    /opt/paparazzi/arm-multilib/lib/gcc/arm-none-eabi/4.6.2/../../../../arm-none-eabi/lib/libstm32.a(stm32_adc.o)
ADC_GetSoftwareStartInjectedConvCmdStatus         /opt/paparazzi/arm-multilib/lib/gcc/arm-none-eabi/4.6.2/../../../../arm-none-eabi/lib/libstm32.a(stm32_adc.o)
ADC_ITConfig                                      /opt/paparazzi/arm-multilib/lib/gcc/arm-none-eabi/4.6.2/../../../../arm-none-eabi/lib/libstm32.a(stm32_adc.o)
                                                  /home/uav/USTUAV/paparazzi/var/MYAC/ap/arch/stm32/mcu_periph/adc_arch.o
ADC_Init                                          /opt/paparazzi/arm-multilib/lib/gcc/arm-none-eabi/4.6.2/../../../../arm-none-eabi/lib/libstm32.a(stm32_adc.o)
                                                  /home/uav/USTUAV/paparazzi/var/MYAC/ap/arch/stm32/mcu_periph/adc_arch.o
ADC_InjectedChannelConfig                         /opt/paparazzi/arm-multilib/lib/gcc/arm-none-eabi/4.6.2/../../../../arm-none-eabi/lib/libstm32.a(stm32_adc.o)
                                                  /home/uav/USTUAV/paparazzi/var/MYAC/ap/arch/stm32/mcu_periph/adc_arch.o
ADC_InjectedDiscModeCmd                           /opt/paparazzi/arm-multilib/lib/gcc/arm-none-eabi/4.6.2/../../../../arm-none-eabi/lib/libstm32.a(stm32_adc.o)
ADC_InjectedSequencerLengthConfig                 /opt/paparazzi/arm-multilib/lib/gcc/arm-none-eabi/4.6.2/../../../../arm-none-eabi/lib/libstm32.a(stm32_adc.o)
                                                  /home/uav/USTUAV/paparazzi/var/MYAC/ap/arch/stm32/mcu_periph/adc_arch.o
ADC_RegularChannelConfig                          /opt/paparazzi/arm-multilib/lib/gcc/arm-none-eabi/4.6.2/../../../../arm-none-eabi/lib/libstm32.a(stm32_adc.o)
ADC_ResetCalibration                              /opt/paparazzi/arm-multilib/lib/gcc/arm-none-eabi/4.6.2/../../../../arm-none-eabi/lib/libstm32.a(stm32_adc.o)
                                                  /home/uav/USTUAV/paparazzi/var/MYAC/ap/arch/stm32/mcu_periph/adc_arch.o
ADC_SetInjectedOffset                             /opt/paparazzi/arm-multilib/lib/gcc/arm-none-eabi/4.6.2/../../../../arm-none-eabi/lib/libstm32.a(stm32_adc.o)
ADC_SoftwareStartConvCmd                          /opt/paparazzi/arm-multilib/lib/gcc/arm-none-eabi/4.6.2/../../../../arm-none-eabi/lib/libstm32.a(stm32_adc.o)
ADC_SoftwareStartInjectedConvCmd                  /opt/paparazzi/arm-multilib/lib/gcc/arm-none-eabi/4.6.2/../../../../arm-none-eabi/lib/libstm32.a(stm32_adc.o)
ADC_StartCalibration                              /opt/paparazzi/arm-multilib/lib/gcc/arm-none-eabi/4.6.2/../../../../arm-none-eabi/lib/libstm32.a(stm32_adc.o)
                                                  /home/uav/USTUAV/paparazzi/var/MYAC/ap/arch/stm32/mcu_periph/adc_arch.o
ADC_StructInit                                    /opt/paparazzi/arm-multilib/lib/gcc/arm-none-eabi/4.6.2/../../../../arm-none-eabi/lib/libstm32.a(stm32_adc.o)
ADC_TempSensorVrefintCmd                          /opt/paparazzi/arm-multilib/lib/gcc/arm-none-eabi/4.6.2/../../../../arm-none-eabi/lib/libstm32.a(stm32_adc.o)
DCM_Matrix                                        /home/uav/USTUAV/paparazzi/var/MYAC/ap/subsystems/ahrs/ahrs_float_dcm.o
DMA_ClearFlag                                     /opt/paparazzi/arm-multilib/lib/gcc/arm-none-eabi/4.6.2/../../../../arm-none-eabi/lib/libstm32.a(stm32_dma.o)
DMA_ClearITPendingBit                             /opt/paparazzi/arm-multilib/lib/gcc/arm-none-eabi/4.6.2/../../../../arm-none-eabi/lib/libstm32.a(stm32_dma.o)
                                                  /home/uav/USTUAV/paparazzi/var/MYAC/ap/arch/stm32/mcu_periph/spi_arch.o
DMA_Cmd                                           /opt/paparazzi/arm-multilib/lib/gcc/arm-none-eabi/4.6.2/../../../../arm-none-eabi/lib/libstm32.a(stm32_dma.o)
                                                  /home/uav/USTUAV/paparazzi/var/MYAC/ap/arch/stm32/mcu_periph/spi_arch.o
DMA_DeInit                                        /opt/paparazzi/arm-multilib/lib/gcc/arm-none-eabi/4.6.2/../../../../arm-none-eabi/lib/libstm32.a(stm32_dma.o)
                                                  /home/uav/USTUAV/paparazzi/var/MYAC/ap/arch/stm32/mcu_periph/spi_arch.o
DMA_GetCurrDataCounter                            /opt/paparazzi/arm-multilib/lib/gcc/arm-none-eabi/4.6.2/../../../../arm-none-eabi/lib/libstm32.a(stm32_dma.o)
DMA_GetFlagStatus                                 /opt/paparazzi/arm-multilib/lib/gcc/arm-none-eabi/4.6.2/../../../../arm-none-eabi/lib/libstm32.a(stm32_dma.o)
DMA_GetITStatus                                   /opt/paparazzi/arm-multilib/lib/gcc/arm-none-eabi/4.6.2/../../../../arm-none-eabi/lib/libstm32.a(stm32_dma.o)
                                                  /home/uav/USTUAV/paparazzi/var/MYAC/ap/arch/stm32/mcu_periph/spi_arch.o
DMA_ITConfig                                      /opt/paparazzi/arm-multilib/lib/gcc/arm-none-eabi/4.6.2/../../../../arm-none-eabi/lib/libstm32.a(stm32_dma.o)
                                                  /home/uav/USTUAV/paparazzi/var/MYAC/ap/arch/stm32/mcu_periph/spi_arch.o
DMA_Init                                          /opt/paparazzi/arm-multilib/lib/gcc/arm-none-eabi/4.6.2/../../../../arm-none-eabi/lib/libstm32.a(stm32_dma.o)
                                                  /home/uav/USTUAV/paparazzi/var/MYAC/ap/arch/stm32/mcu_periph/spi_arch.o
DMA_StructInit                                    /opt/paparazzi/arm-multilib/lib/gcc/arm-none-eabi/4.6.2/../../../../arm-none-eabi/lib/libstm32.a(stm32_dma.o)
DebugInit                                         /home/uav/USTUAV/paparazzi/var/MYAC/ap/arch/stm32/subsystems/radio_control/spektrum_arch.o
Drift_correction                                  /home/uav/USTUAV/paparazzi/var/MYAC/ap/subsystems/ahrs/ahrs_float_dcm.o
GPIO_AFIODeInit                                   /opt/paparazzi/arm-multilib/lib/gcc/arm-none-eabi/4.6.2/../../../../arm-none-eabi/lib/libstm32.a(stm32_gpio.o)
GPIO_DeInit                                       /opt/paparazzi/arm-multilib/lib/gcc/arm-none-eabi/4.6.2/../../../../arm-none-eabi/lib/libstm32.a(stm32_gpio.o)
GPIO_EXTILineConfig                               /opt/paparazzi/arm-multilib/lib/gcc/arm-none-eabi/4.6.2/../../../../arm-none-eabi/lib/libstm32.a(stm32_gpio.o)
GPIO_EventOutputCmd                               /opt/paparazzi/arm-multilib/lib/gcc/arm-none-eabi/4.6.2/../../../../arm-none-eabi/lib/libstm32.a(stm32_gpio.o)
GPIO_EventOutputConfig                            /opt/paparazzi/arm-multilib/lib/gcc/arm-none-eabi/4.6.2/../../../../arm-none-eabi/lib/libstm32.a(stm32_gpio.o)
GPIO_Init                                         /opt/paparazzi/arm-multilib/lib/gcc/arm-none-eabi/4.6.2/../../../../arm-none-eabi/lib/libstm32.a(stm32_gpio.o)
                                                  /home/uav/USTUAV/paparazzi/var/MYAC/ap/arch/stm32/mcu_periph/spi_arch.o
                                                  /home/uav/USTUAV/paparazzi/var/MYAC/ap/arch/stm32/subsystems/radio_control/spektrum_arch.o
                                                  /home/uav/USTUAV/paparazzi/var/MYAC/ap/firmwares/rotorcraft/actuators/arch/stm32/actuators_pwm_arch.o
                                                  /home/uav/USTUAV/paparazzi/var/MYAC/ap/arch/stm32/mcu_periph/adc_arch.o
                                                  /home/uav/USTUAV/paparazzi/var/MYAC/ap/arch/stm32/mcu_periph/uart_arch.o
                                                  /home/uav/USTUAV/paparazzi/var/MYAC/ap/mcu.o
GPIO_PinLockConfig                                /opt/paparazzi/arm-multilib/lib/gcc/arm-none-eabi/4.6.2/../../../../arm-none-eabi/lib/libstm32.a(stm32_gpio.o)
GPIO_PinRemapConfig                               /opt/paparazzi/arm-multilib/lib/gcc/arm-none-eabi/4.6.2/../../../../arm-none-eabi/lib/libstm32.a(stm32_gpio.o)
                                                  /home/uav/USTUAV/paparazzi/var/MYAC/ap/firmwares/rotorcraft/actuators/arch/stm32/actuators_pwm_arch.o
                                                  /home/uav/USTUAV/paparazzi/var/MYAC/ap/arch/stm32/mcu_periph/uart_arch.o
                                                  /home/uav/USTUAV/paparazzi/var/MYAC/ap/mcu.o
GPIO_ReadInputData                                /opt/paparazzi/arm-multilib/lib/gcc/arm-none-eabi/4.6.2/../../../../arm-none-eabi/lib/libstm32.a(stm32_gpio.o)
GPIO_ReadInputDataBit                             /opt/paparazzi/arm-multilib/lib/gcc/arm-none-eabi/4.6.2/../../../../arm-none-eabi/lib/libstm32.a(stm32_gpio.o)
                                                  /home/uav/USTUAV/paparazzi/var/MYAC/ap/arch/stm32/subsystems/radio_control/spektrum_arch.o
GPIO_ReadOutputData                               /opt/paparazzi/arm-multilib/lib/gcc/arm-none-eabi/4.6.2/../../../../arm-none-eabi/lib/libstm32.a(stm32_gpio.o)
GPIO_ReadOutputDataBit                            /opt/paparazzi/arm-multilib/lib/gcc/arm-none-eabi/4.6.2/../../../../arm-none-eabi/lib/libstm32.a(stm32_gpio.o)
GPIO_ResetBits                                    /opt/paparazzi/arm-multilib/lib/gcc/arm-none-eabi/4.6.2/../../../../arm-none-eabi/lib/libstm32.a(stm32_gpio.o)
GPIO_SetBits                                      /opt/paparazzi/arm-multilib/lib/gcc/arm-none-eabi/4.6.2/../../../../arm-none-eabi/lib/libstm32.a(stm32_gpio.o)
GPIO_StructInit                                   /opt/paparazzi/arm-multilib/lib/gcc/arm-none-eabi/4.6.2/../../../../arm-none-eabi/lib/libstm32.a(stm32_gpio.o)
GPIO_Write                                        /opt/paparazzi/arm-multilib/lib/gcc/arm-none-eabi/4.6.2/../../../../arm-none-eabi/lib/libstm32.a(stm32_gpio.o)
GPIO_WriteBit                                     /opt/paparazzi/arm-multilib/lib/gcc/arm-none-eabi/4.6.2/../../../../arm-none-eabi/lib/libstm32.a(stm32_gpio.o)
                                                  /home/uav/USTUAV/paparazzi/var/MYAC/ap/arch/stm32/subsystems/radio_control/spektrum_arch.o
G_Dt                                              /home/uav/USTUAV/paparazzi/var/MYAC/ap/subsystems/ahrs/ahrs_float_dcm.o
I2C_ARPCmd                                        /opt/paparazzi/arm-multilib/lib/gcc/arm-none-eabi/4.6.2/../../../../arm-none-eabi/lib/libstm32.a(stm32_i2c.o)
I2C_AcknowledgeConfig                             /opt/paparazzi/arm-multilib/lib/gcc/arm-none-eabi/4.6.2/../../../../arm-none-eabi/lib/libstm32.a(stm32_i2c.o)
I2C_CalculatePEC                                  /opt/paparazzi/arm-multilib/lib/gcc/arm-none-eabi/4.6.2/../../../../arm-none-eabi/lib/libstm32.a(stm32_i2c.o)
I2C_CheckEvent                                    /opt/paparazzi/arm-multilib/lib/gcc/arm-none-eabi/4.6.2/../../../../arm-none-eabi/lib/libstm32.a(stm32_i2c.o)
I2C_ClearFlag                                     /opt/paparazzi/arm-multilib/lib/gcc/arm-none-eabi/4.6.2/../../../../arm-none-eabi/lib/libstm32.a(stm32_i2c.o)
I2C_ClearITPendingBit                             /opt/paparazzi/arm-multilib/lib/gcc/arm-none-eabi/4.6.2/../../../../arm-none-eabi/lib/libstm32.a(stm32_i2c.o)
I2C_Cmd                                           /opt/paparazzi/arm-multilib/lib/gcc/arm-none-eabi/4.6.2/../../../../arm-none-eabi/lib/libstm32.a(stm32_i2c.o)
I2C_DMACmd                                        /opt/paparazzi/arm-multilib/lib/gcc/arm-none-eabi/4.6.2/../../../../arm-none-eabi/lib/libstm32.a(stm32_i2c.o)
I2C_DMALastTransferCmd                            /opt/paparazzi/arm-multilib/lib/gcc/arm-none-eabi/4.6.2/../../../../arm-none-eabi/lib/libstm32.a(stm32_i2c.o)
I2C_DeInit                                        /opt/paparazzi/arm-multilib/lib/gcc/arm-none-eabi/4.6.2/../../../../arm-none-eabi/lib/libstm32.a(stm32_i2c.o)
I2C_DualAddressCmd                                /opt/paparazzi/arm-multilib/lib/gcc/arm-none-eabi/4.6.2/../../../../arm-none-eabi/lib/libstm32.a(stm32_i2c.o)
I2C_FastModeDutyCycleConfig                       /opt/paparazzi/arm-multilib/lib/gcc/arm-none-eabi/4.6.2/../../../../arm-none-eabi/lib/libstm32.a(stm32_i2c.o)
I2C_GeneralCallCmd                                /opt/paparazzi/arm-multilib/lib/gcc/arm-none-eabi/4.6.2/../../../../arm-none-eabi/lib/libstm32.a(stm32_i2c.o)
I2C_GenerateSTART                                 /opt/paparazzi/arm-multilib/lib/gcc/arm-none-eabi/4.6.2/../../../../arm-none-eabi/lib/libstm32.a(stm32_i2c.o)
                                                  /home/uav/USTUAV/paparazzi/var/MYAC/ap/arch/stm32/mcu_periph/i2c_arch.o
I2C_GenerateSTOP                                  /opt/paparazzi/arm-multilib/lib/gcc/arm-none-eabi/4.6.2/../../../../arm-none-eabi/lib/libstm32.a(stm32_i2c.o)
I2C_GetFlagStatus                                 /opt/paparazzi/arm-multilib/lib/gcc/arm-none-eabi/4.6.2/../../../../arm-none-eabi/lib/libstm32.a(stm32_i2c.o)
                                                  /home/uav/USTUAV/paparazzi/var/MYAC/ap/arch/stm32/mcu_periph/i2c_arch.o
I2C_GetITStatus                                   /opt/paparazzi/arm-multilib/lib/gcc/arm-none-eabi/4.6.2/../../../../arm-none-eabi/lib/libstm32.a(stm32_i2c.o)
I2C_GetLastEvent                                  /opt/paparazzi/arm-multilib/lib/gcc/arm-none-eabi/4.6.2/../../../../arm-none-eabi/lib/libstm32.a(stm32_i2c.o)
I2C_GetPEC                                        /opt/paparazzi/arm-multilib/lib/gcc/arm-none-eabi/4.6.2/../../../../arm-none-eabi/lib/libstm32.a(stm32_i2c.o)
I2C_ITConfig                                      /opt/paparazzi/arm-multilib/lib/gcc/arm-none-eabi/4.6.2/../../../../arm-none-eabi/lib/libstm32.a(stm32_i2c.o)
                                                  /home/uav/USTUAV/paparazzi/var/MYAC/ap/arch/stm32/mcu_periph/i2c_arch.o
I2C_Init                                          /opt/paparazzi/arm-multilib/lib/gcc/arm-none-eabi/4.6.2/../../../../arm-none-eabi/lib/libstm32.a(stm32_i2c.o)
I2C_OwnAddress2Config                             /opt/paparazzi/arm-multilib/lib/gcc/arm-none-eabi/4.6.2/../../../../arm-none-eabi/lib/libstm32.a(stm32_i2c.o)
I2C_PECPositionConfig                             /opt/paparazzi/arm-multilib/lib/gcc/arm-none-eabi/4.6.2/../../../../arm-none-eabi/lib/libstm32.a(stm32_i2c.o)
I2C_ReadRegister                                  /opt/paparazzi/arm-multilib/lib/gcc/arm-none-eabi/4.6.2/../../../../arm-none-eabi/lib/libstm32.a(stm32_i2c.o)
I2C_ReceiveData                                   /opt/paparazzi/arm-multilib/lib/gcc/arm-none-eabi/4.6.2/../../../../arm-none-eabi/lib/libstm32.a(stm32_i2c.o)
I2C_SMBusAlertConfig                              /opt/paparazzi/arm-multilib/lib/gcc/arm-none-eabi/4.6.2/../../../../arm-none-eabi/lib/libstm32.a(stm32_i2c.o)
I2C_Send7bitAddress                               /opt/paparazzi/arm-multilib/lib/gcc/arm-none-eabi/4.6.2/../../../../arm-none-eabi/lib/libstm32.a(stm32_i2c.o)
I2C_SendData                                      /opt/paparazzi/arm-multilib/lib/gcc/arm-none-eabi/4.6.2/../../../../arm-none-eabi/lib/libstm32.a(stm32_i2c.o)
I2C_SoftwareResetCmd                              /opt/paparazzi/arm-multilib/lib/gcc/arm-none-eabi/4.6.2/../../../../arm-none-eabi/lib/libstm32.a(stm32_i2c.o)
I2C_StretchClockCmd                               /opt/paparazzi/arm-multilib/lib/gcc/arm-none-eabi/4.6.2/../../../../arm-none-eabi/lib/libstm32.a(stm32_i2c.o)
I2C_StructInit                                    /opt/paparazzi/arm-multilib/lib/gcc/arm-none-eabi/4.6.2/../../../../arm-none-eabi/lib/libstm32.a(stm32_i2c.o)
I2C_TransmitPEC                                   /opt/paparazzi/arm-multilib/lib/gcc/arm-none-eabi/4.6.2/../../../../arm-none-eabi/lib/libstm32.a(stm32_i2c.o)
I2S_Cmd                                           /opt/paparazzi/arm-multilib/lib/gcc/arm-none-eabi/4.6.2/../../../../arm-none-eabi/lib/libstm32.a(stm32_spi.o)
I2S_Init                                          /opt/paparazzi/arm-multilib/lib/gcc/arm-none-eabi/4.6.2/../../../../arm-none-eabi/lib/libstm32.a(stm32_spi.o)
I2S_StructInit                                    /opt/paparazzi/arm-multilib/lib/gcc/arm-none-eabi/4.6.2/../../../../arm-none-eabi/lib/libstm32.a(stm32_spi.o)
Matrix_update                                     /home/uav/USTUAV/paparazzi/var/MYAC/ap/subsystems/ahrs/ahrs_float_dcm.o
NVIC_Init                                         /opt/paparazzi/arm-multilib/lib/gcc/arm-none-eabi/4.6.2/../../../../arm-none-eabi/lib/libstm32.a(stm32_misc.o)
                                                  /home/uav/USTUAV/paparazzi/var/MYAC/ap/arch/stm32/mcu_periph/spi_arch.o
                                                  /home/uav/USTUAV/paparazzi/var/MYAC/ap/arch/stm32/subsystems/radio_control/spektrum_arch.o
                                                  /home/uav/USTUAV/paparazzi/var/MYAC/ap/arch/stm32/mcu_periph/adc_arch.o
                                                  /home/uav/USTUAV/paparazzi/var/MYAC/ap/arch/stm32/mcu_periph/uart_arch.o
NVIC_PriorityGroupConfig                          /opt/paparazzi/arm-multilib/lib/gcc/arm-none-eabi/4.6.2/../../../../arm-none-eabi/lib/libstm32.a(stm32_misc.o)
NVIC_SetVectorTable                               /opt/paparazzi/arm-multilib/lib/gcc/arm-none-eabi/4.6.2/../../../../arm-none-eabi/lib/libstm32.a(stm32_misc.o)
                                                  /home/uav/USTUAV/paparazzi/var/MYAC/ap/arch/stm32/mcu_arch.o
NVIC_SystemLPConfig                               /opt/paparazzi/arm-multilib/lib/gcc/arm-none-eabi/4.6.2/../../../../arm-none-eabi/lib/libstm32.a(stm32_misc.o)
Normalize                                         /home/uav/USTUAV/paparazzi/var/MYAC/ap/subsystems/ahrs/ahrs_float_dcm.o
Omega                                             /home/uav/USTUAV/paparazzi/var/MYAC/ap/subsystems/ahrs/ahrs_float_dcm.o
Omega_I                                           /home/uav/USTUAV/paparazzi/var/MYAC/ap/subsystems/ahrs/ahrs_float_dcm.o
Omega_P                                           /home/uav/USTUAV/paparazzi/var/MYAC/ap/subsystems/ahrs/ahrs_float_dcm.o
Omega_Vector                                      /home/uav/USTUAV/paparazzi/var/MYAC/ap/subsystems/ahrs/ahrs_float_dcm.o
PrimarySpektrumState                              /home/uav/USTUAV/paparazzi/var/MYAC/ap/arch/stm32/subsystems/radio_control/spektrum_arch.o
RCC_ADCCLKConfig                                  /opt/paparazzi/arm-multilib/lib/gcc/arm-none-eabi/4.6.2/../../../../arm-none-eabi/lib/libstm32.a(stm32_rcc.o)
                                                  /home/uav/USTUAV/paparazzi/var/MYAC/ap/arch/stm32/mcu_periph/adc_arch.o
RCC_AHBPeriphClockCmd                             /opt/paparazzi/arm-multilib/lib/gcc/arm-none-eabi/4.6.2/../../../../arm-none-eabi/lib/libstm32.a(stm32_rcc.o)
                                                  /home/uav/USTUAV/paparazzi/var/MYAC/ap/arch/stm32/mcu_periph/spi_arch.o
RCC_APB1PeriphClockCmd                            /opt/paparazzi/arm-multilib/lib/gcc/arm-none-eabi/4.6.2/../../../../arm-none-eabi/lib/libstm32.a(stm32_rcc.o)
                                                  /home/uav/USTUAV/paparazzi/var/MYAC/ap/arch/stm32/mcu_periph/spi_arch.o
                                                  /home/uav/USTUAV/paparazzi/var/MYAC/ap/arch/stm32/subsystems/radio_control/spektrum_arch.o
                                                  /home/uav/USTUAV/paparazzi/var/MYAC/ap/firmwares/rotorcraft/actuators/arch/stm32/actuators_pwm_arch.o
                                                  /home/uav/USTUAV/paparazzi/var/MYAC/ap/arch/stm32/mcu_periph/adc_arch.o
                                                  /home/uav/USTUAV/paparazzi/var/MYAC/ap/arch/stm32/mcu_periph/uart_arch.o
RCC_APB1PeriphResetCmd                            /opt/paparazzi/arm-multilib/lib/gcc/arm-none-eabi/4.6.2/../../../../arm-none-eabi/lib/libstm32.a(stm32_rcc.o)
                                                  /opt/paparazzi/arm-multilib/lib/gcc/arm-none-eabi/4.6.2/../../../../arm-none-eabi/lib/libstm32.a(stm32_spi.o)
                                                  /opt/paparazzi/arm-multilib/lib/gcc/arm-none-eabi/4.6.2/../../../../arm-none-eabi/lib/libstm32.a(stm32_i2c.o)
                                                  /opt/paparazzi/arm-multilib/lib/gcc/arm-none-eabi/4.6.2/../../../../arm-none-eabi/lib/libstm32.a(stm32_usart.o)
                                                  /opt/paparazzi/arm-multilib/lib/gcc/arm-none-eabi/4.6.2/../../../../arm-none-eabi/lib/libstm32.a(stm32_tim.o)
RCC_APB2PeriphClockCmd                            /opt/paparazzi/arm-multilib/lib/gcc/arm-none-eabi/4.6.2/../../../../arm-none-eabi/lib/libstm32.a(stm32_rcc.o)
                                                  /home/uav/USTUAV/paparazzi/var/MYAC/ap/arch/stm32/mcu_periph/spi_arch.o
                                                  /home/uav/USTUAV/paparazzi/var/MYAC/ap/arch/stm32/subsystems/radio_control/spektrum_arch.o
                                                  /home/uav/USTUAV/paparazzi/var/MYAC/ap/firmwares/rotorcraft/actuators/arch/stm32/actuators_pwm_arch.o
                                                  /home/uav/USTUAV/paparazzi/var/MYAC/ap/arch/stm32/mcu_periph/adc_arch.o
                                                  /home/uav/USTUAV/paparazzi/var/MYAC/ap/arch/stm32/mcu_periph/uart_arch.o
                                                  /home/uav/USTUAV/paparazzi/var/MYAC/ap/mcu.o
RCC_APB2PeriphResetCmd                            /opt/paparazzi/arm-multilib/lib/gcc/arm-none-eabi/4.6.2/../../../../arm-none-eabi/lib/libstm32.a(stm32_rcc.o)
                                                  /opt/paparazzi/arm-multilib/lib/gcc/arm-none-eabi/4.6.2/../../../../arm-none-eabi/lib/libstm32.a(stm32_spi.o)
                                                  /opt/paparazzi/arm-multilib/lib/gcc/arm-none-eabi/4.6.2/../../../../arm-none-eabi/lib/libstm32.a(stm32_usart.o)
                                                  /opt/paparazzi/arm-multilib/lib/gcc/arm-none-eabi/4.6.2/../../../../arm-none-eabi/lib/libstm32.a(stm32_gpio.o)
                                                  /opt/paparazzi/arm-multilib/lib/gcc/arm-none-eabi/4.6.2/../../../../arm-none-eabi/lib/libstm32.a(stm32_tim.o)
                                                  /opt/paparazzi/arm-multilib/lib/gcc/arm-none-eabi/4.6.2/../../../../arm-none-eabi/lib/libstm32.a(stm32_adc.o)
RCC_AdjustHSICalibrationValue                     /opt/paparazzi/arm-multilib/lib/gcc/arm-none-eabi/4.6.2/../../../../arm-none-eabi/lib/libstm32.a(stm32_rcc.o)
RCC_BackupResetCmd                                /opt/paparazzi/arm-multilib/lib/gcc/arm-none-eabi/4.6.2/../../../../arm-none-eabi/lib/libstm32.a(stm32_rcc.o)
RCC_ClearFlag                                     /opt/paparazzi/arm-multilib/lib/gcc/arm-none-eabi/4.6.2/../../../../arm-none-eabi/lib/libstm32.a(stm32_rcc.o)
RCC_ClearITPendingBit                             /opt/paparazzi/arm-multilib/lib/gcc/arm-none-eabi/4.6.2/../../../../arm-none-eabi/lib/libstm32.a(stm32_rcc.o)
RCC_ClockSecuritySystemCmd                        /opt/paparazzi/arm-multilib/lib/gcc/arm-none-eabi/4.6.2/../../../../arm-none-eabi/lib/libstm32.a(stm32_rcc.o)
RCC_DeInit                                        /opt/paparazzi/arm-multilib/lib/gcc/arm-none-eabi/4.6.2/../../../../arm-none-eabi/lib/libstm32.a(stm32_rcc.o)
RCC_GetClocksFreq                                 /opt/paparazzi/arm-multilib/lib/gcc/arm-none-eabi/4.6.2/../../../../arm-none-eabi/lib/libstm32.a(stm32_rcc.o)
                                                  /opt/paparazzi/arm-multilib/lib/gcc/arm-none-eabi/4.6.2/../../../../arm-none-eabi/lib/libstm32.a(stm32_spi.o)
                                                  /opt/paparazzi/arm-multilib/lib/gcc/arm-none-eabi/4.6.2/../../../../arm-none-eabi/lib/libstm32.a(stm32_i2c.o)
                                                  /opt/paparazzi/arm-multilib/lib/gcc/arm-none-eabi/4.6.2/../../../../arm-none-eabi/lib/libstm32.a(stm32_usart.o)
RCC_GetFlagStatus                                 /opt/paparazzi/arm-multilib/lib/gcc/arm-none-eabi/4.6.2/../../../../arm-none-eabi/lib/libstm32.a(stm32_rcc.o)
RCC_GetITStatus                                   /opt/paparazzi/arm-multilib/lib/gcc/arm-none-eabi/4.6.2/../../../../arm-none-eabi/lib/libstm32.a(stm32_rcc.o)
RCC_GetSYSCLKSource                               /opt/paparazzi/arm-multilib/lib/gcc/arm-none-eabi/4.6.2/../../../../arm-none-eabi/lib/libstm32.a(stm32_rcc.o)
RCC_HCLKConfig                                    /opt/paparazzi/arm-multilib/lib/gcc/arm-none-eabi/4.6.2/../../../../arm-none-eabi/lib/libstm32.a(stm32_rcc.o)
RCC_HSEConfig                                     /opt/paparazzi/arm-multilib/lib/gcc/arm-none-eabi/4.6.2/../../../../arm-none-eabi/lib/libstm32.a(stm32_rcc.o)
RCC_HSICmd                                        /opt/paparazzi/arm-multilib/lib/gcc/arm-none-eabi/4.6.2/../../../../arm-none-eabi/lib/libstm32.a(stm32_rcc.o)
RCC_ITConfig                                      /opt/paparazzi/arm-multilib/lib/gcc/arm-none-eabi/4.6.2/../../../../arm-none-eabi/lib/libstm32.a(stm32_rcc.o)
RCC_LSEConfig                                     /opt/paparazzi/arm-multilib/lib/gcc/arm-none-eabi/4.6.2/../../../../arm-none-eabi/lib/libstm32.a(stm32_rcc.o)
RCC_LSICmd                                        /opt/paparazzi/arm-multilib/lib/gcc/arm-none-eabi/4.6.2/../../../../arm-none-eabi/lib/libstm32.a(stm32_rcc.o)
RCC_MCOConfig                                     /opt/paparazzi/arm-multilib/lib/gcc/arm-none-eabi/4.6.2/../../../../arm-none-eabi/lib/libstm32.a(stm32_rcc.o)
RCC_PCLK1Config                                   /opt/paparazzi/arm-multilib/lib/gcc/arm-none-eabi/4.6.2/../../../../arm-none-eabi/lib/libstm32.a(stm32_rcc.o)
RCC_PCLK2Config                                   /opt/paparazzi/arm-multilib/lib/gcc/arm-none-eabi/4.6.2/../../../../arm-none-eabi/lib/libstm32.a(stm32_rcc.o)
RCC_PLLCmd                                        /opt/paparazzi/arm-multilib/lib/gcc/arm-none-eabi/4.6.2/../../../../arm-none-eabi/lib/libstm32.a(stm32_rcc.o)
RCC_PLLConfig                                     /opt/paparazzi/arm-multilib/lib/gcc/arm-none-eabi/4.6.2/../../../../arm-none-eabi/lib/libstm32.a(stm32_rcc.o)
RCC_RTCCLKCmd                                     /opt/paparazzi/arm-multilib/lib/gcc/arm-none-eabi/4.6.2/../../../../arm-none-eabi/lib/libstm32.a(stm32_rcc.o)
RCC_RTCCLKConfig                                  /opt/paparazzi/arm-multilib/lib/gcc/arm-none-eabi/4.6.2/../../../../arm-none-eabi/lib/libstm32.a(stm32_rcc.o)
RCC_SYSCLKConfig                                  /opt/paparazzi/arm-multilib/lib/gcc/arm-none-eabi/4.6.2/../../../../arm-none-eabi/lib/libstm32.a(stm32_rcc.o)
RCC_USBCLKConfig                                  /opt/paparazzi/arm-multilib/lib/gcc/arm-none-eabi/4.6.2/../../../../arm-none-eabi/lib/libstm32.a(stm32_rcc.o)
RCC_WaitForHSEStartUp                             /opt/paparazzi/arm-multilib/lib/gcc/arm-none-eabi/4.6.2/../../../../arm-none-eabi/lib/libstm32.a(stm32_rcc.o)
RadioControlEventImp                              /home/uav/USTUAV/paparazzi/var/MYAC/ap/arch/stm32/subsystems/radio_control/spektrum_arch.o
                                                  /home/uav/USTUAV/paparazzi/var/MYAC/ap/firmwares/fixedwing/main_fbw.o
SPI_BiDirectionalLineConfig                       /opt/paparazzi/arm-multilib/lib/gcc/arm-none-eabi/4.6.2/../../../../arm-none-eabi/lib/libstm32.a(stm32_spi.o)
SPI_CalculateCRC                                  /opt/paparazzi/arm-multilib/lib/gcc/arm-none-eabi/4.6.2/../../../../arm-none-eabi/lib/libstm32.a(stm32_spi.o)
SPI_Cmd                                           /opt/paparazzi/arm-multilib/lib/gcc/arm-none-eabi/4.6.2/../../../../arm-none-eabi/lib/libstm32.a(stm32_spi.o)
                                                  /home/uav/USTUAV/paparazzi/var/MYAC/ap/arch/stm32/mcu_periph/spi_arch.o
SPI_DataSizeConfig                                /opt/paparazzi/arm-multilib/lib/gcc/arm-none-eabi/4.6.2/../../../../arm-none-eabi/lib/libstm32.a(stm32_spi.o)
SPI_GetCRC                                        /opt/paparazzi/arm-multilib/lib/gcc/arm-none-eabi/4.6.2/../../../../arm-none-eabi/lib/libstm32.a(stm32_spi.o)
SPI_GetCRCPolynomial                              /opt/paparazzi/arm-multilib/lib/gcc/arm-none-eabi/4.6.2/../../../../arm-none-eabi/lib/libstm32.a(stm32_spi.o)
SPI_I2S_ClearFlag                                 /opt/paparazzi/arm-multilib/lib/gcc/arm-none-eabi/4.6.2/../../../../arm-none-eabi/lib/libstm32.a(stm32_spi.o)
SPI_I2S_ClearITPendingBit                         /opt/paparazzi/arm-multilib/lib/gcc/arm-none-eabi/4.6.2/../../../../arm-none-eabi/lib/libstm32.a(stm32_spi.o)
SPI_I2S_DMACmd                                    /opt/paparazzi/arm-multilib/lib/gcc/arm-none-eabi/4.6.2/../../../../arm-none-eabi/lib/libstm32.a(stm32_spi.o)
                                                  /home/uav/USTUAV/paparazzi/var/MYAC/ap/arch/stm32/mcu_periph/spi_arch.o
SPI_I2S_DeInit                                    /opt/paparazzi/arm-multilib/lib/gcc/arm-none-eabi/4.6.2/../../../../arm-none-eabi/lib/libstm32.a(stm32_spi.o)
SPI_I2S_GetFlagStatus                             /opt/paparazzi/arm-multilib/lib/gcc/arm-none-eabi/4.6.2/../../../../arm-none-eabi/lib/libstm32.a(stm32_spi.o)
SPI_I2S_GetITStatus                               /opt/paparazzi/arm-multilib/lib/gcc/arm-none-eabi/4.6.2/../../../../arm-none-eabi/lib/libstm32.a(stm32_spi.o)
SPI_I2S_ITConfig                                  /opt/paparazzi/arm-multilib/lib/gcc/arm-none-eabi/4.6.2/../../../../arm-none-eabi/lib/libstm32.a(stm32_spi.o)
SPI_I2S_ReceiveData                               /opt/paparazzi/arm-multilib/lib/gcc/arm-none-eabi/4.6.2/../../../../arm-none-eabi/lib/libstm32.a(stm32_spi.o)
SPI_I2S_SendData                                  /opt/paparazzi/arm-multilib/lib/gcc/arm-none-eabi/4.6.2/../../../../arm-none-eabi/lib/libstm32.a(stm32_spi.o)
SPI_Init                                          /opt/paparazzi/arm-multilib/lib/gcc/arm-none-eabi/4.6.2/../../../../arm-none-eabi/lib/libstm32.a(stm32_spi.o)
                                                  /home/uav/USTUAV/paparazzi/var/MYAC/ap/arch/stm32/mcu_periph/spi_arch.o
SPI_NSSInternalSoftwareConfig                     /opt/paparazzi/arm-multilib/lib/gcc/arm-none-eabi/4.6.2/../../../../arm-none-eabi/lib/libstm32.a(stm32_spi.o)
SPI_SSOutputCmd                                   /opt/paparazzi/arm-multilib/lib/gcc/arm-none-eabi/4.6.2/../../../../arm-none-eabi/lib/libstm32.a(stm32_spi.o)
SPI_StructInit                                    /opt/paparazzi/arm-multilib/lib/gcc/arm-none-eabi/4.6.2/../../../../arm-none-eabi/lib/libstm32.a(stm32_spi.o)
SPI_TransmitCRC                                   /opt/paparazzi/arm-multilib/lib/gcc/arm-none-eabi/4.6.2/../../../../arm-none-eabi/lib/libstm32.a(stm32_spi.o)
SpektrumBuf                                       /home/uav/USTUAV/paparazzi/var/MYAC/ap/arch/stm32/subsystems/radio_control/spektrum_arch.o
SpektrumSigns                                     /home/uav/USTUAV/paparazzi/var/MYAC/ap/arch/stm32/subsystems/radio_control/spektrum_arch.o
SpektrumTimerInit                                 /home/uav/USTUAV/paparazzi/var/MYAC/ap/arch/stm32/subsystems/radio_control/spektrum_arch.o
SpektrumUartInit                                  /home/uav/USTUAV/paparazzi/var/MYAC/ap/arch/stm32/subsystems/radio_control/spektrum_arch.o
SysTick_CLKSourceConfig                           /opt/paparazzi/arm-multilib/lib/gcc/arm-none-eabi/4.6.2/../../../../arm-none-eabi/lib/libstm32.a(stm32_misc.o)
TIM_ARRPreloadConfig                              /opt/paparazzi/arm-multilib/lib/gcc/arm-none-eabi/4.6.2/../../../../arm-none-eabi/lib/libstm32.a(stm32_tim.o)
                                                  /home/uav/USTUAV/paparazzi/var/MYAC/ap/firmwares/rotorcraft/actuators/arch/stm32/actuators_pwm_arch.o
TIM_BDTRConfig                                    /opt/paparazzi/arm-multilib/lib/gcc/arm-none-eabi/4.6.2/../../../../arm-none-eabi/lib/libstm32.a(stm32_tim.o)
TIM_BDTRStructInit                                /opt/paparazzi/arm-multilib/lib/gcc/arm-none-eabi/4.6.2/../../../../arm-none-eabi/lib/libstm32.a(stm32_tim.o)
TIM_CCPreloadControl                              /opt/paparazzi/arm-multilib/lib/gcc/arm-none-eabi/4.6.2/../../../../arm-none-eabi/lib/libstm32.a(stm32_tim.o)
TIM_CCxCmd                                        /opt/paparazzi/arm-multilib/lib/gcc/arm-none-eabi/4.6.2/../../../../arm-none-eabi/lib/libstm32.a(stm32_tim.o)
TIM_CCxNCmd                                       /opt/paparazzi/arm-multilib/lib/gcc/arm-none-eabi/4.6.2/../../../../arm-none-eabi/lib/libstm32.a(stm32_tim.o)
TIM_ClearFlag                                     /opt/paparazzi/arm-multilib/lib/gcc/arm-none-eabi/4.6.2/../../../../arm-none-eabi/lib/libstm32.a(stm32_tim.o)
                                                  /home/uav/USTUAV/paparazzi/var/MYAC/ap/arch/stm32/subsystems/radio_control/spektrum_arch.o
TIM_ClearITPendingBit                             /opt/paparazzi/arm-multilib/lib/gcc/arm-none-eabi/4.6.2/../../../../arm-none-eabi/lib/libstm32.a(stm32_tim.o)
                                                  /home/uav/USTUAV/paparazzi/var/MYAC/ap/arch/stm32/subsystems/radio_control/spektrum_arch.o
TIM_ClearOC1Ref                                   /opt/paparazzi/arm-multilib/lib/gcc/arm-none-eabi/4.6.2/../../../../arm-none-eabi/lib/libstm32.a(stm32_tim.o)
TIM_ClearOC2Ref                                   /opt/paparazzi/arm-multilib/lib/gcc/arm-none-eabi/4.6.2/../../../../arm-none-eabi/lib/libstm32.a(stm32_tim.o)
TIM_ClearOC3Ref                                   /opt/paparazzi/arm-multilib/lib/gcc/arm-none-eabi/4.6.2/../../../../arm-none-eabi/lib/libstm32.a(stm32_tim.o)
TIM_ClearOC4Ref                                   /opt/paparazzi/arm-multilib/lib/gcc/arm-none-eabi/4.6.2/../../../../arm-none-eabi/lib/libstm32.a(stm32_tim.o)
TIM_Cmd                                           /opt/paparazzi/arm-multilib/lib/gcc/arm-none-eabi/4.6.2/../../../../arm-none-eabi/lib/libstm32.a(stm32_tim.o)
                                                  /home/uav/USTUAV/paparazzi/var/MYAC/ap/arch/stm32/subsystems/radio_control/spektrum_arch.o
                                                  /home/uav/USTUAV/paparazzi/var/MYAC/ap/firmwares/rotorcraft/actuators/arch/stm32/actuators_pwm_arch.o
                                                  /home/uav/USTUAV/paparazzi/var/MYAC/ap/arch/stm32/mcu_periph/adc_arch.o
TIM_CounterModeConfig                             /opt/paparazzi/arm-multilib/lib/gcc/arm-none-eabi/4.6.2/../../../../arm-none-eabi/lib/libstm32.a(stm32_tim.o)
TIM_CtrlPWMOutputs                                /opt/paparazzi/arm-multilib/lib/gcc/arm-none-eabi/4.6.2/../../../../arm-none-eabi/lib/libstm32.a(stm32_tim.o)
                                                  /home/uav/USTUAV/paparazzi/var/MYAC/ap/firmwares/rotorcraft/actuators/arch/stm32/actuators_pwm_arch.o
TIM_DMACmd                                        /opt/paparazzi/arm-multilib/lib/gcc/arm-none-eabi/4.6.2/../../../../arm-none-eabi/lib/libstm32.a(stm32_tim.o)
TIM_DMAConfig                                     /opt/paparazzi/arm-multilib/lib/gcc/arm-none-eabi/4.6.2/../../../../arm-none-eabi/lib/libstm32.a(stm32_tim.o)
TIM_DeInit                                        /opt/paparazzi/arm-multilib/lib/gcc/arm-none-eabi/4.6.2/../../../../arm-none-eabi/lib/libstm32.a(stm32_tim.o)
TIM_ETRClockMode1Config                           /opt/paparazzi/arm-multilib/lib/gcc/arm-none-eabi/4.6.2/../../../../arm-none-eabi/lib/libstm32.a(stm32_tim.o)
TIM_ETRClockMode2Config                           /opt/paparazzi/arm-multilib/lib/gcc/arm-none-eabi/4.6.2/../../../../arm-none-eabi/lib/libstm32.a(stm32_tim.o)
TIM_ETRConfig                                     /opt/paparazzi/arm-multilib/lib/gcc/arm-none-eabi/4.6.2/../../../../arm-none-eabi/lib/libstm32.a(stm32_tim.o)
TIM_EncoderInterfaceConfig                        /opt/paparazzi/arm-multilib/lib/gcc/arm-none-eabi/4.6.2/../../../../arm-none-eabi/lib/libstm32.a(stm32_tim.o)
TIM_ForcedOC1Config                               /opt/paparazzi/arm-multilib/lib/gcc/arm-none-eabi/4.6.2/../../../../arm-none-eabi/lib/libstm32.a(stm32_tim.o)
TIM_ForcedOC2Config                               /opt/paparazzi/arm-multilib/lib/gcc/arm-none-eabi/4.6.2/../../../../arm-none-eabi/lib/libstm32.a(stm32_tim.o)
TIM_ForcedOC3Config                               /opt/paparazzi/arm-multilib/lib/gcc/arm-none-eabi/4.6.2/../../../../arm-none-eabi/lib/libstm32.a(stm32_tim.o)
TIM_ForcedOC4Config                               /opt/paparazzi/arm-multilib/lib/gcc/arm-none-eabi/4.6.2/../../../../arm-none-eabi/lib/libstm32.a(stm32_tim.o)
TIM_GenerateEvent                                 /opt/paparazzi/arm-multilib/lib/gcc/arm-none-eabi/4.6.2/../../../../arm-none-eabi/lib/libstm32.a(stm32_tim.o)
TIM_GetCapture1                                   /opt/paparazzi/arm-multilib/lib/gcc/arm-none-eabi/4.6.2/../../../../arm-none-eabi/lib/libstm32.a(stm32_tim.o)
TIM_GetCapture2                                   /opt/paparazzi/arm-multilib/lib/gcc/arm-none-eabi/4.6.2/../../../../arm-none-eabi/lib/libstm32.a(stm32_tim.o)
TIM_GetCapture3                                   /opt/paparazzi/arm-multilib/lib/gcc/arm-none-eabi/4.6.2/../../../../arm-none-eabi/lib/libstm32.a(stm32_tim.o)
TIM_GetCapture4                                   /opt/paparazzi/arm-multilib/lib/gcc/arm-none-eabi/4.6.2/../../../../arm-none-eabi/lib/libstm32.a(stm32_tim.o)
TIM_GetCounter                                    /opt/paparazzi/arm-multilib/lib/gcc/arm-none-eabi/4.6.2/../../../../arm-none-eabi/lib/libstm32.a(stm32_tim.o)
TIM_GetFlagStatus                                 /opt/paparazzi/arm-multilib/lib/gcc/arm-none-eabi/4.6.2/../../../../arm-none-eabi/lib/libstm32.a(stm32_tim.o)
TIM_GetITStatus                                   /opt/paparazzi/arm-multilib/lib/gcc/arm-none-eabi/4.6.2/../../../../arm-none-eabi/lib/libstm32.a(stm32_tim.o)
TIM_GetPrescaler                                  /opt/paparazzi/arm-multilib/lib/gcc/arm-none-eabi/4.6.2/../../../../arm-none-eabi/lib/libstm32.a(stm32_tim.o)
TIM_ICInit                                        /opt/paparazzi/arm-multilib/lib/gcc/arm-none-eabi/4.6.2/../../../../arm-none-eabi/lib/libstm32.a(stm32_tim.o)
TIM_ICStructInit                                  /opt/paparazzi/arm-multilib/lib/gcc/arm-none-eabi/4.6.2/../../../../arm-none-eabi/lib/libstm32.a(stm32_tim.o)
TIM_ITConfig                                      /opt/paparazzi/arm-multilib/lib/gcc/arm-none-eabi/4.6.2/../../../../arm-none-eabi/lib/libstm32.a(stm32_tim.o)
                                                  /home/uav/USTUAV/paparazzi/var/MYAC/ap/arch/stm32/subsystems/radio_control/spektrum_arch.o
TIM_ITRxExternalClockConfig                       /opt/paparazzi/arm-multilib/lib/gcc/arm-none-eabi/4.6.2/../../../../arm-none-eabi/lib/libstm32.a(stm32_tim.o)
TIM_InternalClockConfig                           /opt/paparazzi/arm-multilib/lib/gcc/arm-none-eabi/4.6.2/../../../../arm-none-eabi/lib/libstm32.a(stm32_tim.o)
TIM_OC1FastConfig                                 /opt/paparazzi/arm-multilib/lib/gcc/arm-none-eabi/4.6.2/../../../../arm-none-eabi/lib/libstm32.a(stm32_tim.o)
TIM_OC1Init                                       /opt/paparazzi/arm-multilib/lib/gcc/arm-none-eabi/4.6.2/../../../../arm-none-eabi/lib/libstm32.a(stm32_tim.o)
                                                  /home/uav/USTUAV/paparazzi/var/MYAC/ap/firmwares/rotorcraft/actuators/arch/stm32/actuators_pwm_arch.o
TIM_OC1NPolarityConfig                            /opt/paparazzi/arm-multilib/lib/gcc/arm-none-eabi/4.6.2/../../../../arm-none-eabi/lib/libstm32.a(stm32_tim.o)
TIM_OC1PolarityConfig                             /opt/paparazzi/arm-multilib/lib/gcc/arm-none-eabi/4.6.2/../../../../arm-none-eabi/lib/libstm32.a(stm32_tim.o)
TIM_OC1PreloadConfig                              /opt/paparazzi/arm-multilib/lib/gcc/arm-none-eabi/4.6.2/../../../../arm-none-eabi/lib/libstm32.a(stm32_tim.o)
                                                  /home/uav/USTUAV/paparazzi/var/MYAC/ap/firmwares/rotorcraft/actuators/arch/stm32/actuators_pwm_arch.o
TIM_OC2FastConfig                                 /opt/paparazzi/arm-multilib/lib/gcc/arm-none-eabi/4.6.2/../../../../arm-none-eabi/lib/libstm32.a(stm32_tim.o)
TIM_OC2Init                                       /opt/paparazzi/arm-multilib/lib/gcc/arm-none-eabi/4.6.2/../../../../arm-none-eabi/lib/libstm32.a(stm32_tim.o)
                                                  /home/uav/USTUAV/paparazzi/var/MYAC/ap/firmwares/rotorcraft/actuators/arch/stm32/actuators_pwm_arch.o
TIM_OC2NPolarityConfig                            /opt/paparazzi/arm-multilib/lib/gcc/arm-none-eabi/4.6.2/../../../../arm-none-eabi/lib/libstm32.a(stm32_tim.o)
TIM_OC2PolarityConfig                             /opt/paparazzi/arm-multilib/lib/gcc/arm-none-eabi/4.6.2/../../../../arm-none-eabi/lib/libstm32.a(stm32_tim.o)
TIM_OC2PreloadConfig                              /opt/paparazzi/arm-multilib/lib/gcc/arm-none-eabi/4.6.2/../../../../arm-none-eabi/lib/libstm32.a(stm32_tim.o)
                                                  /home/uav/USTUAV/paparazzi/var/MYAC/ap/firmwares/rotorcraft/actuators/arch/stm32/actuators_pwm_arch.o
TIM_OC3FastConfig                                 /opt/paparazzi/arm-multilib/lib/gcc/arm-none-eabi/4.6.2/../../../../arm-none-eabi/lib/libstm32.a(stm32_tim.o)
TIM_OC3Init                                       /opt/paparazzi/arm-multilib/lib/gcc/arm-none-eabi/4.6.2/../../../../arm-none-eabi/lib/libstm32.a(stm32_tim.o)
                                                  /home/uav/USTUAV/paparazzi/var/MYAC/ap/firmwares/rotorcraft/actuators/arch/stm32/actuators_pwm_arch.o
TIM_OC3NPolarityConfig                            /opt/paparazzi/arm-multilib/lib/gcc/arm-none-eabi/4.6.2/../../../../arm-none-eabi/lib/libstm32.a(stm32_tim.o)
TIM_OC3PolarityConfig                             /opt/paparazzi/arm-multilib/lib/gcc/arm-none-eabi/4.6.2/../../../../arm-none-eabi/lib/libstm32.a(stm32_tim.o)
TIM_OC3PreloadConfig                              /opt/paparazzi/arm-multilib/lib/gcc/arm-none-eabi/4.6.2/../../../../arm-none-eabi/lib/libstm32.a(stm32_tim.o)
                                                  /home/uav/USTUAV/paparazzi/var/MYAC/ap/firmwares/rotorcraft/actuators/arch/stm32/actuators_pwm_arch.o
TIM_OC4FastConfig                                 /opt/paparazzi/arm-multilib/lib/gcc/arm-none-eabi/4.6.2/../../../../arm-none-eabi/lib/libstm32.a(stm32_tim.o)
TIM_OC4Init                                       /opt/paparazzi/arm-multilib/lib/gcc/arm-none-eabi/4.6.2/../../../../arm-none-eabi/lib/libstm32.a(stm32_tim.o)
                                                  /home/uav/USTUAV/paparazzi/var/MYAC/ap/firmwares/rotorcraft/actuators/arch/stm32/actuators_pwm_arch.o
TIM_OC4PolarityConfig                             /opt/paparazzi/arm-multilib/lib/gcc/arm-none-eabi/4.6.2/../../../../arm-none-eabi/lib/libstm32.a(stm32_tim.o)
TIM_OC4PreloadConfig                              /opt/paparazzi/arm-multilib/lib/gcc/arm-none-eabi/4.6.2/../../../../arm-none-eabi/lib/libstm32.a(stm32_tim.o)
                                                  /home/uav/USTUAV/paparazzi/var/MYAC/ap/firmwares/rotorcraft/actuators/arch/stm32/actuators_pwm_arch.o
TIM_OCStructInit                                  /opt/paparazzi/arm-multilib/lib/gcc/arm-none-eabi/4.6.2/../../../../arm-none-eabi/lib/libstm32.a(stm32_tim.o)
TIM_PWMIConfig                                    /opt/paparazzi/arm-multilib/lib/gcc/arm-none-eabi/4.6.2/../../../../arm-none-eabi/lib/libstm32.a(stm32_tim.o)
TIM_PrescalerConfig                               /opt/paparazzi/arm-multilib/lib/gcc/arm-none-eabi/4.6.2/../../../../arm-none-eabi/lib/libstm32.a(stm32_tim.o)
TIM_SelectCCDMA                                   /opt/paparazzi/arm-multilib/lib/gcc/arm-none-eabi/4.6.2/../../../../arm-none-eabi/lib/libstm32.a(stm32_tim.o)
TIM_SelectCOM                                     /opt/paparazzi/arm-multilib/lib/gcc/arm-none-eabi/4.6.2/../../../../arm-none-eabi/lib/libstm32.a(stm32_tim.o)
TIM_SelectHallSensor                              /opt/paparazzi/arm-multilib/lib/gcc/arm-none-eabi/4.6.2/../../../../arm-none-eabi/lib/libstm32.a(stm32_tim.o)
TIM_SelectInputTrigger                            /opt/paparazzi/arm-multilib/lib/gcc/arm-none-eabi/4.6.2/../../../../arm-none-eabi/lib/libstm32.a(stm32_tim.o)
TIM_SelectMasterSlaveMode                         /opt/paparazzi/arm-multilib/lib/gcc/arm-none-eabi/4.6.2/../../../../arm-none-eabi/lib/libstm32.a(stm32_tim.o)
TIM_SelectOCxM                                    /opt/paparazzi/arm-multilib/lib/gcc/arm-none-eabi/4.6.2/../../../../arm-none-eabi/lib/libstm32.a(stm32_tim.o)
TIM_SelectOnePulseMode                            /opt/paparazzi/arm-multilib/lib/gcc/arm-none-eabi/4.6.2/../../../../arm-none-eabi/lib/libstm32.a(stm32_tim.o)
TIM_SelectOutputTrigger                           /opt/paparazzi/arm-multilib/lib/gcc/arm-none-eabi/4.6.2/../../../../arm-none-eabi/lib/libstm32.a(stm32_tim.o)
                                                  /home/uav/USTUAV/paparazzi/var/MYAC/ap/arch/stm32/mcu_periph/adc_arch.o
TIM_SelectSlaveMode                               /opt/paparazzi/arm-multilib/lib/gcc/arm-none-eabi/4.6.2/../../../../arm-none-eabi/lib/libstm32.a(stm32_tim.o)
TIM_SetAutoreload                                 /opt/paparazzi/arm-multilib/lib/gcc/arm-none-eabi/4.6.2/../../../../arm-none-eabi/lib/libstm32.a(stm32_tim.o)
TIM_SetClockDivision                              /opt/paparazzi/arm-multilib/lib/gcc/arm-none-eabi/4.6.2/../../../../arm-none-eabi/lib/libstm32.a(stm32_tim.o)
TIM_SetCompare1                                   /opt/paparazzi/arm-multilib/lib/gcc/arm-none-eabi/4.6.2/../../../../arm-none-eabi/lib/libstm32.a(stm32_tim.o)
                                                  /home/uav/USTUAV/paparazzi/var/MYAC/ap/firmwares/rotorcraft/actuators/arch/stm32/actuators_pwm_arch.o
TIM_SetCompare2                                   /opt/paparazzi/arm-multilib/lib/gcc/arm-none-eabi/4.6.2/../../../../arm-none-eabi/lib/libstm32.a(stm32_tim.o)
                                                  /home/uav/USTUAV/paparazzi/var/MYAC/ap/firmwares/rotorcraft/actuators/arch/stm32/actuators_pwm_arch.o
TIM_SetCompare3                                   /opt/paparazzi/arm-multilib/lib/gcc/arm-none-eabi/4.6.2/../../../../arm-none-eabi/lib/libstm32.a(stm32_tim.o)
                                                  /home/uav/USTUAV/paparazzi/var/MYAC/ap/firmwares/rotorcraft/actuators/arch/stm32/actuators_pwm_arch.o
TIM_SetCompare4                                   /opt/paparazzi/arm-multilib/lib/gcc/arm-none-eabi/4.6.2/../../../../arm-none-eabi/lib/libstm32.a(stm32_tim.o)
                                                  /home/uav/USTUAV/paparazzi/var/MYAC/ap/firmwares/rotorcraft/actuators/arch/stm32/actuators_pwm_arch.o
TIM_SetCounter                                    /opt/paparazzi/arm-multilib/lib/gcc/arm-none-eabi/4.6.2/../../../../arm-none-eabi/lib/libstm32.a(stm32_tim.o)
TIM_SetIC1Prescaler                               /opt/paparazzi/arm-multilib/lib/gcc/arm-none-eabi/4.6.2/../../../../arm-none-eabi/lib/libstm32.a(stm32_tim.o)
TIM_SetIC2Prescaler                               /opt/paparazzi/arm-multilib/lib/gcc/arm-none-eabi/4.6.2/../../../../arm-none-eabi/lib/libstm32.a(stm32_tim.o)
TIM_SetIC3Prescaler                               /opt/paparazzi/arm-multilib/lib/gcc/arm-none-eabi/4.6.2/../../../../arm-none-eabi/lib/libstm32.a(stm32_tim.o)
TIM_SetIC4Prescaler                               /opt/paparazzi/arm-multilib/lib/gcc/arm-none-eabi/4.6.2/../../../../arm-none-eabi/lib/libstm32.a(stm32_tim.o)
TIM_TIxExternalClockConfig                        /opt/paparazzi/arm-multilib/lib/gcc/arm-none-eabi/4.6.2/../../../../arm-none-eabi/lib/libstm32.a(stm32_tim.o)
TIM_TimeBaseInit                                  /opt/paparazzi/arm-multilib/lib/gcc/arm-none-eabi/4.6.2/../../../../arm-none-eabi/lib/libstm32.a(stm32_tim.o)
                                                  /home/uav/USTUAV/paparazzi/var/MYAC/ap/arch/stm32/subsystems/radio_control/spektrum_arch.o
                                                  /home/uav/USTUAV/paparazzi/var/MYAC/ap/firmwares/rotorcraft/actuators/arch/stm32/actuators_pwm_arch.o
                                                  /home/uav/USTUAV/paparazzi/var/MYAC/ap/arch/stm32/mcu_periph/adc_arch.o
TIM_TimeBaseStructInit                            /opt/paparazzi/arm-multilib/lib/gcc/arm-none-eabi/4.6.2/../../../../arm-none-eabi/lib/libstm32.a(stm32_tim.o)
                                                  /home/uav/USTUAV/paparazzi/var/MYAC/ap/arch/stm32/subsystems/radio_control/spektrum_arch.o
                                                  /home/uav/USTUAV/paparazzi/var/MYAC/ap/arch/stm32/mcu_periph/adc_arch.o
TIM_UpdateDisableConfig                           /opt/paparazzi/arm-multilib/lib/gcc/arm-none-eabi/4.6.2/../../../../arm-none-eabi/lib/libstm32.a(stm32_tim.o)
TIM_UpdateRequestConfig                           /opt/paparazzi/arm-multilib/lib/gcc/arm-none-eabi/4.6.2/../../../../arm-none-eabi/lib/libstm32.a(stm32_tim.o)
Temporary_Matrix                                  /home/uav/USTUAV/paparazzi/var/MYAC/ap/subsystems/ahrs/ahrs_float_dcm.o
USART_ClearFlag                                   /opt/paparazzi/arm-multilib/lib/gcc/arm-none-eabi/4.6.2/../../../../arm-none-eabi/lib/libstm32.a(stm32_usart.o)
USART_ClearITPendingBit                           /opt/paparazzi/arm-multilib/lib/gcc/arm-none-eabi/4.6.2/../../../../arm-none-eabi/lib/libstm32.a(stm32_usart.o)
USART_ClockInit                                   /opt/paparazzi/arm-multilib/lib/gcc/arm-none-eabi/4.6.2/../../../../arm-none-eabi/lib/libstm32.a(stm32_usart.o)
USART_ClockStructInit                             /opt/paparazzi/arm-multilib/lib/gcc/arm-none-eabi/4.6.2/../../../../arm-none-eabi/lib/libstm32.a(stm32_usart.o)
USART_Cmd                                         /opt/paparazzi/arm-multilib/lib/gcc/arm-none-eabi/4.6.2/../../../../arm-none-eabi/lib/libstm32.a(stm32_usart.o)
                                                  /home/uav/USTUAV/paparazzi/var/MYAC/ap/arch/stm32/subsystems/radio_control/spektrum_arch.o
                                                  /home/uav/USTUAV/paparazzi/var/MYAC/ap/arch/stm32/mcu_periph/uart_arch.o
USART_DMACmd                                      /opt/paparazzi/arm-multilib/lib/gcc/arm-none-eabi/4.6.2/../../../../arm-none-eabi/lib/libstm32.a(stm32_usart.o)
USART_DeInit                                      /opt/paparazzi/arm-multilib/lib/gcc/arm-none-eabi/4.6.2/../../../../arm-none-eabi/lib/libstm32.a(stm32_usart.o)
USART_GetFlagStatus                               /opt/paparazzi/arm-multilib/lib/gcc/arm-none-eabi/4.6.2/../../../../arm-none-eabi/lib/libstm32.a(stm32_usart.o)
USART_GetITStatus                                 /opt/paparazzi/arm-multilib/lib/gcc/arm-none-eabi/4.6.2/../../../../arm-none-eabi/lib/libstm32.a(stm32_usart.o)
                                                  /home/uav/USTUAV/paparazzi/var/MYAC/ap/arch/stm32/subsystems/radio_control/spektrum_arch.o
                                                  /home/uav/USTUAV/paparazzi/var/MYAC/ap/arch/stm32/mcu_periph/uart_arch.o
USART_HalfDuplexCmd                               /opt/paparazzi/arm-multilib/lib/gcc/arm-none-eabi/4.6.2/../../../../arm-none-eabi/lib/libstm32.a(stm32_usart.o)
USART_ITConfig                                    /opt/paparazzi/arm-multilib/lib/gcc/arm-none-eabi/4.6.2/../../../../arm-none-eabi/lib/libstm32.a(stm32_usart.o)
                                                  /home/uav/USTUAV/paparazzi/var/MYAC/ap/arch/stm32/subsystems/radio_control/spektrum_arch.o
                                                  /home/uav/USTUAV/paparazzi/var/MYAC/ap/arch/stm32/mcu_periph/uart_arch.o
USART_Init                                        /opt/paparazzi/arm-multilib/lib/gcc/arm-none-eabi/4.6.2/../../../../arm-none-eabi/lib/libstm32.a(stm32_usart.o)
                                                  /home/uav/USTUAV/paparazzi/var/MYAC/ap/arch/stm32/subsystems/radio_control/spektrum_arch.o
                                                  /home/uav/USTUAV/paparazzi/var/MYAC/ap/arch/stm32/mcu_periph/uart_arch.o
USART_IrDACmd                                     /opt/paparazzi/arm-multilib/lib/gcc/arm-none-eabi/4.6.2/../../../../arm-none-eabi/lib/libstm32.a(stm32_usart.o)
USART_IrDAConfig                                  /opt/paparazzi/arm-multilib/lib/gcc/arm-none-eabi/4.6.2/../../../../arm-none-eabi/lib/libstm32.a(stm32_usart.o)
USART_LINBreakDetectLengthConfig                  /opt/paparazzi/arm-multilib/lib/gcc/arm-none-eabi/4.6.2/../../../../arm-none-eabi/lib/libstm32.a(stm32_usart.o)
USART_LINCmd                                      /opt/paparazzi/arm-multilib/lib/gcc/arm-none-eabi/4.6.2/../../../../arm-none-eabi/lib/libstm32.a(stm32_usart.o)
USART_ReceiveData                                 /opt/paparazzi/arm-multilib/lib/gcc/arm-none-eabi/4.6.2/../../../../arm-none-eabi/lib/libstm32.a(stm32_usart.o)
                                                  /home/uav/USTUAV/paparazzi/var/MYAC/ap/arch/stm32/subsystems/radio_control/spektrum_arch.o
                                                  /home/uav/USTUAV/paparazzi/var/MYAC/ap/arch/stm32/mcu_periph/uart_arch.o
USART_ReceiverWakeUpCmd                           /opt/paparazzi/arm-multilib/lib/gcc/arm-none-eabi/4.6.2/../../../../arm-none-eabi/lib/libstm32.a(stm32_usart.o)
USART_SendBreak                                   /opt/paparazzi/arm-multilib/lib/gcc/arm-none-eabi/4.6.2/../../../../arm-none-eabi/lib/libstm32.a(stm32_usart.o)
USART_SendData                                    /opt/paparazzi/arm-multilib/lib/gcc/arm-none-eabi/4.6.2/../../../../arm-none-eabi/lib/libstm32.a(stm32_usart.o)
                                                  /home/uav/USTUAV/paparazzi/var/MYAC/ap/arch/stm32/mcu_periph/uart_arch.o
USART_SetAddress                                  /opt/paparazzi/arm-multilib/lib/gcc/arm-none-eabi/4.6.2/../../../../arm-none-eabi/lib/libstm32.a(stm32_usart.o)
USART_SetGuardTime                                /opt/paparazzi/arm-multilib/lib/gcc/arm-none-eabi/4.6.2/../../../../arm-none-eabi/lib/libstm32.a(stm32_usart.o)
USART_SetPrescaler                                /opt/paparazzi/arm-multilib/lib/gcc/arm-none-eabi/4.6.2/../../../../arm-none-eabi/lib/libstm32.a(stm32_usart.o)
USART_SmartCardCmd                                /opt/paparazzi/arm-multilib/lib/gcc/arm-none-eabi/4.6.2/../../../../arm-none-eabi/lib/libstm32.a(stm32_usart.o)
USART_SmartCardNACKCmd                            /opt/paparazzi/arm-multilib/lib/gcc/arm-none-eabi/4.6.2/../../../../arm-none-eabi/lib/libstm32.a(stm32_usart.o)
USART_StructInit                                  /opt/paparazzi/arm-multilib/lib/gcc/arm-none-eabi/4.6.2/../../../../arm-none-eabi/lib/libstm32.a(stm32_usart.o)
USART_WakeUpConfig                                /opt/paparazzi/arm-multilib/lib/gcc/arm-none-eabi/4.6.2/../../../../arm-none-eabi/lib/libstm32.a(stm32_usart.o)
Update_Matrix                                     /home/uav/USTUAV/paparazzi/var/MYAC/ap/subsystems/ahrs/ahrs_float_dcm.o
__adddf3                                          /opt/paparazzi/arm-multilib/lib/gcc/arm-none-eabi/4.6.2/thumb2/libgcc.a(_arm_addsubdf3.o)
__addsf3                                          /opt/paparazzi/arm-multilib/lib/gcc/arm-none-eabi/4.6.2/thumb2/libgcc.a(_arm_addsubsf3.o)
__aeabi_cdcmpeq                                   /opt/paparazzi/arm-multilib/lib/gcc/arm-none-eabi/4.6.2/thumb2/libgcc.a(_arm_cmpdf2.o)
__aeabi_cdcmple                                   /opt/paparazzi/arm-multilib/lib/gcc/arm-none-eabi/4.6.2/thumb2/libgcc.a(_arm_cmpdf2.o)
__aeabi_cdrcmple                                  /opt/paparazzi/arm-multilib/lib/gcc/arm-none-eabi/4.6.2/thumb2/libgcc.a(_arm_cmpdf2.o)
__aeabi_cfcmpeq                                   /opt/paparazzi/arm-multilib/lib/gcc/arm-none-eabi/4.6.2/thumb2/libgcc.a(_arm_cmpsf2.o)
__aeabi_cfcmple                                   /opt/paparazzi/arm-multilib/lib/gcc/arm-none-eabi/4.6.2/thumb2/libgcc.a(_arm_cmpsf2.o)
__aeabi_cfrcmple                                  /opt/paparazzi/arm-multilib/lib/gcc/arm-none-eabi/4.6.2/thumb2/libgcc.a(_arm_cmpsf2.o)
__aeabi_d2f                                       /opt/paparazzi/arm-multilib/lib/gcc/arm-none-eabi/4.6.2/thumb2/libgcc.a(_arm_truncdfsf2.o)
                                                  /opt/paparazzi/arm-multilib/lib/gcc/arm-none-eabi/4.6.2/../../../../arm-none-eabi/lib/thumb2/libm.a(lib_a-wf_sqrt.o)
                                                  /opt/paparazzi/arm-multilib/lib/gcc/arm-none-eabi/4.6.2/../../../../arm-none-eabi/lib/thumb2/libm.a(lib_a-wf_pow.o)
                                                  /opt/paparazzi/arm-multilib/lib/gcc/arm-none-eabi/4.6.2/../../../../arm-none-eabi/lib/thumb2/libm.a(lib_a-wf_asin.o)
                                                  /home/uav/USTUAV/paparazzi/var/MYAC/ap/subsystems/navigation/nav_line.o
                                                  /home/uav/USTUAV/paparazzi/var/MYAC/ap/subsystems/navigation/nav_survey_rectangle.o
                                                  /home/uav/USTUAV/paparazzi/var/MYAC/ap/subsystems/nav.o
                                                  /home/uav/USTUAV/paparazzi/var/MYAC/ap/subsystems/ahrs/ahrs_float_dcm.o
                                                  /home/uav/USTUAV/paparazzi/var/MYAC/ap/firmwares/fixedwing/stabilization/stabilization_attitude.o
                                                  /home/uav/USTUAV/paparazzi/var/MYAC/ap/firmwares/fixedwing/datalink.o
                                                  /home/uav/USTUAV/paparazzi/var/MYAC/ap/./estimator.o
                                                  /home/uav/USTUAV/paparazzi/var/MYAC/ap/firmwares/fixedwing/main_ap.o
                                                  /home/uav/USTUAV/paparazzi/var/MYAC/ap/firmwares/fixedwing/main_fbw.o
                                                  /home/uav/USTUAV/paparazzi/var/MYAC/ap/math/pprz_geodetic_double.o
                                                  /home/uav/USTUAV/paparazzi/var/MYAC/ap/math/pprz_geodetic_float.o
__aeabi_d2iz                                      /opt/paparazzi/arm-multilib/lib/gcc/arm-none-eabi/4.6.2/thumb2/libgcc.a(_arm_fixdfsi.o)
                                                  /opt/paparazzi/arm-multilib/lib/gcc/arm-none-eabi/4.6.2/../../../../arm-none-eabi/lib/thumb2/libm.a(lib_a-s_expm1.o)
                                                  /opt/paparazzi/arm-multilib/lib/gcc/arm-none-eabi/4.6.2/../../../../arm-none-eabi/lib/thumb2/libm.a(lib_a-k_tan.o)
                                                  /opt/paparazzi/arm-multilib/lib/gcc/arm-none-eabi/4.6.2/../../../../arm-none-eabi/lib/thumb2/libm.a(lib_a-k_sin.o)
                                                  /opt/paparazzi/arm-multilib/lib/gcc/arm-none-eabi/4.6.2/../../../../arm-none-eabi/lib/thumb2/libm.a(lib_a-k_rem_pio2.o)
                                                  /opt/paparazzi/arm-multilib/lib/gcc/arm-none-eabi/4.6.2/../../../../arm-none-eabi/lib/thumb2/libm.a(lib_a-k_cos.o)
                                                  /opt/paparazzi/arm-multilib/lib/gcc/arm-none-eabi/4.6.2/../../../../arm-none-eabi/lib/thumb2/libm.a(lib_a-e_rem_pio2.o)
                                                  /opt/paparazzi/arm-multilib/lib/gcc/arm-none-eabi/4.6.2/../../../../arm-none-eabi/lib/thumb2/libm.a(lib_a-e_exp.o)
                                                  /home/uav/USTUAV/paparazzi/var/MYAC/ap/subsystems/gps/gps_ubx.o
                                                  /home/uav/USTUAV/paparazzi/var/MYAC/ap/firmwares/fixedwing/main_ap.o
                                                  /home/uav/USTUAV/paparazzi/var/MYAC/ap/subsystems/electrical.o
                                                  /home/uav/USTUAV/paparazzi/var/MYAC/ap/math/pprz_geodetic_int.o
__aeabi_d2uiz                                     /opt/paparazzi/arm-multilib/lib/gcc/arm-none-eabi/4.6.2/thumb2/libgcc.a(_arm_fixunsdfsi.o)
                                                  /home/uav/USTUAV/paparazzi/var/MYAC/ap/subsystems/nav.o
                                                  /home/uav/USTUAV/paparazzi/var/MYAC/ap/subsystems/gps/gps_ubx.o
                                                  /home/uav/USTUAV/paparazzi/var/MYAC/ap/firmwares/fixedwing/datalink.o
                                                  /home/uav/USTUAV/paparazzi/var/MYAC/ap/firmwares/fixedwing/main_ap.o
                                                  /home/uav/USTUAV/paparazzi/var/MYAC/ap/subsystems/electrical.o
                                                  /home/uav/USTUAV/paparazzi/var/MYAC/ap/mcu_periph/sys_time.o
__aeabi_dadd                                      /opt/paparazzi/arm-multilib/lib/gcc/arm-none-eabi/4.6.2/thumb2/libgcc.a(_arm_addsubdf3.o)
                                                  /opt/paparazzi/arm-multilib/lib/gcc/arm-none-eabi/4.6.2/../../../../arm-none-eabi/lib/thumb2/libm.a(lib_a-s_scalbn.o)
                                                  /opt/paparazzi/arm-multilib/lib/gcc/arm-none-eabi/4.6.2/../../../../arm-none-eabi/lib/thumb2/libm.a(lib_a-s_floor.o)
                                                  /opt/paparazzi/arm-multilib/lib/gcc/arm-none-eabi/4.6.2/../../../../arm-none-eabi/lib/thumb2/libm.a(lib_a-s_expm1.o)
                                                  /opt/paparazzi/arm-multilib/lib/gcc/arm-none-eabi/4.6.2/../../../../arm-none-eabi/lib/thumb2/libm.a(lib_a-k_tan.o)
                                                  /opt/paparazzi/arm-multilib/lib/gcc/arm-none-eabi/4.6.2/../../../../arm-none-eabi/lib/thumb2/libm.a(lib_a-k_sin.o)
                                                  /opt/paparazzi/arm-multilib/lib/gcc/arm-none-eabi/4.6.2/../../../../arm-none-eabi/lib/thumb2/libm.a(lib_a-k_rem_pio2.o)
                                                  /opt/paparazzi/arm-multilib/lib/gcc/arm-none-eabi/4.6.2/../../../../arm-none-eabi/lib/thumb2/libm.a(lib_a-k_cos.o)
                                                  /opt/paparazzi/arm-multilib/lib/gcc/arm-none-eabi/4.6.2/../../../../arm-none-eabi/lib/thumb2/libm.a(lib_a-e_sqrt.o)
                                                  /opt/paparazzi/arm-multilib/lib/gcc/arm-none-eabi/4.6.2/../../../../arm-none-eabi/lib/thumb2/libm.a(lib_a-e_sinh.o)
                                                  /opt/paparazzi/arm-multilib/lib/gcc/arm-none-eabi/4.6.2/../../../../arm-none-eabi/lib/thumb2/libm.a(lib_a-e_rem_pio2.o)
                                                  /opt/paparazzi/arm-multilib/lib/gcc/arm-none-eabi/4.6.2/../../../../arm-none-eabi/lib/thumb2/libm.a(lib_a-e_pow.o)
                                                  /opt/paparazzi/arm-multilib/lib/gcc/arm-none-eabi/4.6.2/../../../../arm-none-eabi/lib/thumb2/libm.a(lib_a-e_log.o)
                                                  /opt/paparazzi/arm-multilib/lib/gcc/arm-none-eabi/4.6.2/../../../../arm-none-eabi/lib/thumb2/libm.a(lib_a-e_exp.o)
                                                  /opt/paparazzi/arm-multilib/lib/gcc/arm-none-eabi/4.6.2/../../../../arm-none-eabi/lib/thumb2/libm.a(lib_a-e_cosh.o)
                                                  /opt/paparazzi/arm-multilib/lib/gcc/arm-none-eabi/4.6.2/../../../../arm-none-eabi/lib/thumb2/libm.a(lib_a-e_atan2.o)
                                                  /opt/paparazzi/arm-multilib/lib/gcc/arm-none-eabi/4.6.2/../../../../arm-none-eabi/lib/thumb2/libm.a(lib_a-e_asin.o)
                                                  /opt/paparazzi/arm-multilib/lib/gcc/arm-none-eabi/4.6.2/../../../../arm-none-eabi/lib/thumb2/libm.a(lib_a-s_rint.o)
                                                  /opt/paparazzi/arm-multilib/lib/gcc/arm-none-eabi/4.6.2/../../../../arm-none-eabi/lib/thumb2/libm.a(lib_a-s_atan.o)
                                                  /home/uav/USTUAV/paparazzi/var/MYAC/ap/subsystems/navigation/nav_line.o
                                                  /home/uav/USTUAV/paparazzi/var/MYAC/ap/subsystems/navigation/nav_survey_rectangle.o
                                                  /home/uav/USTUAV/paparazzi/var/MYAC/ap/subsystems/nav.o
                                                  /home/uav/USTUAV/paparazzi/var/MYAC/ap/subsystems/ahrs/ahrs_float_dcm.o
                                                  /home/uav/USTUAV/paparazzi/var/MYAC/ap/firmwares/fixedwing/stabilization/stabilization_attitude.o
                                                  /home/uav/USTUAV/paparazzi/var/MYAC/ap/firmwares/fixedwing/main_ap.o
                                                  /home/uav/USTUAV/paparazzi/var/MYAC/ap/firmwares/fixedwing/main_fbw.o
                                                  /home/uav/USTUAV/paparazzi/var/MYAC/ap/math/pprz_geodetic_double.o
                                                  /home/uav/USTUAV/paparazzi/var/MYAC/ap/math/pprz_geodetic_float.o
                                                  /home/uav/USTUAV/paparazzi/var/MYAC/ap/mcu_periph/sys_time.o
__aeabi_dcmpeq                                    /opt/paparazzi/arm-multilib/lib/gcc/arm-none-eabi/4.6.2/thumb2/libgcc.a(_arm_cmpdf2.o)
                                                  /opt/paparazzi/arm-multilib/lib/gcc/arm-none-eabi/4.6.2/../../../../arm-none-eabi/lib/thumb2/libm.a(lib_a-k_rem_pio2.o)
                                                  /opt/paparazzi/arm-multilib/lib/gcc/arm-none-eabi/4.6.2/../../../../arm-none-eabi/lib/thumb2/libm.a(lib_a-e_rem_pio2.o)
                                                  /opt/paparazzi/arm-multilib/lib/gcc/arm-none-eabi/4.6.2/../../../../arm-none-eabi/lib/thumb2/libm.a(lib_a-e_log.o)
                                                  /opt/paparazzi/arm-multilib/lib/gcc/arm-none-eabi/4.6.2/../../../../arm-none-eabi/lib/thumb2/libm.a(lib_a-wf_pow.o)
                                                  /opt/paparazzi/arm-multilib/lib/gcc/arm-none-eabi/4.6.2/../../../../arm-none-eabi/lib/thumb2/libm.a(lib_a-w_pow.o)
                                                  /opt/paparazzi/arm-multilib/lib/gcc/arm-none-eabi/4.6.2/../../../../arm-none-eabi/lib/thumb2/libm.a(lib_a-w_log.o)
__aeabi_dcmpge                                    /opt/paparazzi/arm-multilib/lib/gcc/arm-none-eabi/4.6.2/thumb2/libgcc.a(_arm_cmpdf2.o)
                                                  /opt/paparazzi/arm-multilib/lib/gcc/arm-none-eabi/4.6.2/../../../../arm-none-eabi/lib/thumb2/libm.a(lib_a-k_rem_pio2.o)
__aeabi_dcmpgt                                    /opt/paparazzi/arm-multilib/lib/gcc/arm-none-eabi/4.6.2/thumb2/libgcc.a(_arm_cmpdf2.o)
                                                  /opt/paparazzi/arm-multilib/lib/gcc/arm-none-eabi/4.6.2/../../../../arm-none-eabi/lib/thumb2/libm.a(lib_a-s_floor.o)
                                                  /opt/paparazzi/arm-multilib/lib/gcc/arm-none-eabi/4.6.2/../../../../arm-none-eabi/lib/thumb2/libm.a(lib_a-s_expm1.o)
                                                  /opt/paparazzi/arm-multilib/lib/gcc/arm-none-eabi/4.6.2/../../../../arm-none-eabi/lib/thumb2/libm.a(lib_a-e_sinh.o)
                                                  /opt/paparazzi/arm-multilib/lib/gcc/arm-none-eabi/4.6.2/../../../../arm-none-eabi/lib/thumb2/libm.a(lib_a-e_pow.o)
                                                  /opt/paparazzi/arm-multilib/lib/gcc/arm-none-eabi/4.6.2/../../../../arm-none-eabi/lib/thumb2/libm.a(lib_a-e_exp.o)
                                                  /opt/paparazzi/arm-multilib/lib/gcc/arm-none-eabi/4.6.2/../../../../arm-none-eabi/lib/thumb2/libm.a(lib_a-e_asin.o)
                                                  /opt/paparazzi/arm-multilib/lib/gcc/arm-none-eabi/4.6.2/../../../../arm-none-eabi/lib/thumb2/libm.a(lib_a-w_sinh.o)
                                                  /opt/paparazzi/arm-multilib/lib/gcc/arm-none-eabi/4.6.2/../../../../arm-none-eabi/lib/thumb2/libm.a(lib_a-w_log.o)
                                                  /opt/paparazzi/arm-multilib/lib/gcc/arm-none-eabi/4.6.2/../../../../arm-none-eabi/lib/thumb2/libm.a(lib_a-w_exp.o)
                                                  /opt/paparazzi/arm-multilib/lib/gcc/arm-none-eabi/4.6.2/../../../../arm-none-eabi/lib/thumb2/libm.a(lib_a-w_cosh.o)
                                                  /opt/paparazzi/arm-multilib/lib/gcc/arm-none-eabi/4.6.2/../../../../arm-none-eabi/lib/thumb2/libm.a(lib_a-w_asin.o)
                                                  /opt/paparazzi/arm-multilib/lib/gcc/arm-none-eabi/4.6.2/../../../../arm-none-eabi/lib/thumb2/libm.a(lib_a-s_atan.o)
                                                  /home/uav/USTUAV/paparazzi/var/MYAC/ap/subsystems/navigation/nav_survey_rectangle.o
                                                  /home/uav/USTUAV/paparazzi/var/MYAC/ap/subsystems/nav.o
                                                  /home/uav/USTUAV/paparazzi/var/MYAC/ap/subsystems/ahrs/ahrs_float_dcm.o
                                                  /home/uav/USTUAV/paparazzi/var/MYAC/ap/firmwares/fixedwing/guidance/guidance_v.o
                                                  /home/uav/USTUAV/paparazzi/var/MYAC/ap/firmwares/fixedwing/stabilization/stabilization_attitude.o
                                                  /home/uav/USTUAV/paparazzi/var/MYAC/ap/./estimator.o
                                                  /home/uav/USTUAV/paparazzi/var/MYAC/ap/firmwares/fixedwing/main_ap.o
                                                  /home/uav/USTUAV/paparazzi/var/MYAC/ap/math/pprz_geodetic_double.o
__aeabi_dcmple                                    /opt/paparazzi/arm-multilib/lib/gcc/arm-none-eabi/4.6.2/thumb2/libgcc.a(_arm_cmpdf2.o)
                                                  /opt/paparazzi/arm-multilib/lib/gcc/arm-none-eabi/4.6.2/../../../../arm-none-eabi/lib/thumb2/libm.a(lib_a-e_pow.o)
__aeabi_dcmplt                                    /opt/paparazzi/arm-multilib/lib/gcc/arm-none-eabi/4.6.2/thumb2/libgcc.a(_arm_cmpdf2.o)
                                                  /opt/paparazzi/arm-multilib/lib/gcc/arm-none-eabi/4.6.2/../../../../arm-none-eabi/lib/thumb2/libm.a(lib_a-s_expm1.o)
                                                  /opt/paparazzi/arm-multilib/lib/gcc/arm-none-eabi/4.6.2/../../../../arm-none-eabi/lib/thumb2/libm.a(lib_a-e_exp.o)
                                                  /opt/paparazzi/arm-multilib/lib/gcc/arm-none-eabi/4.6.2/../../../../arm-none-eabi/lib/thumb2/libm.a(lib_a-w_sqrt.o)
                                                  /opt/paparazzi/arm-multilib/lib/gcc/arm-none-eabi/4.6.2/../../../../arm-none-eabi/lib/thumb2/libm.a(lib_a-w_pow.o)
                                                  /opt/paparazzi/arm-multilib/lib/gcc/arm-none-eabi/4.6.2/../../../../arm-none-eabi/lib/thumb2/libm.a(lib_a-w_exp.o)
                                                  /home/uav/USTUAV/paparazzi/var/MYAC/ap/subsystems/navigation/nav_survey_rectangle.o
                                                  /home/uav/USTUAV/paparazzi/var/MYAC/ap/subsystems/nav.o
                                                  /home/uav/USTUAV/paparazzi/var/MYAC/ap/subsystems/ahrs/ahrs_float_dcm.o
                                                  /home/uav/USTUAV/paparazzi/var/MYAC/ap/firmwares/fixedwing/guidance/guidance_v.o
                                                  /home/uav/USTUAV/paparazzi/var/MYAC/ap/firmwares/fixedwing/stabilization/stabilization_attitude.o
                                                  /home/uav/USTUAV/paparazzi/var/MYAC/ap/firmwares/fixedwing/main_ap.o
__aeabi_ddiv                                      /opt/paparazzi/arm-multilib/lib/gcc/arm-none-eabi/4.6.2/thumb2/libgcc.a(_arm_muldivdf3.o)
                                                  /opt/paparazzi/arm-multilib/lib/gcc/arm-none-eabi/4.6.2/../../../../arm-none-eabi/lib/thumb2/libm.a(lib_a-s_expm1.o)
                                                  /opt/paparazzi/arm-multilib/lib/gcc/arm-none-eabi/4.6.2/../../../../arm-none-eabi/lib/thumb2/libm.a(lib_a-k_tan.o)
                                                  /opt/paparazzi/arm-multilib/lib/gcc/arm-none-eabi/4.6.2/../../../../arm-none-eabi/lib/thumb2/libm.a(lib_a-e_sqrt.o)
                                                  /opt/paparazzi/arm-multilib/lib/gcc/arm-none-eabi/4.6.2/../../../../arm-none-eabi/lib/thumb2/libm.a(lib_a-e_sinh.o)
                                                  /opt/paparazzi/arm-multilib/lib/gcc/arm-none-eabi/4.6.2/../../../../arm-none-eabi/lib/thumb2/libm.a(lib_a-e_pow.o)
                                                  /opt/paparazzi/arm-multilib/lib/gcc/arm-none-eabi/4.6.2/../../../../arm-none-eabi/lib/thumb2/libm.a(lib_a-e_log.o)
                                                  /opt/paparazzi/arm-multilib/lib/gcc/arm-none-eabi/4.6.2/../../../../arm-none-eabi/lib/thumb2/libm.a(lib_a-e_exp.o)
                                                  /opt/paparazzi/arm-multilib/lib/gcc/arm-none-eabi/4.6.2/../../../../arm-none-eabi/lib/thumb2/libm.a(lib_a-e_cosh.o)
                                                  /opt/paparazzi/arm-multilib/lib/gcc/arm-none-eabi/4.6.2/../../../../arm-none-eabi/lib/thumb2/libm.a(lib_a-e_atan2.o)
                                                  /opt/paparazzi/arm-multilib/lib/gcc/arm-none-eabi/4.6.2/../../../../arm-none-eabi/lib/thumb2/libm.a(lib_a-e_asin.o)
                                                  /opt/paparazzi/arm-multilib/lib/gcc/arm-none-eabi/4.6.2/../../../../arm-none-eabi/lib/thumb2/libm.a(lib_a-wf_sqrt.o)
                                                  /opt/paparazzi/arm-multilib/lib/gcc/arm-none-eabi/4.6.2/../../../../arm-none-eabi/lib/thumb2/libm.a(lib_a-wf_pow.o)
                                                  /opt/paparazzi/arm-multilib/lib/gcc/arm-none-eabi/4.6.2/../../../../arm-none-eabi/lib/thumb2/libm.a(lib_a-w_sqrt.o)
                                                  /opt/paparazzi/arm-multilib/lib/gcc/arm-none-eabi/4.6.2/../../../../arm-none-eabi/lib/thumb2/libm.a(lib_a-w_pow.o)
                                                  /opt/paparazzi/arm-multilib/lib/gcc/arm-none-eabi/4.6.2/../../../../arm-none-eabi/lib/thumb2/libm.a(lib_a-s_atan.o)
                                                  /home/uav/USTUAV/paparazzi/var/MYAC/ap/subsystems/nav.o
                                                  /home/uav/USTUAV/paparazzi/var/MYAC/ap/subsystems/ahrs/ahrs_float_dcm.o
                                                  /home/uav/USTUAV/paparazzi/var/MYAC/ap/firmwares/fixedwing/datalink.o
                                                  /home/uav/USTUAV/paparazzi/var/MYAC/ap/./estimator.o
                                                  /home/uav/USTUAV/paparazzi/var/MYAC/ap/firmwares/fixedwing/main_ap.o
                                                  /home/uav/USTUAV/paparazzi/var/MYAC/ap/subsystems/electrical.o
                                                  /home/uav/USTUAV/paparazzi/var/MYAC/ap/math/pprz_geodetic_double.o
                                                  /home/uav/USTUAV/paparazzi/var/MYAC/ap/math/pprz_geodetic_float.o
                                                  /home/uav/USTUAV/paparazzi/var/MYAC/ap/math/pprz_geodetic_int.o
                                                  /home/uav/USTUAV/paparazzi/var/MYAC/ap/mcu_periph/sys_time.o
__aeabi_dmul                                      /opt/paparazzi/arm-multilib/lib/gcc/arm-none-eabi/4.6.2/thumb2/libgcc.a(_arm_muldivdf3.o)
                                                  /opt/paparazzi/arm-multilib/lib/gcc/arm-none-eabi/4.6.2/../../../../arm-none-eabi/lib/thumb2/libm.a(lib_a-s_scalbn.o)
                                                  /opt/paparazzi/arm-multilib/lib/gcc/arm-none-eabi/4.6.2/../../../../arm-none-eabi/lib/thumb2/libm.a(lib_a-s_expm1.o)
                                                  /opt/paparazzi/arm-multilib/lib/gcc/arm-none-eabi/4.6.2/../../../../arm-none-eabi/lib/thumb2/libm.a(lib_a-k_tan.o)
                                                  /opt/paparazzi/arm-multilib/lib/gcc/arm-none-eabi/4.6.2/../../../../arm-none-eabi/lib/thumb2/libm.a(lib_a-k_sin.o)
                                                  /opt/paparazzi/arm-multilib/lib/gcc/arm-none-eabi/4.6.2/../../../../arm-none-eabi/lib/thumb2/libm.a(lib_a-k_rem_pio2.o)
                                                  /opt/paparazzi/arm-multilib/lib/gcc/arm-none-eabi/4.6.2/../../../../arm-none-eabi/lib/thumb2/libm.a(lib_a-k_cos.o)
                                                  /opt/paparazzi/arm-multilib/lib/gcc/arm-none-eabi/4.6.2/../../../../arm-none-eabi/lib/thumb2/libm.a(lib_a-e_sqrt.o)
                                                  /opt/paparazzi/arm-multilib/lib/gcc/arm-none-eabi/4.6.2/../../../../arm-none-eabi/lib/thumb2/libm.a(lib_a-e_sinh.o)
                                                  /opt/paparazzi/arm-multilib/lib/gcc/arm-none-eabi/4.6.2/../../../../arm-none-eabi/lib/thumb2/libm.a(lib_a-e_rem_pio2.o)
                                                  /opt/paparazzi/arm-multilib/lib/gcc/arm-none-eabi/4.6.2/../../../../arm-none-eabi/lib/thumb2/libm.a(lib_a-e_pow.o)
                                                  /opt/paparazzi/arm-multilib/lib/gcc/arm-none-eabi/4.6.2/../../../../arm-none-eabi/lib/thumb2/libm.a(lib_a-e_log.o)
                                                  /opt/paparazzi/arm-multilib/lib/gcc/arm-none-eabi/4.6.2/../../../../arm-none-eabi/lib/thumb2/libm.a(lib_a-e_exp.o)
                                                  /opt/paparazzi/arm-multilib/lib/gcc/arm-none-eabi/4.6.2/../../../../arm-none-eabi/lib/thumb2/libm.a(lib_a-e_cosh.o)
                                                  /opt/paparazzi/arm-multilib/lib/gcc/arm-none-eabi/4.6.2/../../../../arm-none-eabi/lib/thumb2/libm.a(lib_a-e_asin.o)
                                                  /opt/paparazzi/arm-multilib/lib/gcc/arm-none-eabi/4.6.2/../../../../arm-none-eabi/lib/thumb2/libm.a(lib_a-w_pow.o)
                                                  /opt/paparazzi/arm-multilib/lib/gcc/arm-none-eabi/4.6.2/../../../../arm-none-eabi/lib/thumb2/libm.a(lib_a-s_atan.o)
                                                  /home/uav/USTUAV/paparazzi/var/MYAC/ap/subsystems/navigation/nav_line.o
                                                  /home/uav/USTUAV/paparazzi/var/MYAC/ap/subsystems/navigation/nav_survey_rectangle.o
                                                  /home/uav/USTUAV/paparazzi/var/MYAC/ap/subsystems/nav.o
                                                  /home/uav/USTUAV/paparazzi/var/MYAC/ap/subsystems/gps/gps_ubx.o
                                                  /home/uav/USTUAV/paparazzi/var/MYAC/ap/subsystems/ahrs/ahrs_float_dcm.o
                                                  /home/uav/USTUAV/paparazzi/var/MYAC/ap/firmwares/fixedwing/stabilization/stabilization_attitude.o
                                                  /home/uav/USTUAV/paparazzi/var/MYAC/ap/firmwares/fixedwing/datalink.o
                                                  /home/uav/USTUAV/paparazzi/var/MYAC/ap/firmwares/fixedwing/main_ap.o
                                                  /home/uav/USTUAV/paparazzi/var/MYAC/ap/subsystems/electrical.o
                                                  /home/uav/USTUAV/paparazzi/var/MYAC/ap/firmwares/fixedwing/main_fbw.o
                                                  /home/uav/USTUAV/paparazzi/var/MYAC/ap/math/pprz_geodetic_double.o
                                                  /home/uav/USTUAV/paparazzi/var/MYAC/ap/math/pprz_geodetic_float.o
                                                  /home/uav/USTUAV/paparazzi/var/MYAC/ap/math/pprz_geodetic_int.o
__aeabi_drsub                                     /opt/paparazzi/arm-multilib/lib/gcc/arm-none-eabi/4.6.2/thumb2/libgcc.a(_arm_addsubdf3.o)
__aeabi_dsub                                      /opt/paparazzi/arm-multilib/lib/gcc/arm-none-eabi/4.6.2/thumb2/libgcc.a(_arm_addsubdf3.o)
                                                  /opt/paparazzi/arm-multilib/lib/gcc/arm-none-eabi/4.6.2/../../../../arm-none-eabi/lib/thumb2/libm.a(lib_a-s_expm1.o)
                                                  /opt/paparazzi/arm-multilib/lib/gcc/arm-none-eabi/4.6.2/../../../../arm-none-eabi/lib/thumb2/libm.a(lib_a-k_tan.o)
                                                  /opt/paparazzi/arm-multilib/lib/gcc/arm-none-eabi/4.6.2/../../../../arm-none-eabi/lib/thumb2/libm.a(lib_a-k_sin.o)
                                                  /opt/paparazzi/arm-multilib/lib/gcc/arm-none-eabi/4.6.2/../../../../arm-none-eabi/lib/thumb2/libm.a(lib_a-k_rem_pio2.o)
                                                  /opt/paparazzi/arm-multilib/lib/gcc/arm-none-eabi/4.6.2/../../../../arm-none-eabi/lib/thumb2/libm.a(lib_a-k_cos.o)
                                                  /opt/paparazzi/arm-multilib/lib/gcc/arm-none-eabi/4.6.2/../../../../arm-none-eabi/lib/thumb2/libm.a(lib_a-e_sqrt.o)
                                                  /opt/paparazzi/arm-multilib/lib/gcc/arm-none-eabi/4.6.2/../../../../arm-none-eabi/lib/thumb2/libm.a(lib_a-e_sinh.o)
                                                  /opt/paparazzi/arm-multilib/lib/gcc/arm-none-eabi/4.6.2/../../../../arm-none-eabi/lib/thumb2/libm.a(lib_a-e_rem_pio2.o)
                                                  /opt/paparazzi/arm-multilib/lib/gcc/arm-none-eabi/4.6.2/../../../../arm-none-eabi/lib/thumb2/libm.a(lib_a-e_pow.o)
                                                  /opt/paparazzi/arm-multilib/lib/gcc/arm-none-eabi/4.6.2/../../../../arm-none-eabi/lib/thumb2/libm.a(lib_a-e_log.o)
                                                  /opt/paparazzi/arm-multilib/lib/gcc/arm-none-eabi/4.6.2/../../../../arm-none-eabi/lib/thumb2/libm.a(lib_a-e_exp.o)
                                                  /opt/paparazzi/arm-multilib/lib/gcc/arm-none-eabi/4.6.2/../../../../arm-none-eabi/lib/thumb2/libm.a(lib_a-e_atan2.o)
                                                  /opt/paparazzi/arm-multilib/lib/gcc/arm-none-eabi/4.6.2/../../../../arm-none-eabi/lib/thumb2/libm.a(lib_a-e_asin.o)
                                                  /opt/paparazzi/arm-multilib/lib/gcc/arm-none-eabi/4.6.2/../../../../arm-none-eabi/lib/thumb2/libm.a(lib_a-s_tan.o)
                                                  /opt/paparazzi/arm-multilib/lib/gcc/arm-none-eabi/4.6.2/../../../../arm-none-eabi/lib/thumb2/libm.a(lib_a-s_sin.o)
                                                  /opt/paparazzi/arm-multilib/lib/gcc/arm-none-eabi/4.6.2/../../../../arm-none-eabi/lib/thumb2/libm.a(lib_a-s_rint.o)
                                                  /opt/paparazzi/arm-multilib/lib/gcc/arm-none-eabi/4.6.2/../../../../arm-none-eabi/lib/thumb2/libm.a(lib_a-s_cos.o)
                                                  /opt/paparazzi/arm-multilib/lib/gcc/arm-none-eabi/4.6.2/../../../../arm-none-eabi/lib/thumb2/libm.a(lib_a-s_atan.o)
                                                  /home/uav/USTUAV/paparazzi/var/MYAC/ap/subsystems/navigation/nav_line.o
                                                  /home/uav/USTUAV/paparazzi/var/MYAC/ap/subsystems/navigation/nav_survey_rectangle.o
                                                  /home/uav/USTUAV/paparazzi/var/MYAC/ap/subsystems/nav.o
                                                  /home/uav/USTUAV/paparazzi/var/MYAC/ap/subsystems/ahrs/ahrs_float_dcm.o
                                                  /home/uav/USTUAV/paparazzi/var/MYAC/ap/firmwares/fixedwing/stabilization/stabilization_attitude.o
                                                  /home/uav/USTUAV/paparazzi/var/MYAC/ap/subsystems/electrical.o
                                                  /home/uav/USTUAV/paparazzi/var/MYAC/ap/math/pprz_geodetic_double.o
                                                  /home/uav/USTUAV/paparazzi/var/MYAC/ap/math/pprz_geodetic_float.o
__aeabi_f2d                                       /opt/paparazzi/arm-multilib/lib/gcc/arm-none-eabi/4.6.2/thumb2/libgcc.a(_arm_addsubdf3.o)
                                                  /opt/paparazzi/arm-multilib/lib/gcc/arm-none-eabi/4.6.2/../../../../arm-none-eabi/lib/thumb2/libm.a(lib_a-wf_sqrt.o)
                                                  /opt/paparazzi/arm-multilib/lib/gcc/arm-none-eabi/4.6.2/../../../../arm-none-eabi/lib/thumb2/libm.a(lib_a-wf_pow.o)
                                                  /opt/paparazzi/arm-multilib/lib/gcc/arm-none-eabi/4.6.2/../../../../arm-none-eabi/lib/thumb2/libm.a(lib_a-wf_asin.o)
                                                  /home/uav/USTUAV/paparazzi/var/MYAC/ap/subsystems/navigation/nav_line.o
                                                  /home/uav/USTUAV/paparazzi/var/MYAC/ap/subsystems/navigation/nav_survey_rectangle.o
                                                  /home/uav/USTUAV/paparazzi/var/MYAC/ap/subsystems/nav.o
                                                  /home/uav/USTUAV/paparazzi/var/MYAC/ap/subsystems/ahrs/ahrs_float_dcm.o
                                                  /home/uav/USTUAV/paparazzi/var/MYAC/ap/firmwares/fixedwing/guidance/guidance_v.o
                                                  /home/uav/USTUAV/paparazzi/var/MYAC/ap/firmwares/fixedwing/stabilization/stabilization_attitude.o
                                                  /home/uav/USTUAV/paparazzi/var/MYAC/ap/firmwares/fixedwing/datalink.o
                                                  /home/uav/USTUAV/paparazzi/var/MYAC/ap/./estimator.o
                                                  /home/uav/USTUAV/paparazzi/var/MYAC/ap/firmwares/fixedwing/main_ap.o
                                                  /home/uav/USTUAV/paparazzi/var/MYAC/ap/subsystems/electrical.o
                                                  /home/uav/USTUAV/paparazzi/var/MYAC/ap/firmwares/fixedwing/main_fbw.o
                                                  /home/uav/USTUAV/paparazzi/var/MYAC/ap/math/pprz_geodetic_double.o
                                                  /home/uav/USTUAV/paparazzi/var/MYAC/ap/math/pprz_geodetic_float.o
                                                  /home/uav/USTUAV/paparazzi/var/MYAC/ap/math/pprz_geodetic_int.o
                                                  /home/uav/USTUAV/paparazzi/var/MYAC/ap/mcu_periph/sys_time.o
__aeabi_f2iz                                      /opt/paparazzi/arm-multilib/lib/gcc/arm-none-eabi/4.6.2/thumb2/libgcc.a(_arm_fixsfsi.o)
                                                  /opt/paparazzi/arm-multilib/lib/gcc/arm-none-eabi/4.6.2/../../../../arm-none-eabi/lib/thumb2/libm.a(lib_a-kf_sin.o)
                                                  /opt/paparazzi/arm-multilib/lib/gcc/arm-none-eabi/4.6.2/../../../../arm-none-eabi/lib/thumb2/libm.a(lib_a-kf_rem_pio2.o)
                                                  /opt/paparazzi/arm-multilib/lib/gcc/arm-none-eabi/4.6.2/../../../../arm-none-eabi/lib/thumb2/libm.a(lib_a-kf_cos.o)
                                                  /opt/paparazzi/arm-multilib/lib/gcc/arm-none-eabi/4.6.2/../../../../arm-none-eabi/lib/thumb2/libm.a(lib_a-ef_rem_pio2.o)
                                                  /home/uav/USTUAV/paparazzi/var/MYAC/ap/subsystems/nav.o
                                                  /home/uav/USTUAV/paparazzi/var/MYAC/ap/subsystems/gps/gps_ubx.o
                                                  /home/uav/USTUAV/paparazzi/var/MYAC/ap/firmwares/fixedwing/guidance/guidance_v.o
                                                  /home/uav/USTUAV/paparazzi/var/MYAC/ap/firmwares/fixedwing/stabilization/stabilization_attitude.o
                                                  /home/uav/USTUAV/paparazzi/var/MYAC/ap/firmwares/fixedwing/main_ap.o
                                                  /home/uav/USTUAV/paparazzi/var/MYAC/ap/firmwares/fixedwing/main_fbw.o
__aeabi_f2uiz                                     /opt/paparazzi/arm-multilib/lib/gcc/arm-none-eabi/4.6.2/thumb2/libgcc.a(_arm_fixunssfsi.o)
                                                  /home/uav/USTUAV/paparazzi/var/MYAC/ap/firmwares/fixedwing/datalink.o
__aeabi_fadd                                      /opt/paparazzi/arm-multilib/lib/gcc/arm-none-eabi/4.6.2/thumb2/libgcc.a(_arm_addsubsf3.o)
                                                  /opt/paparazzi/arm-multilib/lib/gcc/arm-none-eabi/4.6.2/../../../../arm-none-eabi/lib/thumb2/libm.a(lib_a-sf_scalbn.o)
                                                  /opt/paparazzi/arm-multilib/lib/gcc/arm-none-eabi/4.6.2/../../../../arm-none-eabi/lib/thumb2/libm.a(lib_a-sf_floor.o)
                                                  /opt/paparazzi/arm-multilib/lib/gcc/arm-none-eabi/4.6.2/../../../../arm-none-eabi/lib/thumb2/libm.a(lib_a-kf_sin.o)
                                                  /opt/paparazzi/arm-multilib/lib/gcc/arm-none-eabi/4.6.2/../../../../arm-none-eabi/lib/thumb2/libm.a(lib_a-kf_rem_pio2.o)
                                                  /opt/paparazzi/arm-multilib/lib/gcc/arm-none-eabi/4.6.2/../../../../arm-none-eabi/lib/thumb2/libm.a(lib_a-kf_cos.o)
                                                  /opt/paparazzi/arm-multilib/lib/gcc/arm-none-eabi/4.6.2/../../../../arm-none-eabi/lib/thumb2/libm.a(lib_a-ef_sqrt.o)
                                                  /opt/paparazzi/arm-multilib/lib/gcc/arm-none-eabi/4.6.2/../../../../arm-none-eabi/lib/thumb2/libm.a(lib_a-ef_rem_pio2.o)
                                                  /opt/paparazzi/arm-multilib/lib/gcc/arm-none-eabi/4.6.2/../../../../arm-none-eabi/lib/thumb2/libm.a(lib_a-ef_pow.o)
                                                  /opt/paparazzi/arm-multilib/lib/gcc/arm-none-eabi/4.6.2/../../../../arm-none-eabi/lib/thumb2/libm.a(lib_a-ef_atan2.o)
                                                  /opt/paparazzi/arm-multilib/lib/gcc/arm-none-eabi/4.6.2/../../../../arm-none-eabi/lib/thumb2/libm.a(lib_a-ef_asin.o)
                                                  /opt/paparazzi/arm-multilib/lib/gcc/arm-none-eabi/4.6.2/../../../../arm-none-eabi/lib/thumb2/libm.a(lib_a-sf_atan.o)
                                                  /home/uav/USTUAV/paparazzi/var/MYAC/ap/subsystems/navigation/nav_line.o
                                                  /home/uav/USTUAV/paparazzi/var/MYAC/ap/subsystems/navigation/nav_survey_rectangle.o
                                                  /home/uav/USTUAV/paparazzi/var/MYAC/ap/subsystems/nav.o
                                                  /home/uav/USTUAV/paparazzi/var/MYAC/ap/subsystems/ahrs/ahrs_float_dcm.o
                                                  /home/uav/USTUAV/paparazzi/var/MYAC/ap/firmwares/fixedwing/guidance/guidance_v.o
                                                  /home/uav/USTUAV/paparazzi/var/MYAC/ap/firmwares/fixedwing/stabilization/stabilization_attitude.o
                                                  /home/uav/USTUAV/paparazzi/var/MYAC/ap/firmwares/fixedwing/datalink.o
                                                  /home/uav/USTUAV/paparazzi/var/MYAC/ap/./estimator.o
                                                  /home/uav/USTUAV/paparazzi/var/MYAC/ap/firmwares/fixedwing/main_ap.o
                                                  /home/uav/USTUAV/paparazzi/var/MYAC/ap/math/pprz_geodetic_float.o
__aeabi_fcmpeq                                    /opt/paparazzi/arm-multilib/lib/gcc/arm-none-eabi/4.6.2/thumb2/libgcc.a(_arm_cmpsf2.o)
                                                  /opt/paparazzi/arm-multilib/lib/gcc/arm-none-eabi/4.6.2/../../../../arm-none-eabi/lib/thumb2/libm.a(lib_a-kf_rem_pio2.o)
                                                  /opt/paparazzi/arm-multilib/lib/gcc/arm-none-eabi/4.6.2/../../../../arm-none-eabi/lib/thumb2/libm.a(lib_a-ef_rem_pio2.o)
                                                  /opt/paparazzi/arm-multilib/lib/gcc/arm-none-eabi/4.6.2/../../../../arm-none-eabi/lib/thumb2/libm.a(lib_a-wf_pow.o)
                                                  /home/uav/USTUAV/paparazzi/var/MYAC/ap/firmwares/fixedwing/datalink.o
__aeabi_fcmpge                                    /opt/paparazzi/arm-multilib/lib/gcc/arm-none-eabi/4.6.2/thumb2/libgcc.a(_arm_cmpsf2.o)
                                                  /opt/paparazzi/arm-multilib/lib/gcc/arm-none-eabi/4.6.2/../../../../arm-none-eabi/lib/thumb2/libm.a(lib_a-kf_rem_pio2.o)
                                                  /home/uav/USTUAV/paparazzi/var/MYAC/ap/subsystems/navigation/nav_line.o
                                                  /home/uav/USTUAV/paparazzi/var/MYAC/ap/subsystems/navigation/nav_survey_rectangle.o
                                                  /home/uav/USTUAV/paparazzi/var/MYAC/ap/subsystems/nav.o
__aeabi_fcmpgt                                    /opt/paparazzi/arm-multilib/lib/gcc/arm-none-eabi/4.6.2/thumb2/libgcc.a(_arm_cmpsf2.o)
                                                  /opt/paparazzi/arm-multilib/lib/gcc/arm-none-eabi/4.6.2/../../../../arm-none-eabi/lib/thumb2/libm.a(lib_a-sf_floor.o)
                                                  /opt/paparazzi/arm-multilib/lib/gcc/arm-none-eabi/4.6.2/../../../../arm-none-eabi/lib/thumb2/libm.a(lib_a-ef_pow.o)
                                                  /opt/paparazzi/arm-multilib/lib/gcc/arm-none-eabi/4.6.2/../../../../arm-none-eabi/lib/thumb2/libm.a(lib_a-ef_asin.o)
                                                  /opt/paparazzi/arm-multilib/lib/gcc/arm-none-eabi/4.6.2/../../../../arm-none-eabi/lib/thumb2/libm.a(lib_a-wf_asin.o)
                                                  /opt/paparazzi/arm-multilib/lib/gcc/arm-none-eabi/4.6.2/../../../../arm-none-eabi/lib/thumb2/libm.a(lib_a-sf_atan.o)
                                                  /home/uav/USTUAV/paparazzi/var/MYAC/ap/subsystems/navigation/nav_line.o
                                                  /home/uav/USTUAV/paparazzi/var/MYAC/ap/subsystems/navigation/nav_survey_rectangle.o
                                                  /home/uav/USTUAV/paparazzi/var/MYAC/ap/subsystems/nav.o
                                                  /home/uav/USTUAV/paparazzi/var/MYAC/ap/subsystems/ahrs/ahrs_float_dcm.o
                                                  /home/uav/USTUAV/paparazzi/var/MYAC/ap/firmwares/fixedwing/guidance/guidance_v.o
                                                  /home/uav/USTUAV/paparazzi/var/MYAC/ap/firmwares/fixedwing/stabilization/stabilization_attitude.o
                                                  /home/uav/USTUAV/paparazzi/var/MYAC/ap/firmwares/fixedwing/main_ap.o
                                                  /home/uav/USTUAV/paparazzi/var/MYAC/ap/firmwares/fixedwing/main_fbw.o
                                                  /home/uav/USTUAV/paparazzi/var/MYAC/ap/math/pprz_geodetic_float.o
__aeabi_fcmple                                    /opt/paparazzi/arm-multilib/lib/gcc/arm-none-eabi/4.6.2/thumb2/libgcc.a(_arm_cmpsf2.o)
                                                  /opt/paparazzi/arm-multilib/lib/gcc/arm-none-eabi/4.6.2/../../../../arm-none-eabi/lib/thumb2/libm.a(lib_a-ef_pow.o)
__aeabi_fcmplt                                    /opt/paparazzi/arm-multilib/lib/gcc/arm-none-eabi/4.6.2/thumb2/libgcc.a(_arm_cmpsf2.o)
                                                  /opt/paparazzi/arm-multilib/lib/gcc/arm-none-eabi/4.6.2/../../../../arm-none-eabi/lib/thumb2/libm.a(lib_a-wf_sqrt.o)
                                                  /opt/paparazzi/arm-multilib/lib/gcc/arm-none-eabi/4.6.2/../../../../arm-none-eabi/lib/thumb2/libm.a(lib_a-wf_pow.o)
                                                  /home/uav/USTUAV/paparazzi/var/MYAC/ap/subsystems/navigation/nav_line.o
                                                  /home/uav/USTUAV/paparazzi/var/MYAC/ap/subsystems/navigation/nav_survey_rectangle.o
                                                  /home/uav/USTUAV/paparazzi/var/MYAC/ap/subsystems/nav.o
                                                  /home/uav/USTUAV/paparazzi/var/MYAC/ap/subsystems/ahrs/ahrs_float_dcm.o
                                                  /home/uav/USTUAV/paparazzi/var/MYAC/ap/firmwares/fixedwing/guidance/guidance_v.o
                                                  /home/uav/USTUAV/paparazzi/var/MYAC/ap/firmwares/fixedwing/stabilization/stabilization_attitude.o
__aeabi_fdiv                                      /opt/paparazzi/arm-multilib/lib/gcc/arm-none-eabi/4.6.2/thumb2/libgcc.a(_arm_muldivsf3.o)
                                                  /opt/paparazzi/arm-multilib/lib/gcc/arm-none-eabi/4.6.2/../../../../arm-none-eabi/lib/thumb2/libm.a(lib_a-ef_sqrt.o)
                                                  /opt/paparazzi/arm-multilib/lib/gcc/arm-none-eabi/4.6.2/../../../../arm-none-eabi/lib/thumb2/libm.a(lib_a-ef_pow.o)
                                                  /opt/paparazzi/arm-multilib/lib/gcc/arm-none-eabi/4.6.2/../../../../arm-none-eabi/lib/thumb2/libm.a(lib_a-ef_atan2.o)
                                                  /opt/paparazzi/arm-multilib/lib/gcc/arm-none-eabi/4.6.2/../../../../arm-none-eabi/lib/thumb2/libm.a(lib_a-ef_asin.o)
                                                  /opt/paparazzi/arm-multilib/lib/gcc/arm-none-eabi/4.6.2/../../../../arm-none-eabi/lib/thumb2/libm.a(lib_a-sf_atan.o)
                                                  /home/uav/USTUAV/paparazzi/var/MYAC/ap/subsystems/navigation/nav_line.o
                                                  /home/uav/USTUAV/paparazzi/var/MYAC/ap/subsystems/nav.o
                                                  /home/uav/USTUAV/paparazzi/var/MYAC/ap/subsystems/gps/gps_ubx.o
                                                  /home/uav/USTUAV/paparazzi/var/MYAC/ap/firmwares/fixedwing/stabilization/stabilization_attitude.o
                                                  /home/uav/USTUAV/paparazzi/var/MYAC/ap/firmwares/fixedwing/datalink.o
                                                  /home/uav/USTUAV/paparazzi/var/MYAC/ap/./estimator.o
                                                  /home/uav/USTUAV/paparazzi/var/MYAC/ap/firmwares/fixedwing/main_ap.o
                                                  /home/uav/USTUAV/paparazzi/var/MYAC/ap/subsystems/electrical.o
                                                  /home/uav/USTUAV/paparazzi/var/MYAC/ap/math/pprz_geodetic_float.o
                                                  /home/uav/USTUAV/paparazzi/var/MYAC/ap/math/pprz_geodetic_int.o
__aeabi_fmul                                      /opt/paparazzi/arm-multilib/lib/gcc/arm-none-eabi/4.6.2/thumb2/libgcc.a(_arm_muldivsf3.o)
                                                  /opt/paparazzi/arm-multilib/lib/gcc/arm-none-eabi/4.6.2/../../../../arm-none-eabi/lib/thumb2/libm.a(lib_a-sf_scalbn.o)
                                                  /opt/paparazzi/arm-multilib/lib/gcc/arm-none-eabi/4.6.2/../../../../arm-none-eabi/lib/thumb2/libm.a(lib_a-kf_sin.o)
                                                  /opt/paparazzi/arm-multilib/lib/gcc/arm-none-eabi/4.6.2/../../../../arm-none-eabi/lib/thumb2/libm.a(lib_a-kf_rem_pio2.o)
                                                  /opt/paparazzi/arm-multilib/lib/gcc/arm-none-eabi/4.6.2/../../../../arm-none-eabi/lib/thumb2/libm.a(lib_a-kf_cos.o)
                                                  /opt/paparazzi/arm-multilib/lib/gcc/arm-none-eabi/4.6.2/../../../../arm-none-eabi/lib/thumb2/libm.a(lib_a-ef_sqrt.o)
                                                  /opt/paparazzi/arm-multilib/lib/gcc/arm-none-eabi/4.6.2/../../../../arm-none-eabi/lib/thumb2/libm.a(lib_a-ef_rem_pio2.o)
                                                  /opt/paparazzi/arm-multilib/lib/gcc/arm-none-eabi/4.6.2/../../../../arm-none-eabi/lib/thumb2/libm.a(lib_a-ef_pow.o)
                                                  /opt/paparazzi/arm-multilib/lib/gcc/arm-none-eabi/4.6.2/../../../../arm-none-eabi/lib/thumb2/libm.a(lib_a-ef_asin.o)
                                                  /opt/paparazzi/arm-multilib/lib/gcc/arm-none-eabi/4.6.2/../../../../arm-none-eabi/lib/thumb2/libm.a(lib_a-wf_pow.o)
                                                  /opt/paparazzi/arm-multilib/lib/gcc/arm-none-eabi/4.6.2/../../../../arm-none-eabi/lib/thumb2/libm.a(lib_a-sf_atan.o)
                                                  /home/uav/USTUAV/paparazzi/var/MYAC/ap/subsystems/navigation/nav_line.o
                                                  /home/uav/USTUAV/paparazzi/var/MYAC/ap/subsystems/navigation/nav_survey_rectangle.o
                                                  /home/uav/USTUAV/paparazzi/var/MYAC/ap/subsystems/nav.o
                                                  /home/uav/USTUAV/paparazzi/var/MYAC/ap/subsystems/gps/gps_ubx.o
                                                  /home/uav/USTUAV/paparazzi/var/MYAC/ap/subsystems/ahrs/ahrs_float_dcm.o
                                                  /home/uav/USTUAV/paparazzi/var/MYAC/ap/firmwares/fixedwing/guidance/guidance_v.o
                                                  /home/uav/USTUAV/paparazzi/var/MYAC/ap/firmwares/fixedwing/stabilization/stabilization_attitude.o
                                                  /home/uav/USTUAV/paparazzi/var/MYAC/ap/./estimator.o
                                                  /home/uav/USTUAV/paparazzi/var/MYAC/ap/firmwares/fixedwing/main_ap.o
                                                  /home/uav/USTUAV/paparazzi/var/MYAC/ap/subsystems/electrical.o
                                                  /home/uav/USTUAV/paparazzi/var/MYAC/ap/math/pprz_geodetic_float.o
                                                  /home/uav/USTUAV/paparazzi/var/MYAC/ap/math/pprz_geodetic_int.o
__aeabi_frsub                                     /opt/paparazzi/arm-multilib/lib/gcc/arm-none-eabi/4.6.2/thumb2/libgcc.a(_arm_addsubsf3.o)
__aeabi_fsub                                      /opt/paparazzi/arm-multilib/lib/gcc/arm-none-eabi/4.6.2/thumb2/libgcc.a(_arm_addsubsf3.o)
                                                  /opt/paparazzi/arm-multilib/lib/gcc/arm-none-eabi/4.6.2/../../../../arm-none-eabi/lib/thumb2/libm.a(lib_a-kf_sin.o)
                                                  /opt/paparazzi/arm-multilib/lib/gcc/arm-none-eabi/4.6.2/../../../../arm-none-eabi/lib/thumb2/libm.a(lib_a-kf_rem_pio2.o)
                                                  /opt/paparazzi/arm-multilib/lib/gcc/arm-none-eabi/4.6.2/../../../../arm-none-eabi/lib/thumb2/libm.a(lib_a-kf_cos.o)
                                                  /opt/paparazzi/arm-multilib/lib/gcc/arm-none-eabi/4.6.2/../../../../arm-none-eabi/lib/thumb2/libm.a(lib_a-ef_sqrt.o)
                                                  /opt/paparazzi/arm-multilib/lib/gcc/arm-none-eabi/4.6.2/../../../../arm-none-eabi/lib/thumb2/libm.a(lib_a-ef_rem_pio2.o)
                                                  /opt/paparazzi/arm-multilib/lib/gcc/arm-none-eabi/4.6.2/../../../../arm-none-eabi/lib/thumb2/libm.a(lib_a-ef_pow.o)
                                                  /opt/paparazzi/arm-multilib/lib/gcc/arm-none-eabi/4.6.2/../../../../arm-none-eabi/lib/thumb2/libm.a(lib_a-ef_atan2.o)
                                                  /opt/paparazzi/arm-multilib/lib/gcc/arm-none-eabi/4.6.2/../../../../arm-none-eabi/lib/thumb2/libm.a(lib_a-ef_asin.o)
                                                  /opt/paparazzi/arm-multilib/lib/gcc/arm-none-eabi/4.6.2/../../../../arm-none-eabi/lib/thumb2/libm.a(lib_a-sf_sin.o)
                                                  /opt/paparazzi/arm-multilib/lib/gcc/arm-none-eabi/4.6.2/../../../../arm-none-eabi/lib/thumb2/libm.a(lib_a-sf_cos.o)
                                                  /opt/paparazzi/arm-multilib/lib/gcc/arm-none-eabi/4.6.2/../../../../arm-none-eabi/lib/thumb2/libm.a(lib_a-sf_atan.o)
                                                  /home/uav/USTUAV/paparazzi/var/MYAC/ap/subsystems/navigation/nav_line.o
                                                  /home/uav/USTUAV/paparazzi/var/MYAC/ap/subsystems/navigation/nav_survey_rectangle.o
                                                  /home/uav/USTUAV/paparazzi/var/MYAC/ap/subsystems/nav.o
                                                  /home/uav/USTUAV/paparazzi/var/MYAC/ap/subsystems/ahrs/ahrs_float_dcm.o
                                                  /home/uav/USTUAV/paparazzi/var/MYAC/ap/firmwares/fixedwing/guidance/guidance_v.o
                                                  /home/uav/USTUAV/paparazzi/var/MYAC/ap/firmwares/fixedwing/stabilization/stabilization_attitude.o
                                                  /home/uav/USTUAV/paparazzi/var/MYAC/ap/firmwares/fixedwing/datalink.o
                                                  /home/uav/USTUAV/paparazzi/var/MYAC/ap/./estimator.o
                                                  /home/uav/USTUAV/paparazzi/var/MYAC/ap/math/pprz_geodetic_float.o
__aeabi_i2d                                       /opt/paparazzi/arm-multilib/lib/gcc/arm-none-eabi/4.6.2/thumb2/libgcc.a(_arm_addsubdf3.o)
                                                  /opt/paparazzi/arm-multilib/lib/gcc/arm-none-eabi/4.6.2/../../../../arm-none-eabi/lib/thumb2/libm.a(lib_a-s_expm1.o)
                                                  /opt/paparazzi/arm-multilib/lib/gcc/arm-none-eabi/4.6.2/../../../../arm-none-eabi/lib/thumb2/libm.a(lib_a-k_tan.o)
                                                  /opt/paparazzi/arm-multilib/lib/gcc/arm-none-eabi/4.6.2/../../../../arm-none-eabi/lib/thumb2/libm.a(lib_a-k_rem_pio2.o)
                                                  /opt/paparazzi/arm-multilib/lib/gcc/arm-none-eabi/4.6.2/../../../../arm-none-eabi/lib/thumb2/libm.a(lib_a-e_rem_pio2.o)
                                                  /opt/paparazzi/arm-multilib/lib/gcc/arm-none-eabi/4.6.2/../../../../arm-none-eabi/lib/thumb2/libm.a(lib_a-e_pow.o)
                                                  /opt/paparazzi/arm-multilib/lib/gcc/arm-none-eabi/4.6.2/../../../../arm-none-eabi/lib/thumb2/libm.a(lib_a-e_log.o)
                                                  /opt/paparazzi/arm-multilib/lib/gcc/arm-none-eabi/4.6.2/../../../../arm-none-eabi/lib/thumb2/libm.a(lib_a-e_exp.o)
                                                  /home/uav/USTUAV/paparazzi/var/MYAC/ap/subsystems/nav.o
                                                  /home/uav/USTUAV/paparazzi/var/MYAC/ap/subsystems/gps/gps_ubx.o
                                                  /home/uav/USTUAV/paparazzi/var/MYAC/ap/subsystems/ahrs/ahrs_float_dcm.o
                                                  /home/uav/USTUAV/paparazzi/var/MYAC/ap/firmwares/fixedwing/guidance/guidance_v.o
                                                  /home/uav/USTUAV/paparazzi/var/MYAC/ap/firmwares/fixedwing/datalink.o
                                                  /home/uav/USTUAV/paparazzi/var/MYAC/ap/./estimator.o
                                                  /home/uav/USTUAV/paparazzi/var/MYAC/ap/firmwares/fixedwing/main_ap.o
                                                  /home/uav/USTUAV/paparazzi/var/MYAC/ap/firmwares/fixedwing/main_fbw.o
                                                  /home/uav/USTUAV/paparazzi/var/MYAC/ap/math/pprz_geodetic_double.o
                                                  /home/uav/USTUAV/paparazzi/var/MYAC/ap/math/pprz_geodetic_float.o
                                                  /home/uav/USTUAV/paparazzi/var/MYAC/ap/math/pprz_geodetic_int.o
__aeabi_i2f                                       /opt/paparazzi/arm-multilib/lib/gcc/arm-none-eabi/4.6.2/thumb2/libgcc.a(_arm_addsubsf3.o)
                                                  /opt/paparazzi/arm-multilib/lib/gcc/arm-none-eabi/4.6.2/../../../../arm-none-eabi/lib/thumb2/libm.a(lib_a-kf_rem_pio2.o)
                                                  /opt/paparazzi/arm-multilib/lib/gcc/arm-none-eabi/4.6.2/../../../../arm-none-eabi/lib/thumb2/libm.a(lib_a-ef_rem_pio2.o)
                                                  /opt/paparazzi/arm-multilib/lib/gcc/arm-none-eabi/4.6.2/../../../../arm-none-eabi/lib/thumb2/libm.a(lib_a-ef_pow.o)
                                                  /home/uav/USTUAV/paparazzi/var/MYAC/ap/subsystems/nav.o
                                                  /home/uav/USTUAV/paparazzi/var/MYAC/ap/subsystems/gps/gps_ubx.o
                                                  /home/uav/USTUAV/paparazzi/var/MYAC/ap/subsystems/ahrs/ahrs_float_dcm.o
                                                  /home/uav/USTUAV/paparazzi/var/MYAC/ap/firmwares/fixedwing/stabilization/stabilization_attitude.o
                                                  /home/uav/USTUAV/paparazzi/var/MYAC/ap/firmwares/fixedwing/datalink.o
                                                  /home/uav/USTUAV/paparazzi/var/MYAC/ap/./estimator.o
                                                  /home/uav/USTUAV/paparazzi/var/MYAC/ap/firmwares/fixedwing/main_ap.o
                                                  /home/uav/USTUAV/paparazzi/var/MYAC/ap/subsystems/electrical.o
                                                  /home/uav/USTUAV/paparazzi/var/MYAC/ap/firmwares/fixedwing/main_fbw.o
                                                  /home/uav/USTUAV/paparazzi/var/MYAC/ap/math/pprz_geodetic_float.o
                                                  /home/uav/USTUAV/paparazzi/var/MYAC/ap/math/pprz_geodetic_int.o
__aeabi_idiv                                      /opt/paparazzi/arm-multilib/lib/gcc/arm-none-eabi/4.6.2/thumb2/libgcc.a(_divsi3.o)
                                                  /opt/paparazzi/arm-multilib/lib/gcc/arm-none-eabi/4.6.2/../../../../arm-none-eabi/lib/thumb2/libm.a(lib_a-k_rem_pio2.o)
__aeabi_idiv0                                     /opt/paparazzi/arm-multilib/lib/gcc/arm-none-eabi/4.6.2/thumb2/libgcc.a(_dvmd_tls.o)
                                                  /opt/paparazzi/arm-multilib/lib/gcc/arm-none-eabi/4.6.2/thumb2/libgcc.a(_divsi3.o)
__aeabi_idivmod                                   /opt/paparazzi/arm-multilib/lib/gcc/arm-none-eabi/4.6.2/thumb2/libgcc.a(_divsi3.o)
__aeabi_l2d                                       /opt/paparazzi/arm-multilib/lib/gcc/arm-none-eabi/4.6.2/thumb2/libgcc.a(_arm_addsubdf3.o)
__aeabi_l2f                                       /opt/paparazzi/arm-multilib/lib/gcc/arm-none-eabi/4.6.2/thumb2/libgcc.a(_arm_addsubsf3.o)
__aeabi_ldiv0                                     /opt/paparazzi/arm-multilib/lib/gcc/arm-none-eabi/4.6.2/thumb2/libgcc.a(_dvmd_tls.o)
__aeabi_ui2d                                      /opt/paparazzi/arm-multilib/lib/gcc/arm-none-eabi/4.6.2/thumb2/libgcc.a(_arm_addsubdf3.o)
                                                  /home/uav/USTUAV/paparazzi/var/MYAC/ap/subsystems/gps/gps_ubx.o
                                                  /home/uav/USTUAV/paparazzi/var/MYAC/ap/subsystems/electrical.o
__aeabi_ui2f                                      /opt/paparazzi/arm-multilib/lib/gcc/arm-none-eabi/4.6.2/thumb2/libgcc.a(_arm_addsubsf3.o)
                                                  /home/uav/USTUAV/paparazzi/var/MYAC/ap/firmwares/fixedwing/datalink.o
                                                  /home/uav/USTUAV/paparazzi/var/MYAC/ap/firmwares/fixedwing/main_ap.o
__aeabi_ul2d                                      /opt/paparazzi/arm-multilib/lib/gcc/arm-none-eabi/4.6.2/thumb2/libgcc.a(_arm_addsubdf3.o)
__aeabi_ul2f                                      /opt/paparazzi/arm-multilib/lib/gcc/arm-none-eabi/4.6.2/thumb2/libgcc.a(_arm_addsubsf3.o)
__cmpdf2                                          /opt/paparazzi/arm-multilib/lib/gcc/arm-none-eabi/4.6.2/thumb2/libgcc.a(_arm_cmpdf2.o)
__cmpsf2                                          /opt/paparazzi/arm-multilib/lib/gcc/arm-none-eabi/4.6.2/thumb2/libgcc.a(_arm_cmpsf2.o)
__divdf3                                          /opt/paparazzi/arm-multilib/lib/gcc/arm-none-eabi/4.6.2/thumb2/libgcc.a(_arm_muldivdf3.o)
__divsf3                                          /opt/paparazzi/arm-multilib/lib/gcc/arm-none-eabi/4.6.2/thumb2/libgcc.a(_arm_muldivsf3.o)
__divsi3                                          /opt/paparazzi/arm-multilib/lib/gcc/arm-none-eabi/4.6.2/thumb2/libgcc.a(_divsi3.o)
__eqdf2                                           /opt/paparazzi/arm-multilib/lib/gcc/arm-none-eabi/4.6.2/thumb2/libgcc.a(_arm_cmpdf2.o)
__eqsf2                                           /opt/paparazzi/arm-multilib/lib/gcc/arm-none-eabi/4.6.2/thumb2/libgcc.a(_arm_cmpsf2.o)
__errno                                           /opt/paparazzi/arm-multilib/lib/gcc/arm-none-eabi/4.6.2/../../../../arm-none-eabi/lib/thumb2/libc.a(lib_a-errno.o)
                                                  /opt/paparazzi/arm-multilib/lib/gcc/arm-none-eabi/4.6.2/../../../../arm-none-eabi/lib/thumb2/libm.a(lib_a-wf_sqrt.o)
                                                  /opt/paparazzi/arm-multilib/lib/gcc/arm-none-eabi/4.6.2/../../../../arm-none-eabi/lib/thumb2/libm.a(lib_a-wf_pow.o)
                                                  /opt/paparazzi/arm-multilib/lib/gcc/arm-none-eabi/4.6.2/../../../../arm-none-eabi/lib/thumb2/libm.a(lib_a-wf_asin.o)
                                                  /opt/paparazzi/arm-multilib/lib/gcc/arm-none-eabi/4.6.2/../../../../arm-none-eabi/lib/thumb2/libm.a(lib_a-w_sqrt.o)
                                                  /opt/paparazzi/arm-multilib/lib/gcc/arm-none-eabi/4.6.2/../../../../arm-none-eabi/lib/thumb2/libm.a(lib_a-w_sinh.o)
                                                  /opt/paparazzi/arm-multilib/lib/gcc/arm-none-eabi/4.6.2/../../../../arm-none-eabi/lib/thumb2/libm.a(lib_a-w_pow.o)
                                                  /opt/paparazzi/arm-multilib/lib/gcc/arm-none-eabi/4.6.2/../../../../arm-none-eabi/lib/thumb2/libm.a(lib_a-w_log.o)
                                                  /opt/paparazzi/arm-multilib/lib/gcc/arm-none-eabi/4.6.2/../../../../arm-none-eabi/lib/thumb2/libm.a(lib_a-w_exp.o)
                                                  /opt/paparazzi/arm-multilib/lib/gcc/arm-none-eabi/4.6.2/../../../../arm-none-eabi/lib/thumb2/libm.a(lib_a-w_cosh.o)
                                                  /opt/paparazzi/arm-multilib/lib/gcc/arm-none-eabi/4.6.2/../../../../arm-none-eabi/lib/thumb2/libm.a(lib_a-w_asin.o)
__extendsfdf2                                     /opt/paparazzi/arm-multilib/lib/gcc/arm-none-eabi/4.6.2/thumb2/libgcc.a(_arm_addsubdf3.o)
__fdlib_version                                   /opt/paparazzi/arm-multilib/lib/gcc/arm-none-eabi/4.6.2/../../../../arm-none-eabi/lib/thumb2/libm.a(lib_a-s_lib_ver.o)
                                                  /opt/paparazzi/arm-multilib/lib/gcc/arm-none-eabi/4.6.2/../../../../arm-none-eabi/lib/thumb2/libm.a(lib_a-wf_sqrt.o)
                                                  /opt/paparazzi/arm-multilib/lib/gcc/arm-none-eabi/4.6.2/../../../../arm-none-eabi/lib/thumb2/libm.a(lib_a-wf_pow.o)
                                                  /opt/paparazzi/arm-multilib/lib/gcc/arm-none-eabi/4.6.2/../../../../arm-none-eabi/lib/thumb2/libm.a(lib_a-wf_asin.o)
                                                  /opt/paparazzi/arm-multilib/lib/gcc/arm-none-eabi/4.6.2/../../../../arm-none-eabi/lib/thumb2/libm.a(lib_a-w_sqrt.o)
                                                  /opt/paparazzi/arm-multilib/lib/gcc/arm-none-eabi/4.6.2/../../../../arm-none-eabi/lib/thumb2/libm.a(lib_a-w_sinh.o)
                                                  /opt/paparazzi/arm-multilib/lib/gcc/arm-none-eabi/4.6.2/../../../../arm-none-eabi/lib/thumb2/libm.a(lib_a-w_pow.o)
                                                  /opt/paparazzi/arm-multilib/lib/gcc/arm-none-eabi/4.6.2/../../../../arm-none-eabi/lib/thumb2/libm.a(lib_a-w_log.o)
                                                  /opt/paparazzi/arm-multilib/lib/gcc/arm-none-eabi/4.6.2/../../../../arm-none-eabi/lib/thumb2/libm.a(lib_a-w_exp.o)
                                                  /opt/paparazzi/arm-multilib/lib/gcc/arm-none-eabi/4.6.2/../../../../arm-none-eabi/lib/thumb2/libm.a(lib_a-w_cosh.o)
                                                  /opt/paparazzi/arm-multilib/lib/gcc/arm-none-eabi/4.6.2/../../../../arm-none-eabi/lib/thumb2/libm.a(lib_a-w_asin.o)
__fixdfsi                                         /opt/paparazzi/arm-multilib/lib/gcc/arm-none-eabi/4.6.2/thumb2/libgcc.a(_arm_fixdfsi.o)
__fixsfsi                                         /opt/paparazzi/arm-multilib/lib/gcc/arm-none-eabi/4.6.2/thumb2/libgcc.a(_arm_fixsfsi.o)
__fixunsdfsi                                      /opt/paparazzi/arm-multilib/lib/gcc/arm-none-eabi/4.6.2/thumb2/libgcc.a(_arm_fixunsdfsi.o)
__fixunssfsi                                      /opt/paparazzi/arm-multilib/lib/gcc/arm-none-eabi/4.6.2/thumb2/libgcc.a(_arm_fixunssfsi.o)
__floatdidf                                       /opt/paparazzi/arm-multilib/lib/gcc/arm-none-eabi/4.6.2/thumb2/libgcc.a(_arm_addsubdf3.o)
__floatdisf                                       /opt/paparazzi/arm-multilib/lib/gcc/arm-none-eabi/4.6.2/thumb2/libgcc.a(_arm_addsubsf3.o)
__floatsidf                                       /opt/paparazzi/arm-multilib/lib/gcc/arm-none-eabi/4.6.2/thumb2/libgcc.a(_arm_addsubdf3.o)
__floatsisf                                       /opt/paparazzi/arm-multilib/lib/gcc/arm-none-eabi/4.6.2/thumb2/libgcc.a(_arm_addsubsf3.o)
__floatundidf                                     /opt/paparazzi/arm-multilib/lib/gcc/arm-none-eabi/4.6.2/thumb2/libgcc.a(_arm_addsubdf3.o)
__floatundisf                                     /opt/paparazzi/arm-multilib/lib/gcc/arm-none-eabi/4.6.2/thumb2/libgcc.a(_arm_addsubsf3.o)
__floatunsidf                                     /opt/paparazzi/arm-multilib/lib/gcc/arm-none-eabi/4.6.2/thumb2/libgcc.a(_arm_addsubdf3.o)
__floatunsisf                                     /opt/paparazzi/arm-multilib/lib/gcc/arm-none-eabi/4.6.2/thumb2/libgcc.a(_arm_addsubsf3.o)
__fpclassifyd                                     /opt/paparazzi/arm-multilib/lib/gcc/arm-none-eabi/4.6.2/../../../../arm-none-eabi/lib/thumb2/libm.a(lib_a-s_fpclassify.o)
                                                  /opt/paparazzi/arm-multilib/lib/gcc/arm-none-eabi/4.6.2/../../../../arm-none-eabi/lib/thumb2/libm.a(lib_a-w_sqrt.o)
                                                  /opt/paparazzi/arm-multilib/lib/gcc/arm-none-eabi/4.6.2/../../../../arm-none-eabi/lib/thumb2/libm.a(lib_a-w_pow.o)
                                                  /opt/paparazzi/arm-multilib/lib/gcc/arm-none-eabi/4.6.2/../../../../arm-none-eabi/lib/thumb2/libm.a(lib_a-w_log.o)
                                                  /opt/paparazzi/arm-multilib/lib/gcc/arm-none-eabi/4.6.2/../../../../arm-none-eabi/lib/thumb2/libm.a(lib_a-w_cosh.o)
                                                  /opt/paparazzi/arm-multilib/lib/gcc/arm-none-eabi/4.6.2/../../../../arm-none-eabi/lib/thumb2/libm.a(lib_a-w_asin.o)
__fpclassifyf                                     /opt/paparazzi/arm-multilib/lib/gcc/arm-none-eabi/4.6.2/../../../../arm-none-eabi/lib/thumb2/libm.a(lib_a-sf_fpclassify.o)
                                                  /opt/paparazzi/arm-multilib/lib/gcc/arm-none-eabi/4.6.2/../../../../arm-none-eabi/lib/thumb2/libm.a(lib_a-wf_sqrt.o)
                                                  /opt/paparazzi/arm-multilib/lib/gcc/arm-none-eabi/4.6.2/../../../../arm-none-eabi/lib/thumb2/libm.a(lib_a-wf_pow.o)
                                                  /opt/paparazzi/arm-multilib/lib/gcc/arm-none-eabi/4.6.2/../../../../arm-none-eabi/lib/thumb2/libm.a(lib_a-wf_asin.o)
__gedf2                                           /opt/paparazzi/arm-multilib/lib/gcc/arm-none-eabi/4.6.2/thumb2/libgcc.a(_arm_cmpdf2.o)
__gesf2                                           /opt/paparazzi/arm-multilib/lib/gcc/arm-none-eabi/4.6.2/thumb2/libgcc.a(_arm_cmpsf2.o)
__gtdf2                                           /opt/paparazzi/arm-multilib/lib/gcc/arm-none-eabi/4.6.2/thumb2/libgcc.a(_arm_cmpdf2.o)
__gtsf2                                           /opt/paparazzi/arm-multilib/lib/gcc/arm-none-eabi/4.6.2/thumb2/libgcc.a(_arm_cmpsf2.o)
__ieee754_asin                                    /opt/paparazzi/arm-multilib/lib/gcc/arm-none-eabi/4.6.2/../../../../arm-none-eabi/lib/thumb2/libm.a(lib_a-e_asin.o)
                                                  /opt/paparazzi/arm-multilib/lib/gcc/arm-none-eabi/4.6.2/../../../../arm-none-eabi/lib/thumb2/libm.a(lib_a-w_asin.o)
__ieee754_asinf                                   /opt/paparazzi/arm-multilib/lib/gcc/arm-none-eabi/4.6.2/../../../../arm-none-eabi/lib/thumb2/libm.a(lib_a-ef_asin.o)
                                                  /opt/paparazzi/arm-multilib/lib/gcc/arm-none-eabi/4.6.2/../../../../arm-none-eabi/lib/thumb2/libm.a(lib_a-wf_asin.o)
__ieee754_atan2                                   /opt/paparazzi/arm-multilib/lib/gcc/arm-none-eabi/4.6.2/../../../../arm-none-eabi/lib/thumb2/libm.a(lib_a-e_atan2.o)
                                                  /opt/paparazzi/arm-multilib/lib/gcc/arm-none-eabi/4.6.2/../../../../arm-none-eabi/lib/thumb2/libm.a(lib_a-w_atan2.o)
__ieee754_atan2f                                  /opt/paparazzi/arm-multilib/lib/gcc/arm-none-eabi/4.6.2/../../../../arm-none-eabi/lib/thumb2/libm.a(lib_a-ef_atan2.o)
                                                  /opt/paparazzi/arm-multilib/lib/gcc/arm-none-eabi/4.6.2/../../../../arm-none-eabi/lib/thumb2/libm.a(lib_a-wf_atan2.o)
__ieee754_cosh                                    /opt/paparazzi/arm-multilib/lib/gcc/arm-none-eabi/4.6.2/../../../../arm-none-eabi/lib/thumb2/libm.a(lib_a-e_cosh.o)
                                                  /opt/paparazzi/arm-multilib/lib/gcc/arm-none-eabi/4.6.2/../../../../arm-none-eabi/lib/thumb2/libm.a(lib_a-w_cosh.o)
__ieee754_exp                                     /opt/paparazzi/arm-multilib/lib/gcc/arm-none-eabi/4.6.2/../../../../arm-none-eabi/lib/thumb2/libm.a(lib_a-e_exp.o)
                                                  /opt/paparazzi/arm-multilib/lib/gcc/arm-none-eabi/4.6.2/../../../../arm-none-eabi/lib/thumb2/libm.a(lib_a-e_sinh.o)
                                                  /opt/paparazzi/arm-multilib/lib/gcc/arm-none-eabi/4.6.2/../../../../arm-none-eabi/lib/thumb2/libm.a(lib_a-e_cosh.o)
                                                  /opt/paparazzi/arm-multilib/lib/gcc/arm-none-eabi/4.6.2/../../../../arm-none-eabi/lib/thumb2/libm.a(lib_a-w_exp.o)
__ieee754_log                                     /opt/paparazzi/arm-multilib/lib/gcc/arm-none-eabi/4.6.2/../../../../arm-none-eabi/lib/thumb2/libm.a(lib_a-e_log.o)
                                                  /opt/paparazzi/arm-multilib/lib/gcc/arm-none-eabi/4.6.2/../../../../arm-none-eabi/lib/thumb2/libm.a(lib_a-w_log.o)
__ieee754_pow                                     /opt/paparazzi/arm-multilib/lib/gcc/arm-none-eabi/4.6.2/../../../../arm-none-eabi/lib/thumb2/libm.a(lib_a-e_pow.o)
                                                  /opt/paparazzi/arm-multilib/lib/gcc/arm-none-eabi/4.6.2/../../../../arm-none-eabi/lib/thumb2/libm.a(lib_a-w_pow.o)
__ieee754_powf                                    /opt/paparazzi/arm-multilib/lib/gcc/arm-none-eabi/4.6.2/../../../../arm-none-eabi/lib/thumb2/libm.a(lib_a-ef_pow.o)
                                                  /opt/paparazzi/arm-multilib/lib/gcc/arm-none-eabi/4.6.2/../../../../arm-none-eabi/lib/thumb2/libm.a(lib_a-wf_pow.o)
__ieee754_rem_pio2                                /opt/paparazzi/arm-multilib/lib/gcc/arm-none-eabi/4.6.2/../../../../arm-none-eabi/lib/thumb2/libm.a(lib_a-e_rem_pio2.o)
                                                  /opt/paparazzi/arm-multilib/lib/gcc/arm-none-eabi/4.6.2/../../../../arm-none-eabi/lib/thumb2/libm.a(lib_a-s_tan.o)
                                                  /opt/paparazzi/arm-multilib/lib/gcc/arm-none-eabi/4.6.2/../../../../arm-none-eabi/lib/thumb2/libm.a(lib_a-s_sin.o)
                                                  /opt/paparazzi/arm-multilib/lib/gcc/arm-none-eabi/4.6.2/../../../../arm-none-eabi/lib/thumb2/libm.a(lib_a-s_cos.o)
__ieee754_rem_pio2f                               /opt/paparazzi/arm-multilib/lib/gcc/arm-none-eabi/4.6.2/../../../../arm-none-eabi/lib/thumb2/libm.a(lib_a-ef_rem_pio2.o)
                                                  /opt/paparazzi/arm-multilib/lib/gcc/arm-none-eabi/4.6.2/../../../../arm-none-eabi/lib/thumb2/libm.a(lib_a-sf_sin.o)
                                                  /opt/paparazzi/arm-multilib/lib/gcc/arm-none-eabi/4.6.2/../../../../arm-none-eabi/lib/thumb2/libm.a(lib_a-sf_cos.o)
__ieee754_sinh                                    /opt/paparazzi/arm-multilib/lib/gcc/arm-none-eabi/4.6.2/../../../../arm-none-eabi/lib/thumb2/libm.a(lib_a-e_sinh.o)
                                                  /opt/paparazzi/arm-multilib/lib/gcc/arm-none-eabi/4.6.2/../../../../arm-none-eabi/lib/thumb2/libm.a(lib_a-w_sinh.o)
__ieee754_sqrt                                    /opt/paparazzi/arm-multilib/lib/gcc/arm-none-eabi/4.6.2/../../../../arm-none-eabi/lib/thumb2/libm.a(lib_a-e_sqrt.o)
                                                  /opt/paparazzi/arm-multilib/lib/gcc/arm-none-eabi/4.6.2/../../../../arm-none-eabi/lib/thumb2/libm.a(lib_a-e_pow.o)
                                                  /opt/paparazzi/arm-multilib/lib/gcc/arm-none-eabi/4.6.2/../../../../arm-none-eabi/lib/thumb2/libm.a(lib_a-e_asin.o)
                                                  /opt/paparazzi/arm-multilib/lib/gcc/arm-none-eabi/4.6.2/../../../../arm-none-eabi/lib/thumb2/libm.a(lib_a-w_sqrt.o)
__ieee754_sqrtf                                   /opt/paparazzi/arm-multilib/lib/gcc/arm-none-eabi/4.6.2/../../../../arm-none-eabi/lib/thumb2/libm.a(lib_a-ef_sqrt.o)
                                                  /opt/paparazzi/arm-multilib/lib/gcc/arm-none-eabi/4.6.2/../../../../arm-none-eabi/lib/thumb2/libm.a(lib_a-ef_pow.o)
                                                  /opt/paparazzi/arm-multilib/lib/gcc/arm-none-eabi/4.6.2/../../../../arm-none-eabi/lib/thumb2/libm.a(lib_a-ef_asin.o)
                                                  /opt/paparazzi/arm-multilib/lib/gcc/arm-none-eabi/4.6.2/../../../../arm-none-eabi/lib/thumb2/libm.a(lib_a-wf_sqrt.o)
__kernel_cos                                      /opt/paparazzi/arm-multilib/lib/gcc/arm-none-eabi/4.6.2/../../../../arm-none-eabi/lib/thumb2/libm.a(lib_a-k_cos.o)
                                                  /opt/paparazzi/arm-multilib/lib/gcc/arm-none-eabi/4.6.2/../../../../arm-none-eabi/lib/thumb2/libm.a(lib_a-s_sin.o)
                                                  /opt/paparazzi/arm-multilib/lib/gcc/arm-none-eabi/4.6.2/../../../../arm-none-eabi/lib/thumb2/libm.a(lib_a-s_cos.o)
__kernel_cosf                                     /opt/paparazzi/arm-multilib/lib/gcc/arm-none-eabi/4.6.2/../../../../arm-none-eabi/lib/thumb2/libm.a(lib_a-kf_cos.o)
                                                  /opt/paparazzi/arm-multilib/lib/gcc/arm-none-eabi/4.6.2/../../../../arm-none-eabi/lib/thumb2/libm.a(lib_a-sf_sin.o)
                                                  /opt/paparazzi/arm-multilib/lib/gcc/arm-none-eabi/4.6.2/../../../../arm-none-eabi/lib/thumb2/libm.a(lib_a-sf_cos.o)
__kernel_rem_pio2                                 /opt/paparazzi/arm-multilib/lib/gcc/arm-none-eabi/4.6.2/../../../../arm-none-eabi/lib/thumb2/libm.a(lib_a-k_rem_pio2.o)
                                                  /opt/paparazzi/arm-multilib/lib/gcc/arm-none-eabi/4.6.2/../../../../arm-none-eabi/lib/thumb2/libm.a(lib_a-e_rem_pio2.o)
__kernel_rem_pio2f                                /opt/paparazzi/arm-multilib/lib/gcc/arm-none-eabi/4.6.2/../../../../arm-none-eabi/lib/thumb2/libm.a(lib_a-kf_rem_pio2.o)
                                                  /opt/paparazzi/arm-multilib/lib/gcc/arm-none-eabi/4.6.2/../../../../arm-none-eabi/lib/thumb2/libm.a(lib_a-ef_rem_pio2.o)
__kernel_sin                                      /opt/paparazzi/arm-multilib/lib/gcc/arm-none-eabi/4.6.2/../../../../arm-none-eabi/lib/thumb2/libm.a(lib_a-k_sin.o)
                                                  /opt/paparazzi/arm-multilib/lib/gcc/arm-none-eabi/4.6.2/../../../../arm-none-eabi/lib/thumb2/libm.a(lib_a-s_sin.o)
                                                  /opt/paparazzi/arm-multilib/lib/gcc/arm-none-eabi/4.6.2/../../../../arm-none-eabi/lib/thumb2/libm.a(lib_a-s_cos.o)
__kernel_sinf                                     /opt/paparazzi/arm-multilib/lib/gcc/arm-none-eabi/4.6.2/../../../../arm-none-eabi/lib/thumb2/libm.a(lib_a-kf_sin.o)
                                                  /opt/paparazzi/arm-multilib/lib/gcc/arm-none-eabi/4.6.2/../../../../arm-none-eabi/lib/thumb2/libm.a(lib_a-sf_sin.o)
                                                  /opt/paparazzi/arm-multilib/lib/gcc/arm-none-eabi/4.6.2/../../../../arm-none-eabi/lib/thumb2/libm.a(lib_a-sf_cos.o)
__kernel_tan                                      /opt/paparazzi/arm-multilib/lib/gcc/arm-none-eabi/4.6.2/../../../../arm-none-eabi/lib/thumb2/libm.a(lib_a-k_tan.o)
                                                  /opt/paparazzi/arm-multilib/lib/gcc/arm-none-eabi/4.6.2/../../../../arm-none-eabi/lib/thumb2/libm.a(lib_a-s_tan.o)
__ledf2                                           /opt/paparazzi/arm-multilib/lib/gcc/arm-none-eabi/4.6.2/thumb2/libgcc.a(_arm_cmpdf2.o)
__lesf2                                           /opt/paparazzi/arm-multilib/lib/gcc/arm-none-eabi/4.6.2/thumb2/libgcc.a(_arm_cmpsf2.o)
__ltdf2                                           /opt/paparazzi/arm-multilib/lib/gcc/arm-none-eabi/4.6.2/thumb2/libgcc.a(_arm_cmpdf2.o)
__ltsf2                                           /opt/paparazzi/arm-multilib/lib/gcc/arm-none-eabi/4.6.2/thumb2/libgcc.a(_arm_cmpsf2.o)
__muldf3                                          /opt/paparazzi/arm-multilib/lib/gcc/arm-none-eabi/4.6.2/thumb2/libgcc.a(_arm_muldivdf3.o)
__mulsf3                                          /opt/paparazzi/arm-multilib/lib/gcc/arm-none-eabi/4.6.2/thumb2/libgcc.a(_arm_muldivsf3.o)
__nedf2                                           /opt/paparazzi/arm-multilib/lib/gcc/arm-none-eabi/4.6.2/thumb2/libgcc.a(_arm_cmpdf2.o)
__nesf2                                           /opt/paparazzi/arm-multilib/lib/gcc/arm-none-eabi/4.6.2/thumb2/libgcc.a(_arm_cmpsf2.o)
__subdf3                                          /opt/paparazzi/arm-multilib/lib/gcc/arm-none-eabi/4.6.2/thumb2/libgcc.a(_arm_addsubdf3.o)
__subsf3                                          /opt/paparazzi/arm-multilib/lib/gcc/arm-none-eabi/4.6.2/thumb2/libgcc.a(_arm_addsubsf3.o)
__truncdfsf2                                      /opt/paparazzi/arm-multilib/lib/gcc/arm-none-eabi/4.6.2/thumb2/libgcc.a(_arm_truncdfsf2.o)
_close                                            /home/uav/USTUAV/paparazzi/var/MYAC/ap/lisa/plug_sys.o
_ebss                                             /home/uav/USTUAV/paparazzi/var/MYAC/ap/arch/stm32/stm32_vector_table.o
_edata                                            /home/uav/USTUAV/paparazzi/var/MYAC/ap/arch/stm32/stm32_vector_table.o
_estack                                           /home/uav/USTUAV/paparazzi/var/MYAC/ap/arch/stm32/stm32_vector_table.o
_global_impure_ptr                                /opt/paparazzi/arm-multilib/lib/gcc/arm-none-eabi/4.6.2/../../../../arm-none-eabi/lib/thumb2/libc.a(lib_a-impure.o)
_impure_ptr                                       /opt/paparazzi/arm-multilib/lib/gcc/arm-none-eabi/4.6.2/../../../../arm-none-eabi/lib/thumb2/libc.a(lib_a-impure.o)
                                                  /opt/paparazzi/arm-multilib/lib/gcc/arm-none-eabi/4.6.2/../../../../arm-none-eabi/lib/thumb2/libc.a(lib_a-errno.o)
_lseek                                            /home/uav/USTUAV/paparazzi/var/MYAC/ap/lisa/plug_sys.o
_read                                             /home/uav/USTUAV/paparazzi/var/MYAC/ap/lisa/plug_sys.o
_sbrk                                             /home/uav/USTUAV/paparazzi/var/MYAC/ap/lisa/plug_sys.o
_sbss                                             /home/uav/USTUAV/paparazzi/var/MYAC/ap/arch/stm32/stm32_vector_table.o
_sdata                                            /home/uav/USTUAV/paparazzi/var/MYAC/ap/arch/stm32/stm32_vector_table.o
_sidata                                           /home/uav/USTUAV/paparazzi/var/MYAC/ap/arch/stm32/stm32_vector_table.o
_write                                            /home/uav/USTUAV/paparazzi/var/MYAC/ap/lisa/plug_sys.o
abort                                             /home/uav/USTUAV/paparazzi/var/MYAC/ap/lisa/plug_sys.o
accel_float                                       /home/uav/USTUAV/paparazzi/var/MYAC/ap/subsystems/ahrs/ahrs_float_dcm.o
acs_idx                                           /home/uav/USTUAV/paparazzi/var/MYAC/ap/subsystems/navigation/traffic_info.o
                                                  /home/uav/USTUAV/paparazzi/var/MYAC/ap/firmwares/fixedwing/datalink.o
actuators                                         /home/uav/USTUAV/paparazzi/var/MYAC/ap/actuators.o
                                                  /home/uav/USTUAV/paparazzi/var/MYAC/ap/firmwares/fixedwing/main_fbw.o
actuators_init                                    /home/uav/USTUAV/paparazzi/var/MYAC/ap/arch/stm32/servos_direct_hw.o
                                                  /home/uav/USTUAV/paparazzi/var/MYAC/ap/firmwares/fixedwing/main_fbw.o
actuators_pwm_arch_init                           /home/uav/USTUAV/paparazzi/var/MYAC/ap/firmwares/rotorcraft/actuators/arch/stm32/actuators_pwm_arch.o
                                                  /home/uav/USTUAV/paparazzi/var/MYAC/ap/arch/stm32/servos_direct_hw.o
actuators_pwm_commit                              /home/uav/USTUAV/paparazzi/var/MYAC/ap/firmwares/rotorcraft/actuators/arch/stm32/actuators_pwm_arch.o
                                                  /home/uav/USTUAV/paparazzi/var/MYAC/ap/firmwares/fixedwing/main_fbw.o
actuators_pwm_values                              /home/uav/USTUAV/paparazzi/var/MYAC/ap/arch/stm32/servos_direct_hw.o
                                                  /home/uav/USTUAV/paparazzi/var/MYAC/ap/firmwares/rotorcraft/actuators/arch/stm32/actuators_pwm_arch.o
                                                  /home/uav/USTUAV/paparazzi/var/MYAC/ap/firmwares/fixedwing/main_fbw.o
adc1_2_irq_handler                                /home/uav/USTUAV/paparazzi/var/MYAC/ap/arch/stm32/mcu_periph/adc_arch.o
                                                  /home/uav/USTUAV/paparazzi/var/MYAC/ap/arch/stm32/stm32_vector_table.o
adc_buf_channel                                   /home/uav/USTUAV/paparazzi/var/MYAC/ap/arch/stm32/mcu_periph/adc_arch.o
                                                  /home/uav/USTUAV/paparazzi/var/MYAC/ap/subsystems/electrical.o
adc_init                                          /home/uav/USTUAV/paparazzi/var/MYAC/ap/arch/stm32/mcu_periph/adc_arch.o
                                                  /home/uav/USTUAV/paparazzi/var/MYAC/ap/mcu.o
adc_new_data_trigger                              /home/uav/USTUAV/paparazzi/var/MYAC/ap/arch/stm32/mcu_periph/adc_arch.o
ahrs                                              /home/uav/USTUAV/paparazzi/var/MYAC/ap/subsystems/ahrs.o
                                                  /home/uav/USTUAV/paparazzi/var/MYAC/ap/subsystems/ahrs/ahrs_float_dcm.o
                                                  /home/uav/USTUAV/paparazzi/var/MYAC/ap/firmwares/fixedwing/main_ap.o
ahrs_align                                        /home/uav/USTUAV/paparazzi/var/MYAC/ap/subsystems/ahrs/ahrs_float_dcm.o
                                                  /home/uav/USTUAV/paparazzi/var/MYAC/ap/firmwares/fixedwing/main_ap.o
ahrs_aligner                                      /home/uav/USTUAV/paparazzi/var/MYAC/ap/subsystems/ahrs/ahrs_aligner.o
                                                  /home/uav/USTUAV/paparazzi/var/MYAC/ap/subsystems/ahrs/ahrs_float_dcm.o
                                                  /home/uav/USTUAV/paparazzi/var/MYAC/ap/firmwares/fixedwing/main_ap.o
ahrs_aligner_init                                 /home/uav/USTUAV/paparazzi/var/MYAC/ap/subsystems/ahrs/ahrs_aligner.o
                                                  /home/uav/USTUAV/paparazzi/var/MYAC/ap/firmwares/fixedwing/main_ap.o
ahrs_aligner_run                                  /home/uav/USTUAV/paparazzi/var/MYAC/ap/subsystems/ahrs/ahrs_aligner.o
                                                  /home/uav/USTUAV/paparazzi/var/MYAC/ap/firmwares/fixedwing/main_ap.o
ahrs_float                                        /home/uav/USTUAV/paparazzi/var/MYAC/ap/subsystems/ahrs.o
                                                  /home/uav/USTUAV/paparazzi/var/MYAC/ap/subsystems/ahrs/ahrs_float_dcm.o
ahrs_impl                                         /home/uav/USTUAV/paparazzi/var/MYAC/ap/subsystems/ahrs/ahrs_float_dcm.o
ahrs_init                                         /home/uav/USTUAV/paparazzi/var/MYAC/ap/subsystems/ahrs/ahrs_float_dcm.o
                                                  /home/uav/USTUAV/paparazzi/var/MYAC/ap/firmwares/fixedwing/main_ap.o
ahrs_mag_offset                                   /home/uav/USTUAV/paparazzi/var/MYAC/ap/subsystems/ahrs.o
ahrs_propagate                                    /home/uav/USTUAV/paparazzi/var/MYAC/ap/subsystems/ahrs/ahrs_float_dcm.o
                                                  /home/uav/USTUAV/paparazzi/var/MYAC/ap/firmwares/fixedwing/main_ap.o
ahrs_timeout_counter                              /home/uav/USTUAV/paparazzi/var/MYAC/ap/firmwares/fixedwing/main_ap.o
ahrs_update_accel                                 /home/uav/USTUAV/paparazzi/var/MYAC/ap/subsystems/ahrs/ahrs_float_dcm.o
                                                  /home/uav/USTUAV/paparazzi/var/MYAC/ap/firmwares/fixedwing/main_ap.o
ahrs_update_fw_estimator                          /home/uav/USTUAV/paparazzi/var/MYAC/ap/subsystems/ahrs/ahrs_float_dcm.o
                                                  /home/uav/USTUAV/paparazzi/var/MYAC/ap/firmwares/fixedwing/main_ap.o
ahrs_update_gps                                   /home/uav/USTUAV/paparazzi/var/MYAC/ap/subsystems/ahrs/ahrs_float_dcm.o
                                                  /home/uav/USTUAV/paparazzi/var/MYAC/ap/firmwares/fixedwing/main_ap.o
ahrs_update_mag                                   /home/uav/USTUAV/paparazzi/var/MYAC/ap/subsystems/ahrs/ahrs_float_dcm.o
alt_kalman                                        /home/uav/USTUAV/paparazzi/var/MYAC/ap/./estimator.o
alt_kalman_enabled                                /home/uav/USTUAV/paparazzi/var/MYAC/ap/./estimator.o
alt_kalman_init                                   /home/uav/USTUAV/paparazzi/var/MYAC/ap/./estimator.o
                                                  /home/uav/USTUAV/paparazzi/var/MYAC/ap/firmwares/fixedwing/main_ap.o
alt_kalman_reset                                  /home/uav/USTUAV/paparazzi/var/MYAC/ap/./estimator.o
ap_ok                                             /home/uav/USTUAV/paparazzi/var/MYAC/ap/./inter_mcu.o
                                                  /home/uav/USTUAV/paparazzi/var/MYAC/ap/firmwares/fixedwing/main_fbw.o
ap_state                                          /home/uav/USTUAV/paparazzi/var/MYAC/ap/./inter_mcu.o
                                                  /home/uav/USTUAV/paparazzi/var/MYAC/ap/firmwares/fixedwing/main_ap.o
                                                  /home/uav/USTUAV/paparazzi/var/MYAC/ap/firmwares/fixedwing/main_fbw.o
asin                                              /opt/paparazzi/arm-multilib/lib/gcc/arm-none-eabi/4.6.2/../../../../arm-none-eabi/lib/thumb2/libm.a(lib_a-w_asin.o)
                                                  /home/uav/USTUAV/paparazzi/var/MYAC/ap/subsystems/ahrs/ahrs_float_dcm.o
                                                  /home/uav/USTUAV/paparazzi/var/MYAC/ap/math/pprz_geodetic_double.o
                                                  /home/uav/USTUAV/paparazzi/var/MYAC/ap/math/pprz_geodetic_float.o
asinf                                             /opt/paparazzi/arm-multilib/lib/gcc/arm-none-eabi/4.6.2/../../../../arm-none-eabi/lib/thumb2/libm.a(lib_a-wf_asin.o)
                                                  /home/uav/USTUAV/paparazzi/var/MYAC/ap/subsystems/ahrs/ahrs_float_dcm.o
aspirin2_mpu60x0                                  /home/uav/USTUAV/paparazzi/var/MYAC/ap/subsystems/imu/imu_aspirin2.o
assert_param                                      /home/uav/USTUAV/paparazzi/var/MYAC/ap/arch/stm32/stm32_vector_table.o
atan                                              /opt/paparazzi/arm-multilib/lib/gcc/arm-none-eabi/4.6.2/../../../../arm-none-eabi/lib/thumb2/libm.a(lib_a-s_atan.o)
                                                  /opt/paparazzi/arm-multilib/lib/gcc/arm-none-eabi/4.6.2/../../../../arm-none-eabi/lib/thumb2/libm.a(lib_a-e_atan2.o)
                                                  /home/uav/USTUAV/paparazzi/var/MYAC/ap/subsystems/nav.o
                                                  /home/uav/USTUAV/paparazzi/var/MYAC/ap/math/pprz_geodetic_double.o
                                                  /home/uav/USTUAV/paparazzi/var/MYAC/ap/math/pprz_geodetic_float.o
atan2                                             /opt/paparazzi/arm-multilib/lib/gcc/arm-none-eabi/4.6.2/../../../../arm-none-eabi/lib/thumb2/libm.a(lib_a-w_atan2.o)
                                                  /home/uav/USTUAV/paparazzi/var/MYAC/ap/subsystems/navigation/nav_line.o
                                                  /home/uav/USTUAV/paparazzi/var/MYAC/ap/subsystems/nav.o
                                                  /home/uav/USTUAV/paparazzi/var/MYAC/ap/subsystems/ahrs/ahrs_float_dcm.o
                                                  /home/uav/USTUAV/paparazzi/var/MYAC/ap/math/pprz_geodetic_double.o
atan2f                                            /opt/paparazzi/arm-multilib/lib/gcc/arm-none-eabi/4.6.2/../../../../arm-none-eabi/lib/thumb2/libm.a(lib_a-wf_atan2.o)
                                                  /home/uav/USTUAV/paparazzi/var/MYAC/ap/subsystems/ahrs/ahrs_float_dcm.o
                                                  /home/uav/USTUAV/paparazzi/var/MYAC/ap/math/pprz_geodetic_float.o
atanf                                             /opt/paparazzi/arm-multilib/lib/gcc/arm-none-eabi/4.6.2/../../../../arm-none-eabi/lib/thumb2/libm.a(lib_a-sf_atan.o)
                                                  /opt/paparazzi/arm-multilib/lib/gcc/arm-none-eabi/4.6.2/../../../../arm-none-eabi/lib/thumb2/libm.a(lib_a-ef_atan2.o)
                                                  /home/uav/USTUAV/paparazzi/var/MYAC/ap/math/pprz_geodetic_float.o
attitude_loop                                     /home/uav/USTUAV/paparazzi/var/MYAC/ap/firmwares/fixedwing/main_ap.o
attitude_tid                                      /home/uav/USTUAV/paparazzi/var/MYAC/ap/firmwares/fixedwing/main_ap.o
block_time                                        /home/uav/USTUAV/paparazzi/var/MYAC/ap/subsystems/navigation/common_flight_plan.o
                                                  /home/uav/USTUAV/paparazzi/var/MYAC/ap/subsystems/nav.o
                                                  /home/uav/USTUAV/paparazzi/var/MYAC/ap/firmwares/fixedwing/main_ap.o
bus_fault_exception                               /home/uav/USTUAV/paparazzi/var/MYAC/ap/arch/stm32/stm32_exceptions.o
                                                  /home/uav/USTUAV/paparazzi/var/MYAC/ap/arch/stm32/stm32_vector_table.o
carrot_x                                          /home/uav/USTUAV/paparazzi/var/MYAC/ap/subsystems/nav.o
carrot_y                                          /home/uav/USTUAV/paparazzi/var/MYAC/ap/subsystems/nav.o
circle_bank                                       /home/uav/USTUAV/paparazzi/var/MYAC/ap/subsystems/nav.o
ck_a                                              /home/uav/USTUAV/paparazzi/var/MYAC/ap/subsystems/datalink/pprz_transport.o
                                                  /home/uav/USTUAV/paparazzi/var/MYAC/ap/modules/core/sys_mon.o
                                                  /home/uav/USTUAV/paparazzi/var/MYAC/ap/subsystems/gps/gps_ubx.o
                                                  /home/uav/USTUAV/paparazzi/var/MYAC/ap/firmwares/fixedwing/datalink.o
                                                  /home/uav/USTUAV/paparazzi/var/MYAC/ap/firmwares/fixedwing/main_ap.o
                                                  /home/uav/USTUAV/paparazzi/var/MYAC/ap/firmwares/fixedwing/main_fbw.o
ck_b                                              /home/uav/USTUAV/paparazzi/var/MYAC/ap/subsystems/datalink/pprz_transport.o
                                                  /home/uav/USTUAV/paparazzi/var/MYAC/ap/modules/core/sys_mon.o
                                                  /home/uav/USTUAV/paparazzi/var/MYAC/ap/subsystems/gps/gps_ubx.o
                                                  /home/uav/USTUAV/paparazzi/var/MYAC/ap/firmwares/fixedwing/datalink.o
                                                  /home/uav/USTUAV/paparazzi/var/MYAC/ap/firmwares/fixedwing/main_ap.o
                                                  /home/uav/USTUAV/paparazzi/var/MYAC/ap/firmwares/fixedwing/main_fbw.o
command_pitch_trim                                /home/uav/USTUAV/paparazzi/var/MYAC/ap/./commands.o
                                                  /home/uav/USTUAV/paparazzi/var/MYAC/ap/firmwares/fixedwing/main_fbw.o
command_roll_trim                                 /home/uav/USTUAV/paparazzi/var/MYAC/ap/./commands.o
                                                  /home/uav/USTUAV/paparazzi/var/MYAC/ap/firmwares/fixedwing/main_fbw.o
commands                                          /home/uav/USTUAV/paparazzi/var/MYAC/ap/./commands.o
                                                  /home/uav/USTUAV/paparazzi/var/MYAC/ap/subsystems/electrical.o
                                                  /home/uav/USTUAV/paparazzi/var/MYAC/ap/firmwares/fixedwing/main_fbw.o
commands_failsafe                                 /home/uav/USTUAV/paparazzi/var/MYAC/ap/./commands.o
                                                  /home/uav/USTUAV/paparazzi/var/MYAC/ap/firmwares/fixedwing/main_fbw.o
common_nav_periodic_task_4Hz                      /home/uav/USTUAV/paparazzi/var/MYAC/ap/subsystems/nav.o
                                                  /home/uav/USTUAV/paparazzi/var/MYAC/ap/firmwares/fixedwing/main_ap.o
compute_dist2_to_home                             /home/uav/USTUAV/paparazzi/var/MYAC/ap/subsystems/nav.o
copysign                                          /opt/paparazzi/arm-multilib/lib/gcc/arm-none-eabi/4.6.2/../../../../arm-none-eabi/lib/thumb2/libm.a(lib_a-s_copysign.o)
                                                  /opt/paparazzi/arm-multilib/lib/gcc/arm-none-eabi/4.6.2/../../../../arm-none-eabi/lib/thumb2/libm.a(lib_a-s_scalbn.o)
copysignf                                         /opt/paparazzi/arm-multilib/lib/gcc/arm-none-eabi/4.6.2/../../../../arm-none-eabi/lib/thumb2/libm.a(lib_a-sf_copysign.o)
                                                  /opt/paparazzi/arm-multilib/lib/gcc/arm-none-eabi/4.6.2/../../../../arm-none-eabi/lib/thumb2/libm.a(lib_a-sf_scalbn.o)
cos                                               /opt/paparazzi/arm-multilib/lib/gcc/arm-none-eabi/4.6.2/../../../../arm-none-eabi/lib/thumb2/libm.a(lib_a-s_cos.o)
                                                  /home/uav/USTUAV/paparazzi/var/MYAC/ap/subsystems/nav.o
                                                  /home/uav/USTUAV/paparazzi/var/MYAC/ap/math/pprz_geodetic_double.o
                                                  /home/uav/USTUAV/paparazzi/var/MYAC/ap/math/pprz_geodetic_float.o
cosf                                              /opt/paparazzi/arm-multilib/lib/gcc/arm-none-eabi/4.6.2/../../../../arm-none-eabi/lib/thumb2/libm.a(lib_a-sf_cos.o)
                                                  /home/uav/USTUAV/paparazzi/var/MYAC/ap/subsystems/ahrs/ahrs_float_dcm.o
                                                  /home/uav/USTUAV/paparazzi/var/MYAC/ap/math/pprz_geodetic_double.o
                                                  /home/uav/USTUAV/paparazzi/var/MYAC/ap/math/pprz_geodetic_float.o
                                                  /home/uav/USTUAV/paparazzi/var/MYAC/ap/math/pprz_geodetic_int.o
cosh                                              /opt/paparazzi/arm-multilib/lib/gcc/arm-none-eabi/4.6.2/../../../../arm-none-eabi/lib/thumb2/libm.a(lib_a-w_cosh.o)
                                                  /home/uav/USTUAV/paparazzi/var/MYAC/ap/math/pprz_geodetic_double.o
                                                  /home/uav/USTUAV/paparazzi/var/MYAC/ap/math/pprz_geodetic_float.o
datalink_time                                     /home/uav/USTUAV/paparazzi/var/MYAC/ap/firmwares/fixedwing/datalink.o
                                                  /home/uav/USTUAV/paparazzi/var/MYAC/ap/firmwares/fixedwing/main_ap.o
desired_x                                         /home/uav/USTUAV/paparazzi/var/MYAC/ap/subsystems/nav.o
                                                  /home/uav/USTUAV/paparazzi/var/MYAC/ap/firmwares/fixedwing/main_ap.o
desired_y                                         /home/uav/USTUAV/paparazzi/var/MYAC/ap/subsystems/nav.o
                                                  /home/uav/USTUAV/paparazzi/var/MYAC/ap/firmwares/fixedwing/main_ap.o
dist2_to_home                                     /home/uav/USTUAV/paparazzi/var/MYAC/ap/subsystems/nav.o
                                                  /home/uav/USTUAV/paparazzi/var/MYAC/ap/firmwares/fixedwing/datalink.o
                                                  /home/uav/USTUAV/paparazzi/var/MYAC/ap/firmwares/fixedwing/main_ap.o
dist2_to_wp                                       /home/uav/USTUAV/paparazzi/var/MYAC/ap/subsystems/nav.o
                                                  /home/uav/USTUAV/paparazzi/var/MYAC/ap/firmwares/fixedwing/datalink.o
                                                  /home/uav/USTUAV/paparazzi/var/MYAC/ap/firmwares/fixedwing/main_ap.o
dl_buffer                                         /home/uav/USTUAV/paparazzi/var/MYAC/ap/firmwares/fixedwing/datalink.o
                                                  /home/uav/USTUAV/paparazzi/var/MYAC/ap/firmwares/fixedwing/main_ap.o
dl_msg_available                                  /home/uav/USTUAV/paparazzi/var/MYAC/ap/firmwares/fixedwing/datalink.o
                                                  /home/uav/USTUAV/paparazzi/var/MYAC/ap/firmwares/fixedwing/main_ap.o
dl_parse_msg                                      /home/uav/USTUAV/paparazzi/var/MYAC/ap/firmwares/fixedwing/datalink.o
                                                  /home/uav/USTUAV/paparazzi/var/MYAC/ap/firmwares/fixedwing/main_ap.o
dma1_c4_irq_handler                               /home/uav/USTUAV/paparazzi/var/MYAC/ap/arch/stm32/mcu_periph/spi_arch.o
                                                  /home/uav/USTUAV/paparazzi/var/MYAC/ap/arch/stm32/stm32_vector_table.o
downlink_nb_bytes                                 /home/uav/USTUAV/paparazzi/var/MYAC/ap/subsystems/datalink/downlink.o
                                                  /home/uav/USTUAV/paparazzi/var/MYAC/ap/modules/core/sys_mon.o
                                                  /home/uav/USTUAV/paparazzi/var/MYAC/ap/subsystems/gps/gps_ubx.o
                                                  /home/uav/USTUAV/paparazzi/var/MYAC/ap/firmwares/fixedwing/datalink.o
                                                  /home/uav/USTUAV/paparazzi/var/MYAC/ap/firmwares/fixedwing/main_ap.o
                                                  /home/uav/USTUAV/paparazzi/var/MYAC/ap/firmwares/fixedwing/main_fbw.o
downlink_nb_msgs                                  /home/uav/USTUAV/paparazzi/var/MYAC/ap/subsystems/datalink/downlink.o
                                                  /home/uav/USTUAV/paparazzi/var/MYAC/ap/modules/core/sys_mon.o
                                                  /home/uav/USTUAV/paparazzi/var/MYAC/ap/subsystems/gps/gps_ubx.o
                                                  /home/uav/USTUAV/paparazzi/var/MYAC/ap/firmwares/fixedwing/datalink.o
                                                  /home/uav/USTUAV/paparazzi/var/MYAC/ap/firmwares/fixedwing/main_ap.o
                                                  /home/uav/USTUAV/paparazzi/var/MYAC/ap/firmwares/fixedwing/main_fbw.o
downlink_nb_ovrn                                  /home/uav/USTUAV/paparazzi/var/MYAC/ap/subsystems/datalink/downlink.o
                                                  /home/uav/USTUAV/paparazzi/var/MYAC/ap/modules/core/sys_mon.o
                                                  /home/uav/USTUAV/paparazzi/var/MYAC/ap/subsystems/gps/gps_ubx.o
                                                  /home/uav/USTUAV/paparazzi/var/MYAC/ap/firmwares/fixedwing/datalink.o
                                                  /home/uav/USTUAV/paparazzi/var/MYAC/ap/firmwares/fixedwing/main_ap.o
                                                  /home/uav/USTUAV/paparazzi/var/MYAC/ap/firmwares/fixedwing/main_fbw.o
ecef_of_enu_point_d                               /home/uav/USTUAV/paparazzi/var/MYAC/ap/math/pprz_geodetic_double.o
ecef_of_enu_point_f                               /home/uav/USTUAV/paparazzi/var/MYAC/ap/math/pprz_geodetic_float.o
ecef_of_enu_point_i                               /home/uav/USTUAV/paparazzi/var/MYAC/ap/math/pprz_geodetic_int.o
ecef_of_enu_vect_d                                /home/uav/USTUAV/paparazzi/var/MYAC/ap/math/pprz_geodetic_double.o
ecef_of_enu_vect_f                                /home/uav/USTUAV/paparazzi/var/MYAC/ap/math/pprz_geodetic_float.o
ecef_of_enu_vect_i                                /home/uav/USTUAV/paparazzi/var/MYAC/ap/math/pprz_geodetic_int.o
ecef_of_lla_d                                     /home/uav/USTUAV/paparazzi/var/MYAC/ap/math/pprz_geodetic_double.o
                                                  /home/uav/USTUAV/paparazzi/var/MYAC/ap/math/pprz_geodetic_int.o
ecef_of_lla_f                                     /home/uav/USTUAV/paparazzi/var/MYAC/ap/math/pprz_geodetic_float.o
ecef_of_lla_i                                     /home/uav/USTUAV/paparazzi/var/MYAC/ap/math/pprz_geodetic_int.o
ecef_of_ned_point_d                               /home/uav/USTUAV/paparazzi/var/MYAC/ap/math/pprz_geodetic_double.o
ecef_of_ned_point_f                               /home/uav/USTUAV/paparazzi/var/MYAC/ap/math/pprz_geodetic_float.o
ecef_of_ned_point_i                               /home/uav/USTUAV/paparazzi/var/MYAC/ap/math/pprz_geodetic_int.o
ecef_of_ned_vect_d                                /home/uav/USTUAV/paparazzi/var/MYAC/ap/math/pprz_geodetic_double.o
ecef_of_ned_vect_f                                /home/uav/USTUAV/paparazzi/var/MYAC/ap/math/pprz_geodetic_float.o
ecef_of_ned_vect_i                                /home/uav/USTUAV/paparazzi/var/MYAC/ap/math/pprz_geodetic_int.o
electrical                                        /home/uav/USTUAV/paparazzi/var/MYAC/ap/subsystems/electrical.o
                                                  /home/uav/USTUAV/paparazzi/var/MYAC/ap/firmwares/fixedwing/main_fbw.o
electrical_init                                   /home/uav/USTUAV/paparazzi/var/MYAC/ap/subsystems/electrical.o
                                                  /home/uav/USTUAV/paparazzi/var/MYAC/ap/firmwares/fixedwing/main_fbw.o
electrical_periodic                               /home/uav/USTUAV/paparazzi/var/MYAC/ap/subsystems/electrical.o
                                                  /home/uav/USTUAV/paparazzi/var/MYAC/ap/firmwares/fixedwing/main_fbw.o
electrical_tid                                    /home/uav/USTUAV/paparazzi/var/MYAC/ap/firmwares/fixedwing/main_fbw.o
energy                                            /home/uav/USTUAV/paparazzi/var/MYAC/ap/firmwares/fixedwing/main_ap.o
enu_of_ecef_point_d                               /home/uav/USTUAV/paparazzi/var/MYAC/ap/math/pprz_geodetic_double.o
enu_of_ecef_point_f                               /home/uav/USTUAV/paparazzi/var/MYAC/ap/math/pprz_geodetic_float.o
enu_of_ecef_point_i                               /home/uav/USTUAV/paparazzi/var/MYAC/ap/math/pprz_geodetic_int.o
enu_of_ecef_vect_d                                /home/uav/USTUAV/paparazzi/var/MYAC/ap/math/pprz_geodetic_double.o
enu_of_ecef_vect_f                                /home/uav/USTUAV/paparazzi/var/MYAC/ap/math/pprz_geodetic_float.o
enu_of_ecef_vect_i                                /home/uav/USTUAV/paparazzi/var/MYAC/ap/math/pprz_geodetic_int.o
enu_of_lla_point_f                                /home/uav/USTUAV/paparazzi/var/MYAC/ap/math/pprz_geodetic_float.o
enu_of_lla_point_i                                /home/uav/USTUAV/paparazzi/var/MYAC/ap/math/pprz_geodetic_int.o
enu_of_lla_vect_i                                 /home/uav/USTUAV/paparazzi/var/MYAC/ap/math/pprz_geodetic_int.o
estimator_AOA                                     /home/uav/USTUAV/paparazzi/var/MYAC/ap/./estimator.o
estimator_airspeed                                /home/uav/USTUAV/paparazzi/var/MYAC/ap/./estimator.o
                                                  /home/uav/USTUAV/paparazzi/var/MYAC/ap/firmwares/fixedwing/datalink.o
estimator_flight_time                             /home/uav/USTUAV/paparazzi/var/MYAC/ap/./estimator.o
                                                  /home/uav/USTUAV/paparazzi/var/MYAC/ap/subsystems/nav.o
                                                  /home/uav/USTUAV/paparazzi/var/MYAC/ap/firmwares/fixedwing/datalink.o
                                                  /home/uav/USTUAV/paparazzi/var/MYAC/ap/firmwares/fixedwing/main_ap.o
estimator_hspeed_dir                              /home/uav/USTUAV/paparazzi/var/MYAC/ap/./estimator.o
                                                  /home/uav/USTUAV/paparazzi/var/MYAC/ap/subsystems/navigation/nav_survey_rectangle.o
                                                  /home/uav/USTUAV/paparazzi/var/MYAC/ap/subsystems/nav.o
                                                  /home/uav/USTUAV/paparazzi/var/MYAC/ap/firmwares/fixedwing/stabilization/stabilization_attitude.o
estimator_hspeed_mod                              /home/uav/USTUAV/paparazzi/var/MYAC/ap/./estimator.o
                                                  /home/uav/USTUAV/paparazzi/var/MYAC/ap/subsystems/nav.o
                                                  /home/uav/USTUAV/paparazzi/var/MYAC/ap/firmwares/fixedwing/stabilization/stabilization_attitude.o
                                                  /home/uav/USTUAV/paparazzi/var/MYAC/ap/firmwares/fixedwing/main_ap.o
estimator_init                                    /home/uav/USTUAV/paparazzi/var/MYAC/ap/./estimator.o
                                                  /home/uav/USTUAV/paparazzi/var/MYAC/ap/firmwares/fixedwing/main_ap.o
estimator_p                                       /home/uav/USTUAV/paparazzi/var/MYAC/ap/./estimator.o
                                                  /home/uav/USTUAV/paparazzi/var/MYAC/ap/subsystems/ahrs/ahrs_float_dcm.o
                                                  /home/uav/USTUAV/paparazzi/var/MYAC/ap/firmwares/fixedwing/stabilization/stabilization_attitude.o
estimator_phi                                     /home/uav/USTUAV/paparazzi/var/MYAC/ap/./estimator.o
                                                  /home/uav/USTUAV/paparazzi/var/MYAC/ap/subsystems/ahrs/ahrs_float_dcm.o
                                                  /home/uav/USTUAV/paparazzi/var/MYAC/ap/firmwares/fixedwing/stabilization/stabilization_attitude.o
                                                  /home/uav/USTUAV/paparazzi/var/MYAC/ap/firmwares/fixedwing/main_ap.o
estimator_psi                                     /home/uav/USTUAV/paparazzi/var/MYAC/ap/./estimator.o
                                                  /home/uav/USTUAV/paparazzi/var/MYAC/ap/subsystems/ahrs/ahrs_float_dcm.o
                                                  /home/uav/USTUAV/paparazzi/var/MYAC/ap/firmwares/fixedwing/main_ap.o
estimator_q                                       /home/uav/USTUAV/paparazzi/var/MYAC/ap/./estimator.o
                                                  /home/uav/USTUAV/paparazzi/var/MYAC/ap/subsystems/ahrs/ahrs_float_dcm.o
estimator_r                                       /home/uav/USTUAV/paparazzi/var/MYAC/ap/./estimator.o
                                                  /home/uav/USTUAV/paparazzi/var/MYAC/ap/subsystems/ahrs/ahrs_float_dcm.o
estimator_t                                       /home/uav/USTUAV/paparazzi/var/MYAC/ap/./estimator.o
estimator_theta                                   /home/uav/USTUAV/paparazzi/var/MYAC/ap/./estimator.o
                                                  /home/uav/USTUAV/paparazzi/var/MYAC/ap/subsystems/ahrs/ahrs_float_dcm.o
                                                  /home/uav/USTUAV/paparazzi/var/MYAC/ap/firmwares/fixedwing/stabilization/stabilization_attitude.o
                                                  /home/uav/USTUAV/paparazzi/var/MYAC/ap/firmwares/fixedwing/main_ap.o
estimator_update_state_gps                        /home/uav/USTUAV/paparazzi/var/MYAC/ap/./estimator.o
                                                  /home/uav/USTUAV/paparazzi/var/MYAC/ap/firmwares/fixedwing/main_ap.o
estimator_x                                       /home/uav/USTUAV/paparazzi/var/MYAC/ap/./estimator.o
                                                  /home/uav/USTUAV/paparazzi/var/MYAC/ap/subsystems/navigation/nav_survey_rectangle.o
                                                  /home/uav/USTUAV/paparazzi/var/MYAC/ap/subsystems/nav.o
                                                  /home/uav/USTUAV/paparazzi/var/MYAC/ap/firmwares/fixedwing/datalink.o
                                                  /home/uav/USTUAV/paparazzi/var/MYAC/ap/firmwares/fixedwing/main_ap.o
estimator_y                                       /home/uav/USTUAV/paparazzi/var/MYAC/ap/./estimator.o
                                                  /home/uav/USTUAV/paparazzi/var/MYAC/ap/subsystems/navigation/nav_survey_rectangle.o
                                                  /home/uav/USTUAV/paparazzi/var/MYAC/ap/subsystems/nav.o
                                                  /home/uav/USTUAV/paparazzi/var/MYAC/ap/firmwares/fixedwing/datalink.o
                                                  /home/uav/USTUAV/paparazzi/var/MYAC/ap/firmwares/fixedwing/main_ap.o
estimator_z                                       /home/uav/USTUAV/paparazzi/var/MYAC/ap/./estimator.o
                                                  /home/uav/USTUAV/paparazzi/var/MYAC/ap/subsystems/nav.o
                                                  /home/uav/USTUAV/paparazzi/var/MYAC/ap/firmwares/fixedwing/guidance/guidance_v.o
                                                  /home/uav/USTUAV/paparazzi/var/MYAC/ap/firmwares/fixedwing/main_ap.o
estimator_z_dot                                   /home/uav/USTUAV/paparazzi/var/MYAC/ap/./estimator.o
                                                  /home/uav/USTUAV/paparazzi/var/MYAC/ap/firmwares/fixedwing/guidance/guidance_v.o
                                                  /home/uav/USTUAV/paparazzi/var/MYAC/ap/firmwares/fixedwing/main_ap.o
event_sysmon                                      /home/uav/USTUAV/paparazzi/var/MYAC/ap/modules/core/sys_mon.o
                                                  /home/uav/USTUAV/paparazzi/var/MYAC/ap/firmwares/fixedwing/main_ap.o
event_task_ap                                     /home/uav/USTUAV/paparazzi/var/MYAC/ap/firmwares/fixedwing/main_ap.o
                                                  /home/uav/USTUAV/paparazzi/var/MYAC/ap/firmwares/fixedwing/main.o
event_task_fbw                                    /home/uav/USTUAV/paparazzi/var/MYAC/ap/firmwares/fixedwing/main_fbw.o
                                                  /home/uav/USTUAV/paparazzi/var/MYAC/ap/firmwares/fixedwing/main.o
event_timer                                       /home/uav/USTUAV/paparazzi/var/MYAC/ap/modules/core/sys_mon.o
exp                                               /opt/paparazzi/arm-multilib/lib/gcc/arm-none-eabi/4.6.2/../../../../arm-none-eabi/lib/thumb2/libm.a(lib_a-w_exp.o)
                                                  /home/uav/USTUAV/paparazzi/var/MYAC/ap/math/pprz_geodetic_double.o
                                                  /home/uav/USTUAV/paparazzi/var/MYAC/ap/math/pprz_geodetic_float.o
expm1                                             /opt/paparazzi/arm-multilib/lib/gcc/arm-none-eabi/4.6.2/../../../../arm-none-eabi/lib/thumb2/libm.a(lib_a-s_expm1.o)
                                                  /opt/paparazzi/arm-multilib/lib/gcc/arm-none-eabi/4.6.2/../../../../arm-none-eabi/lib/thumb2/libm.a(lib_a-e_sinh.o)
                                                  /opt/paparazzi/arm-multilib/lib/gcc/arm-none-eabi/4.6.2/../../../../arm-none-eabi/lib/thumb2/libm.a(lib_a-e_cosh.o)
fabs                                              /opt/paparazzi/arm-multilib/lib/gcc/arm-none-eabi/4.6.2/../../../../arm-none-eabi/lib/thumb2/libm.a(lib_a-s_fabs.o)
                                                  /opt/paparazzi/arm-multilib/lib/gcc/arm-none-eabi/4.6.2/../../../../arm-none-eabi/lib/thumb2/libm.a(lib_a-k_tan.o)
                                                  /opt/paparazzi/arm-multilib/lib/gcc/arm-none-eabi/4.6.2/../../../../arm-none-eabi/lib/thumb2/libm.a(lib_a-e_sinh.o)
                                                  /opt/paparazzi/arm-multilib/lib/gcc/arm-none-eabi/4.6.2/../../../../arm-none-eabi/lib/thumb2/libm.a(lib_a-e_rem_pio2.o)
                                                  /opt/paparazzi/arm-multilib/lib/gcc/arm-none-eabi/4.6.2/../../../../arm-none-eabi/lib/thumb2/libm.a(lib_a-e_pow.o)
                                                  /opt/paparazzi/arm-multilib/lib/gcc/arm-none-eabi/4.6.2/../../../../arm-none-eabi/lib/thumb2/libm.a(lib_a-e_cosh.o)
                                                  /opt/paparazzi/arm-multilib/lib/gcc/arm-none-eabi/4.6.2/../../../../arm-none-eabi/lib/thumb2/libm.a(lib_a-e_atan2.o)
                                                  /opt/paparazzi/arm-multilib/lib/gcc/arm-none-eabi/4.6.2/../../../../arm-none-eabi/lib/thumb2/libm.a(lib_a-e_asin.o)
                                                  /opt/paparazzi/arm-multilib/lib/gcc/arm-none-eabi/4.6.2/../../../../arm-none-eabi/lib/thumb2/libm.a(lib_a-w_cosh.o)
                                                  /opt/paparazzi/arm-multilib/lib/gcc/arm-none-eabi/4.6.2/../../../../arm-none-eabi/lib/thumb2/libm.a(lib_a-w_asin.o)
                                                  /opt/paparazzi/arm-multilib/lib/gcc/arm-none-eabi/4.6.2/../../../../arm-none-eabi/lib/thumb2/libm.a(lib_a-s_atan.o)
fabsf                                             /opt/paparazzi/arm-multilib/lib/gcc/arm-none-eabi/4.6.2/../../../../arm-none-eabi/lib/thumb2/libm.a(lib_a-sf_fabs.o)
                                                  /opt/paparazzi/arm-multilib/lib/gcc/arm-none-eabi/4.6.2/../../../../arm-none-eabi/lib/thumb2/libm.a(lib_a-ef_rem_pio2.o)
                                                  /opt/paparazzi/arm-multilib/lib/gcc/arm-none-eabi/4.6.2/../../../../arm-none-eabi/lib/thumb2/libm.a(lib_a-ef_pow.o)
                                                  /opt/paparazzi/arm-multilib/lib/gcc/arm-none-eabi/4.6.2/../../../../arm-none-eabi/lib/thumb2/libm.a(lib_a-ef_atan2.o)
                                                  /opt/paparazzi/arm-multilib/lib/gcc/arm-none-eabi/4.6.2/../../../../arm-none-eabi/lib/thumb2/libm.a(lib_a-ef_asin.o)
                                                  /opt/paparazzi/arm-multilib/lib/gcc/arm-none-eabi/4.6.2/../../../../arm-none-eabi/lib/thumb2/libm.a(lib_a-wf_asin.o)
                                                  /opt/paparazzi/arm-multilib/lib/gcc/arm-none-eabi/4.6.2/../../../../arm-none-eabi/lib/thumb2/libm.a(lib_a-sf_atan.o)
fbw_mode                                          /home/uav/USTUAV/paparazzi/var/MYAC/ap/firmwares/fixedwing/main_fbw.o
fbw_new_actuators                                 /home/uav/USTUAV/paparazzi/var/MYAC/ap/firmwares/fixedwing/main_fbw.o
fbw_periodic_tid                                  /home/uav/USTUAV/paparazzi/var/MYAC/ap/firmwares/fixedwing/main_fbw.o
fbw_state                                         /home/uav/USTUAV/paparazzi/var/MYAC/ap/./inter_mcu.o
                                                  /home/uav/USTUAV/paparazzi/var/MYAC/ap/firmwares/fixedwing/main_ap.o
                                                  /home/uav/USTUAV/paparazzi/var/MYAC/ap/firmwares/fixedwing/main_fbw.o
finite                                            /opt/paparazzi/arm-multilib/lib/gcc/arm-none-eabi/4.6.2/../../../../arm-none-eabi/lib/thumb2/libm.a(lib_a-s_finite.o)
                                                  /opt/paparazzi/arm-multilib/lib/gcc/arm-none-eabi/4.6.2/../../../../arm-none-eabi/lib/thumb2/libm.a(lib_a-w_sinh.o)
                                                  /opt/paparazzi/arm-multilib/lib/gcc/arm-none-eabi/4.6.2/../../../../arm-none-eabi/lib/thumb2/libm.a(lib_a-w_pow.o)
                                                  /opt/paparazzi/arm-multilib/lib/gcc/arm-none-eabi/4.6.2/../../../../arm-none-eabi/lib/thumb2/libm.a(lib_a-w_exp.o)
finitef                                           /opt/paparazzi/arm-multilib/lib/gcc/arm-none-eabi/4.6.2/../../../../arm-none-eabi/lib/thumb2/libm.a(lib_a-sf_finite.o)
                                                  /opt/paparazzi/arm-multilib/lib/gcc/arm-none-eabi/4.6.2/../../../../arm-none-eabi/lib/thumb2/libm.a(lib_a-wf_pow.o)
flash_clear_bsy_flag                              /opt/paparazzi/arm-multilib/lib/gcc/arm-none-eabi/4.6.2/../../../../arm-none-eabi/lib/libopencm3_stm32.a(flash.o)
flash_clear_eop_flag                              /opt/paparazzi/arm-multilib/lib/gcc/arm-none-eabi/4.6.2/../../../../arm-none-eabi/lib/libopencm3_stm32.a(flash.o)
flash_clear_pgerr_flag                            /opt/paparazzi/arm-multilib/lib/gcc/arm-none-eabi/4.6.2/../../../../arm-none-eabi/lib/libopencm3_stm32.a(flash.o)
flash_clear_status_flags                          /opt/paparazzi/arm-multilib/lib/gcc/arm-none-eabi/4.6.2/../../../../arm-none-eabi/lib/libopencm3_stm32.a(flash.o)
flash_clear_wrprterr_flag                         /opt/paparazzi/arm-multilib/lib/gcc/arm-none-eabi/4.6.2/../../../../arm-none-eabi/lib/libopencm3_stm32.a(flash.o)
flash_erase_all_pages                             /opt/paparazzi/arm-multilib/lib/gcc/arm-none-eabi/4.6.2/../../../../arm-none-eabi/lib/libopencm3_stm32.a(flash.o)
flash_erase_option_bytes                          /opt/paparazzi/arm-multilib/lib/gcc/arm-none-eabi/4.6.2/../../../../arm-none-eabi/lib/libopencm3_stm32.a(flash.o)
flash_erase_page                                  /opt/paparazzi/arm-multilib/lib/gcc/arm-none-eabi/4.6.2/../../../../arm-none-eabi/lib/libopencm3_stm32.a(flash.o)
                                                  /home/uav/USTUAV/paparazzi/var/MYAC/ap/arch/stm32/subsystems/settings_arch.o
flash_halfcycle_disable                           /opt/paparazzi/arm-multilib/lib/gcc/arm-none-eabi/4.6.2/../../../../arm-none-eabi/lib/libopencm3_stm32.a(flash.o)
flash_halfcycle_enable                            /opt/paparazzi/arm-multilib/lib/gcc/arm-none-eabi/4.6.2/../../../../arm-none-eabi/lib/libopencm3_stm32.a(flash.o)
flash_lock                                        /opt/paparazzi/arm-multilib/lib/gcc/arm-none-eabi/4.6.2/../../../../arm-none-eabi/lib/libopencm3_stm32.a(flash.o)
                                                  /home/uav/USTUAV/paparazzi/var/MYAC/ap/arch/stm32/subsystems/settings_arch.o
flash_prefetch_buffer_disable                     /opt/paparazzi/arm-multilib/lib/gcc/arm-none-eabi/4.6.2/../../../../arm-none-eabi/lib/libopencm3_stm32.a(flash.o)
flash_prefetch_buffer_enable                      /opt/paparazzi/arm-multilib/lib/gcc/arm-none-eabi/4.6.2/../../../../arm-none-eabi/lib/libopencm3_stm32.a(flash.o)
flash_program_half_word                           /opt/paparazzi/arm-multilib/lib/gcc/arm-none-eabi/4.6.2/../../../../arm-none-eabi/lib/libopencm3_stm32.a(flash.o)
                                                  /home/uav/USTUAV/paparazzi/var/MYAC/ap/arch/stm32/subsystems/settings_arch.o
flash_program_option_bytes                        /opt/paparazzi/arm-multilib/lib/gcc/arm-none-eabi/4.6.2/../../../../arm-none-eabi/lib/libopencm3_stm32.a(flash.o)
flash_program_word                                /opt/paparazzi/arm-multilib/lib/gcc/arm-none-eabi/4.6.2/../../../../arm-none-eabi/lib/libopencm3_stm32.a(flash.o)
flash_set_ws                                      /opt/paparazzi/arm-multilib/lib/gcc/arm-none-eabi/4.6.2/../../../../arm-none-eabi/lib/libopencm3_stm32.a(flash.o)
                                                  /opt/paparazzi/arm-multilib/lib/gcc/arm-none-eabi/4.6.2/../../../../arm-none-eabi/lib/libopencm3_stm32.a(rcc.o)
flash_unlock                                      /opt/paparazzi/arm-multilib/lib/gcc/arm-none-eabi/4.6.2/../../../../arm-none-eabi/lib/libopencm3_stm32.a(flash.o)
                                                  /home/uav/USTUAV/paparazzi/var/MYAC/ap/arch/stm32/subsystems/settings_arch.o
flash_unlock_option_bytes                         /opt/paparazzi/arm-multilib/lib/gcc/arm-none-eabi/4.6.2/../../../../arm-none-eabi/lib/libopencm3_stm32.a(flash.o)
flash_wait_for_last_operation                     /opt/paparazzi/arm-multilib/lib/gcc/arm-none-eabi/4.6.2/../../../../arm-none-eabi/lib/libopencm3_stm32.a(flash.o)
flight_altitude                                   /home/uav/USTUAV/paparazzi/var/MYAC/ap/subsystems/nav.o
                                                  /home/uav/USTUAV/paparazzi/var/MYAC/ap/firmwares/fixedwing/datalink.o
                                                  /home/uav/USTUAV/paparazzi/var/MYAC/ap/firmwares/fixedwing/main_ap.o
floor                                             /opt/paparazzi/arm-multilib/lib/gcc/arm-none-eabi/4.6.2/../../../../arm-none-eabi/lib/thumb2/libm.a(lib_a-s_floor.o)
                                                  /opt/paparazzi/arm-multilib/lib/gcc/arm-none-eabi/4.6.2/../../../../arm-none-eabi/lib/thumb2/libm.a(lib_a-k_rem_pio2.o)
floorf                                            /opt/paparazzi/arm-multilib/lib/gcc/arm-none-eabi/4.6.2/../../../../arm-none-eabi/lib/thumb2/libm.a(lib_a-sf_floor.o)
                                                  /opt/paparazzi/arm-multilib/lib/gcc/arm-none-eabi/4.6.2/../../../../arm-none-eabi/lib/thumb2/libm.a(lib_a-kf_rem_pio2.o)
fly_to_xy                                         /home/uav/USTUAV/paparazzi/var/MYAC/ap/subsystems/nav.o
fp_pitch                                          /home/uav/USTUAV/paparazzi/var/MYAC/ap/subsystems/nav.o
gc_of_gd_lat_d                                    /home/uav/USTUAV/paparazzi/var/MYAC/ap/math/pprz_geodetic_double.o
get_ac_info                                       /home/uav/USTUAV/paparazzi/var/MYAC/ap/subsystems/navigation/traffic_info.o
getpid                                            /home/uav/USTUAV/paparazzi/var/MYAC/ap/lisa/plug_sys.o
gps                                               /home/uav/USTUAV/paparazzi/var/MYAC/ap/subsystems/gps.o
                                                  /home/uav/USTUAV/paparazzi/var/MYAC/ap/subsystems/nav.o
                                                  /home/uav/USTUAV/paparazzi/var/MYAC/ap/subsystems/gps/gps_ubx.o
                                                  /home/uav/USTUAV/paparazzi/var/MYAC/ap/subsystems/ahrs/ahrs_float_dcm.o
                                                  /home/uav/USTUAV/paparazzi/var/MYAC/ap/firmwares/fixedwing/datalink.o
                                                  /home/uav/USTUAV/paparazzi/var/MYAC/ap/./estimator.o
                                                  /home/uav/USTUAV/paparazzi/var/MYAC/ap/firmwares/fixedwing/main_ap.o
gps_impl_init                                     /home/uav/USTUAV/paparazzi/var/MYAC/ap/subsystems/gps/gps_ubx.o
                                                  /home/uav/USTUAV/paparazzi/var/MYAC/ap/subsystems/gps.o
gps_init                                          /home/uav/USTUAV/paparazzi/var/MYAC/ap/subsystems/gps.o
                                                  /home/uav/USTUAV/paparazzi/var/MYAC/ap/firmwares/fixedwing/main_ap.o
gps_lost                                          /home/uav/USTUAV/paparazzi/var/MYAC/ap/firmwares/fixedwing/main_ap.o
gps_ubx                                           /home/uav/USTUAV/paparazzi/var/MYAC/ap/subsystems/gps/gps_ubx.o
                                                  /home/uav/USTUAV/paparazzi/var/MYAC/ap/firmwares/fixedwing/main_ap.o
gps_ubx_gps_ubx_ucenter_periodic_status           /home/uav/USTUAV/paparazzi/var/MYAC/ap/firmwares/fixedwing/main_ap.o
                                                  /home/uav/USTUAV/paparazzi/var/MYAC/ap/firmwares/fixedwing/datalink.o
gps_ubx_parse                                     /home/uav/USTUAV/paparazzi/var/MYAC/ap/subsystems/gps/gps_ubx.o
                                                  /home/uav/USTUAV/paparazzi/var/MYAC/ap/firmwares/fixedwing/main_ap.o
gps_ubx_read_message                              /home/uav/USTUAV/paparazzi/var/MYAC/ap/subsystems/gps/gps_ubx.o
                                                  /home/uav/USTUAV/paparazzi/var/MYAC/ap/firmwares/fixedwing/main_ap.o
gps_ubx_ucenter                                   /home/uav/USTUAV/paparazzi/var/MYAC/ap/subsystems/gps/gps_ubx.o
gps_ubx_ucenter_event                             /home/uav/USTUAV/paparazzi/var/MYAC/ap/subsystems/gps/gps_ubx.o
                                                  /home/uav/USTUAV/paparazzi/var/MYAC/ap/firmwares/fixedwing/main_ap.o
gps_ubx_ucenter_init                              /home/uav/USTUAV/paparazzi/var/MYAC/ap/subsystems/gps/gps_ubx.o
                                                  /home/uav/USTUAV/paparazzi/var/MYAC/ap/firmwares/fixedwing/main_ap.o
gps_ubx_ucenter_periodic                          /home/uav/USTUAV/paparazzi/var/MYAC/ap/subsystems/gps/gps_ubx.o
                                                  /home/uav/USTUAV/paparazzi/var/MYAC/ap/firmwares/fixedwing/main_ap.o
ground_alt                                        /home/uav/USTUAV/paparazzi/var/MYAC/ap/subsystems/nav.o
h_ctl_aileron_of_throttle                         /home/uav/USTUAV/paparazzi/var/MYAC/ap/firmwares/fixedwing/stabilization/stabilization_attitude.o
h_ctl_aileron_setpoint                            /home/uav/USTUAV/paparazzi/var/MYAC/ap/firmwares/fixedwing/stabilization/stabilization_attitude.o
                                                  /home/uav/USTUAV/paparazzi/var/MYAC/ap/firmwares/fixedwing/main_ap.o
h_ctl_attitude_loop                               /home/uav/USTUAV/paparazzi/var/MYAC/ap/firmwares/fixedwing/stabilization/stabilization_attitude.o
                                                  /home/uav/USTUAV/paparazzi/var/MYAC/ap/firmwares/fixedwing/main_ap.o
h_ctl_auto1_rate                                  /home/uav/USTUAV/paparazzi/var/MYAC/ap/firmwares/fixedwing/stabilization/stabilization_attitude.o
h_ctl_course_dgain                                /home/uav/USTUAV/paparazzi/var/MYAC/ap/firmwares/fixedwing/stabilization/stabilization_attitude.o
h_ctl_course_loop                                 /home/uav/USTUAV/paparazzi/var/MYAC/ap/firmwares/fixedwing/stabilization/stabilization_attitude.o
                                                  /home/uav/USTUAV/paparazzi/var/MYAC/ap/firmwares/fixedwing/main_ap.o
h_ctl_course_pgain                                /home/uav/USTUAV/paparazzi/var/MYAC/ap/firmwares/fixedwing/stabilization/stabilization_attitude.o
                                                  /home/uav/USTUAV/paparazzi/var/MYAC/ap/subsystems/nav.o
h_ctl_course_pre_bank                             /home/uav/USTUAV/paparazzi/var/MYAC/ap/firmwares/fixedwing/stabilization/stabilization_attitude.o
                                                  /home/uav/USTUAV/paparazzi/var/MYAC/ap/subsystems/nav.o
h_ctl_course_pre_bank_correction                  /home/uav/USTUAV/paparazzi/var/MYAC/ap/firmwares/fixedwing/stabilization/stabilization_attitude.o
h_ctl_course_setpoint                             /home/uav/USTUAV/paparazzi/var/MYAC/ap/firmwares/fixedwing/stabilization/stabilization_attitude.o
                                                  /home/uav/USTUAV/paparazzi/var/MYAC/ap/subsystems/nav.o
                                                  /home/uav/USTUAV/paparazzi/var/MYAC/ap/firmwares/fixedwing/main_ap.o
h_ctl_disabled                                    /home/uav/USTUAV/paparazzi/var/MYAC/ap/firmwares/fixedwing/stabilization/stabilization_attitude.o
h_ctl_elevator_of_roll                            /home/uav/USTUAV/paparazzi/var/MYAC/ap/firmwares/fixedwing/stabilization/stabilization_attitude.o
h_ctl_elevator_setpoint                           /home/uav/USTUAV/paparazzi/var/MYAC/ap/firmwares/fixedwing/stabilization/stabilization_attitude.o
                                                  /home/uav/USTUAV/paparazzi/var/MYAC/ap/firmwares/fixedwing/main_ap.o
h_ctl_init                                        /home/uav/USTUAV/paparazzi/var/MYAC/ap/firmwares/fixedwing/stabilization/stabilization_attitude.o
                                                  /home/uav/USTUAV/paparazzi/var/MYAC/ap/firmwares/fixedwing/main_ap.o
h_ctl_pitch_dgain                                 /home/uav/USTUAV/paparazzi/var/MYAC/ap/firmwares/fixedwing/stabilization/stabilization_attitude.o
h_ctl_pitch_loop_setpoint                         /home/uav/USTUAV/paparazzi/var/MYAC/ap/firmwares/fixedwing/stabilization/stabilization_attitude.o
                                                  /home/uav/USTUAV/paparazzi/var/MYAC/ap/firmwares/fixedwing/main_ap.o
h_ctl_pitch_pgain                                 /home/uav/USTUAV/paparazzi/var/MYAC/ap/firmwares/fixedwing/stabilization/stabilization_attitude.o
h_ctl_pitch_setpoint                              /home/uav/USTUAV/paparazzi/var/MYAC/ap/firmwares/fixedwing/stabilization/stabilization_attitude.o
                                                  /home/uav/USTUAV/paparazzi/var/MYAC/ap/firmwares/fixedwing/main_ap.o
h_ctl_roll_attitude_gain                          /home/uav/USTUAV/paparazzi/var/MYAC/ap/firmwares/fixedwing/stabilization/stabilization_attitude.o
h_ctl_roll_max_setpoint                           /home/uav/USTUAV/paparazzi/var/MYAC/ap/firmwares/fixedwing/stabilization/stabilization_attitude.o
                                                  /home/uav/USTUAV/paparazzi/var/MYAC/ap/subsystems/nav.o
h_ctl_roll_pgain                                  /home/uav/USTUAV/paparazzi/var/MYAC/ap/firmwares/fixedwing/stabilization/stabilization_attitude.o
h_ctl_roll_rate_gain                              /home/uav/USTUAV/paparazzi/var/MYAC/ap/firmwares/fixedwing/stabilization/stabilization_attitude.o
h_ctl_roll_setpoint                               /home/uav/USTUAV/paparazzi/var/MYAC/ap/firmwares/fixedwing/stabilization/stabilization_attitude.o
                                                  /home/uav/USTUAV/paparazzi/var/MYAC/ap/subsystems/nav.o
                                                  /home/uav/USTUAV/paparazzi/var/MYAC/ap/firmwares/fixedwing/main_ap.o
h_ctl_roll_slew                                   /home/uav/USTUAV/paparazzi/var/MYAC/ap/firmwares/fixedwing/stabilization/stabilization_attitude.o
handle_periodic_tasks_ap                          /home/uav/USTUAV/paparazzi/var/MYAC/ap/firmwares/fixedwing/main_ap.o
                                                  /home/uav/USTUAV/paparazzi/var/MYAC/ap/firmwares/fixedwing/main.o
handle_periodic_tasks_fbw                         /home/uav/USTUAV/paparazzi/var/MYAC/ap/firmwares/fixedwing/main_fbw.o
                                                  /home/uav/USTUAV/paparazzi/var/MYAC/ap/firmwares/fixedwing/main.o
hard_fault_exception                              /home/uav/USTUAV/paparazzi/var/MYAC/ap/arch/stm32/stm32_exceptions.o
                                                  /home/uav/USTUAV/paparazzi/var/MYAC/ap/arch/stm32/stm32_vector_table.o
horizontal_mode                                   /home/uav/USTUAV/paparazzi/var/MYAC/ap/subsystems/nav.o
                                                  /home/uav/USTUAV/paparazzi/var/MYAC/ap/firmwares/fixedwing/main_ap.o
i2c_event                                         /home/uav/USTUAV/paparazzi/var/MYAC/ap/arch/stm32/mcu_periph/i2c_arch.o
                                                  /home/uav/USTUAV/paparazzi/var/MYAC/ap/firmwares/fixedwing/main_fbw.o
i2c_idle                                          /home/uav/USTUAV/paparazzi/var/MYAC/ap/arch/stm32/mcu_periph/i2c_arch.o
i2c_init                                          /home/uav/USTUAV/paparazzi/var/MYAC/ap/mcu_periph/i2c.o
i2c_submit                                        /home/uav/USTUAV/paparazzi/var/MYAC/ap/arch/stm32/mcu_periph/i2c_arch.o
imu                                               /home/uav/USTUAV/paparazzi/var/MYAC/ap/subsystems/imu.o
                                                  /home/uav/USTUAV/paparazzi/var/MYAC/ap/subsystems/ahrs/ahrs_float_dcm.o
                                                  /home/uav/USTUAV/paparazzi/var/MYAC/ap/subsystems/ahrs/ahrs_aligner.o
                                                  /home/uav/USTUAV/paparazzi/var/MYAC/ap/firmwares/fixedwing/main_ap.o
imu_aspirin2                                      /home/uav/USTUAV/paparazzi/var/MYAC/ap/subsystems/imu/imu_aspirin2.o
                                                  /home/uav/USTUAV/paparazzi/var/MYAC/ap/firmwares/fixedwing/main_ap.o
imu_float_init                                    /home/uav/USTUAV/paparazzi/var/MYAC/ap/subsystems/imu.o
imu_health                                        /home/uav/USTUAV/paparazzi/var/MYAC/ap/subsystems/ahrs/ahrs_float_dcm.o
imu_impl_init                                     /home/uav/USTUAV/paparazzi/var/MYAC/ap/subsystems/imu/imu_aspirin2.o
                                                  /home/uav/USTUAV/paparazzi/var/MYAC/ap/subsystems/imu.o
imu_init                                          /home/uav/USTUAV/paparazzi/var/MYAC/ap/subsystems/imu.o
                                                  /home/uav/USTUAV/paparazzi/var/MYAC/ap/firmwares/fixedwing/main_ap.o
imu_periodic                                      /home/uav/USTUAV/paparazzi/var/MYAC/ap/subsystems/imu/imu_aspirin2.o
                                                  /home/uav/USTUAV/paparazzi/var/MYAC/ap/firmwares/fixedwing/main_ap.o
init_ap                                           /home/uav/USTUAV/paparazzi/var/MYAC/ap/firmwares/fixedwing/main_ap.o
                                                  /home/uav/USTUAV/paparazzi/var/MYAC/ap/firmwares/fixedwing/main.o
init_fbw                                          /home/uav/USTUAV/paparazzi/var/MYAC/ap/firmwares/fixedwing/main_fbw.o
                                                  /home/uav/USTUAV/paparazzi/var/MYAC/ap/firmwares/fixedwing/main.o
init_sysmon                                       /home/uav/USTUAV/paparazzi/var/MYAC/ap/modules/core/sys_mon.o
                                                  /home/uav/USTUAV/paparazzi/var/MYAC/ap/firmwares/fixedwing/main_ap.o
ins_pitch_neutral                                 /home/uav/USTUAV/paparazzi/var/MYAC/ap/subsystems/ahrs/ahrs_float_dcm.o
ins_roll_neutral                                  /home/uav/USTUAV/paparazzi/var/MYAC/ap/subsystems/ahrs/ahrs_float_dcm.o
inter_mcu_received_ap                             /home/uav/USTUAV/paparazzi/var/MYAC/ap/./inter_mcu.o
                                                  /home/uav/USTUAV/paparazzi/var/MYAC/ap/firmwares/fixedwing/main_ap.o
                                                  /home/uav/USTUAV/paparazzi/var/MYAC/ap/firmwares/fixedwing/main_fbw.o
inter_mcu_received_fbw                            /home/uav/USTUAV/paparazzi/var/MYAC/ap/./inter_mcu.o
                                                  /home/uav/USTUAV/paparazzi/var/MYAC/ap/firmwares/fixedwing/main_ap.o
                                                  /home/uav/USTUAV/paparazzi/var/MYAC/ap/firmwares/fixedwing/main_fbw.o
kill                                              /home/uav/USTUAV/paparazzi/var/MYAC/ap/lisa/plug_sys.o
kill_throttle                                     /home/uav/USTUAV/paparazzi/var/MYAC/ap/firmwares/fixedwing/main_ap.o
                                                  /home/uav/USTUAV/paparazzi/var/MYAC/ap/subsystems/nav.o
                                                  /home/uav/USTUAV/paparazzi/var/MYAC/ap/firmwares/fixedwing/datalink.o
last_block                                        /home/uav/USTUAV/paparazzi/var/MYAC/ap/subsystems/navigation/common_flight_plan.o
last_stage                                        /home/uav/USTUAV/paparazzi/var/MYAC/ap/subsystems/navigation/common_flight_plan.o
last_x                                            /home/uav/USTUAV/paparazzi/var/MYAC/ap/subsystems/nav.o
last_y                                            /home/uav/USTUAV/paparazzi/var/MYAC/ap/subsystems/nav.o
lateral_mode                                      /home/uav/USTUAV/paparazzi/var/MYAC/ap/firmwares/fixedwing/main_ap.o
                                                  /home/uav/USTUAV/paparazzi/var/MYAC/ap/subsystems/nav.o
launch                                            /home/uav/USTUAV/paparazzi/var/MYAC/ap/firmwares/fixedwing/main_ap.o
                                                  /home/uav/USTUAV/paparazzi/var/MYAC/ap/firmwares/fixedwing/datalink.o
lla_of_ecef_d                                     /home/uav/USTUAV/paparazzi/var/MYAC/ap/math/pprz_geodetic_double.o
                                                  /home/uav/USTUAV/paparazzi/var/MYAC/ap/math/pprz_geodetic_int.o
lla_of_ecef_f                                     /home/uav/USTUAV/paparazzi/var/MYAC/ap/math/pprz_geodetic_float.o
lla_of_ecef_i                                     /home/uav/USTUAV/paparazzi/var/MYAC/ap/math/pprz_geodetic_int.o
lla_of_utm_d                                      /home/uav/USTUAV/paparazzi/var/MYAC/ap/math/pprz_geodetic_double.o
lla_of_utm_f                                      /home/uav/USTUAV/paparazzi/var/MYAC/ap/math/pprz_geodetic_float.o
log                                               /opt/paparazzi/arm-multilib/lib/gcc/arm-none-eabi/4.6.2/../../../../arm-none-eabi/lib/thumb2/libm.a(lib_a-w_log.o)
                                                  /home/uav/USTUAV/paparazzi/var/MYAC/ap/math/pprz_geodetic_double.o
                                                  /home/uav/USTUAV/paparazzi/var/MYAC/ap/math/pprz_geodetic_float.o
ltp_def_from_ecef_d                               /home/uav/USTUAV/paparazzi/var/MYAC/ap/math/pprz_geodetic_double.o
ltp_def_from_ecef_f                               /home/uav/USTUAV/paparazzi/var/MYAC/ap/math/pprz_geodetic_float.o
ltp_def_from_ecef_i                               /home/uav/USTUAV/paparazzi/var/MYAC/ap/math/pprz_geodetic_int.o
ltp_def_from_lla_f                                /home/uav/USTUAV/paparazzi/var/MYAC/ap/math/pprz_geodetic_float.o
ltp_def_from_lla_i                                /home/uav/USTUAV/paparazzi/var/MYAC/ap/math/pprz_geodetic_int.o
main                                              /home/uav/USTUAV/paparazzi/var/MYAC/ap/firmwares/fixedwing/main.o
                                                  /home/uav/USTUAV/paparazzi/var/MYAC/ap/arch/stm32/stm32_vector_table.o
matherr                                           /opt/paparazzi/arm-multilib/lib/gcc/arm-none-eabi/4.6.2/../../../../arm-none-eabi/lib/thumb2/libm.a(lib_a-s_matherr.o)
                                                  /opt/paparazzi/arm-multilib/lib/gcc/arm-none-eabi/4.6.2/../../../../arm-none-eabi/lib/thumb2/libm.a(lib_a-wf_sqrt.o)
                                                  /opt/paparazzi/arm-multilib/lib/gcc/arm-none-eabi/4.6.2/../../../../arm-none-eabi/lib/thumb2/libm.a(lib_a-wf_pow.o)
                                                  /opt/paparazzi/arm-multilib/lib/gcc/arm-none-eabi/4.6.2/../../../../arm-none-eabi/lib/thumb2/libm.a(lib_a-wf_asin.o)
                                                  /opt/paparazzi/arm-multilib/lib/gcc/arm-none-eabi/4.6.2/../../../../arm-none-eabi/lib/thumb2/libm.a(lib_a-w_sqrt.o)
                                                  /opt/paparazzi/arm-multilib/lib/gcc/arm-none-eabi/4.6.2/../../../../arm-none-eabi/lib/thumb2/libm.a(lib_a-w_sinh.o)
                                                  /opt/paparazzi/arm-multilib/lib/gcc/arm-none-eabi/4.6.2/../../../../arm-none-eabi/lib/thumb2/libm.a(lib_a-w_pow.o)
                                                  /opt/paparazzi/arm-multilib/lib/gcc/arm-none-eabi/4.6.2/../../../../arm-none-eabi/lib/thumb2/libm.a(lib_a-w_log.o)
                                                  /opt/paparazzi/arm-multilib/lib/gcc/arm-none-eabi/4.6.2/../../../../arm-none-eabi/lib/thumb2/libm.a(lib_a-w_exp.o)
                                                  /opt/paparazzi/arm-multilib/lib/gcc/arm-none-eabi/4.6.2/../../../../arm-none-eabi/lib/thumb2/libm.a(lib_a-w_cosh.o)
                                                  /opt/paparazzi/arm-multilib/lib/gcc/arm-none-eabi/4.6.2/../../../../arm-none-eabi/lib/thumb2/libm.a(lib_a-w_asin.o)
max_dist_from_home                                /home/uav/USTUAV/paparazzi/var/MYAC/ap/subsystems/nav.o
mcu_arch_init                                     /home/uav/USTUAV/paparazzi/var/MYAC/ap/arch/stm32/mcu_arch.o
                                                  /home/uav/USTUAV/paparazzi/var/MYAC/ap/mcu.o
mcu_init                                          /home/uav/USTUAV/paparazzi/var/MYAC/ap/mcu.o
                                                  /home/uav/USTUAV/paparazzi/var/MYAC/ap/firmwares/fixedwing/main_fbw.o
mem_manage_exception                              /home/uav/USTUAV/paparazzi/var/MYAC/ap/arch/stm32/stm32_exceptions.o
                                                  /home/uav/USTUAV/paparazzi/var/MYAC/ap/arch/stm32/stm32_vector_table.o
memcpy                                            /opt/paparazzi/arm-multilib/lib/gcc/arm-none-eabi/4.6.2/../../../../arm-none-eabi/lib/thumb2/libc.a(lib_a-memcpy.o)
                                                  /home/uav/USTUAV/paparazzi/var/MYAC/ap/arch/stm32/mcu_periph/spi_arch.o
min_time_event                                    /home/uav/USTUAV/paparazzi/var/MYAC/ap/modules/core/sys_mon.o
modules_tid                                       /home/uav/USTUAV/paparazzi/var/MYAC/ap/firmwares/fixedwing/main_ap.o
monitor_task                                      /home/uav/USTUAV/paparazzi/var/MYAC/ap/firmwares/fixedwing/main_ap.o
monitor_tid                                       /home/uav/USTUAV/paparazzi/var/MYAC/ap/firmwares/fixedwing/main_ap.o
n_event                                           /home/uav/USTUAV/paparazzi/var/MYAC/ap/modules/core/sys_mon.o
n_periodic                                        /home/uav/USTUAV/paparazzi/var/MYAC/ap/modules/core/sys_mon.o
nan                                               /opt/paparazzi/arm-multilib/lib/gcc/arm-none-eabi/4.6.2/../../../../arm-none-eabi/lib/thumb2/libm.a(lib_a-s_nan.o)
                                                  /opt/paparazzi/arm-multilib/lib/gcc/arm-none-eabi/4.6.2/../../../../arm-none-eabi/lib/thumb2/libm.a(lib_a-e_pow.o)
                                                  /opt/paparazzi/arm-multilib/lib/gcc/arm-none-eabi/4.6.2/../../../../arm-none-eabi/lib/thumb2/libm.a(lib_a-wf_asin.o)
                                                  /opt/paparazzi/arm-multilib/lib/gcc/arm-none-eabi/4.6.2/../../../../arm-none-eabi/lib/thumb2/libm.a(lib_a-w_log.o)
                                                  /opt/paparazzi/arm-multilib/lib/gcc/arm-none-eabi/4.6.2/../../../../arm-none-eabi/lib/thumb2/libm.a(lib_a-w_asin.o)
nanf                                              /opt/paparazzi/arm-multilib/lib/gcc/arm-none-eabi/4.6.2/../../../../arm-none-eabi/lib/thumb2/libm.a(lib_a-sf_nan.o)
                                                  /opt/paparazzi/arm-multilib/lib/gcc/arm-none-eabi/4.6.2/../../../../arm-none-eabi/lib/thumb2/libm.a(lib_a-ef_pow.o)
nav_altitude                                      /home/uav/USTUAV/paparazzi/var/MYAC/ap/subsystems/nav.o
                                                  /home/uav/USTUAV/paparazzi/var/MYAC/ap/subsystems/navigation/nav_line.o
                                                  /home/uav/USTUAV/paparazzi/var/MYAC/ap/subsystems/navigation/nav_survey_rectangle.o
nav_approaching_xy                                /home/uav/USTUAV/paparazzi/var/MYAC/ap/subsystems/nav.o
                                                  /home/uav/USTUAV/paparazzi/var/MYAC/ap/subsystems/navigation/nav_line.o
nav_block                                         /home/uav/USTUAV/paparazzi/var/MYAC/ap/subsystems/navigation/common_flight_plan.o
                                                  /home/uav/USTUAV/paparazzi/var/MYAC/ap/subsystems/nav.o
                                                  /home/uav/USTUAV/paparazzi/var/MYAC/ap/firmwares/fixedwing/datalink.o
                                                  /home/uav/USTUAV/paparazzi/var/MYAC/ap/firmwares/fixedwing/main_ap.o
nav_circle_XY                                     /home/uav/USTUAV/paparazzi/var/MYAC/ap/subsystems/nav.o
                                                  /home/uav/USTUAV/paparazzi/var/MYAC/ap/subsystems/navigation/nav_line.o
                                                  /home/uav/USTUAV/paparazzi/var/MYAC/ap/subsystems/navigation/nav_survey_rectangle.o
nav_circle_radians                                /home/uav/USTUAV/paparazzi/var/MYAC/ap/subsystems/nav.o
                                                  /home/uav/USTUAV/paparazzi/var/MYAC/ap/firmwares/fixedwing/datalink.o
                                                  /home/uav/USTUAV/paparazzi/var/MYAC/ap/firmwares/fixedwing/main_ap.o
nav_circle_radius                                 /home/uav/USTUAV/paparazzi/var/MYAC/ap/subsystems/nav.o
                                                  /home/uav/USTUAV/paparazzi/var/MYAC/ap/firmwares/fixedwing/main_ap.o
nav_circle_trigo_qdr                              /home/uav/USTUAV/paparazzi/var/MYAC/ap/subsystems/nav.o
                                                  /home/uav/USTUAV/paparazzi/var/MYAC/ap/subsystems/navigation/nav_line.o
nav_circle_x                                      /home/uav/USTUAV/paparazzi/var/MYAC/ap/subsystems/nav.o
                                                  /home/uav/USTUAV/paparazzi/var/MYAC/ap/firmwares/fixedwing/main_ap.o
nav_circle_y                                      /home/uav/USTUAV/paparazzi/var/MYAC/ap/subsystems/nav.o
                                                  /home/uav/USTUAV/paparazzi/var/MYAC/ap/firmwares/fixedwing/main_ap.o
nav_climb                                         /home/uav/USTUAV/paparazzi/var/MYAC/ap/subsystems/nav.o
nav_course                                        /home/uav/USTUAV/paparazzi/var/MYAC/ap/subsystems/nav.o
                                                  /home/uav/USTUAV/paparazzi/var/MYAC/ap/firmwares/fixedwing/datalink.o
                                                  /home/uav/USTUAV/paparazzi/var/MYAC/ap/firmwares/fixedwing/main_ap.o
nav_eight                                         /home/uav/USTUAV/paparazzi/var/MYAC/ap/subsystems/nav.o
nav_eight_init                                    /home/uav/USTUAV/paparazzi/var/MYAC/ap/subsystems/nav.o
nav_glide_pitch_trim                              /home/uav/USTUAV/paparazzi/var/MYAC/ap/subsystems/nav.o
nav_goto_block                                    /home/uav/USTUAV/paparazzi/var/MYAC/ap/subsystems/navigation/common_flight_plan.o
                                                  /home/uav/USTUAV/paparazzi/var/MYAC/ap/firmwares/fixedwing/datalink.o
nav_ground_speed_pgain                            /home/uav/USTUAV/paparazzi/var/MYAC/ap/subsystems/nav.o
nav_ground_speed_setpoint                         /home/uav/USTUAV/paparazzi/var/MYAC/ap/subsystems/nav.o
nav_home                                          /home/uav/USTUAV/paparazzi/var/MYAC/ap/subsystems/nav.o
                                                  /home/uav/USTUAV/paparazzi/var/MYAC/ap/firmwares/fixedwing/main_ap.o
nav_in_circle                                     /home/uav/USTUAV/paparazzi/var/MYAC/ap/subsystems/nav.o
                                                  /home/uav/USTUAV/paparazzi/var/MYAC/ap/subsystems/navigation/nav_survey_rectangle.o
                                                  /home/uav/USTUAV/paparazzi/var/MYAC/ap/firmwares/fixedwing/main_ap.o
nav_in_segment                                    /home/uav/USTUAV/paparazzi/var/MYAC/ap/subsystems/nav.o
                                                  /home/uav/USTUAV/paparazzi/var/MYAC/ap/subsystems/navigation/nav_survey_rectangle.o
                                                  /home/uav/USTUAV/paparazzi/var/MYAC/ap/firmwares/fixedwing/main_ap.o
nav_init                                          /home/uav/USTUAV/paparazzi/var/MYAC/ap/subsystems/nav.o
                                                  /home/uav/USTUAV/paparazzi/var/MYAC/ap/firmwares/fixedwing/main_ap.o
nav_init_block                                    /home/uav/USTUAV/paparazzi/var/MYAC/ap/subsystems/navigation/common_flight_plan.o
                                                  /home/uav/USTUAV/paparazzi/var/MYAC/ap/subsystems/nav.o
nav_init_stage                                    /home/uav/USTUAV/paparazzi/var/MYAC/ap/subsystems/nav.o
                                                  /home/uav/USTUAV/paparazzi/var/MYAC/ap/subsystems/navigation/nav_line.o
                                                  /home/uav/USTUAV/paparazzi/var/MYAC/ap/subsystems/navigation/common_flight_plan.o
nav_line                                          /home/uav/USTUAV/paparazzi/var/MYAC/ap/subsystems/navigation/nav_line.o
                                                  /home/uav/USTUAV/paparazzi/var/MYAC/ap/subsystems/nav.o
nav_line_init                                     /home/uav/USTUAV/paparazzi/var/MYAC/ap/subsystems/navigation/nav_line.o
                                                  /home/uav/USTUAV/paparazzi/var/MYAC/ap/subsystems/nav.o
nav_mode                                          /home/uav/USTUAV/paparazzi/var/MYAC/ap/subsystems/nav.o
nav_move_waypoint                                 /home/uav/USTUAV/paparazzi/var/MYAC/ap/subsystems/nav.o
                                                  /home/uav/USTUAV/paparazzi/var/MYAC/ap/firmwares/fixedwing/datalink.o
nav_oval                                          /home/uav/USTUAV/paparazzi/var/MYAC/ap/subsystems/nav.o
nav_oval_count                                    /home/uav/USTUAV/paparazzi/var/MYAC/ap/subsystems/nav.o
                                                  /home/uav/USTUAV/paparazzi/var/MYAC/ap/firmwares/fixedwing/datalink.o
                                                  /home/uav/USTUAV/paparazzi/var/MYAC/ap/firmwares/fixedwing/main_ap.o
nav_oval_init                                     /home/uav/USTUAV/paparazzi/var/MYAC/ap/subsystems/nav.o
nav_periodic_task                                 /home/uav/USTUAV/paparazzi/var/MYAC/ap/subsystems/nav.o
                                                  /home/uav/USTUAV/paparazzi/var/MYAC/ap/firmwares/fixedwing/main_ap.o
nav_pitch                                         /home/uav/USTUAV/paparazzi/var/MYAC/ap/subsystems/nav.o
                                                  /home/uav/USTUAV/paparazzi/var/MYAC/ap/subsystems/navigation/nav_line.o
                                                  /home/uav/USTUAV/paparazzi/var/MYAC/ap/subsystems/navigation/nav_survey_rectangle.o
                                                  /home/uav/USTUAV/paparazzi/var/MYAC/ap/firmwares/fixedwing/guidance/guidance_v.o
                                                  /home/uav/USTUAV/paparazzi/var/MYAC/ap/firmwares/fixedwing/main_ap.o
nav_radius                                        /home/uav/USTUAV/paparazzi/var/MYAC/ap/subsystems/nav.o
                                                  /home/uav/USTUAV/paparazzi/var/MYAC/ap/firmwares/fixedwing/datalink.o
                                                  /home/uav/USTUAV/paparazzi/var/MYAC/ap/firmwares/fixedwing/main_ap.o
nav_reset_reference                               /home/uav/USTUAV/paparazzi/var/MYAC/ap/subsystems/nav.o
nav_route_xy                                      /home/uav/USTUAV/paparazzi/var/MYAC/ap/subsystems/nav.o
                                                  /home/uav/USTUAV/paparazzi/var/MYAC/ap/subsystems/navigation/nav_line.o
                                                  /home/uav/USTUAV/paparazzi/var/MYAC/ap/subsystems/navigation/nav_survey_rectangle.o
nav_segment_x_1                                   /home/uav/USTUAV/paparazzi/var/MYAC/ap/subsystems/nav.o
                                                  /home/uav/USTUAV/paparazzi/var/MYAC/ap/firmwares/fixedwing/main_ap.o
nav_segment_x_2                                   /home/uav/USTUAV/paparazzi/var/MYAC/ap/subsystems/nav.o
                                                  /home/uav/USTUAV/paparazzi/var/MYAC/ap/firmwares/fixedwing/main_ap.o
nav_segment_y_1                                   /home/uav/USTUAV/paparazzi/var/MYAC/ap/subsystems/nav.o
                                                  /home/uav/USTUAV/paparazzi/var/MYAC/ap/firmwares/fixedwing/main_ap.o
nav_segment_y_2                                   /home/uav/USTUAV/paparazzi/var/MYAC/ap/subsystems/nav.o
                                                  /home/uav/USTUAV/paparazzi/var/MYAC/ap/firmwares/fixedwing/main_ap.o
nav_shift                                         /home/uav/USTUAV/paparazzi/var/MYAC/ap/subsystems/nav.o
                                                  /home/uav/USTUAV/paparazzi/var/MYAC/ap/firmwares/fixedwing/datalink.o
                                                  /home/uav/USTUAV/paparazzi/var/MYAC/ap/firmwares/fixedwing/main_ap.o
nav_stage                                         /home/uav/USTUAV/paparazzi/var/MYAC/ap/subsystems/navigation/common_flight_plan.o
                                                  /home/uav/USTUAV/paparazzi/var/MYAC/ap/subsystems/nav.o
                                                  /home/uav/USTUAV/paparazzi/var/MYAC/ap/firmwares/fixedwing/datalink.o
                                                  /home/uav/USTUAV/paparazzi/var/MYAC/ap/firmwares/fixedwing/main_ap.o
nav_survey_active                                 /home/uav/USTUAV/paparazzi/var/MYAC/ap/subsystems/nav.o
                                                  /home/uav/USTUAV/paparazzi/var/MYAC/ap/subsystems/navigation/nav_survey_rectangle.o
                                                  /home/uav/USTUAV/paparazzi/var/MYAC/ap/firmwares/fixedwing/main_ap.o
nav_survey_east                                   /home/uav/USTUAV/paparazzi/var/MYAC/ap/subsystems/nav.o
                                                  /home/uav/USTUAV/paparazzi/var/MYAC/ap/subsystems/navigation/nav_survey_rectangle.o
                                                  /home/uav/USTUAV/paparazzi/var/MYAC/ap/firmwares/fixedwing/main_ap.o
nav_survey_north                                  /home/uav/USTUAV/paparazzi/var/MYAC/ap/subsystems/nav.o
                                                  /home/uav/USTUAV/paparazzi/var/MYAC/ap/subsystems/navigation/nav_survey_rectangle.o
                                                  /home/uav/USTUAV/paparazzi/var/MYAC/ap/firmwares/fixedwing/main_ap.o
nav_survey_rectangle                              /home/uav/USTUAV/paparazzi/var/MYAC/ap/subsystems/navigation/nav_survey_rectangle.o
                                                  /home/uav/USTUAV/paparazzi/var/MYAC/ap/subsystems/nav.o
nav_survey_rectangle_init                         /home/uav/USTUAV/paparazzi/var/MYAC/ap/subsystems/navigation/nav_survey_rectangle.o
                                                  /home/uav/USTUAV/paparazzi/var/MYAC/ap/subsystems/nav.o
nav_survey_shift                                  /home/uav/USTUAV/paparazzi/var/MYAC/ap/subsystems/nav.o
                                                  /home/uav/USTUAV/paparazzi/var/MYAC/ap/subsystems/navigation/nav_survey_rectangle.o
nav_survey_south                                  /home/uav/USTUAV/paparazzi/var/MYAC/ap/subsystems/nav.o
                                                  /home/uav/USTUAV/paparazzi/var/MYAC/ap/subsystems/navigation/nav_survey_rectangle.o
                                                  /home/uav/USTUAV/paparazzi/var/MYAC/ap/firmwares/fixedwing/main_ap.o
nav_survey_west                                   /home/uav/USTUAV/paparazzi/var/MYAC/ap/subsystems/nav.o
                                                  /home/uav/USTUAV/paparazzi/var/MYAC/ap/subsystems/navigation/nav_survey_rectangle.o
                                                  /home/uav/USTUAV/paparazzi/var/MYAC/ap/firmwares/fixedwing/main_ap.o
nav_throttle_setpoint                             /home/uav/USTUAV/paparazzi/var/MYAC/ap/subsystems/nav.o
                                                  /home/uav/USTUAV/paparazzi/var/MYAC/ap/firmwares/fixedwing/guidance/guidance_v.o
                                                  /home/uav/USTUAV/paparazzi/var/MYAC/ap/firmwares/fixedwing/main_ap.o
nav_update_waypoints_alt                          /home/uav/USTUAV/paparazzi/var/MYAC/ap/subsystems/nav.o
nav_utm_east0                                     /home/uav/USTUAV/paparazzi/var/MYAC/ap/subsystems/nav.o
                                                  /home/uav/USTUAV/paparazzi/var/MYAC/ap/firmwares/fixedwing/datalink.o
                                                  /home/uav/USTUAV/paparazzi/var/MYAC/ap/./estimator.o
                                                  /home/uav/USTUAV/paparazzi/var/MYAC/ap/firmwares/fixedwing/main_ap.o
nav_utm_north0                                    /home/uav/USTUAV/paparazzi/var/MYAC/ap/subsystems/nav.o
                                                  /home/uav/USTUAV/paparazzi/var/MYAC/ap/firmwares/fixedwing/datalink.o
                                                  /home/uav/USTUAV/paparazzi/var/MYAC/ap/./estimator.o
                                                  /home/uav/USTUAV/paparazzi/var/MYAC/ap/firmwares/fixedwing/main_ap.o
nav_utm_zone0                                     /home/uav/USTUAV/paparazzi/var/MYAC/ap/subsystems/nav.o
                                                  /home/uav/USTUAV/paparazzi/var/MYAC/ap/subsystems/gps/gps_ubx.o
                                                  /home/uav/USTUAV/paparazzi/var/MYAC/ap/firmwares/fixedwing/datalink.o
                                                  /home/uav/USTUAV/paparazzi/var/MYAC/ap/firmwares/fixedwing/main_ap.o
nav_without_gps                                   /home/uav/USTUAV/paparazzi/var/MYAC/ap/subsystems/nav.o
                                                  /home/uav/USTUAV/paparazzi/var/MYAC/ap/firmwares/fixedwing/main_ap.o
navigation_task                                   /home/uav/USTUAV/paparazzi/var/MYAC/ap/firmwares/fixedwing/main_ap.o
navigation_tid                                    /home/uav/USTUAV/paparazzi/var/MYAC/ap/firmwares/fixedwing/main_ap.o
nb_waypoint                                       /home/uav/USTUAV/paparazzi/var/MYAC/ap/subsystems/nav.o
                                                  /home/uav/USTUAV/paparazzi/var/MYAC/ap/firmwares/fixedwing/main_ap.o
ned_of_ecef_point_d                               /home/uav/USTUAV/paparazzi/var/MYAC/ap/math/pprz_geodetic_double.o
ned_of_ecef_point_f                               /home/uav/USTUAV/paparazzi/var/MYAC/ap/math/pprz_geodetic_float.o
ned_of_ecef_point_i                               /home/uav/USTUAV/paparazzi/var/MYAC/ap/math/pprz_geodetic_int.o
ned_of_ecef_vect_d                                /home/uav/USTUAV/paparazzi/var/MYAC/ap/math/pprz_geodetic_double.o
ned_of_ecef_vect_f                                /home/uav/USTUAV/paparazzi/var/MYAC/ap/math/pprz_geodetic_float.o
ned_of_ecef_vect_i                                /home/uav/USTUAV/paparazzi/var/MYAC/ap/math/pprz_geodetic_int.o
ned_of_lla_point_f                                /home/uav/USTUAV/paparazzi/var/MYAC/ap/math/pprz_geodetic_float.o
ned_of_lla_point_i                                /home/uav/USTUAV/paparazzi/var/MYAC/ap/math/pprz_geodetic_int.o
ned_of_lla_vect_i                                 /home/uav/USTUAV/paparazzi/var/MYAC/ap/math/pprz_geodetic_int.o
new_ins_attitude                                  /home/uav/USTUAV/paparazzi/var/MYAC/ap/firmwares/fixedwing/main_ap.o
nmi_exception                                     /home/uav/USTUAV/paparazzi/var/MYAC/ap/arch/stm32/stm32_exceptions.o
                                                  /home/uav/USTUAV/paparazzi/var/MYAC/ap/arch/stm32/stm32_vector_table.o
null_handler                                      /home/uav/USTUAV/paparazzi/var/MYAC/ap/arch/stm32/stm32_vector_table.o
oval_status                                       /home/uav/USTUAV/paparazzi/var/MYAC/ap/subsystems/nav.o
periodic_cycle                                    /home/uav/USTUAV/paparazzi/var/MYAC/ap/modules/core/sys_mon.o
periodic_report_sysmon                            /home/uav/USTUAV/paparazzi/var/MYAC/ap/modules/core/sys_mon.o
                                                  /home/uav/USTUAV/paparazzi/var/MYAC/ap/firmwares/fixedwing/main_ap.o
periodic_sysmon                                   /home/uav/USTUAV/paparazzi/var/MYAC/ap/modules/core/sys_mon.o
                                                  /home/uav/USTUAV/paparazzi/var/MYAC/ap/firmwares/fixedwing/main_ap.o
periodic_task_fbw                                 /home/uav/USTUAV/paparazzi/var/MYAC/ap/firmwares/fixedwing/main_fbw.o
periodic_timer                                    /home/uav/USTUAV/paparazzi/var/MYAC/ap/modules/core/sys_mon.o
pers_settings                                     /home/uav/USTUAV/paparazzi/var/MYAC/ap/subsystems/settings.o
persistent_read                                   /home/uav/USTUAV/paparazzi/var/MYAC/ap/arch/stm32/subsystems/settings_arch.o
persistent_write                                  /home/uav/USTUAV/paparazzi/var/MYAC/ap/arch/stm32/subsystems/settings_arch.o
pow                                               /opt/paparazzi/arm-multilib/lib/gcc/arm-none-eabi/4.6.2/../../../../arm-none-eabi/lib/thumb2/libm.a(lib_a-w_pow.o)
                                                  /home/uav/USTUAV/paparazzi/var/MYAC/ap/subsystems/electrical.o
                                                  /home/uav/USTUAV/paparazzi/var/MYAC/ap/math/pprz_geodetic_double.o
                                                  /home/uav/USTUAV/paparazzi/var/MYAC/ap/math/pprz_geodetic_float.o
power_switch                                      /home/uav/USTUAV/paparazzi/var/MYAC/ap/firmwares/fixedwing/main_ap.o
powf                                              /opt/paparazzi/arm-multilib/lib/gcc/arm-none-eabi/4.6.2/../../../../arm-none-eabi/lib/thumb2/libm.a(lib_a-wf_pow.o)
                                                  /home/uav/USTUAV/paparazzi/var/MYAC/ap/math/pprz_geodetic_float.o
pprz_mode                                         /home/uav/USTUAV/paparazzi/var/MYAC/ap/firmwares/fixedwing/main_ap.o
                                                  /home/uav/USTUAV/paparazzi/var/MYAC/ap/subsystems/nav.o
                                                  /home/uav/USTUAV/paparazzi/var/MYAC/ap/firmwares/fixedwing/datalink.o
pprz_tp                                           /home/uav/USTUAV/paparazzi/var/MYAC/ap/subsystems/datalink/pprz_transport.o
                                                  /home/uav/USTUAV/paparazzi/var/MYAC/ap/firmwares/fixedwing/main_ap.o
pprz_trig_int                                     /home/uav/USTUAV/paparazzi/var/MYAC/ap/math/pprz_trig_int.o
                                                  /home/uav/USTUAV/paparazzi/var/MYAC/ap/subsystems/imu.o
radio_control                                     /home/uav/USTUAV/paparazzi/var/MYAC/ap/subsystems/radio_control.o
                                                  /home/uav/USTUAV/paparazzi/var/MYAC/ap/arch/stm32/subsystems/radio_control/spektrum_arch.o
                                                  /home/uav/USTUAV/paparazzi/var/MYAC/ap/firmwares/fixedwing/main_fbw.o
radio_control_impl_init                           /home/uav/USTUAV/paparazzi/var/MYAC/ap/arch/stm32/subsystems/radio_control/spektrum_arch.o
                                                  /home/uav/USTUAV/paparazzi/var/MYAC/ap/firmwares/fixedwing/main_fbw.o
radio_control_spektrum_try_bind                   /home/uav/USTUAV/paparazzi/var/MYAC/ap/arch/stm32/subsystems/radio_control/spektrum_arch.o
                                                  /home/uav/USTUAV/paparazzi/var/MYAC/ap/mcu.o
rc_pitch                                          /home/uav/USTUAV/paparazzi/var/MYAC/ap/subsystems/nav.o
rcc_backupdomain_reset                            /opt/paparazzi/arm-multilib/lib/gcc/arm-none-eabi/4.6.2/../../../../arm-none-eabi/lib/libopencm3_stm32.a(rcc.o)
rcc_clock_setup_in_hse_12mhz_out_72mhz            /opt/paparazzi/arm-multilib/lib/gcc/arm-none-eabi/4.6.2/../../../../arm-none-eabi/lib/libopencm3_stm32.a(rcc.o)
                                                  /home/uav/USTUAV/paparazzi/var/MYAC/ap/arch/stm32/mcu_arch.o
rcc_clock_setup_in_hse_16mhz_out_72mhz            /opt/paparazzi/arm-multilib/lib/gcc/arm-none-eabi/4.6.2/../../../../arm-none-eabi/lib/libopencm3_stm32.a(rcc.o)
rcc_clock_setup_in_hse_8mhz_out_24mhz             /opt/paparazzi/arm-multilib/lib/gcc/arm-none-eabi/4.6.2/../../../../arm-none-eabi/lib/libopencm3_stm32.a(rcc.o)
rcc_clock_setup_in_hse_8mhz_out_72mhz             /opt/paparazzi/arm-multilib/lib/gcc/arm-none-eabi/4.6.2/../../../../arm-none-eabi/lib/libopencm3_stm32.a(rcc.o)
rcc_clock_setup_in_hsi_out_48mhz                  /opt/paparazzi/arm-multilib/lib/gcc/arm-none-eabi/4.6.2/../../../../arm-none-eabi/lib/libopencm3_stm32.a(rcc.o)
rcc_clock_setup_in_hsi_out_64mhz                  /opt/paparazzi/arm-multilib/lib/gcc/arm-none-eabi/4.6.2/../../../../arm-none-eabi/lib/libopencm3_stm32.a(rcc.o)
rcc_css_disable                                   /opt/paparazzi/arm-multilib/lib/gcc/arm-none-eabi/4.6.2/../../../../arm-none-eabi/lib/libopencm3_stm32.a(rcc.o)
rcc_css_enable                                    /opt/paparazzi/arm-multilib/lib/gcc/arm-none-eabi/4.6.2/../../../../arm-none-eabi/lib/libopencm3_stm32.a(rcc.o)
rcc_css_int_clear                                 /opt/paparazzi/arm-multilib/lib/gcc/arm-none-eabi/4.6.2/../../../../arm-none-eabi/lib/libopencm3_stm32.a(rcc.o)
rcc_css_int_flag                                  /opt/paparazzi/arm-multilib/lib/gcc/arm-none-eabi/4.6.2/../../../../arm-none-eabi/lib/libopencm3_stm32.a(rcc.o)
rcc_osc_bypass_disable                            /opt/paparazzi/arm-multilib/lib/gcc/arm-none-eabi/4.6.2/../../../../arm-none-eabi/lib/libopencm3_stm32.a(rcc.o)
rcc_osc_bypass_enable                             /opt/paparazzi/arm-multilib/lib/gcc/arm-none-eabi/4.6.2/../../../../arm-none-eabi/lib/libopencm3_stm32.a(rcc.o)
rcc_osc_off                                       /opt/paparazzi/arm-multilib/lib/gcc/arm-none-eabi/4.6.2/../../../../arm-none-eabi/lib/libopencm3_stm32.a(rcc.o)
rcc_osc_on                                        /opt/paparazzi/arm-multilib/lib/gcc/arm-none-eabi/4.6.2/../../../../arm-none-eabi/lib/libopencm3_stm32.a(rcc.o)
rcc_osc_ready_int_clear                           /opt/paparazzi/arm-multilib/lib/gcc/arm-none-eabi/4.6.2/../../../../arm-none-eabi/lib/libopencm3_stm32.a(rcc.o)
rcc_osc_ready_int_disable                         /opt/paparazzi/arm-multilib/lib/gcc/arm-none-eabi/4.6.2/../../../../arm-none-eabi/lib/libopencm3_stm32.a(rcc.o)
rcc_osc_ready_int_enable                          /opt/paparazzi/arm-multilib/lib/gcc/arm-none-eabi/4.6.2/../../../../arm-none-eabi/lib/libopencm3_stm32.a(rcc.o)
rcc_osc_ready_int_flag                            /opt/paparazzi/arm-multilib/lib/gcc/arm-none-eabi/4.6.2/../../../../arm-none-eabi/lib/libopencm3_stm32.a(rcc.o)
rcc_peripheral_clear_reset                        /opt/paparazzi/arm-multilib/lib/gcc/arm-none-eabi/4.6.2/../../../../arm-none-eabi/lib/libopencm3_stm32.a(rcc.o)
rcc_peripheral_disable_clock                      /opt/paparazzi/arm-multilib/lib/gcc/arm-none-eabi/4.6.2/../../../../arm-none-eabi/lib/libopencm3_stm32.a(rcc.o)
rcc_peripheral_enable_clock                       /opt/paparazzi/arm-multilib/lib/gcc/arm-none-eabi/4.6.2/../../../../arm-none-eabi/lib/libopencm3_stm32.a(rcc.o)
rcc_peripheral_reset                              /opt/paparazzi/arm-multilib/lib/gcc/arm-none-eabi/4.6.2/../../../../arm-none-eabi/lib/libopencm3_stm32.a(rcc.o)
rcc_ppre1_frequency                               /opt/paparazzi/arm-multilib/lib/gcc/arm-none-eabi/4.6.2/../../../../arm-none-eabi/lib/libopencm3_stm32.a(rcc.o)
                                                  /opt/paparazzi/arm-multilib/lib/gcc/arm-none-eabi/4.6.2/../../../../arm-none-eabi/lib/libopencm3_stm32.a(usart.o)
rcc_ppre2_frequency                               /opt/paparazzi/arm-multilib/lib/gcc/arm-none-eabi/4.6.2/../../../../arm-none-eabi/lib/libopencm3_stm32.a(rcc.o)
                                                  /opt/paparazzi/arm-multilib/lib/gcc/arm-none-eabi/4.6.2/../../../../arm-none-eabi/lib/libopencm3_stm32.a(usart.o)
rcc_set_adcpre                                    /opt/paparazzi/arm-multilib/lib/gcc/arm-none-eabi/4.6.2/../../../../arm-none-eabi/lib/libopencm3_stm32.a(rcc.o)
rcc_set_hpre                                      /opt/paparazzi/arm-multilib/lib/gcc/arm-none-eabi/4.6.2/../../../../arm-none-eabi/lib/libopencm3_stm32.a(rcc.o)
rcc_set_pll_multiplication_factor                 /opt/paparazzi/arm-multilib/lib/gcc/arm-none-eabi/4.6.2/../../../../arm-none-eabi/lib/libopencm3_stm32.a(rcc.o)
rcc_set_pll_source                                /opt/paparazzi/arm-multilib/lib/gcc/arm-none-eabi/4.6.2/../../../../arm-none-eabi/lib/libopencm3_stm32.a(rcc.o)
rcc_set_pllxtpre                                  /opt/paparazzi/arm-multilib/lib/gcc/arm-none-eabi/4.6.2/../../../../arm-none-eabi/lib/libopencm3_stm32.a(rcc.o)
rcc_set_ppre1                                     /opt/paparazzi/arm-multilib/lib/gcc/arm-none-eabi/4.6.2/../../../../arm-none-eabi/lib/libopencm3_stm32.a(rcc.o)
rcc_set_ppre2                                     /opt/paparazzi/arm-multilib/lib/gcc/arm-none-eabi/4.6.2/../../../../arm-none-eabi/lib/libopencm3_stm32.a(rcc.o)
rcc_set_sysclk_source                             /opt/paparazzi/arm-multilib/lib/gcc/arm-none-eabi/4.6.2/../../../../arm-none-eabi/lib/libopencm3_stm32.a(rcc.o)
rcc_set_usbpre                                    /opt/paparazzi/arm-multilib/lib/gcc/arm-none-eabi/4.6.2/../../../../arm-none-eabi/lib/libopencm3_stm32.a(rcc.o)
rcc_system_clock_source                           /opt/paparazzi/arm-multilib/lib/gcc/arm-none-eabi/4.6.2/../../../../arm-none-eabi/lib/libopencm3_stm32.a(rcc.o)
rcc_wait_for_osc_ready                            /opt/paparazzi/arm-multilib/lib/gcc/arm-none-eabi/4.6.2/../../../../arm-none-eabi/lib/libopencm3_stm32.a(rcc.o)
renorm_blowup_count                               /home/uav/USTUAV/paparazzi/var/MYAC/ap/subsystems/ahrs/ahrs_float_dcm.o
renorm_sqrt_count                                 /home/uav/USTUAV/paparazzi/var/MYAC/ap/subsystems/ahrs/ahrs_float_dcm.o
reporting_task                                    /home/uav/USTUAV/paparazzi/var/MYAC/ap/firmwares/fixedwing/main_ap.o
reset_handler_stage1                              /home/uav/USTUAV/paparazzi/var/MYAC/ap/arch/stm32/stm32_vector_table.o
reset_handler_stage2                              /home/uav/USTUAV/paparazzi/var/MYAC/ap/arch/stm32/stm32_vector_table.o
rint                                              /opt/paparazzi/arm-multilib/lib/gcc/arm-none-eabi/4.6.2/../../../../arm-none-eabi/lib/thumb2/libm.a(lib_a-s_rint.o)
                                                  /opt/paparazzi/arm-multilib/lib/gcc/arm-none-eabi/4.6.2/../../../../arm-none-eabi/lib/thumb2/libm.a(lib_a-wf_pow.o)
                                                  /opt/paparazzi/arm-multilib/lib/gcc/arm-none-eabi/4.6.2/../../../../arm-none-eabi/lib/thumb2/libm.a(lib_a-w_pow.o)
                                                  /home/uav/USTUAV/paparazzi/var/MYAC/ap/math/pprz_geodetic_int.o
scalbn                                            /opt/paparazzi/arm-multilib/lib/gcc/arm-none-eabi/4.6.2/../../../../arm-none-eabi/lib/thumb2/libm.a(lib_a-s_scalbn.o)
                                                  /opt/paparazzi/arm-multilib/lib/gcc/arm-none-eabi/4.6.2/../../../../arm-none-eabi/lib/thumb2/libm.a(lib_a-k_rem_pio2.o)
                                                  /opt/paparazzi/arm-multilib/lib/gcc/arm-none-eabi/4.6.2/../../../../arm-none-eabi/lib/thumb2/libm.a(lib_a-e_pow.o)
scalbnf                                           /opt/paparazzi/arm-multilib/lib/gcc/arm-none-eabi/4.6.2/../../../../arm-none-eabi/lib/thumb2/libm.a(lib_a-sf_scalbn.o)
                                                  /opt/paparazzi/arm-multilib/lib/gcc/arm-none-eabi/4.6.2/../../../../arm-none-eabi/lib/thumb2/libm.a(lib_a-kf_rem_pio2.o)
                                                  /opt/paparazzi/arm-multilib/lib/gcc/arm-none-eabi/4.6.2/../../../../arm-none-eabi/lib/thumb2/libm.a(lib_a-ef_pow.o)
sensors_task                                      /home/uav/USTUAV/paparazzi/var/MYAC/ap/firmwares/fixedwing/main_ap.o
sensors_tid                                       /home/uav/USTUAV/paparazzi/var/MYAC/ap/firmwares/fixedwing/main_ap.o
settings_init                                     /home/uav/USTUAV/paparazzi/var/MYAC/ap/subsystems/settings.o
                                                  /home/uav/USTUAV/paparazzi/var/MYAC/ap/firmwares/fixedwing/main_ap.o
settings_store                                    /home/uav/USTUAV/paparazzi/var/MYAC/ap/subsystems/settings.o
settings_store_now                                /home/uav/USTUAV/paparazzi/var/MYAC/ap/subsystems/settings.o
sin                                               /opt/paparazzi/arm-multilib/lib/gcc/arm-none-eabi/4.6.2/../../../../arm-none-eabi/lib/thumb2/libm.a(lib_a-s_sin.o)
                                                  /home/uav/USTUAV/paparazzi/var/MYAC/ap/subsystems/nav.o
                                                  /home/uav/USTUAV/paparazzi/var/MYAC/ap/math/pprz_geodetic_double.o
                                                  /home/uav/USTUAV/paparazzi/var/MYAC/ap/math/pprz_geodetic_float.o
sinf                                              /opt/paparazzi/arm-multilib/lib/gcc/arm-none-eabi/4.6.2/../../../../arm-none-eabi/lib/thumb2/libm.a(lib_a-sf_sin.o)
                                                  /home/uav/USTUAV/paparazzi/var/MYAC/ap/subsystems/ahrs/ahrs_float_dcm.o
                                                  /home/uav/USTUAV/paparazzi/var/MYAC/ap/math/pprz_geodetic_double.o
                                                  /home/uav/USTUAV/paparazzi/var/MYAC/ap/math/pprz_geodetic_float.o
                                                  /home/uav/USTUAV/paparazzi/var/MYAC/ap/math/pprz_geodetic_int.o
sinh                                              /opt/paparazzi/arm-multilib/lib/gcc/arm-none-eabi/4.6.2/../../../../arm-none-eabi/lib/thumb2/libm.a(lib_a-w_sinh.o)
                                                  /home/uav/USTUAV/paparazzi/var/MYAC/ap/math/pprz_geodetic_double.o
                                                  /home/uav/USTUAV/paparazzi/var/MYAC/ap/math/pprz_geodetic_float.o
slave0                                            /home/uav/USTUAV/paparazzi/var/MYAC/ap/arch/stm32/mcu_periph/spi_arch.o
spi_arch_int_disable                              /home/uav/USTUAV/paparazzi/var/MYAC/ap/arch/stm32/mcu_periph/spi_arch.o
spi_arch_int_enable                               /home/uav/USTUAV/paparazzi/var/MYAC/ap/arch/stm32/mcu_periph/spi_arch.o
spi_buffer_input                                  /home/uav/USTUAV/paparazzi/var/MYAC/ap/mcu_periph/spi.o
spi_buffer_length                                 /home/uav/USTUAV/paparazzi/var/MYAC/ap/mcu_periph/spi.o
spi_buffer_output                                 /home/uav/USTUAV/paparazzi/var/MYAC/ap/mcu_periph/spi.o
spi_init                                          /home/uav/USTUAV/paparazzi/var/MYAC/ap/arch/stm32/mcu_periph/spi_arch.o
                                                  /home/uav/USTUAV/paparazzi/var/MYAC/ap/mcu.o
spi_message_received                              /home/uav/USTUAV/paparazzi/var/MYAC/ap/mcu_periph/spi.o
                                                  /home/uav/USTUAV/paparazzi/var/MYAC/ap/arch/stm32/mcu_periph/spi_arch.o
spi_rw                                            /home/uav/USTUAV/paparazzi/var/MYAC/ap/arch/stm32/mcu_periph/spi_arch.o
                                                  /home/uav/USTUAV/paparazzi/var/MYAC/ap/subsystems/imu/imu_aspirin2.o
sqrt                                              /opt/paparazzi/arm-multilib/lib/gcc/arm-none-eabi/4.6.2/../../../../arm-none-eabi/lib/thumb2/libm.a(lib_a-w_sqrt.o)
                                                  /home/uav/USTUAV/paparazzi/var/MYAC/ap/subsystems/navigation/nav_line.o
                                                  /home/uav/USTUAV/paparazzi/var/MYAC/ap/subsystems/nav.o
                                                  /home/uav/USTUAV/paparazzi/var/MYAC/ap/subsystems/ahrs/ahrs_float_dcm.o
                                                  /home/uav/USTUAV/paparazzi/var/MYAC/ap/math/pprz_geodetic_double.o
sqrtf                                             /opt/paparazzi/arm-multilib/lib/gcc/arm-none-eabi/4.6.2/../../../../arm-none-eabi/lib/thumb2/libm.a(lib_a-wf_sqrt.o)
                                                  /home/uav/USTUAV/paparazzi/var/MYAC/ap/math/pprz_geodetic_double.o
                                                  /home/uav/USTUAV/paparazzi/var/MYAC/ap/math/pprz_geodetic_float.o
stage_time                                        /home/uav/USTUAV/paparazzi/var/MYAC/ap/subsystems/navigation/common_flight_plan.o
                                                  /home/uav/USTUAV/paparazzi/var/MYAC/ap/subsystems/nav.o
                                                  /home/uav/USTUAV/paparazzi/var/MYAC/ap/firmwares/fixedwing/main_ap.o
sum_cycle_periodic                                /home/uav/USTUAV/paparazzi/var/MYAC/ap/modules/core/sys_mon.o
sum_n_event                                       /home/uav/USTUAV/paparazzi/var/MYAC/ap/modules/core/sys_mon.o
sum_time_event                                    /home/uav/USTUAV/paparazzi/var/MYAC/ap/modules/core/sys_mon.o
sum_time_periodic                                 /home/uav/USTUAV/paparazzi/var/MYAC/ap/modules/core/sys_mon.o
sys_mon                                           /home/uav/USTUAV/paparazzi/var/MYAC/ap/modules/core/sys_mon.o
sys_tick_irq_handler                              /home/uav/USTUAV/paparazzi/var/MYAC/ap/arch/stm32/mcu_periph/sys_time_arch.o
                                                  /home/uav/USTUAV/paparazzi/var/MYAC/ap/arch/stm32/stm32_vector_table.o
sys_time                                          /home/uav/USTUAV/paparazzi/var/MYAC/ap/mcu_periph/sys_time.o
                                                  /home/uav/USTUAV/paparazzi/var/MYAC/ap/modules/core/sys_mon.o
                                                  /home/uav/USTUAV/paparazzi/var/MYAC/ap/firmwares/fixedwing/main_ap.o
                                                  /home/uav/USTUAV/paparazzi/var/MYAC/ap/firmwares/fixedwing/main_fbw.o
                                                  /home/uav/USTUAV/paparazzi/var/MYAC/ap/arch/stm32/mcu_periph/sys_time_arch.o
sys_time_arch_init                                /home/uav/USTUAV/paparazzi/var/MYAC/ap/arch/stm32/mcu_periph/sys_time_arch.o
                                                  /home/uav/USTUAV/paparazzi/var/MYAC/ap/mcu_periph/sys_time.o
sys_time_cancel_timer                             /home/uav/USTUAV/paparazzi/var/MYAC/ap/mcu_periph/sys_time.o
sys_time_init                                     /home/uav/USTUAV/paparazzi/var/MYAC/ap/mcu_periph/sys_time.o
                                                  /home/uav/USTUAV/paparazzi/var/MYAC/ap/mcu.o
sys_time_register_timer                           /home/uav/USTUAV/paparazzi/var/MYAC/ap/mcu_periph/sys_time.o
                                                  /home/uav/USTUAV/paparazzi/var/MYAC/ap/firmwares/fixedwing/main_ap.o
                                                  /home/uav/USTUAV/paparazzi/var/MYAC/ap/firmwares/fixedwing/main_fbw.o
sys_time_update_timer                             /home/uav/USTUAV/paparazzi/var/MYAC/ap/mcu_periph/sys_time.o
tan                                               /opt/paparazzi/arm-multilib/lib/gcc/arm-none-eabi/4.6.2/../../../../arm-none-eabi/lib/thumb2/libm.a(lib_a-s_tan.o)
                                                  /home/uav/USTUAV/paparazzi/var/MYAC/ap/math/pprz_geodetic_double.o
                                                  /home/uav/USTUAV/paparazzi/var/MYAC/ap/math/pprz_geodetic_float.o
telemetry_mode_Ap                                 /home/uav/USTUAV/paparazzi/var/MYAC/ap/firmwares/fixedwing/ap_downlink.o
                                                  /home/uav/USTUAV/paparazzi/var/MYAC/ap/firmwares/fixedwing/datalink.o
                                                  /home/uav/USTUAV/paparazzi/var/MYAC/ap/firmwares/fixedwing/main_ap.o
telemetry_mode_Fbw                                /home/uav/USTUAV/paparazzi/var/MYAC/ap/firmwares/fixedwing/fbw_downlink.o
                                                  /home/uav/USTUAV/paparazzi/var/MYAC/ap/firmwares/fixedwing/datalink.o
                                                  /home/uav/USTUAV/paparazzi/var/MYAC/ap/firmwares/fixedwing/main_ap.o
                                                  /home/uav/USTUAV/paparazzi/var/MYAC/ap/firmwares/fixedwing/main_fbw.o
telemetry_tid                                     /home/uav/USTUAV/paparazzi/var/MYAC/ap/firmwares/fixedwing/main_ap.o
the_acs                                           /home/uav/USTUAV/paparazzi/var/MYAC/ap/subsystems/navigation/traffic_info.o
                                                  /home/uav/USTUAV/paparazzi/var/MYAC/ap/firmwares/fixedwing/datalink.o
the_acs_id                                        /home/uav/USTUAV/paparazzi/var/MYAC/ap/subsystems/navigation/traffic_info.o
                                                  /home/uav/USTUAV/paparazzi/var/MYAC/ap/firmwares/fixedwing/datalink.o
tim6_irq_handler                                  /home/uav/USTUAV/paparazzi/var/MYAC/ap/arch/stm32/subsystems/radio_control/spektrum_arch.o
                                                  /home/uav/USTUAV/paparazzi/var/MYAC/ap/arch/stm32/stm32_vector_table.o
time_since_last_ap                                /home/uav/USTUAV/paparazzi/var/MYAC/ap/./inter_mcu.o
                                                  /home/uav/USTUAV/paparazzi/var/MYAC/ap/firmwares/fixedwing/main_fbw.o
too_far_from_home                                 /home/uav/USTUAV/paparazzi/var/MYAC/ap/subsystems/nav.o
                                                  /home/uav/USTUAV/paparazzi/var/MYAC/ap/firmwares/fixedwing/main_ap.o
traffic_info_init                                 /home/uav/USTUAV/paparazzi/var/MYAC/ap/subsystems/navigation/traffic_info.o
                                                  /home/uav/USTUAV/paparazzi/var/MYAC/ap/firmwares/fixedwing/main_ap.o
uart2                                             /home/uav/USTUAV/paparazzi/var/MYAC/ap/mcu_periph/uart.o
                                                  /home/uav/USTUAV/paparazzi/var/MYAC/ap/modules/core/sys_mon.o
                                                  /home/uav/USTUAV/paparazzi/var/MYAC/ap/subsystems/gps/gps_ubx.o
                                                  /home/uav/USTUAV/paparazzi/var/MYAC/ap/firmwares/fixedwing/datalink.o
                                                  /home/uav/USTUAV/paparazzi/var/MYAC/ap/arch/stm32/mcu_periph/uart_arch.o
                                                  /home/uav/USTUAV/paparazzi/var/MYAC/ap/firmwares/fixedwing/main_ap.o
                                                  /home/uav/USTUAV/paparazzi/var/MYAC/ap/firmwares/fixedwing/main_fbw.o
uart2_init                                        /home/uav/USTUAV/paparazzi/var/MYAC/ap/arch/stm32/mcu_periph/uart_arch.o
                                                  /home/uav/USTUAV/paparazzi/var/MYAC/ap/mcu.o
uart3                                             /home/uav/USTUAV/paparazzi/var/MYAC/ap/mcu_periph/uart.o
                                                  /home/uav/USTUAV/paparazzi/var/MYAC/ap/subsystems/gps/gps_ubx.o
                                                  /home/uav/USTUAV/paparazzi/var/MYAC/ap/arch/stm32/mcu_periph/uart_arch.o
                                                  /home/uav/USTUAV/paparazzi/var/MYAC/ap/firmwares/fixedwing/main_ap.o
uart3_init                                        /home/uav/USTUAV/paparazzi/var/MYAC/ap/arch/stm32/mcu_periph/uart_arch.o
                                                  /home/uav/USTUAV/paparazzi/var/MYAC/ap/mcu.o
uart_check_free_space                             /home/uav/USTUAV/paparazzi/var/MYAC/ap/mcu_periph/uart.o
                                                  /home/uav/USTUAV/paparazzi/var/MYAC/ap/modules/core/sys_mon.o
                                                  /home/uav/USTUAV/paparazzi/var/MYAC/ap/subsystems/gps/gps_ubx.o
                                                  /home/uav/USTUAV/paparazzi/var/MYAC/ap/firmwares/fixedwing/datalink.o
                                                  /home/uav/USTUAV/paparazzi/var/MYAC/ap/firmwares/fixedwing/main_ap.o
                                                  /home/uav/USTUAV/paparazzi/var/MYAC/ap/firmwares/fixedwing/main_fbw.o
uart_periph_init                                  /home/uav/USTUAV/paparazzi/var/MYAC/ap/mcu_periph/uart.o
                                                  /home/uav/USTUAV/paparazzi/var/MYAC/ap/arch/stm32/mcu_periph/uart_arch.o
uart_periph_set_baudrate                          /home/uav/USTUAV/paparazzi/var/MYAC/ap/arch/stm32/mcu_periph/uart_arch.o
                                                  /home/uav/USTUAV/paparazzi/var/MYAC/ap/subsystems/gps/gps_ubx.o
uart_transmit                                     /home/uav/USTUAV/paparazzi/var/MYAC/ap/arch/stm32/mcu_periph/uart_arch.o
                                                  /home/uav/USTUAV/paparazzi/var/MYAC/ap/modules/core/sys_mon.o
                                                  /home/uav/USTUAV/paparazzi/var/MYAC/ap/subsystems/gps/gps_ubx.o
                                                  /home/uav/USTUAV/paparazzi/var/MYAC/ap/firmwares/fixedwing/datalink.o
                                                  /home/uav/USTUAV/paparazzi/var/MYAC/ap/firmwares/fixedwing/main_ap.o
                                                  /home/uav/USTUAV/paparazzi/var/MYAC/ap/firmwares/fixedwing/main_fbw.o
ubxsend_cfg_rst                                   /home/uav/USTUAV/paparazzi/var/MYAC/ap/subsystems/gps/gps_ubx.o
usage_fault_exception                             /home/uav/USTUAV/paparazzi/var/MYAC/ap/arch/stm32/stm32_exceptions.o
                                                  /home/uav/USTUAV/paparazzi/var/MYAC/ap/arch/stm32/stm32_vector_table.o
usart1_irq_handler                                /home/uav/USTUAV/paparazzi/var/MYAC/ap/arch/stm32/subsystems/radio_control/spektrum_arch.o
                                                  /home/uav/USTUAV/paparazzi/var/MYAC/ap/arch/stm32/stm32_vector_table.o
usart2_irq_handler                                /home/uav/USTUAV/paparazzi/var/MYAC/ap/arch/stm32/mcu_periph/uart_arch.o
                                                  /home/uav/USTUAV/paparazzi/var/MYAC/ap/arch/stm32/stm32_vector_table.o
usart3_irq_handler                                /home/uav/USTUAV/paparazzi/var/MYAC/ap/arch/stm32/mcu_periph/uart_arch.o
                                                  /home/uav/USTUAV/paparazzi/var/MYAC/ap/arch/stm32/stm32_vector_table.o
usart_disable                                     /opt/paparazzi/arm-multilib/lib/gcc/arm-none-eabi/4.6.2/../../../../arm-none-eabi/lib/libopencm3_stm32.a(usart.o)
usart_enable                                      /opt/paparazzi/arm-multilib/lib/gcc/arm-none-eabi/4.6.2/../../../../arm-none-eabi/lib/libopencm3_stm32.a(usart.o)
usart_recv                                        /opt/paparazzi/arm-multilib/lib/gcc/arm-none-eabi/4.6.2/../../../../arm-none-eabi/lib/libopencm3_stm32.a(usart.o)
usart_recv_blocking                               /opt/paparazzi/arm-multilib/lib/gcc/arm-none-eabi/4.6.2/../../../../arm-none-eabi/lib/libopencm3_stm32.a(usart.o)
usart_send                                        /opt/paparazzi/arm-multilib/lib/gcc/arm-none-eabi/4.6.2/../../../../arm-none-eabi/lib/libopencm3_stm32.a(usart.o)
usart_send_blocking                               /opt/paparazzi/arm-multilib/lib/gcc/arm-none-eabi/4.6.2/../../../../arm-none-eabi/lib/libopencm3_stm32.a(usart.o)
usart_set_baudrate                                /opt/paparazzi/arm-multilib/lib/gcc/arm-none-eabi/4.6.2/../../../../arm-none-eabi/lib/libopencm3_stm32.a(usart.o)
                                                  /home/uav/USTUAV/paparazzi/var/MYAC/ap/arch/stm32/subsystems/radio_control/spektrum_arch.o
                                                  /home/uav/USTUAV/paparazzi/var/MYAC/ap/arch/stm32/mcu_periph/uart_arch.o
usart_set_databits                                /opt/paparazzi/arm-multilib/lib/gcc/arm-none-eabi/4.6.2/../../../../arm-none-eabi/lib/libopencm3_stm32.a(usart.o)
usart_set_flow_control                            /opt/paparazzi/arm-multilib/lib/gcc/arm-none-eabi/4.6.2/../../../../arm-none-eabi/lib/libopencm3_stm32.a(usart.o)
usart_set_mode                                    /opt/paparazzi/arm-multilib/lib/gcc/arm-none-eabi/4.6.2/../../../../arm-none-eabi/lib/libopencm3_stm32.a(usart.o)
usart_set_parity                                  /opt/paparazzi/arm-multilib/lib/gcc/arm-none-eabi/4.6.2/../../../../arm-none-eabi/lib/libopencm3_stm32.a(usart.o)
usart_set_stopbits                                /opt/paparazzi/arm-multilib/lib/gcc/arm-none-eabi/4.6.2/../../../../arm-none-eabi/lib/libopencm3_stm32.a(usart.o)
usart_wait_recv_ready                             /opt/paparazzi/arm-multilib/lib/gcc/arm-none-eabi/4.6.2/../../../../arm-none-eabi/lib/libopencm3_stm32.a(usart.o)
usart_wait_send_ready                             /opt/paparazzi/arm-multilib/lib/gcc/arm-none-eabi/4.6.2/../../../../arm-none-eabi/lib/libopencm3_stm32.a(usart.o)
utm_of_lla_f                                      /home/uav/USTUAV/paparazzi/var/MYAC/ap/math/pprz_geodetic_float.o
                                                  /home/uav/USTUAV/paparazzi/var/MYAC/ap/subsystems/nav.o
                                                  /home/uav/USTUAV/paparazzi/var/MYAC/ap/subsystems/gps/gps_ubx.o
                                                  /home/uav/USTUAV/paparazzi/var/MYAC/ap/firmwares/fixedwing/datalink.o
v_ctl_altitude_error                              /home/uav/USTUAV/paparazzi/var/MYAC/ap/firmwares/fixedwing/guidance/guidance_v.o
v_ctl_altitude_loop                               /home/uav/USTUAV/paparazzi/var/MYAC/ap/firmwares/fixedwing/guidance/guidance_v.o
                                                  /home/uav/USTUAV/paparazzi/var/MYAC/ap/firmwares/fixedwing/main_ap.o
v_ctl_altitude_max_climb                          /home/uav/USTUAV/paparazzi/var/MYAC/ap/firmwares/fixedwing/guidance/guidance_v.o
v_ctl_altitude_pgain                              /home/uav/USTUAV/paparazzi/var/MYAC/ap/firmwares/fixedwing/guidance/guidance_v.o
v_ctl_altitude_pre_climb                          /home/uav/USTUAV/paparazzi/var/MYAC/ap/firmwares/fixedwing/guidance/guidance_v.o
                                                  /home/uav/USTUAV/paparazzi/var/MYAC/ap/subsystems/navigation/nav_line.o
                                                  /home/uav/USTUAV/paparazzi/var/MYAC/ap/subsystems/navigation/nav_survey_rectangle.o
                                                  /home/uav/USTUAV/paparazzi/var/MYAC/ap/subsystems/nav.o
v_ctl_altitude_pre_climb_correction               /home/uav/USTUAV/paparazzi/var/MYAC/ap/firmwares/fixedwing/guidance/guidance_v.o
v_ctl_altitude_setpoint                           /home/uav/USTUAV/paparazzi/var/MYAC/ap/firmwares/fixedwing/guidance/guidance_v.o
                                                  /home/uav/USTUAV/paparazzi/var/MYAC/ap/subsystems/nav.o
                                                  /home/uav/USTUAV/paparazzi/var/MYAC/ap/firmwares/fixedwing/main_ap.o
v_ctl_auto_pitch_igain                            /home/uav/USTUAV/paparazzi/var/MYAC/ap/firmwares/fixedwing/guidance/guidance_v.o
v_ctl_auto_pitch_pgain                            /home/uav/USTUAV/paparazzi/var/MYAC/ap/firmwares/fixedwing/guidance/guidance_v.o
v_ctl_auto_pitch_sum_err                          /home/uav/USTUAV/paparazzi/var/MYAC/ap/firmwares/fixedwing/guidance/guidance_v.o
v_ctl_auto_throttle_climb_throttle_increment      /home/uav/USTUAV/paparazzi/var/MYAC/ap/firmwares/fixedwing/guidance/guidance_v.o
v_ctl_auto_throttle_cruise_throttle               /home/uav/USTUAV/paparazzi/var/MYAC/ap/firmwares/fixedwing/guidance/guidance_v.o
v_ctl_auto_throttle_dgain                         /home/uav/USTUAV/paparazzi/var/MYAC/ap/firmwares/fixedwing/guidance/guidance_v.o
v_ctl_auto_throttle_igain                         /home/uav/USTUAV/paparazzi/var/MYAC/ap/firmwares/fixedwing/guidance/guidance_v.o
v_ctl_auto_throttle_max_cruise_throttle           /home/uav/USTUAV/paparazzi/var/MYAC/ap/firmwares/fixedwing/guidance/guidance_v.o
v_ctl_auto_throttle_min_cruise_throttle           /home/uav/USTUAV/paparazzi/var/MYAC/ap/firmwares/fixedwing/guidance/guidance_v.o
v_ctl_auto_throttle_nominal_cruise_throttle       /home/uav/USTUAV/paparazzi/var/MYAC/ap/firmwares/fixedwing/guidance/guidance_v.o
v_ctl_auto_throttle_pgain                         /home/uav/USTUAV/paparazzi/var/MYAC/ap/firmwares/fixedwing/guidance/guidance_v.o
v_ctl_auto_throttle_pitch_of_vz_dgain             /home/uav/USTUAV/paparazzi/var/MYAC/ap/firmwares/fixedwing/guidance/guidance_v.o
v_ctl_auto_throttle_pitch_of_vz_pgain             /home/uav/USTUAV/paparazzi/var/MYAC/ap/firmwares/fixedwing/guidance/guidance_v.o
v_ctl_auto_throttle_submode                       /home/uav/USTUAV/paparazzi/var/MYAC/ap/firmwares/fixedwing/guidance/guidance_v.o
                                                  /home/uav/USTUAV/paparazzi/var/MYAC/ap/firmwares/fixedwing/main_ap.o
v_ctl_auto_throttle_sum_err                       /home/uav/USTUAV/paparazzi/var/MYAC/ap/firmwares/fixedwing/guidance/guidance_v.o
                                                  /home/uav/USTUAV/paparazzi/var/MYAC/ap/firmwares/fixedwing/main_ap.o
v_ctl_climb_loop                                  /home/uav/USTUAV/paparazzi/var/MYAC/ap/firmwares/fixedwing/guidance/guidance_v.o
                                                  /home/uav/USTUAV/paparazzi/var/MYAC/ap/firmwares/fixedwing/main_ap.o
v_ctl_climb_mode                                  /home/uav/USTUAV/paparazzi/var/MYAC/ap/firmwares/fixedwing/guidance/guidance_v.o
                                                  /home/uav/USTUAV/paparazzi/var/MYAC/ap/subsystems/navigation/nav_line.o
                                                  /home/uav/USTUAV/paparazzi/var/MYAC/ap/subsystems/navigation/nav_survey_rectangle.o
                                                  /home/uav/USTUAV/paparazzi/var/MYAC/ap/subsystems/nav.o
v_ctl_climb_setpoint                              /home/uav/USTUAV/paparazzi/var/MYAC/ap/firmwares/fixedwing/guidance/guidance_v.o
                                                  /home/uav/USTUAV/paparazzi/var/MYAC/ap/firmwares/fixedwing/main_ap.o
v_ctl_init                                        /home/uav/USTUAV/paparazzi/var/MYAC/ap/firmwares/fixedwing/guidance/guidance_v.o
                                                  /home/uav/USTUAV/paparazzi/var/MYAC/ap/firmwares/fixedwing/main_ap.o
v_ctl_mode                                        /home/uav/USTUAV/paparazzi/var/MYAC/ap/firmwares/fixedwing/guidance/guidance_v.o
                                                  /home/uav/USTUAV/paparazzi/var/MYAC/ap/subsystems/navigation/nav_line.o
                                                  /home/uav/USTUAV/paparazzi/var/MYAC/ap/subsystems/navigation/nav_survey_rectangle.o
                                                  /home/uav/USTUAV/paparazzi/var/MYAC/ap/subsystems/nav.o
                                                  /home/uav/USTUAV/paparazzi/var/MYAC/ap/firmwares/fixedwing/main_ap.o
v_ctl_throttle_setpoint                           /home/uav/USTUAV/paparazzi/var/MYAC/ap/firmwares/fixedwing/guidance/guidance_v.o
                                                  /home/uav/USTUAV/paparazzi/var/MYAC/ap/firmwares/fixedwing/stabilization/stabilization_attitude.o
                                                  /home/uav/USTUAV/paparazzi/var/MYAC/ap/firmwares/fixedwing/main_ap.o
v_ctl_throttle_slew                               /home/uav/USTUAV/paparazzi/var/MYAC/ap/firmwares/fixedwing/guidance/guidance_v.o
                                                  /home/uav/USTUAV/paparazzi/var/MYAC/ap/firmwares/fixedwing/main_ap.o
v_ctl_throttle_slewed                             /home/uav/USTUAV/paparazzi/var/MYAC/ap/firmwares/fixedwing/guidance/guidance_v.o
                                                  /home/uav/USTUAV/paparazzi/var/MYAC/ap/firmwares/fixedwing/main_ap.o
vector_table                                      /home/uav/USTUAV/paparazzi/var/MYAC/ap/arch/stm32/stm32_vector_table.o
vsupply                                           /home/uav/USTUAV/paparazzi/var/MYAC/ap/firmwares/fixedwing/main_ap.o
waypoints                                         /home/uav/USTUAV/paparazzi/var/MYAC/ap/subsystems/nav.o
                                                  /home/uav/USTUAV/paparazzi/var/MYAC/ap/subsystems/navigation/nav_line.o
                                                  /home/uav/USTUAV/paparazzi/var/MYAC/ap/subsystems/navigation/nav_survey_rectangle.o
                                                  /home/uav/USTUAV/paparazzi/var/MYAC/ap/firmwares/fixedwing/datalink.o
                                                  /home/uav/USTUAV/paparazzi/var/MYAC/ap/firmwares/fixedwing/main_ap.o
wind_east                                         /home/uav/USTUAV/paparazzi/var/MYAC/ap/./estimator.o
                                                  /home/uav/USTUAV/paparazzi/var/MYAC/ap/firmwares/fixedwing/datalink.o
wind_north                                        /home/uav/USTUAV/paparazzi/var/MYAC/ap/./estimator.o
                                                  /home/uav/USTUAV/paparazzi/var/MYAC/ap/firmwares/fixedwing/datalink.o
