   1              		.syntax unified
   2              		.cpu cortex-m3
   3              		.fpu softvfp
   4              		.eabi_attribute 20, 1
   5              		.eabi_attribute 21, 1
   6              		.eabi_attribute 23, 3
   7              		.eabi_attribute 24, 1
   8              		.eabi_attribute 25, 1
   9              		.eabi_attribute 26, 1
  10              		.eabi_attribute 30, 4
  11              		.eabi_attribute 18, 4
  12              		.thumb
  13              		.file	"gps_ubx.c"
  14              		.text
  15              	.Ltext0:
  16              		.cfi_sections	.debug_frame
  17              		.section	.text.gps_ubx_ucenter_enable_msg.constprop.0,"ax",%progbits
  18              		.align	1
  19              		.thumb
  20              		.thumb_func
  22              	gps_ubx_ucenter_enable_msg.constprop.0:
  23              	.LFB44:
  24              		.file 1 "./modules/gps/gps_ubx_ucenter.c"
   1:./modules/gps/gps_ubx_ucenter.c **** /*
   2:./modules/gps/gps_ubx_ucenter.c ****  * Copyright (C) 2008-2011 The Paparazzi Team
   3:./modules/gps/gps_ubx_ucenter.c ****  *
   4:./modules/gps/gps_ubx_ucenter.c ****  * This file is part of paparazzi.
   5:./modules/gps/gps_ubx_ucenter.c ****  *
   6:./modules/gps/gps_ubx_ucenter.c ****  * paparazzi is free software; you can redistribute it and/or modify
   7:./modules/gps/gps_ubx_ucenter.c ****  * it under the terms of the GNU General Public License as published by
   8:./modules/gps/gps_ubx_ucenter.c ****  * the Free Software Foundation; either version 2, or (at your option)
   9:./modules/gps/gps_ubx_ucenter.c ****  * any later version.
  10:./modules/gps/gps_ubx_ucenter.c ****  *
  11:./modules/gps/gps_ubx_ucenter.c ****  * paparazzi is distributed in the hope that it will be useful,
  12:./modules/gps/gps_ubx_ucenter.c ****  * but WITHOUT ANY WARRANTY; without even the implied warranty of
  13:./modules/gps/gps_ubx_ucenter.c ****  * MERCHANTABILITY or FITNESS FOR A PARTICULAR PURPOSE.  See the
  14:./modules/gps/gps_ubx_ucenter.c ****  * GNU General Public License for more details.
  15:./modules/gps/gps_ubx_ucenter.c ****  *
  16:./modules/gps/gps_ubx_ucenter.c ****  * You should have received a copy of the GNU General Public License
  17:./modules/gps/gps_ubx_ucenter.c ****  * along with paparazzi; see the file COPYING.  If not, write to
  18:./modules/gps/gps_ubx_ucenter.c ****  * the Free Software Foundation, 59 Temple Place - Suite 330,
  19:./modules/gps/gps_ubx_ucenter.c ****  * Boston, MA 02111-1307, USA.
  20:./modules/gps/gps_ubx_ucenter.c ****  *
  21:./modules/gps/gps_ubx_ucenter.c ****  * Initial author: C. De Wagter
  22:./modules/gps/gps_ubx_ucenter.c ****  */
  23:./modules/gps/gps_ubx_ucenter.c **** 
  24:./modules/gps/gps_ubx_ucenter.c **** #include "gps_ubx_ucenter.h"
  25:./modules/gps/gps_ubx_ucenter.c **** 
  26:./modules/gps/gps_ubx_ucenter.c **** //////////////////////////////////////////////////////////////////////////////////////
  27:./modules/gps/gps_ubx_ucenter.c **** //////////////////////////////////////////////////////////////////////////////////////
  28:./modules/gps/gps_ubx_ucenter.c **** //
  29:./modules/gps/gps_ubx_ucenter.c **** // UCENTER: init, periodic and event
  30:./modules/gps/gps_ubx_ucenter.c **** 
  31:./modules/gps/gps_ubx_ucenter.c **** static bool_t gps_ubx_ucenter_autobaud(uint8_t nr);
  32:./modules/gps/gps_ubx_ucenter.c **** static bool_t gps_ubx_ucenter_configure(uint8_t nr);
  33:./modules/gps/gps_ubx_ucenter.c **** 
  34:./modules/gps/gps_ubx_ucenter.c **** #define GPS_UBX_UCENTER_STATUS_STOPPED    0
  35:./modules/gps/gps_ubx_ucenter.c **** #define GPS_UBX_UCENTER_STATUS_AUTOBAUD   1
  36:./modules/gps/gps_ubx_ucenter.c **** #define GPS_UBX_UCENTER_STATUS_CONFIG     2
  37:./modules/gps/gps_ubx_ucenter.c **** 
  38:./modules/gps/gps_ubx_ucenter.c **** #define GPS_UBX_UCENTER_REPLY_NONE        0
  39:./modules/gps/gps_ubx_ucenter.c **** #define GPS_UBX_UCENTER_REPLY_ACK         1
  40:./modules/gps/gps_ubx_ucenter.c **** #define GPS_UBX_UCENTER_REPLY_NACK        2
  41:./modules/gps/gps_ubx_ucenter.c **** #define GPS_UBX_UCENTER_REPLY_VERSION     3
  42:./modules/gps/gps_ubx_ucenter.c **** 
  43:./modules/gps/gps_ubx_ucenter.c **** // All U-Center data
  44:./modules/gps/gps_ubx_ucenter.c **** struct gps_ubx_ucenter_struct gps_ubx_ucenter;
  45:./modules/gps/gps_ubx_ucenter.c **** 
  46:./modules/gps/gps_ubx_ucenter.c **** 
  47:./modules/gps/gps_ubx_ucenter.c **** /////////////////////////////
  48:./modules/gps/gps_ubx_ucenter.c **** // Init Function
  49:./modules/gps/gps_ubx_ucenter.c **** 
  50:./modules/gps/gps_ubx_ucenter.c **** void gps_ubx_ucenter_init(void)
  51:./modules/gps/gps_ubx_ucenter.c **** {
  52:./modules/gps/gps_ubx_ucenter.c ****   // Start UCenter
  53:./modules/gps/gps_ubx_ucenter.c ****   gps_ubx_ucenter.status = GPS_UBX_UCENTER_STATUS_AUTOBAUD;
  54:./modules/gps/gps_ubx_ucenter.c ****   gps_ubx_ucenter.reply = GPS_UBX_UCENTER_REPLY_NONE;
  55:./modules/gps/gps_ubx_ucenter.c ****   gps_ubx_ucenter.cnt = 0;
  56:./modules/gps/gps_ubx_ucenter.c **** 
  57:./modules/gps/gps_ubx_ucenter.c ****   gps_ubx_ucenter.baud_init = 0;
  58:./modules/gps/gps_ubx_ucenter.c ****   gps_ubx_ucenter.baud_run = 0;
  59:./modules/gps/gps_ubx_ucenter.c **** 
  60:./modules/gps/gps_ubx_ucenter.c ****   gps_ubx_ucenter.sw_ver_h = 0;
  61:./modules/gps/gps_ubx_ucenter.c ****   gps_ubx_ucenter.sw_ver_l = 0;
  62:./modules/gps/gps_ubx_ucenter.c ****   gps_ubx_ucenter.hw_ver_h = 0;
  63:./modules/gps/gps_ubx_ucenter.c ****   gps_ubx_ucenter.hw_ver_l = 0;
  64:./modules/gps/gps_ubx_ucenter.c **** 
  65:./modules/gps/gps_ubx_ucenter.c ****   for (int i=0; i<GPS_UBX_UCENTER_CONFIG_STEPS; i++)
  66:./modules/gps/gps_ubx_ucenter.c ****   {
  67:./modules/gps/gps_ubx_ucenter.c ****     gps_ubx_ucenter.replies[i] = 0;
  68:./modules/gps/gps_ubx_ucenter.c ****   }
  69:./modules/gps/gps_ubx_ucenter.c **** }
  70:./modules/gps/gps_ubx_ucenter.c **** 
  71:./modules/gps/gps_ubx_ucenter.c **** 
  72:./modules/gps/gps_ubx_ucenter.c **** /////////////////////////////
  73:./modules/gps/gps_ubx_ucenter.c **** // Periodic Function
  74:./modules/gps/gps_ubx_ucenter.c **** // -time-based configuration
  75:./modules/gps/gps_ubx_ucenter.c **** 
  76:./modules/gps/gps_ubx_ucenter.c **** void gps_ubx_ucenter_periodic(void)
  77:./modules/gps/gps_ubx_ucenter.c **** {
  78:./modules/gps/gps_ubx_ucenter.c ****   switch (gps_ubx_ucenter.status)
  79:./modules/gps/gps_ubx_ucenter.c ****   {
  80:./modules/gps/gps_ubx_ucenter.c ****     // Save processing time inflight
  81:./modules/gps/gps_ubx_ucenter.c ****     case GPS_UBX_UCENTER_STATUS_STOPPED:
  82:./modules/gps/gps_ubx_ucenter.c ****       return;
  83:./modules/gps/gps_ubx_ucenter.c ****     // Automatically Determine Current Baudrate
  84:./modules/gps/gps_ubx_ucenter.c ****     case GPS_UBX_UCENTER_STATUS_AUTOBAUD:
  85:./modules/gps/gps_ubx_ucenter.c ****       if (gps_ubx_ucenter_autobaud(gps_ubx_ucenter.cnt) == FALSE)
  86:./modules/gps/gps_ubx_ucenter.c ****       {
  87:./modules/gps/gps_ubx_ucenter.c ****         gps_ubx_ucenter.status = GPS_UBX_UCENTER_STATUS_CONFIG;
  88:./modules/gps/gps_ubx_ucenter.c ****         gps_ubx_ucenter.cnt = 0;
  89:./modules/gps/gps_ubx_ucenter.c ****       }
  90:./modules/gps/gps_ubx_ucenter.c ****       else
  91:./modules/gps/gps_ubx_ucenter.c ****       {
  92:./modules/gps/gps_ubx_ucenter.c ****         gps_ubx_ucenter.cnt++;
  93:./modules/gps/gps_ubx_ucenter.c ****       }
  94:./modules/gps/gps_ubx_ucenter.c ****       break;
  95:./modules/gps/gps_ubx_ucenter.c ****     // Send Configuration
  96:./modules/gps/gps_ubx_ucenter.c ****     case GPS_UBX_UCENTER_STATUS_CONFIG:
  97:./modules/gps/gps_ubx_ucenter.c ****       if (gps_ubx_ucenter_configure(gps_ubx_ucenter.cnt) == FALSE)
  98:./modules/gps/gps_ubx_ucenter.c ****       {
  99:./modules/gps/gps_ubx_ucenter.c ****         gps_ubx_ucenter.status = GPS_UBX_UCENTER_STATUS_STOPPED;
 100:./modules/gps/gps_ubx_ucenter.c ****         gps_ubx_ucenter.cnt = 0;
 101:./modules/gps/gps_ubx_ucenter.c ****       }
 102:./modules/gps/gps_ubx_ucenter.c ****       else
 103:./modules/gps/gps_ubx_ucenter.c ****       {
 104:./modules/gps/gps_ubx_ucenter.c ****         gps_ubx_ucenter.cnt++;
 105:./modules/gps/gps_ubx_ucenter.c ****       }
 106:./modules/gps/gps_ubx_ucenter.c ****       break;
 107:./modules/gps/gps_ubx_ucenter.c ****     default:
 108:./modules/gps/gps_ubx_ucenter.c ****       // stop this module now...
 109:./modules/gps/gps_ubx_ucenter.c ****       // todo
 110:./modules/gps/gps_ubx_ucenter.c ****       break;
 111:./modules/gps/gps_ubx_ucenter.c ****   }
 112:./modules/gps/gps_ubx_ucenter.c **** }
 113:./modules/gps/gps_ubx_ucenter.c **** 
 114:./modules/gps/gps_ubx_ucenter.c **** /////////////////////////////
 115:./modules/gps/gps_ubx_ucenter.c **** // Event Function
 116:./modules/gps/gps_ubx_ucenter.c **** // -fetch replies: ACK and VERSION info
 117:./modules/gps/gps_ubx_ucenter.c **** 
 118:./modules/gps/gps_ubx_ucenter.c **** void gps_ubx_ucenter_event(void)
 119:./modules/gps/gps_ubx_ucenter.c **** {
 120:./modules/gps/gps_ubx_ucenter.c ****   // Save processing time inflight
 121:./modules/gps/gps_ubx_ucenter.c ****   if (gps_ubx_ucenter.status == GPS_UBX_UCENTER_STATUS_STOPPED)
 122:./modules/gps/gps_ubx_ucenter.c ****     return;
 123:./modules/gps/gps_ubx_ucenter.c **** 
 124:./modules/gps/gps_ubx_ucenter.c ****   // Read Configuration Reply's
 125:./modules/gps/gps_ubx_ucenter.c ****   if (gps_ubx.msg_class == UBX_ACK_ID) {
 126:./modules/gps/gps_ubx_ucenter.c ****     if (gps_ubx.msg_id == UBX_ACK_ACK_ID) {
 127:./modules/gps/gps_ubx_ucenter.c ****       gps_ubx_ucenter.reply = GPS_UBX_UCENTER_REPLY_ACK;
 128:./modules/gps/gps_ubx_ucenter.c ****     }
 129:./modules/gps/gps_ubx_ucenter.c ****     else
 130:./modules/gps/gps_ubx_ucenter.c ****     {
 131:./modules/gps/gps_ubx_ucenter.c ****       gps_ubx_ucenter.reply = GPS_UBX_UCENTER_REPLY_NACK;
 132:./modules/gps/gps_ubx_ucenter.c ****     }
 133:./modules/gps/gps_ubx_ucenter.c ****   }
 134:./modules/gps/gps_ubx_ucenter.c ****   // Version info
 135:./modules/gps/gps_ubx_ucenter.c ****   else if (gps_ubx.msg_class == UBX_MON_ID) {
 136:./modules/gps/gps_ubx_ucenter.c ****     if (gps_ubx.msg_id == UBX_MON_VER_ID ) {
 137:./modules/gps/gps_ubx_ucenter.c ****       gps_ubx_ucenter.reply = GPS_UBX_UCENTER_REPLY_VERSION;
 138:./modules/gps/gps_ubx_ucenter.c ****       gps_ubx_ucenter.sw_ver_h = UBX_MON_VER_c(gps_ubx.msg_buf,0) - '0';
 139:./modules/gps/gps_ubx_ucenter.c ****       gps_ubx_ucenter.sw_ver_l = 10*(UBX_MON_VER_c(gps_ubx.msg_buf,2) - '0');
 140:./modules/gps/gps_ubx_ucenter.c ****       gps_ubx_ucenter.sw_ver_l += UBX_MON_VER_c(gps_ubx.msg_buf,3) - '0';
 141:./modules/gps/gps_ubx_ucenter.c ****       gps_ubx_ucenter.hw_ver_h = UBX_MON_VER_c(gps_ubx.msg_buf,33) - '0';
 142:./modules/gps/gps_ubx_ucenter.c ****       gps_ubx_ucenter.hw_ver_h += 10*(UBX_MON_VER_c(gps_ubx.msg_buf,32) - '0');
 143:./modules/gps/gps_ubx_ucenter.c ****       gps_ubx_ucenter.hw_ver_l = UBX_MON_VER_c(gps_ubx.msg_buf,37) - '0';
 144:./modules/gps/gps_ubx_ucenter.c ****       gps_ubx_ucenter.hw_ver_l += 10*(UBX_MON_VER_c(gps_ubx.msg_buf,36) - '0');
 145:./modules/gps/gps_ubx_ucenter.c ****     }
 146:./modules/gps/gps_ubx_ucenter.c ****   }
 147:./modules/gps/gps_ubx_ucenter.c **** }
 148:./modules/gps/gps_ubx_ucenter.c **** 
 149:./modules/gps/gps_ubx_ucenter.c **** //////////////////////////////////////////////////////////////////////////////////////
 150:./modules/gps/gps_ubx_ucenter.c **** //////////////////////////////////////////////////////////////////////////////////////
 151:./modules/gps/gps_ubx_ucenter.c **** //
 152:./modules/gps/gps_ubx_ucenter.c **** // UCENTER Configuration Functions
 153:./modules/gps/gps_ubx_ucenter.c **** 
 154:./modules/gps/gps_ubx_ucenter.c **** 
 155:./modules/gps/gps_ubx_ucenter.c **** static bool_t gps_ubx_ucenter_autobaud(uint8_t nr)
 156:./modules/gps/gps_ubx_ucenter.c **** {
 157:./modules/gps/gps_ubx_ucenter.c ****   switch (nr)
 158:./modules/gps/gps_ubx_ucenter.c ****   {
 159:./modules/gps/gps_ubx_ucenter.c ****   case 0:
 160:./modules/gps/gps_ubx_ucenter.c ****   case 1:
 161:./modules/gps/gps_ubx_ucenter.c ****     // Very important for some modules:
 162:./modules/gps/gps_ubx_ucenter.c ****     // Give the GPS some time to boot (up to 0.75 second)
 163:./modules/gps/gps_ubx_ucenter.c ****     break;
 164:./modules/gps/gps_ubx_ucenter.c ****   case 2:
 165:./modules/gps/gps_ubx_ucenter.c ****     gps_ubx_ucenter.reply = GPS_UBX_UCENTER_REPLY_NONE;
 166:./modules/gps/gps_ubx_ucenter.c ****     GpsUartSetBaudrate(B38400); // Try the most common first?
 167:./modules/gps/gps_ubx_ucenter.c ****     UbxSend_CFG_MSG(UBX_NAV_ID, UBX_NAV_VELNED_ID, 0, 1, 0, 0);
 168:./modules/gps/gps_ubx_ucenter.c ****     break;
 169:./modules/gps/gps_ubx_ucenter.c ****   case 3:
 170:./modules/gps/gps_ubx_ucenter.c ****     if (gps_ubx_ucenter.reply == GPS_UBX_UCENTER_REPLY_ACK)
 171:./modules/gps/gps_ubx_ucenter.c ****     {
 172:./modules/gps/gps_ubx_ucenter.c ****       gps_ubx_ucenter.baud_init = 38400;
 173:./modules/gps/gps_ubx_ucenter.c ****       return FALSE;
 174:./modules/gps/gps_ubx_ucenter.c ****     }
 175:./modules/gps/gps_ubx_ucenter.c ****     gps_ubx_ucenter.reply = GPS_UBX_UCENTER_REPLY_NONE;
 176:./modules/gps/gps_ubx_ucenter.c ****     GpsUartSetBaudrate(B9600); // Maybe the factory default?
 177:./modules/gps/gps_ubx_ucenter.c ****     UbxSend_CFG_MSG(UBX_NAV_ID, UBX_NAV_VELNED_ID, 0, 1, 0, 0);
 178:./modules/gps/gps_ubx_ucenter.c ****     break;
 179:./modules/gps/gps_ubx_ucenter.c ****   case 4:
 180:./modules/gps/gps_ubx_ucenter.c ****     if (gps_ubx_ucenter.reply == GPS_UBX_UCENTER_REPLY_ACK)
 181:./modules/gps/gps_ubx_ucenter.c ****     {
 182:./modules/gps/gps_ubx_ucenter.c ****       gps_ubx_ucenter.baud_init = 9600;
 183:./modules/gps/gps_ubx_ucenter.c ****       return FALSE;
 184:./modules/gps/gps_ubx_ucenter.c ****     }
 185:./modules/gps/gps_ubx_ucenter.c ****     gps_ubx_ucenter.reply = GPS_UBX_UCENTER_REPLY_NONE;
 186:./modules/gps/gps_ubx_ucenter.c ****     GpsUartSetBaudrate(B57600); // The high-rate default?
 187:./modules/gps/gps_ubx_ucenter.c ****     UbxSend_CFG_MSG(UBX_NAV_ID, UBX_NAV_VELNED_ID, 0, 1, 0, 0);
 188:./modules/gps/gps_ubx_ucenter.c ****     break;
 189:./modules/gps/gps_ubx_ucenter.c ****   case 5:
 190:./modules/gps/gps_ubx_ucenter.c ****     if (gps_ubx_ucenter.reply == GPS_UBX_UCENTER_REPLY_ACK)
 191:./modules/gps/gps_ubx_ucenter.c ****     {
 192:./modules/gps/gps_ubx_ucenter.c ****       gps_ubx_ucenter.baud_init = 57600;
 193:./modules/gps/gps_ubx_ucenter.c ****       return FALSE;
 194:./modules/gps/gps_ubx_ucenter.c ****      }
 195:./modules/gps/gps_ubx_ucenter.c ****     gps_ubx_ucenter.reply = GPS_UBX_UCENTER_REPLY_NONE;
 196:./modules/gps/gps_ubx_ucenter.c ****     GpsUartSetBaudrate(B4800); // Default NMEA baudrate finally?
 197:./modules/gps/gps_ubx_ucenter.c ****     UbxSend_CFG_MSG(UBX_NAV_ID, UBX_NAV_VELNED_ID, 0, 1, 0, 0);
 198:./modules/gps/gps_ubx_ucenter.c ****     break;
 199:./modules/gps/gps_ubx_ucenter.c ****   case 6:
 200:./modules/gps/gps_ubx_ucenter.c ****     if (gps_ubx_ucenter.reply == GPS_UBX_UCENTER_REPLY_ACK)
 201:./modules/gps/gps_ubx_ucenter.c ****     {
 202:./modules/gps/gps_ubx_ucenter.c ****       gps_ubx_ucenter.baud_init = 4800;
 203:./modules/gps/gps_ubx_ucenter.c ****       return FALSE;
 204:./modules/gps/gps_ubx_ucenter.c ****      }
 205:./modules/gps/gps_ubx_ucenter.c **** 
 206:./modules/gps/gps_ubx_ucenter.c ****     // Autoconfig Failed... let's setup the failsafe baudrate
 207:./modules/gps/gps_ubx_ucenter.c ****     // Should we try even a different baudrate?
 208:./modules/gps/gps_ubx_ucenter.c ****     gps_ubx_ucenter.baud_init = 0;
 209:./modules/gps/gps_ubx_ucenter.c ****     GpsUartSetBaudrate(B9600);
 210:./modules/gps/gps_ubx_ucenter.c ****     return FALSE;
 211:./modules/gps/gps_ubx_ucenter.c ****   default:
 212:./modules/gps/gps_ubx_ucenter.c ****     break;
 213:./modules/gps/gps_ubx_ucenter.c ****   }
 214:./modules/gps/gps_ubx_ucenter.c ****   return TRUE;
 215:./modules/gps/gps_ubx_ucenter.c **** }
 216:./modules/gps/gps_ubx_ucenter.c **** 
 217:./modules/gps/gps_ubx_ucenter.c **** /////////////////////////////////////
 218:./modules/gps/gps_ubx_ucenter.c **** // UBlox internal Navigation Solution
 219:./modules/gps/gps_ubx_ucenter.c **** 
 220:./modules/gps/gps_ubx_ucenter.c **** #define NAV_DYN_STATIONARY  1
 221:./modules/gps/gps_ubx_ucenter.c **** #define NAV_DYN_PEDESTRIAN  2
 222:./modules/gps/gps_ubx_ucenter.c **** #define NAV_DYN_AUTOMOTIVE  3
 223:./modules/gps/gps_ubx_ucenter.c **** #define NAV_DYN_SEA         4
 224:./modules/gps/gps_ubx_ucenter.c **** #define NAV_DYN_AIRBORNE_1G 5
 225:./modules/gps/gps_ubx_ucenter.c **** #define NAV_DYN_AIRBORNE_2G 6
 226:./modules/gps/gps_ubx_ucenter.c **** #define NAV_DYN_AIRBORNE_4G 7
 227:./modules/gps/gps_ubx_ucenter.c **** 
 228:./modules/gps/gps_ubx_ucenter.c **** #define NAV5_DYN_PORTABLE    0
 229:./modules/gps/gps_ubx_ucenter.c **** #define NAV5_DYN_FIXED       1
 230:./modules/gps/gps_ubx_ucenter.c **** #define NAV5_DYN_STATIONARY  2
 231:./modules/gps/gps_ubx_ucenter.c **** #define NAV5_DYN_PEDESTRIAN  3
 232:./modules/gps/gps_ubx_ucenter.c **** #define NAV5_DYN_AUTOMOTIVE  4
 233:./modules/gps/gps_ubx_ucenter.c **** #define NAV5_DYN_SEA         5
 234:./modules/gps/gps_ubx_ucenter.c **** #define NAV5_DYN_AIRBORNE_1G 6
 235:./modules/gps/gps_ubx_ucenter.c **** #define NAV5_DYN_AIRBORNE_2G 7
 236:./modules/gps/gps_ubx_ucenter.c **** #define NAV5_DYN_AIRBORNE_4G 8
 237:./modules/gps/gps_ubx_ucenter.c **** 
 238:./modules/gps/gps_ubx_ucenter.c **** #define NAV5_2D_ONLY 1
 239:./modules/gps/gps_ubx_ucenter.c **** #define NAV5_3D_ONLY 2
 240:./modules/gps/gps_ubx_ucenter.c **** #define NAV5_AUTO    3
 241:./modules/gps/gps_ubx_ucenter.c **** 
 242:./modules/gps/gps_ubx_ucenter.c **** #define IGNORED 0
 243:./modules/gps/gps_ubx_ucenter.c **** #define RESERVED 0
 244:./modules/gps/gps_ubx_ucenter.c **** 
 245:./modules/gps/gps_ubx_ucenter.c **** static inline void gps_ubx_ucenter_config_nav(void)
 246:./modules/gps/gps_ubx_ucenter.c **** {
 247:./modules/gps/gps_ubx_ucenter.c ****     //New ublox firmware v5 or higher uses CFG_NAV5 message, CFG_NAV is no longer available
 248:./modules/gps/gps_ubx_ucenter.c ****     if (gps_ubx_ucenter.sw_ver_h < 5)
 249:./modules/gps/gps_ubx_ucenter.c ****     {
 250:./modules/gps/gps_ubx_ucenter.c ****       UbxSend_CFG_NAV(NAV_DYN_AIRBORNE_2G, 3, 16, 24, 20, 5, 0, 0x3C, 0x3C, 0x14, 0x03E8 ,0x0000, 0
 251:./modules/gps/gps_ubx_ucenter.c ****     }
 252:./modules/gps/gps_ubx_ucenter.c ****     else
 253:./modules/gps/gps_ubx_ucenter.c ****     {
 254:./modules/gps/gps_ubx_ucenter.c ****       UbxSend_CFG_NAV5(0x05, NAV5_DYN_AIRBORNE_2G, NAV5_3D_ONLY, IGNORED, IGNORED, IGNORED, IGNORED
 255:./modules/gps/gps_ubx_ucenter.c ****     }
 256:./modules/gps/gps_ubx_ucenter.c **** }
 257:./modules/gps/gps_ubx_ucenter.c **** 
 258:./modules/gps/gps_ubx_ucenter.c **** 
 259:./modules/gps/gps_ubx_ucenter.c **** 
 260:./modules/gps/gps_ubx_ucenter.c **** /////////////////////////////////////
 261:./modules/gps/gps_ubx_ucenter.c **** // UBlox port and protocol GPS configuration
 262:./modules/gps/gps_ubx_ucenter.c **** 
 263:./modules/gps/gps_ubx_ucenter.c **** #define UBX_PROTO_MASK  0x0001
 264:./modules/gps/gps_ubx_ucenter.c **** #define NMEA_PROTO_MASK 0x0002
 265:./modules/gps/gps_ubx_ucenter.c **** #define RTCM_PROTO_MASK 0x0004
 266:./modules/gps/gps_ubx_ucenter.c **** 
 267:./modules/gps/gps_ubx_ucenter.c **** #define GPS_PORT_DDC   0x00
 268:./modules/gps/gps_ubx_ucenter.c **** #define GPS_PORT_UART1 0x01
 269:./modules/gps/gps_ubx_ucenter.c **** #define GPS_PORT_UART2 0x02
 270:./modules/gps/gps_ubx_ucenter.c **** #define GPS_PORT_USB   0x03
 271:./modules/gps/gps_ubx_ucenter.c **** #define GPS_PORT_SPI   0x04
 272:./modules/gps/gps_ubx_ucenter.c **** 
 273:./modules/gps/gps_ubx_ucenter.c **** #ifndef GPS_PORT_ID
 274:./modules/gps/gps_ubx_ucenter.c **** #define GPS_PORT_ID GPS_PORT_UART1
 275:./modules/gps/gps_ubx_ucenter.c **** #endif
 276:./modules/gps/gps_ubx_ucenter.c **** 
 277:./modules/gps/gps_ubx_ucenter.c **** #define __UBX_GPS_BAUD(_u) _u##_BAUD
 278:./modules/gps/gps_ubx_ucenter.c **** #define _UBX_GPS_BAUD(_u) __UBX_GPS_BAUD(_u)
 279:./modules/gps/gps_ubx_ucenter.c **** #define UBX_GPS_BAUD _UBX_GPS_BAUD(GPS_LINK)
 280:./modules/gps/gps_ubx_ucenter.c **** 
 281:./modules/gps/gps_ubx_ucenter.c **** static inline void gps_ubx_ucenter_config_port(void)
 282:./modules/gps/gps_ubx_ucenter.c **** {
 283:./modules/gps/gps_ubx_ucenter.c ****  // I2C Interface
 284:./modules/gps/gps_ubx_ucenter.c ****   #if GPS_PORT_ID == GPS_PORT_DDC
 285:./modules/gps/gps_ubx_ucenter.c ****     UbxSend_CFG_PRT(GPS_PORT_ID, 0x0, 0x0, GPS_I2C_SLAVE_ADDR, 0x0, UBX_PROTO_MASK, UBX_PROTO_MASK,
 286:./modules/gps/gps_ubx_ucenter.c ****   #endif
 287:./modules/gps/gps_ubx_ucenter.c ****   // UART Interface
 288:./modules/gps/gps_ubx_ucenter.c ****   #if GPS_PORT_ID == GPS_PORT_UART1 || GPS_PORT_ID == GPS_PORT_UART2
 289:./modules/gps/gps_ubx_ucenter.c ****     UbxSend_CFG_PRT(GPS_PORT_ID, 0x0, 0x0, 0x000008D0, 38400, UBX_PROTO_MASK, UBX_PROTO_MASK, 0x0, 
 290:./modules/gps/gps_ubx_ucenter.c ****   #endif
 291:./modules/gps/gps_ubx_ucenter.c **** }
 292:./modules/gps/gps_ubx_ucenter.c **** 
 293:./modules/gps/gps_ubx_ucenter.c **** #define GPS_SBAS_ENABLED       0x01
 294:./modules/gps/gps_ubx_ucenter.c **** 
 295:./modules/gps/gps_ubx_ucenter.c **** #define GPS_SBAS_RANGING       0x01
 296:./modules/gps/gps_ubx_ucenter.c **** #define GPS_SBAS_CORRECTIONS   0x02
 297:./modules/gps/gps_ubx_ucenter.c **** #define GPS_SBAS_INTEGRITY     0x04
 298:./modules/gps/gps_ubx_ucenter.c **** 
 299:./modules/gps/gps_ubx_ucenter.c **** static inline void gps_ubx_ucenter_config_sbas(void)
 300:./modules/gps/gps_ubx_ucenter.c **** {
 301:./modules/gps/gps_ubx_ucenter.c ****   // Since March 2nd 2011 EGNOS is released for aviation purposes
 302:./modules/gps/gps_ubx_ucenter.c ****   const uint8_t nrofsat = 1;
 303:./modules/gps/gps_ubx_ucenter.c ****   UbxSend_CFG_SBAS(GPS_SBAS_ENABLED, GPS_SBAS_RANGING | GPS_SBAS_CORRECTIONS | GPS_SBAS_INTEGRITY, 
 304:./modules/gps/gps_ubx_ucenter.c ****   //UbxSend_CFG_SBAS(0x00, 0x00, 0x00, 0x00, 0x00);
 305:./modules/gps/gps_ubx_ucenter.c **** }
 306:./modules/gps/gps_ubx_ucenter.c **** 
 307:./modules/gps/gps_ubx_ucenter.c **** static inline void gps_ubx_ucenter_enable_msg(uint8_t class, uint8_t id, uint8_t rate)
  25              		.loc 1 307 0
  26              		.cfi_startproc
  27              		@ args = 0, pretend = 0, frame = 0
  28              		@ frame_needed = 0, uses_anonymous_args = 0
  29              	.LVL0:
  30 0000 2DE9F041 		push	{r4, r5, r6, r7, r8, lr}
  31              	.LCFI0:
  32              		.cfi_def_cfa_offset 24
  33              		.cfi_offset 14, -4
  34              		.cfi_offset 8, -8
  35              		.cfi_offset 7, -12
  36              		.cfi_offset 6, -16
  37              		.cfi_offset 5, -20
  38              		.cfi_offset 4, -24
  39              	.LBB99:
 308:./modules/gps/gps_ubx_ucenter.c **** {
 309:./modules/gps/gps_ubx_ucenter.c ****   #if GPS_PORT_ID == GPS_PORT_UART1
 310:./modules/gps/gps_ubx_ucenter.c ****     UbxSend_CFG_MSG(class, id, 0, rate, 0, 0);
  40              		.loc 1 310 0
  41 0004 504D     		ldr	r5, .L2
  42              	.LBE99:
 307:./modules/gps/gps_ubx_ucenter.c **** static inline void gps_ubx_ucenter_enable_msg(uint8_t class, uint8_t id, uint8_t rate)
  43              		.loc 1 307 0
  44 0006 8046     		mov	r8, r0
  45 0008 0F46     		mov	r7, r1
  46              	.LBB153:
  47              		.loc 1 310 0
  48 000a 2846     		mov	r0, r5
  49              	.LVL1:
  50 000c B521     		movs	r1, #181
  51              	.LVL2:
  52 000e 4F4C     		ldr	r4, .L2+4
  53 0010 FFF7FEFF 		bl	uart_transmit
  54 0014 2846     		mov	r0, r5
  55 0016 6221     		movs	r1, #98
  56 0018 FFF7FEFF 		bl	uart_transmit
  57 001c 0026     		movs	r6, #0
  58              	.LBB100:
  59 001e 2846     		mov	r0, r5
  60 0020 0621     		movs	r1, #6
  61              	.LBE100:
  62 0022 84F81061 		strb	r6, [r4, #272]
  63 0026 84F80F61 		strb	r6, [r4, #271]
  64              	.LVL3:
  65              	.LBB101:
  66 002a FFF7FEFF 		bl	uart_transmit
  67 002e 94F80F31 		ldrb	r3, [r4, #271]	@ zero_extendqisi2
  68 0032 94F81021 		ldrb	r2, [r4, #272]	@ zero_extendqisi2
  69 0036 0633     		adds	r3, r3, #6
  70 0038 DBB2     		uxtb	r3, r3
  71 003a 84F80F31 		strb	r3, [r4, #271]
  72              	.LBE101:
  73              	.LBB102:
  74 003e 2846     		mov	r0, r5
  75              	.LBE102:
  76              	.LBB103:
  77 0040 9B18     		adds	r3, r3, r2
  78              	.LBE103:
  79              	.LBB104:
  80 0042 0121     		movs	r1, #1
  81              	.LBE104:
  82              	.LBB105:
  83 0044 84F81031 		strb	r3, [r4, #272]
  84              	.LVL4:
  85              	.LBE105:
  86              	.LBB106:
  87 0048 FFF7FEFF 		bl	uart_transmit
  88 004c 94F80F31 		ldrb	r3, [r4, #271]	@ zero_extendqisi2
  89 0050 94F81021 		ldrb	r2, [r4, #272]	@ zero_extendqisi2
  90 0054 0133     		adds	r3, r3, #1
  91 0056 DBB2     		uxtb	r3, r3
  92 0058 84F80F31 		strb	r3, [r4, #271]
  93              	.LBE106:
  94              	.LBB107:
  95              	.LBB108:
  96 005c 2846     		mov	r0, r5
  97              	.LBE108:
  98              	.LBE107:
  99              	.LBB118:
 100 005e 9B18     		adds	r3, r3, r2
 101              	.LBE118:
 102              	.LBB119:
 103              	.LBB109:
 104 0060 0621     		movs	r1, #6
 105              	.LBE109:
 106              	.LBE119:
 107              	.LBB120:
 108 0062 84F81031 		strb	r3, [r4, #272]
 109              	.LVL5:
 110              	.LBE120:
 111              	.LBB121:
 112              	.LBB110:
 113 0066 FFF7FEFF 		bl	uart_transmit
 114 006a 94F80F31 		ldrb	r3, [r4, #271]	@ zero_extendqisi2
 115 006e 94F81021 		ldrb	r2, [r4, #272]	@ zero_extendqisi2
 116 0072 0633     		adds	r3, r3, #6
 117 0074 DBB2     		uxtb	r3, r3
 118 0076 84F80F31 		strb	r3, [r4, #271]
 119              	.LBE110:
 120              	.LBB111:
 121 007a 2846     		mov	r0, r5
 122              	.LBE111:
 123              	.LBB112:
 124 007c 9B18     		adds	r3, r3, r2
 125              	.LBE112:
 126              	.LBB113:
 127 007e 3146     		mov	r1, r6
 128              	.LBE113:
 129              	.LBB114:
 130 0080 84F81031 		strb	r3, [r4, #272]
 131              	.LVL6:
 132              	.LBE114:
 133              	.LBB115:
 134 0084 FFF7FEFF 		bl	uart_transmit
 135 0088 94F81021 		ldrb	r2, [r4, #272]	@ zero_extendqisi2
 136 008c 94F80F31 		ldrb	r3, [r4, #271]	@ zero_extendqisi2
 137              	.LBE115:
 138              	.LBE121:
 139              	.LBB122:
 140 0090 2846     		mov	r0, r5
 141              	.LBE122:
 142              	.LBB123:
 143              	.LBB116:
 144 0092 D318     		adds	r3, r2, r3
 145              	.LBE116:
 146              	.LBE123:
 147              	.LBB124:
 148 0094 0121     		movs	r1, #1
 149              	.LBE124:
 150              	.LBB125:
 151              	.LBB117:
 152 0096 84F81031 		strb	r3, [r4, #272]
 153              	.LVL7:
 154              	.LBE117:
 155              	.LBE125:
 156              	.LBB126:
 157 009a FFF7FEFF 		bl	uart_transmit
 158 009e 94F80F31 		ldrb	r3, [r4, #271]	@ zero_extendqisi2
 159 00a2 94F81021 		ldrb	r2, [r4, #272]	@ zero_extendqisi2
 160 00a6 0133     		adds	r3, r3, #1
 161 00a8 DBB2     		uxtb	r3, r3
 162 00aa 84F80F31 		strb	r3, [r4, #271]
 163              	.LBE126:
 164              	.LBB127:
 165 00ae 2846     		mov	r0, r5
 166              	.LBE127:
 167              	.LBB128:
 168 00b0 9B18     		adds	r3, r3, r2
 169              	.LBE128:
 170              	.LBB129:
 171 00b2 4146     		mov	r1, r8
 172              	.LBE129:
 173              	.LBB130:
 174 00b4 84F81031 		strb	r3, [r4, #272]
 175              	.LVL8:
 176              	.LBE130:
 177              	.LBB131:
 178 00b8 FFF7FEFF 		bl	uart_transmit
 179 00bc 94F80F31 		ldrb	r3, [r4, #271]	@ zero_extendqisi2
 180              	.LBE131:
 181              	.LBB132:
 182 00c0 2846     		mov	r0, r5
 183              	.LBE132:
 184              	.LBB133:
 185 00c2 9844     		add	r8, r8, r3
 186              	.LVL9:
 187 00c4 94F81031 		ldrb	r3, [r4, #272]	@ zero_extendqisi2
 188 00c8 5FFA88F8 		uxtb	r8, r8
 189 00cc 84F80F81 		strb	r8, [r4, #271]
 190              	.LBE133:
 191              	.LBB134:
 192 00d0 3146     		mov	r1, r6
 193              	.LBE134:
 194              	.LBB135:
 195 00d2 9844     		add	r8, r8, r3
 196 00d4 84F81081 		strb	r8, [r4, #272]
 197              	.LVL10:
 198              	.LBE135:
 199              	.LBB136:
 200 00d8 FFF7FEFF 		bl	uart_transmit
 201 00dc 94F81021 		ldrb	r2, [r4, #272]	@ zero_extendqisi2
 202 00e0 94F80F31 		ldrb	r3, [r4, #271]	@ zero_extendqisi2
 203              	.LBE136:
 204              	.LBB137:
 205 00e4 2846     		mov	r0, r5
 206              	.LBE137:
 207              	.LBB138:
 208 00e6 D318     		adds	r3, r2, r3
 209              	.LBE138:
 210              	.LBB139:
 211 00e8 3946     		mov	r1, r7
 212              	.LBE139:
 213              	.LBB140:
 214 00ea 84F81031 		strb	r3, [r4, #272]
 215              	.LVL11:
 216              	.LBE140:
 217              	.LBB141:
 218 00ee FFF7FEFF 		bl	uart_transmit
 219 00f2 94F80F31 		ldrb	r3, [r4, #271]	@ zero_extendqisi2
 220              	.LBE141:
 221              	.LBB142:
 222 00f6 2846     		mov	r0, r5
 223              	.LBE142:
 224              	.LBB143:
 225 00f8 FF18     		adds	r7, r7, r3
 226              	.LVL12:
 227 00fa 94F81031 		ldrb	r3, [r4, #272]	@ zero_extendqisi2
 228 00fe FFB2     		uxtb	r7, r7
 229 0100 84F80F71 		strb	r7, [r4, #271]
 230              	.LBE143:
 231              	.LBB144:
 232 0104 3146     		mov	r1, r6
 233              	.LBE144:
 234              	.LBB145:
 235 0106 FF18     		adds	r7, r7, r3
 236 0108 84F81071 		strb	r7, [r4, #272]
 237              	.LVL13:
 238              	.LBE145:
 239              	.LBB146:
 240 010c FFF7FEFF 		bl	uart_transmit
 241 0110 94F81021 		ldrb	r2, [r4, #272]	@ zero_extendqisi2
 242 0114 94F80F31 		ldrb	r3, [r4, #271]	@ zero_extendqisi2
 243              	.LBE146:
 244              	.LBB147:
 245 0118 2846     		mov	r0, r5
 246              	.LBE147:
 247              	.LBB148:
 248 011a D318     		adds	r3, r2, r3
 249              	.LBE148:
 250              	.LBB149:
 251 011c 3146     		mov	r1, r6
 252              	.LBE149:
 253              	.LBB150:
 254 011e 84F81031 		strb	r3, [r4, #272]
 255              	.LVL14:
 256              	.LBE150:
 257              	.LBB151:
 258 0122 FFF7FEFF 		bl	uart_transmit
 259 0126 94F80F11 		ldrb	r1, [r4, #271]	@ zero_extendqisi2
 260 012a 94F81031 		ldrb	r3, [r4, #272]	@ zero_extendqisi2
 261              	.LBE151:
 262 012e 2846     		mov	r0, r5
 263              	.LBB152:
 264 0130 CB18     		adds	r3, r1, r3
 265 0132 84F81031 		strb	r3, [r4, #272]
 266              	.LBE152:
 267 0136 FFF7FEFF 		bl	uart_transmit
 268 013a 94F81011 		ldrb	r1, [r4, #272]	@ zero_extendqisi2
 269 013e 2846     		mov	r0, r5
 270              	.LBE153:
 311:./modules/gps/gps_ubx_ucenter.c ****   #endif
 312:./modules/gps/gps_ubx_ucenter.c ****   #if GPS_PORT_ID == GPS_PORT_UART2
 313:./modules/gps/gps_ubx_ucenter.c ****     UbxSend_CFG_MSG(class, id, 0, 0, rate, 0);
 314:./modules/gps/gps_ubx_ucenter.c ****   #endif
 315:./modules/gps/gps_ubx_ucenter.c ****   #if GPS_PORT_ID == GPS_PORT_DDC
 316:./modules/gps/gps_ubx_ucenter.c ****     UbxSend_CFG_MSG(class, id, rate, 0, 0, 0);
 317:./modules/gps/gps_ubx_ucenter.c ****   #endif
 318:./modules/gps/gps_ubx_ucenter.c **** }
 271              		.loc 1 318 0
 272 0140 BDE8F041 		pop	{r4, r5, r6, r7, r8, lr}
 273              	.LBB154:
 310:./modules/gps/gps_ubx_ucenter.c ****     UbxSend_CFG_MSG(class, id, 0, rate, 0, 0);
 274              		.loc 1 310 0
 275 0144 FFF7FEBF 		b	uart_transmit
 276              	.L3:
 277              		.align	2
 278              	.L2:
 279 0148 00000000 		.word	uart3
 280 014c 00000000 		.word	.LANCHOR0
 281              	.LBE154:
 282              		.cfi_endproc
 283              	.LFE44:
 285              		.section	.text.gps_impl_init,"ax",%progbits
 286              		.align	1
 287              		.global	gps_impl_init
 288              		.thumb
 289              		.thumb_func
 291              	gps_impl_init:
 292              	.LFB27:
 293              		.file 2 "subsystems/gps/gps_ubx.c"
   1:subsystems/gps/gps_ubx.c **** /*
   2:subsystems/gps/gps_ubx.c ****  * Copyright (C) 2010 Antoine Drouin <poinix@gmail.com>
   3:subsystems/gps/gps_ubx.c ****  *
   4:subsystems/gps/gps_ubx.c ****  * This file is part of paparazzi.
   5:subsystems/gps/gps_ubx.c ****  *
   6:subsystems/gps/gps_ubx.c ****  * paparazzi is free software; you can redistribute it and/or modify
   7:subsystems/gps/gps_ubx.c ****  * it under the terms of the GNU General Public License as published by
   8:subsystems/gps/gps_ubx.c ****  * the Free Software Foundation; either version 2, or (at your option)
   9:subsystems/gps/gps_ubx.c ****  * any later version.
  10:subsystems/gps/gps_ubx.c ****  *
  11:subsystems/gps/gps_ubx.c ****  * paparazzi is distributed in the hope that it will be useful,
  12:subsystems/gps/gps_ubx.c ****  * but WITHOUT ANY WARRANTY; without even the implied warranty of
  13:subsystems/gps/gps_ubx.c ****  * MERCHANTABILITY or FITNESS FOR A PARTICULAR PURPOSE.  See the
  14:subsystems/gps/gps_ubx.c ****  * GNU General Public License for more details.
  15:subsystems/gps/gps_ubx.c ****  *
  16:subsystems/gps/gps_ubx.c ****  * You should have received a copy of the GNU General Public License
  17:subsystems/gps/gps_ubx.c ****  * along with paparazzi; see the file COPYING.  If not, write to
  18:subsystems/gps/gps_ubx.c ****  * the Free Software Foundation, 59 Temple Place - Suite 330,
  19:subsystems/gps/gps_ubx.c ****  * Boston, MA 02111-1307, USA.
  20:subsystems/gps/gps_ubx.c ****  */
  21:subsystems/gps/gps_ubx.c **** 
  22:subsystems/gps/gps_ubx.c **** 
  23:subsystems/gps/gps_ubx.c **** #include "subsystems/gps.h"
  24:subsystems/gps/gps_ubx.c **** 
  25:subsystems/gps/gps_ubx.c **** #include "led.h"
  26:subsystems/gps/gps_ubx.c **** 
  27:subsystems/gps/gps_ubx.c **** #if GPS_USE_LATLONG
  28:subsystems/gps/gps_ubx.c **** /* currently needed to get nav_utm_zone0 */
  29:subsystems/gps/gps_ubx.c **** #include "subsystems/navigation/common_nav.h"
  30:subsystems/gps/gps_ubx.c **** #include "math/pprz_geodetic_float.h"
  31:subsystems/gps/gps_ubx.c **** #endif
  32:subsystems/gps/gps_ubx.c **** 
  33:subsystems/gps/gps_ubx.c **** /* parser status */
  34:subsystems/gps/gps_ubx.c **** #define UNINIT        0
  35:subsystems/gps/gps_ubx.c **** #define GOT_SYNC1     1
  36:subsystems/gps/gps_ubx.c **** #define GOT_SYNC2     2
  37:subsystems/gps/gps_ubx.c **** #define GOT_CLASS     3
  38:subsystems/gps/gps_ubx.c **** #define GOT_ID        4
  39:subsystems/gps/gps_ubx.c **** #define GOT_LEN1      5
  40:subsystems/gps/gps_ubx.c **** #define GOT_LEN2      6
  41:subsystems/gps/gps_ubx.c **** #define GOT_PAYLOAD   7
  42:subsystems/gps/gps_ubx.c **** #define GOT_CHECKSUM1 8
  43:subsystems/gps/gps_ubx.c **** 
  44:subsystems/gps/gps_ubx.c **** /* last error type */
  45:subsystems/gps/gps_ubx.c **** #define GPS_UBX_ERR_NONE         0
  46:subsystems/gps/gps_ubx.c **** #define GPS_UBX_ERR_OVERRUN      1
  47:subsystems/gps/gps_ubx.c **** #define GPS_UBX_ERR_MSG_TOO_LONG 2
  48:subsystems/gps/gps_ubx.c **** #define GPS_UBX_ERR_CHECKSUM     3
  49:subsystems/gps/gps_ubx.c **** #define GPS_UBX_ERR_UNEXPECTED   4
  50:subsystems/gps/gps_ubx.c **** #define GPS_UBX_ERR_OUT_OF_SYNC  5
  51:subsystems/gps/gps_ubx.c **** 
  52:subsystems/gps/gps_ubx.c **** #define UTM_HEM_NORTH 0
  53:subsystems/gps/gps_ubx.c **** #define UTM_HEM_SOUTH 1
  54:subsystems/gps/gps_ubx.c **** 
  55:subsystems/gps/gps_ubx.c **** 
  56:subsystems/gps/gps_ubx.c **** #define GpsUartSend1(c) GpsLink(Transmit(c))
  57:subsystems/gps/gps_ubx.c **** #define GpsUartSetBaudrate(_a) GpsLink(SetBaudrate(_a))
  58:subsystems/gps/gps_ubx.c **** #define GpsUartRunning GpsLink(TxRunning)
  59:subsystems/gps/gps_ubx.c **** #define GpsUartSendMessage GpsLink(SendMessage)
  60:subsystems/gps/gps_ubx.c **** 
  61:subsystems/gps/gps_ubx.c **** #define UbxInitCheksum() { gps_ubx.send_ck_a = gps_ubx.send_ck_b = 0; }
  62:subsystems/gps/gps_ubx.c **** #define UpdateChecksum(c) { gps_ubx.send_ck_a += c; gps_ubx.send_ck_b += gps_ubx.send_ck_a; }
  63:subsystems/gps/gps_ubx.c **** #define UbxTrailer() { GpsUartSend1(gps_ubx.send_ck_a);  GpsUartSend1(gps_ubx.send_ck_b); GpsUartSe
  64:subsystems/gps/gps_ubx.c **** 
  65:subsystems/gps/gps_ubx.c **** #define UbxSend1(c) { uint8_t i8=c; GpsUartSend1(i8); UpdateChecksum(i8); }
  66:subsystems/gps/gps_ubx.c **** #define UbxSend2(c) { uint16_t i16=c; UbxSend1(i16&0xff); UbxSend1(i16 >> 8); }
  67:subsystems/gps/gps_ubx.c **** #define UbxSend1ByAddr(x) { UbxSend1(*x); }
  68:subsystems/gps/gps_ubx.c **** #define UbxSend2ByAddr(x) { UbxSend1(*x); UbxSend1(*(x+1)); }
  69:subsystems/gps/gps_ubx.c **** #define UbxSend4ByAddr(x) { UbxSend1(*x); UbxSend1(*(x+1)); UbxSend1(*(x+2)); UbxSend1(*(x+3)); }
  70:subsystems/gps/gps_ubx.c **** 
  71:subsystems/gps/gps_ubx.c **** #define UbxHeader(nav_id, msg_id, len) {        \
  72:subsystems/gps/gps_ubx.c ****     GpsUartSend1(UBX_SYNC1);                    \
  73:subsystems/gps/gps_ubx.c ****     GpsUartSend1(UBX_SYNC2);                    \
  74:subsystems/gps/gps_ubx.c ****     UbxInitCheksum();                           \
  75:subsystems/gps/gps_ubx.c ****     UbxSend1(nav_id);                           \
  76:subsystems/gps/gps_ubx.c ****     UbxSend1(msg_id);                           \
  77:subsystems/gps/gps_ubx.c ****     UbxSend2(len);                              \
  78:subsystems/gps/gps_ubx.c ****   }
  79:subsystems/gps/gps_ubx.c **** 
  80:subsystems/gps/gps_ubx.c **** 
  81:subsystems/gps/gps_ubx.c **** struct GpsUbx gps_ubx;
  82:subsystems/gps/gps_ubx.c **** 
  83:subsystems/gps/gps_ubx.c **** void gps_impl_init(void) {
 294              		.loc 2 83 0
 295              		.cfi_startproc
 296              		@ args = 0, pretend = 0, frame = 0
 297              		@ frame_needed = 0, uses_anonymous_args = 0
 298              		@ link register save eliminated.
  84:subsystems/gps/gps_ubx.c ****    gps_ubx.status = UNINIT;
 299              		.loc 2 84 0
 300 0000 054B     		ldr	r3, .L5
 301 0002 0022     		movs	r2, #0
 302 0004 83F80921 		strb	r2, [r3, #265]
  85:subsystems/gps/gps_ubx.c ****    gps_ubx.msg_available = FALSE;
 303              		.loc 2 85 0
 304 0008 1A70     		strb	r2, [r3, #0]
  86:subsystems/gps/gps_ubx.c ****    gps_ubx.error_cnt = 0;
 305              		.loc 2 86 0
 306 000a 83F81121 		strb	r2, [r3, #273]
  87:subsystems/gps/gps_ubx.c ****    gps_ubx.error_last = GPS_UBX_ERR_NONE;
 307              		.loc 2 87 0
 308 000e 83F81221 		strb	r2, [r3, #274]
  88:subsystems/gps/gps_ubx.c ****    gps_ubx.have_velned = 0;
 309              		.loc 2 88 0
 310 0012 83F81521 		strb	r2, [r3, #277]
  89:subsystems/gps/gps_ubx.c **** }
 311              		.loc 2 89 0
 312 0016 7047     		bx	lr
 313              	.L6:
 314              		.align	2
 315              	.L5:
 316 0018 00000000 		.word	.LANCHOR0
 317              		.cfi_endproc
 318              	.LFE27:
 320              		.global	__aeabi_i2d
 321              		.global	__aeabi_dmul
 322              		.global	__aeabi_d2iz
 323              		.global	__aeabi_i2f
 324              		.global	__aeabi_fdiv
 325              		.global	__aeabi_fmul
 326              		.global	__aeabi_f2iz
 327              		.global	__aeabi_ui2d
 328              		.global	__aeabi_d2uiz
 329              		.section	.text.gps_ubx_read_message,"ax",%progbits
 330              		.align	1
 331              		.global	gps_ubx_read_message
 332              		.thumb
 333              		.thumb_func
 335              	gps_ubx_read_message:
 336              	.LFB28:
  90:subsystems/gps/gps_ubx.c **** 
  91:subsystems/gps/gps_ubx.c **** 
  92:subsystems/gps/gps_ubx.c **** void gps_ubx_read_message(void) {
 337              		.loc 2 92 0
 338              		.cfi_startproc
 339              		@ args = 0, pretend = 0, frame = 32
 340              		@ frame_needed = 0, uses_anonymous_args = 0
 341 0000 F0B5     		push	{r4, r5, r6, r7, lr}
 342              	.LCFI1:
 343              		.cfi_def_cfa_offset 20
 344              		.cfi_offset 14, -4
 345              		.cfi_offset 7, -8
 346              		.cfi_offset 6, -12
 347              		.cfi_offset 5, -16
 348              		.cfi_offset 4, -20
  93:subsystems/gps/gps_ubx.c **** 
  94:subsystems/gps/gps_ubx.c ****   if (gps_ubx.msg_class == UBX_NAV_ID) {
 349              		.loc 2 94 0
 350 0002 8B4C     		ldr	r4, .L16+8
  92:subsystems/gps/gps_ubx.c **** void gps_ubx_read_message(void) {
 351              		.loc 2 92 0
 352 0004 89B0     		sub	sp, sp, #36
 353              	.LCFI2:
 354              		.cfi_def_cfa_offset 56
 355              		.loc 2 94 0
 356 0006 94F80861 		ldrb	r6, [r4, #264]	@ zero_extendqisi2
 357 000a 012E     		cmp	r6, #1
 358 000c 40F0C881 		bne	.L7
  95:subsystems/gps/gps_ubx.c ****     if (gps_ubx.msg_id == UBX_NAV_SOL_ID) {
 359              		.loc 2 95 0
 360 0010 94F80731 		ldrb	r3, [r4, #263]	@ zero_extendqisi2
 361 0014 062B     		cmp	r3, #6
 362 0016 40F09980 		bne	.L9
  96:subsystems/gps/gps_ubx.c **** #ifdef GPS_TIMESTAMP
  97:subsystems/gps/gps_ubx.c ****       /* get hardware clock ticks */
  98:subsystems/gps/gps_ubx.c ****       SysTimeTimerStart(gps.t0);
  99:subsystems/gps/gps_ubx.c ****       gps.t0_tow        = UBX_NAV_SOL_ITOW(gps_ubx.msg_buf);
 100:subsystems/gps/gps_ubx.c ****       gps.t0_tow_frac   = UBX_NAV_SOL_Frac(gps_ubx.msg_buf);
 101:subsystems/gps/gps_ubx.c **** #endif
 102:subsystems/gps/gps_ubx.c ****       gps.tow        = UBX_NAV_SOL_ITOW(gps_ubx.msg_buf);
 363              		.loc 2 102 0
 364 001a A27A     		ldrb	r2, [r4, #10]	@ zero_extendqisi2
 365 001c E17A     		ldrb	r1, [r4, #11]	@ zero_extendqisi2
 366 001e 1204     		lsls	r2, r2, #16
 367 0020 607A     		ldrb	r0, [r4, #9]	@ zero_extendqisi2
 368 0022 42EA0162 		orr	r2, r2, r1, lsl #24
 369 0026 217A     		ldrb	r1, [r4, #8]	@ zero_extendqisi2
 370 0028 824B     		ldr	r3, .L16+12
 371 002a 41EA0021 		orr	r1, r1, r0, lsl #8
 372 002e 0A43     		orrs	r2, r2, r1
 373 0030 1A66     		str	r2, [r3, #96]
 103:subsystems/gps/gps_ubx.c ****       gps.week       = UBX_NAV_SOL_week(gps_ubx.msg_buf);
 374              		.loc 2 103 0
 375 0032 617C     		ldrb	r1, [r4, #17]	@ zero_extendqisi2
 376 0034 227C     		ldrb	r2, [r4, #16]	@ zero_extendqisi2
 104:subsystems/gps/gps_ubx.c ****       gps.fix        = UBX_NAV_SOL_GPSfix(gps_ubx.msg_buf);
 105:subsystems/gps/gps_ubx.c ****       gps.ecef_pos.x = UBX_NAV_SOL_ECEF_X(gps_ubx.msg_buf);
 377              		.loc 2 105 0
 378 0036 607D     		ldrb	r0, [r4, #21]	@ zero_extendqisi2
 103:subsystems/gps/gps_ubx.c ****       gps.week       = UBX_NAV_SOL_week(gps_ubx.msg_buf);
 379              		.loc 2 103 0
 380 0038 42EA0122 		orr	r2, r2, r1, lsl #8
 381              		.loc 2 105 0
 382 003c A17D     		ldrb	r1, [r4, #22]	@ zero_extendqisi2
 106:subsystems/gps/gps_ubx.c ****       gps.ecef_pos.y = UBX_NAV_SOL_ECEF_Y(gps_ubx.msg_buf);
 107:subsystems/gps/gps_ubx.c ****       gps.ecef_pos.z = UBX_NAV_SOL_ECEF_Z(gps_ubx.msg_buf);
 108:subsystems/gps/gps_ubx.c ****       gps.pacc       = UBX_NAV_SOL_Pacc(gps_ubx.msg_buf);
 383              		.loc 2 108 0
 384 003e 94F82150 		ldrb	r5, [r4, #33]	@ zero_extendqisi2
 105:subsystems/gps/gps_ubx.c ****       gps.ecef_pos.x = UBX_NAV_SOL_ECEF_X(gps_ubx.msg_buf);
 385              		.loc 2 105 0
 386 0042 0904     		lsls	r1, r1, #16
 387 0044 41EA0021 		orr	r1, r1, r0, lsl #8
 388 0048 207D     		ldrb	r0, [r4, #20]	@ zero_extendqisi2
 103:subsystems/gps/gps_ubx.c ****       gps.week       = UBX_NAV_SOL_week(gps_ubx.msg_buf);
 389              		.loc 2 103 0
 390 004a A3F85C20 		strh	r2, [r3, #92]	@ movhi
 105:subsystems/gps/gps_ubx.c ****       gps.ecef_pos.x = UBX_NAV_SOL_ECEF_X(gps_ubx.msg_buf);
 391              		.loc 2 105 0
 392 004e 0143     		orrs	r1, r1, r0
 393 0050 E07D     		ldrb	r0, [r4, #23]	@ zero_extendqisi2
 104:subsystems/gps/gps_ubx.c ****       gps.fix        = UBX_NAV_SOL_GPSfix(gps_ubx.msg_buf);
 394              		.loc 2 104 0
 395 0052 A27C     		ldrb	r2, [r4, #18]	@ zero_extendqisi2
 105:subsystems/gps/gps_ubx.c ****       gps.ecef_pos.x = UBX_NAV_SOL_ECEF_X(gps_ubx.msg_buf);
 396              		.loc 2 105 0
 397 0054 41EA0061 		orr	r1, r1, r0, lsl #24
 398 0058 1960     		str	r1, [r3, #0]
 106:subsystems/gps/gps_ubx.c ****       gps.ecef_pos.y = UBX_NAV_SOL_ECEF_Y(gps_ubx.msg_buf);
 399              		.loc 2 106 0
 400 005a A17E     		ldrb	r1, [r4, #26]	@ zero_extendqisi2
 401 005c 607E     		ldrb	r0, [r4, #25]	@ zero_extendqisi2
 402 005e 0904     		lsls	r1, r1, #16
 403 0060 41EA0021 		orr	r1, r1, r0, lsl #8
 404 0064 207E     		ldrb	r0, [r4, #24]	@ zero_extendqisi2
 104:subsystems/gps/gps_ubx.c ****       gps.fix        = UBX_NAV_SOL_GPSfix(gps_ubx.msg_buf);
 405              		.loc 2 104 0
 406 0066 83F85B20 		strb	r2, [r3, #91]
 106:subsystems/gps/gps_ubx.c ****       gps.ecef_pos.y = UBX_NAV_SOL_ECEF_Y(gps_ubx.msg_buf);
 407              		.loc 2 106 0
 408 006a 0143     		orrs	r1, r1, r0
 409 006c E07E     		ldrb	r0, [r4, #27]	@ zero_extendqisi2
 410 006e 41EA0061 		orr	r1, r1, r0, lsl #24
 411 0072 5960     		str	r1, [r3, #4]
 107:subsystems/gps/gps_ubx.c ****       gps.ecef_pos.z = UBX_NAV_SOL_ECEF_Z(gps_ubx.msg_buf);
 412              		.loc 2 107 0
 413 0074 A17F     		ldrb	r1, [r4, #30]	@ zero_extendqisi2
 414 0076 607F     		ldrb	r0, [r4, #29]	@ zero_extendqisi2
 415 0078 0904     		lsls	r1, r1, #16
 416 007a 41EA0021 		orr	r1, r1, r0, lsl #8
 417 007e 207F     		ldrb	r0, [r4, #28]	@ zero_extendqisi2
 418 0080 0143     		orrs	r1, r1, r0
 419 0082 E07F     		ldrb	r0, [r4, #31]	@ zero_extendqisi2
 420 0084 41EA0061 		orr	r1, r1, r0, lsl #24
 421 0088 9960     		str	r1, [r3, #8]
 422              		.loc 2 108 0
 423 008a 94F82210 		ldrb	r1, [r4, #34]	@ zero_extendqisi2
 424 008e 94F82300 		ldrb	r0, [r4, #35]	@ zero_extendqisi2
 425 0092 0904     		lsls	r1, r1, #16
 426 0094 41EA0061 		orr	r1, r1, r0, lsl #24
 427 0098 94F82000 		ldrb	r0, [r4, #32]	@ zero_extendqisi2
 428 009c 40EA0520 		orr	r0, r0, r5, lsl #8
 429 00a0 0143     		orrs	r1, r1, r0
 430 00a2 D964     		str	r1, [r3, #76]
 109:subsystems/gps/gps_ubx.c ****       gps.ecef_vel.x = UBX_NAV_SOL_ECEFVX(gps_ubx.msg_buf);
 431              		.loc 2 109 0
 432 00a4 94F82610 		ldrb	r1, [r4, #38]	@ zero_extendqisi2
 433 00a8 94F82500 		ldrb	r0, [r4, #37]	@ zero_extendqisi2
 434 00ac 0904     		lsls	r1, r1, #16
 435 00ae 41EA0021 		orr	r1, r1, r0, lsl #8
 436 00b2 94F82400 		ldrb	r0, [r4, #36]	@ zero_extendqisi2
 437 00b6 0143     		orrs	r1, r1, r0
 438 00b8 94F82700 		ldrb	r0, [r4, #39]	@ zero_extendqisi2
 439 00bc 41EA0061 		orr	r1, r1, r0, lsl #24
 440 00c0 D962     		str	r1, [r3, #44]
 110:subsystems/gps/gps_ubx.c ****       gps.ecef_vel.y = UBX_NAV_SOL_ECEFVY(gps_ubx.msg_buf);
 441              		.loc 2 110 0
 442 00c2 94F82A10 		ldrb	r1, [r4, #42]	@ zero_extendqisi2
 443 00c6 94F82900 		ldrb	r0, [r4, #41]	@ zero_extendqisi2
 444 00ca 0904     		lsls	r1, r1, #16
 445 00cc 41EA0021 		orr	r1, r1, r0, lsl #8
 446 00d0 94F82800 		ldrb	r0, [r4, #40]	@ zero_extendqisi2
 111:subsystems/gps/gps_ubx.c ****       gps.ecef_vel.z = UBX_NAV_SOL_ECEFVZ(gps_ubx.msg_buf);
 112:subsystems/gps/gps_ubx.c ****       gps.sacc       = UBX_NAV_SOL_Sacc(gps_ubx.msg_buf);
 447              		.loc 2 112 0
 448 00d4 94F83150 		ldrb	r5, [r4, #49]	@ zero_extendqisi2
 110:subsystems/gps/gps_ubx.c ****       gps.ecef_vel.y = UBX_NAV_SOL_ECEFVY(gps_ubx.msg_buf);
 449              		.loc 2 110 0
 450 00d8 0143     		orrs	r1, r1, r0
 451 00da 94F82B00 		ldrb	r0, [r4, #43]	@ zero_extendqisi2
 452 00de 41EA0061 		orr	r1, r1, r0, lsl #24
 453 00e2 1963     		str	r1, [r3, #48]
 111:subsystems/gps/gps_ubx.c ****       gps.ecef_vel.z = UBX_NAV_SOL_ECEFVZ(gps_ubx.msg_buf);
 454              		.loc 2 111 0
 455 00e4 94F82E10 		ldrb	r1, [r4, #46]	@ zero_extendqisi2
 456 00e8 94F82D00 		ldrb	r0, [r4, #45]	@ zero_extendqisi2
 457 00ec 0904     		lsls	r1, r1, #16
 458 00ee 41EA0021 		orr	r1, r1, r0, lsl #8
 459 00f2 94F82C00 		ldrb	r0, [r4, #44]	@ zero_extendqisi2
 460 00f6 0143     		orrs	r1, r1, r0
 461 00f8 94F82F00 		ldrb	r0, [r4, #47]	@ zero_extendqisi2
 462 00fc 41EA0061 		orr	r1, r1, r0, lsl #24
 463 0100 5963     		str	r1, [r3, #52]
 464              		.loc 2 112 0
 465 0102 94F83210 		ldrb	r1, [r4, #50]	@ zero_extendqisi2
 466 0106 94F83300 		ldrb	r0, [r4, #51]	@ zero_extendqisi2
 467 010a 0904     		lsls	r1, r1, #16
 468 010c 41EA0061 		orr	r1, r1, r0, lsl #24
 469 0110 94F83000 		ldrb	r0, [r4, #48]	@ zero_extendqisi2
 113:subsystems/gps/gps_ubx.c ****       gps.pdop       = UBX_NAV_SOL_PDOP(gps_ubx.msg_buf);
 114:subsystems/gps/gps_ubx.c ****       gps.num_sv     = UBX_NAV_SOL_numSV(gps_ubx.msg_buf);
 115:subsystems/gps/gps_ubx.c **** #ifdef GPS_LED
 116:subsystems/gps/gps_ubx.c ****       if (gps.fix == GPS_FIX_3D) {
 470              		.loc 2 116 0
 471 0114 032A     		cmp	r2, #3
 112:subsystems/gps/gps_ubx.c ****       gps.sacc       = UBX_NAV_SOL_Sacc(gps_ubx.msg_buf);
 472              		.loc 2 112 0
 473 0116 40EA0520 		orr	r0, r0, r5, lsl #8
 474 011a 41EA0001 		orr	r1, r1, r0
 475 011e 1965     		str	r1, [r3, #80]
 113:subsystems/gps/gps_ubx.c ****       gps.pdop       = UBX_NAV_SOL_PDOP(gps_ubx.msg_buf);
 476              		.loc 2 113 0
 477 0120 94F83500 		ldrb	r0, [r4, #53]	@ zero_extendqisi2
 478 0124 94F83410 		ldrb	r1, [r4, #52]	@ zero_extendqisi2
 479 0128 41EA0021 		orr	r1, r1, r0, lsl #8
 480 012c A3F85810 		strh	r1, [r3, #88]	@ movhi
 114:subsystems/gps/gps_ubx.c ****       gps.num_sv     = UBX_NAV_SOL_numSV(gps_ubx.msg_buf);
 481              		.loc 2 114 0
 482 0130 94F83710 		ldrb	r1, [r4, #55]	@ zero_extendqisi2
 483 0134 83F85A10 		strb	r1, [r3, #90]
 484 0138 3F4B     		ldr	r3, .L16+16
 485              		.loc 2 116 0
 486 013a 02D1     		bne	.L10
 117:subsystems/gps/gps_ubx.c ****         LED_ON(GPS_LED);
 487              		.loc 2 117 0
 488 013c 0422     		movs	r2, #4
 489 013e 5A61     		str	r2, [r3, #20]
 490 0140 2EE1     		b	.L7
 491              	.L10:
 118:subsystems/gps/gps_ubx.c ****       }
 119:subsystems/gps/gps_ubx.c ****       else {
 120:subsystems/gps/gps_ubx.c ****         LED_TOGGLE(GPS_LED);
 492              		.loc 2 120 0
 493 0142 DA68     		ldr	r2, [r3, #12]
 494 0144 82F00402 		eor	r2, r2, #4
 495 0148 DA60     		str	r2, [r3, #12]
 496 014a 29E1     		b	.L7
 497              	.L9:
 121:subsystems/gps/gps_ubx.c ****       }
 122:subsystems/gps/gps_ubx.c **** #endif
 123:subsystems/gps/gps_ubx.c ****     } else if (gps_ubx.msg_id == UBX_NAV_POSLLH_ID) {
 498              		.loc 2 123 0
 499 014c 022B     		cmp	r3, #2
 500 014e 7BD1     		bne	.L11
 501              	.LBB155:
 124:subsystems/gps/gps_ubx.c ****       gps.lla_pos.lat = RadOfDeg(UBX_NAV_POSLLH_LAT(gps_ubx.msg_buf));
 502              		.loc 2 124 0
 503 0150 A37C     		ldrb	r3, [r4, #18]	@ zero_extendqisi2
 504 0152 627C     		ldrb	r2, [r4, #17]	@ zero_extendqisi2
 505 0154 1B04     		lsls	r3, r3, #16
 506 0156 43EA0223 		orr	r3, r3, r2, lsl #8
 507 015a 227C     		ldrb	r2, [r4, #16]	@ zero_extendqisi2
 508 015c E07C     		ldrb	r0, [r4, #19]	@ zero_extendqisi2
 509 015e 1343     		orrs	r3, r3, r2
 510 0160 43EA0060 		orr	r0, r3, r0, lsl #24
 511 0164 FFF7FEFF 		bl	__aeabi_i2d
 512 0168 2FA3     		adr	r3, .L16
 513 016a D3E90023 		ldrd	r2, [r3]
 514 016e FFF7FEFF 		bl	__aeabi_dmul
 515 0172 FFF7FEFF 		bl	__aeabi_d2iz
 125:subsystems/gps/gps_ubx.c ****       gps.lla_pos.lon = RadOfDeg(UBX_NAV_POSLLH_LON(gps_ubx.msg_buf));
 516              		.loc 2 125 0
 517 0176 A37B     		ldrb	r3, [r4, #14]	@ zero_extendqisi2
 518 0178 627B     		ldrb	r2, [r4, #13]	@ zero_extendqisi2
 124:subsystems/gps/gps_ubx.c ****       gps.lla_pos.lat = RadOfDeg(UBX_NAV_POSLLH_LAT(gps_ubx.msg_buf));
 519              		.loc 2 124 0
 520 017a 2E4D     		ldr	r5, .L16+12
 521              		.loc 2 125 0
 522 017c 1B04     		lsls	r3, r3, #16
 523 017e 43EA0223 		orr	r3, r3, r2, lsl #8
 524 0182 227B     		ldrb	r2, [r4, #12]	@ zero_extendqisi2
 124:subsystems/gps/gps_ubx.c ****       gps.lla_pos.lat = RadOfDeg(UBX_NAV_POSLLH_LAT(gps_ubx.msg_buf));
 525              		.loc 2 124 0
 526 0184 0646     		mov	r6, r0
 527 0186 2861     		str	r0, [r5, #16]
 528              		.loc 2 125 0
 529 0188 E07B     		ldrb	r0, [r4, #15]	@ zero_extendqisi2
 530 018a 1343     		orrs	r3, r3, r2
 531 018c 43EA0060 		orr	r0, r3, r0, lsl #24
 532 0190 FFF7FEFF 		bl	__aeabi_i2d
 533 0194 24A3     		adr	r3, .L16
 534 0196 D3E90023 		ldrd	r2, [r3]
 535 019a FFF7FEFF 		bl	__aeabi_dmul
 536 019e FFF7FEFF 		bl	__aeabi_d2iz
 126:subsystems/gps/gps_ubx.c ****       gps.lla_pos.alt = UBX_NAV_POSLLH_HEIGHT(gps_ubx.msg_buf);
 537              		.loc 2 126 0
 538 01a2 A37D     		ldrb	r3, [r4, #22]	@ zero_extendqisi2
 539 01a4 627D     		ldrb	r2, [r4, #21]	@ zero_extendqisi2
 540 01a6 1B04     		lsls	r3, r3, #16
 541 01a8 43EA0223 		orr	r3, r3, r2, lsl #8
 542 01ac 227D     		ldrb	r2, [r4, #20]	@ zero_extendqisi2
 125:subsystems/gps/gps_ubx.c ****       gps.lla_pos.lon = RadOfDeg(UBX_NAV_POSLLH_LON(gps_ubx.msg_buf));
 543              		.loc 2 125 0
 544 01ae 0746     		mov	r7, r0
 545              		.loc 2 126 0
 546 01b0 1343     		orrs	r3, r3, r2
 547 01b2 E27D     		ldrb	r2, [r4, #23]	@ zero_extendqisi2
 125:subsystems/gps/gps_ubx.c ****       gps.lla_pos.lon = RadOfDeg(UBX_NAV_POSLLH_LON(gps_ubx.msg_buf));
 548              		.loc 2 125 0
 549 01b4 E860     		str	r0, [r5, #12]
 550              		.loc 2 126 0
 551 01b6 43EA0263 		orr	r3, r3, r2, lsl #24
 552 01ba 6B61     		str	r3, [r5, #20]
 127:subsystems/gps/gps_ubx.c ****       gps.hmsl        = UBX_NAV_POSLLH_HMSL(gps_ubx.msg_buf);
 553              		.loc 2 127 0
 554 01bc A37E     		ldrb	r3, [r4, #26]	@ zero_extendqisi2
 555 01be 627E     		ldrb	r2, [r4, #25]	@ zero_extendqisi2
 556 01c0 1B04     		lsls	r3, r3, #16
 557 01c2 43EA0223 		orr	r3, r3, r2, lsl #8
 558 01c6 227E     		ldrb	r2, [r4, #24]	@ zero_extendqisi2
 128:subsystems/gps/gps_ubx.c **** #if GPS_USE_LATLONG
 129:subsystems/gps/gps_ubx.c ****       /* Computes from (lat, long) in the referenced UTM zone */
 130:subsystems/gps/gps_ubx.c ****       struct LlaCoor_f lla_f;
 131:subsystems/gps/gps_ubx.c ****       lla_f.lat = ((float) gps.lla_pos.lat) / 1e7;
 559              		.loc 2 131 0
 560 01c8 3046     		mov	r0, r6
 127:subsystems/gps/gps_ubx.c ****       gps.hmsl        = UBX_NAV_POSLLH_HMSL(gps_ubx.msg_buf);
 561              		.loc 2 127 0
 562 01ca 1343     		orrs	r3, r3, r2
 563 01cc E27E     		ldrb	r2, [r4, #27]	@ zero_extendqisi2
 132:subsystems/gps/gps_ubx.c ****       lla_f.lon = ((float) gps.lla_pos.lon) / 1e7;
 133:subsystems/gps/gps_ubx.c ****       struct UtmCoor_f utm_f;
 134:subsystems/gps/gps_ubx.c ****       utm_f.zone = nav_utm_zone0;
 564              		.loc 2 134 0
 565 01ce 1B4C     		ldr	r4, .L16+20
 127:subsystems/gps/gps_ubx.c ****       gps.hmsl        = UBX_NAV_POSLLH_HMSL(gps_ubx.msg_buf);
 566              		.loc 2 127 0
 567 01d0 43EA0263 		orr	r3, r3, r2, lsl #24
 568 01d4 AB62     		str	r3, [r5, #40]
 131:subsystems/gps/gps_ubx.c ****       lla_f.lat = ((float) gps.lla_pos.lat) / 1e7;
 569              		.loc 2 131 0
 570 01d6 FFF7FEFF 		bl	__aeabi_i2f
 571 01da 1949     		ldr	r1, .L16+24
 572 01dc FFF7FEFF 		bl	__aeabi_fdiv
 573 01e0 0690     		str	r0, [sp, #24]	@ float
 132:subsystems/gps/gps_ubx.c ****       lla_f.lon = ((float) gps.lla_pos.lon) / 1e7;
 574              		.loc 2 132 0
 575 01e2 3846     		mov	r0, r7
 576 01e4 FFF7FEFF 		bl	__aeabi_i2f
 577 01e8 1549     		ldr	r1, .L16+24
 578 01ea FFF7FEFF 		bl	__aeabi_fdiv
 579              		.loc 2 134 0
 580 01ee 2378     		ldrb	r3, [r4, #0]	@ zero_extendqisi2
 132:subsystems/gps/gps_ubx.c ****       lla_f.lon = ((float) gps.lla_pos.lon) / 1e7;
 581              		.loc 2 132 0
 582 01f0 0590     		str	r0, [sp, #20]	@ float
 135:subsystems/gps/gps_ubx.c ****       /* convert to utm */
 136:subsystems/gps/gps_ubx.c ****       utm_of_lla_f(&utm_f, &lla_f);
 583              		.loc 2 136 0
 584 01f2 05A9     		add	r1, sp, #20
 585 01f4 01A8     		add	r0, sp, #4
 134:subsystems/gps/gps_ubx.c ****       utm_f.zone = nav_utm_zone0;
 586              		.loc 2 134 0
 587 01f6 8DF81030 		strb	r3, [sp, #16]
 588              		.loc 2 136 0
 589 01fa FFF7FEFF 		bl	utm_of_lla_f
 137:subsystems/gps/gps_ubx.c ****       /* copy results of utm conversion */
 138:subsystems/gps/gps_ubx.c ****       gps.utm_pos.east = utm_f.east*100;
 590              		.loc 2 138 0
 591 01fe 1149     		ldr	r1, .L16+28
 592 0200 0298     		ldr	r0, [sp, #8]	@ float
 593 0202 FFF7FEFF 		bl	__aeabi_fmul
 594 0206 FFF7FEFF 		bl	__aeabi_f2iz
 139:subsystems/gps/gps_ubx.c ****       gps.utm_pos.north = utm_f.north*100;
 595              		.loc 2 139 0
 596 020a 0E49     		ldr	r1, .L16+28
 138:subsystems/gps/gps_ubx.c ****       gps.utm_pos.east = utm_f.east*100;
 597              		.loc 2 138 0
 598 020c E861     		str	r0, [r5, #28]
 599              		.loc 2 139 0
 600 020e 0198     		ldr	r0, [sp, #4]	@ float
 601 0210 FFF7FEFF 		bl	__aeabi_fmul
 602 0214 FFF7FEFF 		bl	__aeabi_f2iz
 140:subsystems/gps/gps_ubx.c ****       gps.utm_pos.alt = gps.lla_pos.alt;
 603              		.loc 2 140 0
 604 0218 6B69     		ldr	r3, [r5, #20]
 139:subsystems/gps/gps_ubx.c ****       gps.utm_pos.north = utm_f.north*100;
 605              		.loc 2 139 0
 606 021a A861     		str	r0, [r5, #24]
 607              		.loc 2 140 0
 608 021c 2B62     		str	r3, [r5, #32]
 141:subsystems/gps/gps_ubx.c ****       gps.utm_pos.zone = nav_utm_zone0;
 609              		.loc 2 141 0
 610 021e 2378     		ldrb	r3, [r4, #0]	@ zero_extendqisi2
 611 0220 85F82430 		strb	r3, [r5, #36]
 612 0224 BCE0     		b	.L7
 613              	.L17:
 614 0226 00BF     		.align	3
 615              	.L16:
 616 0228 399D52A2 		.word	2723323193
 617 022c 46DF913F 		.word	1066524486
 618 0230 00000000 		.word	.LANCHOR0
 619 0234 00000000 		.word	gps
 620 0238 00100140 		.word	1073811456
 621 023c 00000000 		.word	nav_utm_zone0
 622 0240 8096184B 		.word	1259902592
 623 0244 0000C842 		.word	1120403456
 624              	.L11:
 625              	.LBE155:
 142:subsystems/gps/gps_ubx.c **** #else
 143:subsystems/gps/gps_ubx.c ****     }
 144:subsystems/gps/gps_ubx.c ****     else if (gps_ubx.msg_id == UBX_NAV_POSUTM_ID) {
 145:subsystems/gps/gps_ubx.c ****       gps.utm_pos.east = UBX_NAV_POSUTM_EAST(gps_ubx.msg_buf);
 146:subsystems/gps/gps_ubx.c ****       gps.utm_pos.north = UBX_NAV_POSUTM_NORTH(gps_ubx.msg_buf);
 147:subsystems/gps/gps_ubx.c ****       uint8_t hem = UBX_NAV_POSUTM_HEM(gps_ubx.msg_buf);
 148:subsystems/gps/gps_ubx.c ****       if (hem == UTM_HEM_SOUTH)
 149:subsystems/gps/gps_ubx.c ****         gps.utm_pos.north -= 1000000000; /* Subtract false northing: -10000km */
 150:subsystems/gps/gps_ubx.c ****       gps.utm_pos.alt = UBX_NAV_POSUTM_ALT(gps_ubx.msg_buf)*10;
 151:subsystems/gps/gps_ubx.c ****       gps.hmsl = gps.utm_pos.alt;
 152:subsystems/gps/gps_ubx.c ****       gps.lla_pos.alt = gps.utm_pos.alt; // FIXME: with UTM only you do not receive ellipsoid altit
 153:subsystems/gps/gps_ubx.c ****       gps.utm_pos.zone = UBX_NAV_POSUTM_ZONE(gps_ubx.msg_buf);
 154:subsystems/gps/gps_ubx.c **** #endif
 155:subsystems/gps/gps_ubx.c ****     }
 156:subsystems/gps/gps_ubx.c ****     else if (gps_ubx.msg_id == UBX_NAV_VELNED_ID) {
 626              		.loc 2 156 0
 627 0248 122B     		cmp	r3, #18
 628 024a 76D1     		bne	.L12
 157:subsystems/gps/gps_ubx.c ****       gps.speed_3d = UBX_NAV_VELNED_Speed(gps_ubx.msg_buf);
 629              		.loc 2 157 0
 630 024c 627E     		ldrb	r2, [r4, #25]	@ zero_extendqisi2
 631 024e 237E     		ldrb	r3, [r4, #24]	@ zero_extendqisi2
 632 0250 574D     		ldr	r5, .L18+8
 633 0252 43EA0223 		orr	r3, r3, r2, lsl #8
 634 0256 A5F84630 		strh	r3, [r5, #70]	@ movhi
 158:subsystems/gps/gps_ubx.c ****       gps.gspeed = UBX_NAV_VELNED_GSpeed(gps_ubx.msg_buf);
 635              		.loc 2 158 0
 636 025a 627F     		ldrb	r2, [r4, #29]	@ zero_extendqisi2
 637 025c 237F     		ldrb	r3, [r4, #28]	@ zero_extendqisi2
 159:subsystems/gps/gps_ubx.c ****       gps.ned_vel.x = UBX_NAV_VELNED_VEL_N(gps_ubx.msg_buf);
 160:subsystems/gps/gps_ubx.c ****       gps.ned_vel.y = UBX_NAV_VELNED_VEL_E(gps_ubx.msg_buf);
 161:subsystems/gps/gps_ubx.c ****       gps.ned_vel.z = UBX_NAV_VELNED_VEL_D(gps_ubx.msg_buf);
 162:subsystems/gps/gps_ubx.c ****       // Ublox gives I4 heading in 1e-5 degrees, apparenty from 0 to 360 degrees (not -180 to 180)
 163:subsystems/gps/gps_ubx.c ****       // I4 max = 2^31 = 214 * 1e5 * 100 < 360 * 1e7: overflow on angles over 214 deg -> casted to 
 164:subsystems/gps/gps_ubx.c ****       // solution: First to radians, and then scale to 1e-7 radians
 165:subsystems/gps/gps_ubx.c ****       // First x 10 for loosing less resolution, then to radians, then multiply x 10 again
 166:subsystems/gps/gps_ubx.c ****       gps.course = (RadOfDeg(UBX_NAV_VELNED_Heading(gps_ubx.msg_buf)*10)) * 10;
 638              		.loc 2 166 0
 639 025e 94F82200 		ldrb	r0, [r4, #34]	@ zero_extendqisi2
 158:subsystems/gps/gps_ubx.c ****       gps.gspeed = UBX_NAV_VELNED_GSpeed(gps_ubx.msg_buf);
 640              		.loc 2 158 0
 641 0262 43EA0223 		orr	r3, r3, r2, lsl #8
 642 0266 A5F84430 		strh	r3, [r5, #68]	@ movhi
 159:subsystems/gps/gps_ubx.c ****       gps.ned_vel.x = UBX_NAV_VELNED_VEL_N(gps_ubx.msg_buf);
 643              		.loc 2 159 0
 644 026a A37B     		ldrb	r3, [r4, #14]	@ zero_extendqisi2
 645 026c 627B     		ldrb	r2, [r4, #13]	@ zero_extendqisi2
 646 026e 1B04     		lsls	r3, r3, #16
 647 0270 43EA0223 		orr	r3, r3, r2, lsl #8
 648 0274 227B     		ldrb	r2, [r4, #12]	@ zero_extendqisi2
 649              		.loc 2 166 0
 650 0276 0004     		lsls	r0, r0, #16
 159:subsystems/gps/gps_ubx.c ****       gps.ned_vel.x = UBX_NAV_VELNED_VEL_N(gps_ubx.msg_buf);
 651              		.loc 2 159 0
 652 0278 1343     		orrs	r3, r3, r2
 653 027a E27B     		ldrb	r2, [r4, #15]	@ zero_extendqisi2
 654              		.loc 2 166 0
 655 027c 0A27     		movs	r7, #10
 159:subsystems/gps/gps_ubx.c ****       gps.ned_vel.x = UBX_NAV_VELNED_VEL_N(gps_ubx.msg_buf);
 656              		.loc 2 159 0
 657 027e 43EA0263 		orr	r3, r3, r2, lsl #24
 658 0282 AB63     		str	r3, [r5, #56]
 160:subsystems/gps/gps_ubx.c ****       gps.ned_vel.y = UBX_NAV_VELNED_VEL_E(gps_ubx.msg_buf);
 659              		.loc 2 160 0
 660 0284 A37C     		ldrb	r3, [r4, #18]	@ zero_extendqisi2
 661 0286 627C     		ldrb	r2, [r4, #17]	@ zero_extendqisi2
 662 0288 1B04     		lsls	r3, r3, #16
 663 028a 43EA0223 		orr	r3, r3, r2, lsl #8
 664 028e 227C     		ldrb	r2, [r4, #16]	@ zero_extendqisi2
 665 0290 1343     		orrs	r3, r3, r2
 666 0292 E27C     		ldrb	r2, [r4, #19]	@ zero_extendqisi2
 667 0294 43EA0263 		orr	r3, r3, r2, lsl #24
 668 0298 EB63     		str	r3, [r5, #60]
 161:subsystems/gps/gps_ubx.c ****       gps.ned_vel.z = UBX_NAV_VELNED_VEL_D(gps_ubx.msg_buf);
 669              		.loc 2 161 0
 670 029a A37D     		ldrb	r3, [r4, #22]	@ zero_extendqisi2
 671 029c 627D     		ldrb	r2, [r4, #21]	@ zero_extendqisi2
 672 029e 1B04     		lsls	r3, r3, #16
 673 02a0 43EA0223 		orr	r3, r3, r2, lsl #8
 674 02a4 227D     		ldrb	r2, [r4, #20]	@ zero_extendqisi2
 675 02a6 1343     		orrs	r3, r3, r2
 676 02a8 E27D     		ldrb	r2, [r4, #23]	@ zero_extendqisi2
 677 02aa 43EA0263 		orr	r3, r3, r2, lsl #24
 678 02ae 2B64     		str	r3, [r5, #64]
 679              		.loc 2 166 0
 680 02b0 94F82130 		ldrb	r3, [r4, #33]	@ zero_extendqisi2
 681 02b4 40EA0320 		orr	r0, r0, r3, lsl #8
 682 02b8 94F82030 		ldrb	r3, [r4, #32]	@ zero_extendqisi2
 683 02bc 1843     		orrs	r0, r0, r3
 684 02be 94F82330 		ldrb	r3, [r4, #35]	@ zero_extendqisi2
 685 02c2 40EA0360 		orr	r0, r0, r3, lsl #24
 686 02c6 7843     		muls	r0, r7, r0
 687 02c8 FFF7FEFF 		bl	__aeabi_i2d
 688 02cc 36A3     		adr	r3, .L18
 689 02ce D3E90023 		ldrd	r2, [r3]
 690 02d2 FFF7FEFF 		bl	__aeabi_dmul
 691 02d6 0022     		movs	r2, #0
 692 02d8 364B     		ldr	r3, .L18+12
 693 02da FFF7FEFF 		bl	__aeabi_dmul
 694 02de FFF7FEFF 		bl	__aeabi_d2iz
 695 02e2 A864     		str	r0, [r5, #72]
 167:subsystems/gps/gps_ubx.c ****       gps.cacc = (RadOfDeg(UBX_NAV_VELNED_CAcc(gps_ubx.msg_buf)*10)) * 10;
 696              		.loc 2 167 0
 697 02e4 94F82A00 		ldrb	r0, [r4, #42]	@ zero_extendqisi2
 698 02e8 94F82B30 		ldrb	r3, [r4, #43]	@ zero_extendqisi2
 699 02ec 0004     		lsls	r0, r0, #16
 700 02ee 94F82920 		ldrb	r2, [r4, #41]	@ zero_extendqisi2
 701 02f2 40EA0360 		orr	r0, r0, r3, lsl #24
 702 02f6 94F82830 		ldrb	r3, [r4, #40]	@ zero_extendqisi2
 703 02fa 43EA0223 		orr	r3, r3, r2, lsl #8
 704 02fe 1843     		orrs	r0, r0, r3
 705 0300 7843     		muls	r0, r7, r0
 706 0302 FFF7FEFF 		bl	__aeabi_ui2d
 707 0306 28A3     		adr	r3, .L18
 708 0308 D3E90023 		ldrd	r2, [r3]
 709 030c FFF7FEFF 		bl	__aeabi_dmul
 710 0310 0022     		movs	r2, #0
 711 0312 284B     		ldr	r3, .L18+12
 712 0314 FFF7FEFF 		bl	__aeabi_dmul
 713 0318 FFF7FEFF 		bl	__aeabi_d2uiz
 168:subsystems/gps/gps_ubx.c ****       gps.tow = UBX_NAV_VELNED_ITOW(gps_ubx.msg_buf);
 714              		.loc 2 168 0
 715 031c A37A     		ldrb	r3, [r4, #10]	@ zero_extendqisi2
 716 031e E27A     		ldrb	r2, [r4, #11]	@ zero_extendqisi2
 717 0320 1B04     		lsls	r3, r3, #16
 718 0322 43EA0263 		orr	r3, r3, r2, lsl #24
 719 0326 617A     		ldrb	r1, [r4, #9]	@ zero_extendqisi2
 720 0328 227A     		ldrb	r2, [r4, #8]	@ zero_extendqisi2
 167:subsystems/gps/gps_ubx.c ****       gps.cacc = (RadOfDeg(UBX_NAV_VELNED_CAcc(gps_ubx.msg_buf)*10)) * 10;
 721              		.loc 2 167 0
 722 032a 6865     		str	r0, [r5, #84]
 723              		.loc 2 168 0
 724 032c 42EA0122 		orr	r2, r2, r1, lsl #8
 725 0330 1343     		orrs	r3, r3, r2
 726 0332 2B66     		str	r3, [r5, #96]
 169:subsystems/gps/gps_ubx.c ****       gps_ubx.have_velned = 1;
 727              		.loc 2 169 0
 728 0334 84F81561 		strb	r6, [r4, #277]
 729 0338 32E0     		b	.L7
 730              	.L12:
 170:subsystems/gps/gps_ubx.c ****     }
 171:subsystems/gps/gps_ubx.c ****     else if (gps_ubx.msg_id == UBX_NAV_SVINFO_ID) {
 731              		.loc 2 171 0
 732 033a 302B     		cmp	r3, #48
 733 033c 24D1     		bne	.L13
 734              	.LBB156:
 172:subsystems/gps/gps_ubx.c ****       gps.nb_channels = Min(UBX_NAV_SVINFO_NCH(gps_ubx.msg_buf), GPS_NB_CHANNELS);
 735              		.loc 2 172 0
 736 033e 217B     		ldrb	r1, [r4, #12]	@ zero_extendqisi2
 737 0340 1B4B     		ldr	r3, .L18+8
 738 0342 1029     		cmp	r1, #16
 739 0344 28BF     		it	cs
 740 0346 1021     		movcs	r1, #16
 741 0348 83F86410 		strb	r1, [r3, #100]
 742              	.LVL15:
 173:subsystems/gps/gps_ubx.c ****       uint8_t i;
 174:subsystems/gps/gps_ubx.c ****       for(i = 0; i < gps.nb_channels; i++) {
 743              		.loc 2 174 0
 744 034c 0022     		movs	r2, #0
 745 034e 16E0     		b	.L14
 746              	.LVL16:
 747              	.L15:
 175:subsystems/gps/gps_ubx.c ****         gps.svinfos[i].svid = UBX_NAV_SVINFO_SVID(gps_ubx.msg_buf, i);
 748              		.loc 2 175 0 discriminator 2
 749 0350 6079     		ldrb	r0, [r4, #5]	@ zero_extendqisi2
 176:subsystems/gps/gps_ubx.c ****         gps.svinfos[i].flags = UBX_NAV_SVINFO_Flags(gps_ubx.msg_buf, i);
 177:subsystems/gps/gps_ubx.c ****         gps.svinfos[i].qi = UBX_NAV_SVINFO_QI(gps_ubx.msg_buf, i);
 178:subsystems/gps/gps_ubx.c ****         gps.svinfos[i].cno = UBX_NAV_SVINFO_CNO(gps_ubx.msg_buf, i);
 179:subsystems/gps/gps_ubx.c ****         gps.svinfos[i].elev = UBX_NAV_SVINFO_Elev(gps_ubx.msg_buf, i);
 180:subsystems/gps/gps_ubx.c ****         gps.svinfos[i].azim = UBX_NAV_SVINFO_Azim(gps_ubx.msg_buf, i);
 750              		.loc 2 180 0 discriminator 2
 751 0352 E57A     		ldrb	r5, [r4, #11]	@ zero_extendqisi2
 175:subsystems/gps/gps_ubx.c ****         gps.svinfos[i].svid = UBX_NAV_SVINFO_SVID(gps_ubx.msg_buf, i);
 752              		.loc 2 175 0 discriminator 2
 753 0354 83F85E00 		strb	r0, [r3, #94]
 176:subsystems/gps/gps_ubx.c ****         gps.svinfos[i].flags = UBX_NAV_SVINFO_Flags(gps_ubx.msg_buf, i);
 754              		.loc 2 176 0 discriminator 2
 755 0358 A079     		ldrb	r0, [r4, #6]	@ zero_extendqisi2
 174:subsystems/gps/gps_ubx.c ****       for(i = 0; i < gps.nb_channels; i++) {
 756              		.loc 2 174 0 discriminator 2
 757 035a 0132     		adds	r2, r2, #1
 758              	.LVL17:
 176:subsystems/gps/gps_ubx.c ****         gps.svinfos[i].flags = UBX_NAV_SVINFO_Flags(gps_ubx.msg_buf, i);
 759              		.loc 2 176 0 discriminator 2
 760 035c 83F85F00 		strb	r0, [r3, #95]
 177:subsystems/gps/gps_ubx.c ****         gps.svinfos[i].qi = UBX_NAV_SVINFO_QI(gps_ubx.msg_buf, i);
 761              		.loc 2 177 0 discriminator 2
 762 0360 E079     		ldrb	r0, [r4, #7]	@ zero_extendqisi2
 174:subsystems/gps/gps_ubx.c ****       for(i = 0; i < gps.nb_channels; i++) {
 763              		.loc 2 174 0 discriminator 2
 764 0362 D2B2     		uxtb	r2, r2
 765              	.LVL18:
 177:subsystems/gps/gps_ubx.c ****         gps.svinfos[i].qi = UBX_NAV_SVINFO_QI(gps_ubx.msg_buf, i);
 766              		.loc 2 177 0 discriminator 2
 767 0364 83F86000 		strb	r0, [r3, #96]
 178:subsystems/gps/gps_ubx.c ****         gps.svinfos[i].cno = UBX_NAV_SVINFO_CNO(gps_ubx.msg_buf, i);
 768              		.loc 2 178 0 discriminator 2
 769 0368 207A     		ldrb	r0, [r4, #8]	@ zero_extendqisi2
 770 036a 83F86100 		strb	r0, [r3, #97]
 179:subsystems/gps/gps_ubx.c ****         gps.svinfos[i].elev = UBX_NAV_SVINFO_Elev(gps_ubx.msg_buf, i);
 771              		.loc 2 179 0 discriminator 2
 772 036e 607A     		ldrb	r0, [r4, #9]	@ zero_extendqisi2
 773 0370 83F86200 		strb	r0, [r3, #98]
 774              		.loc 2 180 0 discriminator 2
 775 0374 A07A     		ldrb	r0, [r4, #10]	@ zero_extendqisi2
 776 0376 40EA0520 		orr	r0, r0, r5, lsl #8
 777 037a A3F86400 		strh	r0, [r3, #100]	@ movhi
 778              	.LVL19:
 779              	.L14:
 174:subsystems/gps/gps_ubx.c ****       for(i = 0; i < gps.nb_channels; i++) {
 780              		.loc 2 174 0 discriminator 1
 781 037e 0C34     		adds	r4, r4, #12
 782 0380 0833     		adds	r3, r3, #8
 783 0382 8A42     		cmp	r2, r1
 784 0384 E4D1     		bne	.L15
 785 0386 0BE0     		b	.L7
 786              	.LVL20:
 787              	.L13:
 788              	.LBE156:
 181:subsystems/gps/gps_ubx.c ****       }
 182:subsystems/gps/gps_ubx.c ****     }
 183:subsystems/gps/gps_ubx.c ****     else if (gps_ubx.msg_id == UBX_NAV_STATUS_ID) {
 789              		.loc 2 183 0
 790 0388 032B     		cmp	r3, #3
 791 038a 09D1     		bne	.L7
 184:subsystems/gps/gps_ubx.c ****       gps.fix = UBX_NAV_STATUS_GPSfix(gps_ubx.msg_buf);
 792              		.loc 2 184 0
 793 038c 084B     		ldr	r3, .L18+8
 794 038e 227B     		ldrb	r2, [r4, #12]	@ zero_extendqisi2
 795 0390 83F85B20 		strb	r2, [r3, #91]
 185:subsystems/gps/gps_ubx.c ****       gps_ubx.status_flags = UBX_NAV_STATUS_Flags(gps_ubx.msg_buf);
 796              		.loc 2 185 0
 797 0394 637B     		ldrb	r3, [r4, #13]	@ zero_extendqisi2
 798 0396 84F81331 		strb	r3, [r4, #275]
 186:subsystems/gps/gps_ubx.c ****       gps_ubx.sol_flags = UBX_NAV_SOL_Flags(gps_ubx.msg_buf);
 799              		.loc 2 186 0
 800 039a E37C     		ldrb	r3, [r4, #19]	@ zero_extendqisi2
 801 039c 84F81431 		strb	r3, [r4, #276]
 802              	.L7:
 187:subsystems/gps/gps_ubx.c ****     }
 188:subsystems/gps/gps_ubx.c ****   }
 189:subsystems/gps/gps_ubx.c **** }
 803              		.loc 2 189 0
 804 03a0 09B0     		add	sp, sp, #36
 805 03a2 F0BD     		pop	{r4, r5, r6, r7, pc}
 806              	.L19:
 807 03a4 AFF30080 		.align	3
 808              	.L18:
 809 03a8 399D52A2 		.word	2723323193
 810 03ac 46DF913F 		.word	1066524486
 811 03b0 00000000 		.word	gps
 812 03b4 00002440 		.word	1076101120
 813              		.cfi_endproc
 814              	.LFE28:
 816              		.section	.text.gps_ubx_parse,"ax",%progbits
 817              		.align	1
 818              		.global	gps_ubx_parse
 819              		.thumb
 820              		.thumb_func
 822              	gps_ubx_parse:
 823              	.LFB29:
 190:subsystems/gps/gps_ubx.c **** 
 191:subsystems/gps/gps_ubx.c **** 
 192:subsystems/gps/gps_ubx.c **** /* UBX parsing */
 193:subsystems/gps/gps_ubx.c **** void gps_ubx_parse( uint8_t c ) {
 824              		.loc 2 193 0
 825              		.cfi_startproc
 826              		@ args = 0, pretend = 0, frame = 0
 827              		@ frame_needed = 0, uses_anonymous_args = 0
 828              	.LVL21:
 829 0000 10B5     		push	{r4, lr}
 830              	.LCFI3:
 831              		.cfi_def_cfa_offset 8
 832              		.cfi_offset 14, -4
 833              		.cfi_offset 4, -8
 194:subsystems/gps/gps_ubx.c ****   if (gps_ubx.status < GOT_PAYLOAD) {
 834              		.loc 2 194 0
 835 0002 3F4B     		ldr	r3, .L44
 836 0004 93F80921 		ldrb	r2, [r3, #265]	@ zero_extendqisi2
 837 0008 062A     		cmp	r2, #6
 838 000a 0AD8     		bhi	.L21
 195:subsystems/gps/gps_ubx.c ****     gps_ubx.ck_a += c;
 839              		.loc 2 195 0
 840 000c 93F80D11 		ldrb	r1, [r3, #269]	@ zero_extendqisi2
 196:subsystems/gps/gps_ubx.c ****     gps_ubx.ck_b += gps_ubx.ck_a;
 841              		.loc 2 196 0
 842 0010 93F80E41 		ldrb	r4, [r3, #270]	@ zero_extendqisi2
 195:subsystems/gps/gps_ubx.c ****     gps_ubx.ck_a += c;
 843              		.loc 2 195 0
 844 0014 4118     		adds	r1, r0, r1
 845 0016 C9B2     		uxtb	r1, r1
 846 0018 83F80D11 		strb	r1, [r3, #269]
 847              		.loc 2 196 0
 848 001c 0919     		adds	r1, r1, r4
 849 001e 83F80E11 		strb	r1, [r3, #270]
 850              	.L21:
 197:subsystems/gps/gps_ubx.c ****   }
 198:subsystems/gps/gps_ubx.c ****   switch (gps_ubx.status) {
 851              		.loc 2 198 0
 852 0022 082A     		cmp	r2, #8
 853 0024 5CD8     		bhi	.L22
 854 0026 DFE802F0 		tbb	[pc, r2]
 855              	.L32:
 856 002a 05       		.byte	(.L23-.L32)/2
 857 002b 0A       		.byte	(.L24-.L32)/2
 858 002c 16       		.byte	(.L25-.L32)/2
 859 002d 1F       		.byte	(.L26-.L32)/2
 860 002e 24       		.byte	(.L27-.L32)/2
 861 002f 29       		.byte	(.L28-.L32)/2
 862 0030 39       		.byte	(.L29-.L32)/2
 863 0031 48       		.byte	(.L30-.L32)/2
 864 0032 51       		.byte	(.L31-.L32)/2
 865 0033 00       		.align	1
 866              	.L23:
 199:subsystems/gps/gps_ubx.c ****   case UNINIT:
 200:subsystems/gps/gps_ubx.c ****     if (c == UBX_SYNC1)
 867              		.loc 2 200 0
 868 0034 B528     		cmp	r0, #181
 869 0036 61D1     		bne	.L20
 201:subsystems/gps/gps_ubx.c ****       gps_ubx.status++;
 870              		.loc 2 201 0
 871 0038 0122     		movs	r2, #1
 872 003a 314B     		ldr	r3, .L44
 873 003c 43E0     		b	.L42
 874              	.L24:
 202:subsystems/gps/gps_ubx.c ****     break;
 203:subsystems/gps/gps_ubx.c ****   case GOT_SYNC1:
 204:subsystems/gps/gps_ubx.c ****     if (c != UBX_SYNC2) {
 875              		.loc 2 204 0
 876 003e 6228     		cmp	r0, #98
 877 0040 2F4B     		ldr	r3, .L44
 878 0042 01D0     		beq	.L34
 205:subsystems/gps/gps_ubx.c ****       gps_ubx.error_last = GPS_UBX_ERR_OUT_OF_SYNC;
 879              		.loc 2 205 0
 880 0044 0522     		movs	r2, #5
 881 0046 4DE0     		b	.L41
 882              	.L34:
 206:subsystems/gps/gps_ubx.c ****       goto error;
 207:subsystems/gps/gps_ubx.c ****     }
 208:subsystems/gps/gps_ubx.c ****     gps_ubx.ck_a = 0;
 883              		.loc 2 208 0
 884 0048 0022     		movs	r2, #0
 885 004a 83F80D21 		strb	r2, [r3, #269]
 209:subsystems/gps/gps_ubx.c ****     gps_ubx.ck_b = 0;
 886              		.loc 2 209 0
 887 004e 83F80E21 		strb	r2, [r3, #270]
 210:subsystems/gps/gps_ubx.c ****     gps_ubx.status++;
 888              		.loc 2 210 0
 889 0052 0222     		movs	r2, #2
 890 0054 37E0     		b	.L42
 891              	.L25:
 211:subsystems/gps/gps_ubx.c ****     break;
 212:subsystems/gps/gps_ubx.c ****   case GOT_SYNC2:
 213:subsystems/gps/gps_ubx.c ****     if (gps_ubx.msg_available) {
 892              		.loc 2 213 0
 893 0056 2A4B     		ldr	r3, .L44
 894 0058 1A78     		ldrb	r2, [r3, #0]	@ zero_extendqisi2
 895 005a 0AB1     		cbz	r2, .L36
 214:subsystems/gps/gps_ubx.c ****       /* Previous message has not yet been parsed: discard this one */
 215:subsystems/gps/gps_ubx.c ****       gps_ubx.error_last = GPS_UBX_ERR_OVERRUN;
 896              		.loc 2 215 0
 897 005c 0122     		movs	r2, #1
 898 005e 41E0     		b	.L41
 899              	.L36:
 216:subsystems/gps/gps_ubx.c ****       goto error;
 217:subsystems/gps/gps_ubx.c ****     }
 218:subsystems/gps/gps_ubx.c ****     gps_ubx.msg_class = c;
 900              		.loc 2 218 0
 901 0060 83F80801 		strb	r0, [r3, #264]
 219:subsystems/gps/gps_ubx.c ****     gps_ubx.status++;
 902              		.loc 2 219 0
 903 0064 0322     		movs	r2, #3
 904 0066 2EE0     		b	.L42
 905              	.L26:
 220:subsystems/gps/gps_ubx.c ****     break;
 221:subsystems/gps/gps_ubx.c ****   case GOT_CLASS:
 222:subsystems/gps/gps_ubx.c ****     gps_ubx.msg_id = c;
 906              		.loc 2 222 0
 907 0068 254B     		ldr	r3, .L44
 223:subsystems/gps/gps_ubx.c ****     gps_ubx.status++;
 908              		.loc 2 223 0
 909 006a 0422     		movs	r2, #4
 222:subsystems/gps/gps_ubx.c ****     gps_ubx.msg_id = c;
 910              		.loc 2 222 0
 911 006c 83F80701 		strb	r0, [r3, #263]
 912 0070 29E0     		b	.L42
 913              	.L27:
 224:subsystems/gps/gps_ubx.c ****     break;
 225:subsystems/gps/gps_ubx.c ****   case GOT_ID:
 226:subsystems/gps/gps_ubx.c ****     gps_ubx.len = c;
 914              		.loc 2 226 0
 915 0072 234B     		ldr	r3, .L44
 227:subsystems/gps/gps_ubx.c ****     gps_ubx.status++;
 916              		.loc 2 227 0
 917 0074 0522     		movs	r2, #5
 226:subsystems/gps/gps_ubx.c ****     gps_ubx.len = c;
 918              		.loc 2 226 0
 919 0076 A3F80A01 		strh	r0, [r3, #266]	@ movhi
 920 007a 24E0     		b	.L42
 921              	.L28:
 228:subsystems/gps/gps_ubx.c ****     break;
 229:subsystems/gps/gps_ubx.c ****   case GOT_LEN1:
 230:subsystems/gps/gps_ubx.c ****     gps_ubx.len |= (c<<8);
 922              		.loc 2 230 0
 923 007c 204B     		ldr	r3, .L44
 924 007e B3F80A21 		ldrh	r2, [r3, #266]
 925 0082 42EA0020 		orr	r0, r2, r0, lsl #8
 926              	.LVL22:
 231:subsystems/gps/gps_ubx.c ****     if (gps_ubx.len > GPS_UBX_MAX_PAYLOAD) {
 927              		.loc 2 231 0
 928 0086 FF28     		cmp	r0, #255
 230:subsystems/gps/gps_ubx.c ****     gps_ubx.len |= (c<<8);
 929              		.loc 2 230 0
 930 0088 A3F80A01 		strh	r0, [r3, #266]	@ movhi
 931              		.loc 2 231 0
 932 008c 01D9     		bls	.L37
 232:subsystems/gps/gps_ubx.c ****       gps_ubx.error_last = GPS_UBX_ERR_MSG_TOO_LONG;
 933              		.loc 2 232 0
 934 008e 0222     		movs	r2, #2
 935 0090 28E0     		b	.L41
 936              	.L37:
 233:subsystems/gps/gps_ubx.c ****       goto error;
 234:subsystems/gps/gps_ubx.c ****     }
 235:subsystems/gps/gps_ubx.c ****     gps_ubx.msg_idx = 0;
 937              		.loc 2 235 0
 938 0092 0022     		movs	r2, #0
 939 0094 83F80C21 		strb	r2, [r3, #268]
 236:subsystems/gps/gps_ubx.c ****     gps_ubx.status++;
 940              		.loc 2 236 0
 941 0098 0622     		movs	r2, #6
 942 009a 14E0     		b	.L42
 943              	.LVL23:
 944              	.L29:
 237:subsystems/gps/gps_ubx.c ****     break;
 238:subsystems/gps/gps_ubx.c ****   case GOT_LEN2:
 239:subsystems/gps/gps_ubx.c ****     gps_ubx.msg_buf[gps_ubx.msg_idx] = c;
 945              		.loc 2 239 0
 946 009c 184B     		ldr	r3, .L44
 947 009e 93F80C21 		ldrb	r2, [r3, #268]	@ zero_extendqisi2
 948 00a2 9918     		adds	r1, r3, r2
 949 00a4 0872     		strb	r0, [r1, #8]
 240:subsystems/gps/gps_ubx.c ****     gps_ubx.msg_idx++;
 950              		.loc 2 240 0
 951 00a6 0132     		adds	r2, r2, #1
 241:subsystems/gps/gps_ubx.c ****     if (gps_ubx.msg_idx >= gps_ubx.len) {
 952              		.loc 2 241 0
 953 00a8 B3F80A11 		ldrh	r1, [r3, #266]
 240:subsystems/gps/gps_ubx.c ****     gps_ubx.msg_idx++;
 954              		.loc 2 240 0
 955 00ac D2B2     		uxtb	r2, r2
 956              		.loc 2 241 0
 957 00ae 9142     		cmp	r1, r2
 240:subsystems/gps/gps_ubx.c ****     gps_ubx.msg_idx++;
 958              		.loc 2 240 0
 959 00b0 83F80C21 		strb	r2, [r3, #268]
 960              		.loc 2 241 0
 961 00b4 22D8     		bhi	.L20
 242:subsystems/gps/gps_ubx.c ****       gps_ubx.status++;
 962              		.loc 2 242 0
 963 00b6 0722     		movs	r2, #7
 964 00b8 05E0     		b	.L42
 965              	.L30:
 243:subsystems/gps/gps_ubx.c ****     }
 244:subsystems/gps/gps_ubx.c ****     break;
 245:subsystems/gps/gps_ubx.c ****   case GOT_PAYLOAD:
 246:subsystems/gps/gps_ubx.c ****     if (c != gps_ubx.ck_a) {
 966              		.loc 2 246 0
 967 00ba 114B     		ldr	r3, .L44
 968 00bc 93F80D21 		ldrb	r2, [r3, #269]	@ zero_extendqisi2
 969 00c0 8242     		cmp	r2, r0
 970 00c2 08D1     		bne	.L43
 971              	.L38:
 247:subsystems/gps/gps_ubx.c ****       gps_ubx.error_last = GPS_UBX_ERR_CHECKSUM;
 248:subsystems/gps/gps_ubx.c ****       goto error;
 249:subsystems/gps/gps_ubx.c ****     }
 250:subsystems/gps/gps_ubx.c ****     gps_ubx.status++;
 972              		.loc 2 250 0
 973 00c4 0822     		movs	r2, #8
 974              	.LVL24:
 975              	.L42:
 976 00c6 83F80921 		strb	r2, [r3, #265]
 251:subsystems/gps/gps_ubx.c ****     break;
 977              		.loc 2 251 0
 978 00ca 10BD     		pop	{r4, pc}
 979              	.LVL25:
 980              	.L31:
 252:subsystems/gps/gps_ubx.c ****   case GOT_CHECKSUM1:
 253:subsystems/gps/gps_ubx.c ****     if (c != gps_ubx.ck_b) {
 981              		.loc 2 253 0
 982 00cc 0C4B     		ldr	r3, .L44
 983 00ce 93F80E21 		ldrb	r2, [r3, #270]	@ zero_extendqisi2
 984 00d2 8242     		cmp	r2, r0
 985 00d4 01D0     		beq	.L39
 986              	.L43:
 254:subsystems/gps/gps_ubx.c ****       gps_ubx.error_last = GPS_UBX_ERR_CHECKSUM;
 987              		.loc 2 254 0
 988 00d6 0322     		movs	r2, #3
 989 00d8 04E0     		b	.L41
 990              	.L39:
 255:subsystems/gps/gps_ubx.c ****       goto error;
 256:subsystems/gps/gps_ubx.c ****     }
 257:subsystems/gps/gps_ubx.c ****     gps_ubx.msg_available = TRUE;
 991              		.loc 2 257 0
 992 00da 0122     		movs	r2, #1
 993 00dc 1A70     		strb	r2, [r3, #0]
 258:subsystems/gps/gps_ubx.c ****     goto restart;
 994              		.loc 2 258 0
 995 00de 09E0     		b	.L40
 996              	.L22:
 259:subsystems/gps/gps_ubx.c ****     break;
 260:subsystems/gps/gps_ubx.c ****   default:
 261:subsystems/gps/gps_ubx.c ****     gps_ubx.error_last = GPS_UBX_ERR_UNEXPECTED;
 997              		.loc 2 261 0
 998 00e0 074B     		ldr	r3, .L44
 999 00e2 0422     		movs	r2, #4
 1000              	.LVL26:
 1001              	.L41:
 1002              	.L35:
 1003 00e4 83F81221 		strb	r2, [r3, #274]
 262:subsystems/gps/gps_ubx.c ****     goto error;
 263:subsystems/gps/gps_ubx.c ****   }
 264:subsystems/gps/gps_ubx.c ****   return;
 265:subsystems/gps/gps_ubx.c ****  error:
 266:subsystems/gps/gps_ubx.c ****   gps_ubx.error_cnt++;
 1004              		.loc 2 266 0
 1005 00e8 054B     		ldr	r3, .L44
 1006 00ea 93F81121 		ldrb	r2, [r3, #273]	@ zero_extendqisi2
 1007 00ee 0132     		adds	r2, r2, #1
 1008 00f0 83F81121 		strb	r2, [r3, #273]
 1009              	.L40:
 267:subsystems/gps/gps_ubx.c ****  restart:
 268:subsystems/gps/gps_ubx.c ****   gps_ubx.status = UNINIT;
 1010              		.loc 2 268 0
 1011 00f4 024B     		ldr	r3, .L44
 1012 00f6 0022     		movs	r2, #0
 1013 00f8 83F80921 		strb	r2, [r3, #265]
 1014              	.L20:
 1015 00fc 10BD     		pop	{r4, pc}
 1016              	.L45:
 1017 00fe 00BF     		.align	2
 1018              	.L44:
 1019 0100 00000000 		.word	.LANCHOR0
 1020              		.cfi_endproc
 1021              	.LFE29:
 1023              		.section	.text.gps_ubx_ucenter_init,"ax",%progbits
 1024              		.align	1
 1025              		.global	gps_ubx_ucenter_init
 1026              		.thumb
 1027              		.thumb_func
 1029              	gps_ubx_ucenter_init:
 1030              	.LFB30:
  51:./modules/gps/gps_ubx_ucenter.c **** {
 1031              		.loc 1 51 0
 1032              		.cfi_startproc
 1033              		@ args = 0, pretend = 0, frame = 0
 1034              		@ frame_needed = 0, uses_anonymous_args = 0
 1035              		@ link register save eliminated.
  53:./modules/gps/gps_ubx_ucenter.c ****   gps_ubx_ucenter.status = GPS_UBX_UCENTER_STATUS_AUTOBAUD;
 1036              		.loc 1 53 0
 1037 0000 094B     		ldr	r3, .L49
 1038 0002 0122     		movs	r2, #1
 1039 0004 1A70     		strb	r2, [r3, #0]
  54:./modules/gps/gps_ubx_ucenter.c ****   gps_ubx_ucenter.reply = GPS_UBX_UCENTER_REPLY_NONE;
 1040              		.loc 1 54 0
 1041 0006 0022     		movs	r2, #0
 1042 0008 5A70     		strb	r2, [r3, #1]
  55:./modules/gps/gps_ubx_ucenter.c ****   gps_ubx_ucenter.cnt = 0;
 1043              		.loc 1 55 0
 1044 000a 9A70     		strb	r2, [r3, #2]
  57:./modules/gps/gps_ubx_ucenter.c ****   gps_ubx_ucenter.baud_init = 0;
 1045              		.loc 1 57 0
 1046 000c 9A80     		strh	r2, [r3, #4]	@ movhi
  58:./modules/gps/gps_ubx_ucenter.c ****   gps_ubx_ucenter.baud_run = 0;
 1047              		.loc 1 58 0
 1048 000e DA80     		strh	r2, [r3, #6]	@ movhi
  60:./modules/gps/gps_ubx_ucenter.c ****   gps_ubx_ucenter.sw_ver_h = 0;
 1049              		.loc 1 60 0
 1050 0010 1A72     		strb	r2, [r3, #8]
  61:./modules/gps/gps_ubx_ucenter.c ****   gps_ubx_ucenter.sw_ver_l = 0;
 1051              		.loc 1 61 0
 1052 0012 5A72     		strb	r2, [r3, #9]
  62:./modules/gps/gps_ubx_ucenter.c ****   gps_ubx_ucenter.hw_ver_h = 0;
 1053              		.loc 1 62 0
 1054 0014 5A81     		strh	r2, [r3, #10]	@ movhi
  63:./modules/gps/gps_ubx_ucenter.c ****   gps_ubx_ucenter.hw_ver_l = 0;
 1055              		.loc 1 63 0
 1056 0016 9A81     		strh	r2, [r3, #12]	@ movhi
 1057              	.LVL27:
 1058              	.LBB157:
  67:./modules/gps/gps_ubx_ucenter.c ****     gps_ubx_ucenter.replies[i] = 0;
 1059              		.loc 1 67 0
 1060 0018 1146     		mov	r1, r2
 1061              	.LBE157:
  63:./modules/gps/gps_ubx_ucenter.c ****   gps_ubx_ucenter.hw_ver_l = 0;
 1062              		.loc 1 63 0
 1063 001a 0D33     		adds	r3, r3, #13
 1064              	.LVL28:
 1065              	.L47:
 1066              	.LBB158:
  65:./modules/gps/gps_ubx_ucenter.c ****   for (int i=0; i<GPS_UBX_UCENTER_CONFIG_STEPS; i++)
 1067              		.loc 1 65 0 discriminator 2
 1068 001c 0132     		adds	r2, r2, #1
 1069              	.LVL29:
 1070 001e 112A     		cmp	r2, #17
  67:./modules/gps/gps_ubx_ucenter.c ****     gps_ubx_ucenter.replies[i] = 0;
 1071              		.loc 1 67 0 discriminator 2
 1072 0020 03F8011F 		strb	r1, [r3, #1]!
  65:./modules/gps/gps_ubx_ucenter.c ****   for (int i=0; i<GPS_UBX_UCENTER_CONFIG_STEPS; i++)
 1073              		.loc 1 65 0 discriminator 2
 1074 0024 FAD1     		bne	.L47
 1075              	.LBE158:
  69:./modules/gps/gps_ubx_ucenter.c **** }
 1076              		.loc 1 69 0
 1077 0026 7047     		bx	lr
 1078              	.L50:
 1079              		.align	2
 1080              	.L49:
 1081 0028 00000000 		.word	.LANCHOR1
 1082              		.cfi_endproc
 1083              	.LFE30:
 1085              		.section	.text.gps_ubx_ucenter_periodic,"ax",%progbits
 1086              		.align	1
 1087              		.global	gps_ubx_ucenter_periodic
 1088              		.thumb
 1089              		.thumb_func
 1091              	gps_ubx_ucenter_periodic:
 1092              	.LFB31:
  77:./modules/gps/gps_ubx_ucenter.c **** {
 1093              		.loc 1 77 0
 1094              		.cfi_startproc
 1095              		@ args = 0, pretend = 0, frame = 40
 1096              		@ frame_needed = 0, uses_anonymous_args = 0
 1097 0000 F0B5     		push	{r4, r5, r6, r7, lr}
 1098              	.LCFI4:
 1099              		.cfi_def_cfa_offset 20
 1100              		.cfi_offset 14, -4
 1101              		.cfi_offset 7, -8
 1102              		.cfi_offset 6, -12
 1103              		.cfi_offset 5, -16
 1104              		.cfi_offset 4, -20
  78:./modules/gps/gps_ubx_ucenter.c ****   switch (gps_ubx_ucenter.status)
 1105              		.loc 1 78 0
 1106 0002 8B4B     		ldr	r3, .L102
  77:./modules/gps/gps_ubx_ucenter.c **** {
 1107              		.loc 1 77 0
 1108 0004 8BB0     		sub	sp, sp, #44
 1109              	.LCFI5:
 1110              		.cfi_def_cfa_offset 64
  78:./modules/gps/gps_ubx_ucenter.c ****   switch (gps_ubx_ucenter.status)
 1111              		.loc 1 78 0
 1112 0006 1A78     		ldrb	r2, [r3, #0]	@ zero_extendqisi2
 1113 0008 012A     		cmp	r2, #1
 1114 000a 03D0     		beq	.L53
 1115 000c 022A     		cmp	r2, #2
 1116 000e 41F07182 		bne	.L51
 1117 0012 C8E0     		b	.L101
 1118              	.L53:
 1119              	.LVL30:
 1120              	.LBB373:
 1121              	.LBB374:
 157:./modules/gps/gps_ubx_ucenter.c ****   switch (nr)
 1122              		.loc 1 157 0
 1123 0014 9A78     		ldrb	r2, [r3, #2]	@ zero_extendqisi2
 1124 0016 023A     		subs	r2, r2, #2
 1125 0018 042A     		cmp	r2, #4
 1126 001a 01F25E82 		bhi	.L68
 1127 001e DFE802F0 		tbb	[pc, r2]
 1128              	.L61:
 1129 0022 03       		.byte	(.L56-.L61)/2
 1130 0023 09       		.byte	(.L57-.L61)/2
 1131 0024 16       		.byte	(.L58-.L61)/2
 1132 0025 23       		.byte	(.L59-.L61)/2
 1133 0026 B0       		.byte	(.L60-.L61)/2
 1134 0027 00       		.align	1
 1135              	.L56:
 165:./modules/gps/gps_ubx_ucenter.c ****     gps_ubx_ucenter.reply = GPS_UBX_UCENTER_REPLY_NONE;
 1136              		.loc 1 165 0
 1137 0028 0025     		movs	r5, #0
 1138 002a 5D70     		strb	r5, [r3, #1]
 166:./modules/gps/gps_ubx_ucenter.c ****     GpsUartSetBaudrate(B38400); // Try the most common first?
 1139              		.loc 1 166 0
 1140 002c 8148     		ldr	r0, .L102+4
 1141 002e 4FF41641 		mov	r1, #38400
 1142 0032 25E0     		b	.L92
 1143              	.L57:
 170:./modules/gps/gps_ubx_ucenter.c ****     if (gps_ubx_ucenter.reply == GPS_UBX_UCENTER_REPLY_ACK)
 1144              		.loc 1 170 0
 1145 0034 5B78     		ldrb	r3, [r3, #1]	@ zero_extendqisi2
 1146 0036 7E4A     		ldr	r2, .L102
 1147 0038 012B     		cmp	r3, #1
 1148 003a 02D1     		bne	.L62
 172:./modules/gps/gps_ubx_ucenter.c ****       gps_ubx_ucenter.baud_init = 38400;
 1149              		.loc 1 172 0
 1150 003c 4FF41643 		mov	r3, #38400
 1151 0040 A5E0     		b	.L95
 1152              	.L62:
 175:./modules/gps/gps_ubx_ucenter.c ****     gps_ubx_ucenter.reply = GPS_UBX_UCENTER_REPLY_NONE;
 1153              		.loc 1 175 0
 1154 0042 0025     		movs	r5, #0
 1155 0044 5570     		strb	r5, [r2, #1]
 176:./modules/gps/gps_ubx_ucenter.c ****     GpsUartSetBaudrate(B9600); // Maybe the factory default?
 1156              		.loc 1 176 0
 1157 0046 7B48     		ldr	r0, .L102+4
 1158 0048 4FF41651 		mov	r1, #9600
 1159 004c 18E0     		b	.L92
 1160              	.L58:
 180:./modules/gps/gps_ubx_ucenter.c ****     if (gps_ubx_ucenter.reply == GPS_UBX_UCENTER_REPLY_ACK)
 1161              		.loc 1 180 0
 1162 004e 5B78     		ldrb	r3, [r3, #1]	@ zero_extendqisi2
 1163 0050 774A     		ldr	r2, .L102
 1164 0052 012B     		cmp	r3, #1
 1165 0054 02D1     		bne	.L64
 182:./modules/gps/gps_ubx_ucenter.c ****       gps_ubx_ucenter.baud_init = 9600;
 1166              		.loc 1 182 0
 1167 0056 4FF41653 		mov	r3, #9600
 1168 005a 98E0     		b	.L95
 1169              	.L64:
 185:./modules/gps/gps_ubx_ucenter.c ****     gps_ubx_ucenter.reply = GPS_UBX_UCENTER_REPLY_NONE;
 1170              		.loc 1 185 0
 1171 005c 0025     		movs	r5, #0
 1172 005e 5570     		strb	r5, [r2, #1]
 186:./modules/gps/gps_ubx_ucenter.c ****     GpsUartSetBaudrate(B57600); // The high-rate default?
 1173              		.loc 1 186 0
 1174 0060 7448     		ldr	r0, .L102+4
 1175 0062 4FF46141 		mov	r1, #57600
 1176 0066 0BE0     		b	.L92
 1177              	.L59:
 190:./modules/gps/gps_ubx_ucenter.c ****     if (gps_ubx_ucenter.reply == GPS_UBX_UCENTER_REPLY_ACK)
 1178              		.loc 1 190 0
 1179 0068 5B78     		ldrb	r3, [r3, #1]	@ zero_extendqisi2
 1180 006a 714A     		ldr	r2, .L102
 1181 006c 012B     		cmp	r3, #1
 1182 006e 02D1     		bne	.L65
 192:./modules/gps/gps_ubx_ucenter.c ****       gps_ubx_ucenter.baud_init = 57600;
 1183              		.loc 1 192 0
 1184 0070 4FF46143 		mov	r3, #57600
 1185 0074 8BE0     		b	.L95
 1186              	.L65:
 195:./modules/gps/gps_ubx_ucenter.c ****     gps_ubx_ucenter.reply = GPS_UBX_UCENTER_REPLY_NONE;
 1187              		.loc 1 195 0
 1188 0076 0025     		movs	r5, #0
 196:./modules/gps/gps_ubx_ucenter.c ****     GpsUartSetBaudrate(B4800); // Default NMEA baudrate finally?
 1189              		.loc 1 196 0
 1190 0078 6E48     		ldr	r0, .L102+4
 195:./modules/gps/gps_ubx_ucenter.c ****     gps_ubx_ucenter.reply = GPS_UBX_UCENTER_REPLY_NONE;
 1191              		.loc 1 195 0
 1192 007a 5570     		strb	r5, [r2, #1]
 196:./modules/gps/gps_ubx_ucenter.c ****     GpsUartSetBaudrate(B4800); // Default NMEA baudrate finally?
 1193              		.loc 1 196 0
 1194 007c 4FF49651 		mov	r1, #4800
 1195              	.L92:
 1196              	.LBB375:
 197:./modules/gps/gps_ubx_ucenter.c ****     UbxSend_CFG_MSG(UBX_NAV_ID, UBX_NAV_VELNED_ID, 0, 1, 0, 0);
 1197              		.loc 1 197 0
 1198 0080 6D4C     		ldr	r4, .L102+8
 1199              	.LBE375:
 196:./modules/gps/gps_ubx_ucenter.c ****     GpsUartSetBaudrate(B4800); // Default NMEA baudrate finally?
 1200              		.loc 1 196 0
 1201 0082 FFF7FEFF 		bl	uart_periph_set_baudrate
 1202              	.LVL31:
 1203              	.LBB391:
 197:./modules/gps/gps_ubx_ucenter.c ****     UbxSend_CFG_MSG(UBX_NAV_ID, UBX_NAV_VELNED_ID, 0, 1, 0, 0);
 1204              		.loc 1 197 0
 1205 0086 6B48     		ldr	r0, .L102+4
 1206 0088 B521     		movs	r1, #181
 1207 008a FFF7FEFF 		bl	uart_transmit
 1208 008e 6948     		ldr	r0, .L102+4
 1209 0090 6221     		movs	r1, #98
 1210 0092 FFF7FEFF 		bl	uart_transmit
 1211              	.LBB376:
 1212 0096 6748     		ldr	r0, .L102+4
 1213 0098 0621     		movs	r1, #6
 1214              	.LBE376:
 1215 009a 84F81051 		strb	r5, [r4, #272]
 1216 009e 84F80F51 		strb	r5, [r4, #271]
 1217              	.LVL32:
 1218              	.LBB377:
 1219 00a2 FFF7FEFF 		bl	uart_transmit
 1220 00a6 94F80F31 		ldrb	r3, [r4, #271]	@ zero_extendqisi2
 1221 00aa 94F81021 		ldrb	r2, [r4, #272]	@ zero_extendqisi2
 1222 00ae 0633     		adds	r3, r3, #6
 1223 00b0 DBB2     		uxtb	r3, r3
 1224 00b2 84F80F31 		strb	r3, [r4, #271]
 1225 00b6 9B18     		adds	r3, r3, r2
 1226 00b8 84F81031 		strb	r3, [r4, #272]
 1227              	.LVL33:
 1228              	.LBE377:
 1229              	.LBB378:
 1230 00bc 5D48     		ldr	r0, .L102+4
 1231 00be 0121     		movs	r1, #1
 1232 00c0 FFF7FEFF 		bl	uart_transmit
 1233 00c4 94F80F31 		ldrb	r3, [r4, #271]	@ zero_extendqisi2
 1234 00c8 94F81021 		ldrb	r2, [r4, #272]	@ zero_extendqisi2
 1235 00cc 0133     		adds	r3, r3, #1
 1236 00ce DBB2     		uxtb	r3, r3
 1237 00d0 84F80F31 		strb	r3, [r4, #271]
 1238 00d4 9B18     		adds	r3, r3, r2
 1239 00d6 84F81031 		strb	r3, [r4, #272]
 1240              	.LVL34:
 1241              	.LBE378:
 1242              	.LBB379:
 1243              	.LBB380:
 1244 00da 5648     		ldr	r0, .L102+4
 1245 00dc 0621     		movs	r1, #6
 1246 00de FFF7FEFF 		bl	uart_transmit
 1247 00e2 94F80F31 		ldrb	r3, [r4, #271]	@ zero_extendqisi2
 1248 00e6 94F81021 		ldrb	r2, [r4, #272]	@ zero_extendqisi2
 1249 00ea 0633     		adds	r3, r3, #6
 1250 00ec DBB2     		uxtb	r3, r3
 1251 00ee 84F80F31 		strb	r3, [r4, #271]
 1252 00f2 9B18     		adds	r3, r3, r2
 1253 00f4 84F81031 		strb	r3, [r4, #272]
 1254              	.LVL35:
 1255              	.LBE380:
 1256              	.LBB381:
 1257 00f8 4E48     		ldr	r0, .L102+4
 1258 00fa 2946     		mov	r1, r5
 1259 00fc FFF7FEFF 		bl	uart_transmit
 1260 0100 94F81021 		ldrb	r2, [r4, #272]	@ zero_extendqisi2
 1261 0104 94F80F31 		ldrb	r3, [r4, #271]	@ zero_extendqisi2
 1262              	.LBE381:
 1263              	.LBE379:
 1264              	.LBB383:
 1265 0108 4A48     		ldr	r0, .L102+4
 1266              	.LBE383:
 1267              	.LBB384:
 1268              	.LBB382:
 1269 010a D318     		adds	r3, r2, r3
 1270 010c 84F81031 		strb	r3, [r4, #272]
 1271              	.LVL36:
 1272              	.LBE382:
 1273              	.LBE384:
 1274              	.LBB385:
 1275 0110 0121     		movs	r1, #1
 1276 0112 FFF7FEFF 		bl	uart_transmit
 1277 0116 94F80F31 		ldrb	r3, [r4, #271]	@ zero_extendqisi2
 1278 011a 94F81021 		ldrb	r2, [r4, #272]	@ zero_extendqisi2
 1279 011e 0133     		adds	r3, r3, #1
 1280 0120 DBB2     		uxtb	r3, r3
 1281 0122 84F80F31 		strb	r3, [r4, #271]
 1282 0126 9B18     		adds	r3, r3, r2
 1283 0128 84F81031 		strb	r3, [r4, #272]
 1284              	.LVL37:
 1285              	.LBE385:
 1286              	.LBB386:
 1287 012c 4148     		ldr	r0, .L102+4
 1288 012e 1221     		movs	r1, #18
 1289 0130 FFF7FEFF 		bl	uart_transmit
 1290 0134 94F80F31 		ldrb	r3, [r4, #271]	@ zero_extendqisi2
 1291 0138 94F81021 		ldrb	r2, [r4, #272]	@ zero_extendqisi2
 1292 013c 1233     		adds	r3, r3, #18
 1293 013e DBB2     		uxtb	r3, r3
 1294 0140 84F80F31 		strb	r3, [r4, #271]
 1295 0144 9B18     		adds	r3, r3, r2
 1296 0146 84F81031 		strb	r3, [r4, #272]
 1297              	.LVL38:
 1298              	.LBE386:
 1299              	.LBB387:
 1300 014a 3A48     		ldr	r0, .L102+4
 1301 014c 2946     		mov	r1, r5
 1302 014e FFF7FEFF 		bl	uart_transmit
 1303 0152 94F81021 		ldrb	r2, [r4, #272]	@ zero_extendqisi2
 1304 0156 94F80F31 		ldrb	r3, [r4, #271]	@ zero_extendqisi2
 1305              	.LBE387:
 1306              	.LBB388:
 1307 015a 3648     		ldr	r0, .L102+4
 1308              	.LBE388:
 1309              	.LBB389:
 1310 015c D318     		adds	r3, r2, r3
 1311 015e 84F81031 		strb	r3, [r4, #272]
 1312              	.LVL39:
 1313              	.LBE389:
 1314              	.LBB390:
 1315 0162 0121     		movs	r1, #1
 1316 0164 FFF7FEFF 		bl	uart_transmit
 1317 0168 94F80F31 		ldrb	r3, [r4, #271]	@ zero_extendqisi2
 1318 016c 0133     		adds	r3, r3, #1
 1319              	.LVL40:
 1320              	.L100:
 1321 016e 94F81021 		ldrb	r2, [r4, #272]	@ zero_extendqisi2
 1322 0172 DBB2     		uxtb	r3, r3
 1323 0174 84F80F31 		strb	r3, [r4, #271]
 1324 0178 9B18     		adds	r3, r3, r2
 1325 017a 84F81031 		strb	r3, [r4, #272]
 1326              	.LVL41:
 1327 017e 00F055BC 		b	.L98
 1328              	.LVL42:
 1329              	.L60:
 1330              	.LBE390:
 1331              	.LBE391:
 200:./modules/gps/gps_ubx_ucenter.c ****     if (gps_ubx_ucenter.reply == GPS_UBX_UCENTER_REPLY_ACK)
 1332              		.loc 1 200 0
 1333 0182 5B78     		ldrb	r3, [r3, #1]	@ zero_extendqisi2
 1334 0184 2A4A     		ldr	r2, .L102
 1335 0186 012B     		cmp	r3, #1
 1336 0188 04D1     		bne	.L66
 202:./modules/gps/gps_ubx_ucenter.c ****       gps_ubx_ucenter.baud_init = 4800;
 1337              		.loc 1 202 0
 1338 018a 4FF49653 		mov	r3, #4800
 1339              	.L95:
 1340 018e 9380     		strh	r3, [r2, #4]	@ movhi
 1341 0190 01F0A7B9 		b	.L63
 1342              	.L66:
 208:./modules/gps/gps_ubx_ucenter.c ****     gps_ubx_ucenter.baud_init = 0;
 1343              		.loc 1 208 0
 1344 0194 0023     		movs	r3, #0
 1345 0196 9380     		strh	r3, [r2, #4]	@ movhi
 209:./modules/gps/gps_ubx_ucenter.c ****     GpsUartSetBaudrate(B9600);
 1346              		.loc 1 209 0
 1347 0198 2648     		ldr	r0, .L102+4
 1348 019a 4FF41651 		mov	r1, #9600
 1349 019e FFF7FEFF 		bl	uart_periph_set_baudrate
 1350              	.LVL43:
 1351 01a2 01F09EB9 		b	.L63
 1352              	.L101:
 1353              	.LBE374:
 1354              	.LBE373:
  97:./modules/gps/gps_ubx_ucenter.c ****       if (gps_ubx_ucenter_configure(gps_ubx_ucenter.cnt) == FALSE)
 1355              		.loc 1 97 0
 1356 01a6 9A78     		ldrb	r2, [r3, #2]	@ zero_extendqisi2
 1357              	.LVL44:
 1358              	.LBB392:
 1359              	.LBB393:
 319:./modules/gps/gps_ubx_ucenter.c **** 
 320:./modules/gps/gps_ubx_ucenter.c **** 
 321:./modules/gps/gps_ubx_ucenter.c **** // Text Telemetry for Debugging
 322:./modules/gps/gps_ubx_ucenter.c **** #ifndef DOWNLINK_DEVICE
 323:./modules/gps/gps_ubx_ucenter.c **** #define DOWNLINK_DEVICE DOWNLINK_AP_DEVICE
 324:./modules/gps/gps_ubx_ucenter.c **** #endif
 325:./modules/gps/gps_ubx_ucenter.c **** #undef GOT_PAYLOAD
 326:./modules/gps/gps_ubx_ucenter.c **** #include "subsystems/datalink/downlink.h"
 327:./modules/gps/gps_ubx_ucenter.c **** 
 328:./modules/gps/gps_ubx_ucenter.c **** static bool_t gps_ubx_ucenter_configure(uint8_t nr)
 329:./modules/gps/gps_ubx_ucenter.c **** {
 330:./modules/gps/gps_ubx_ucenter.c ****   // Store the reply of the last configuration step and reset
 331:./modules/gps/gps_ubx_ucenter.c ****   if (nr < GPS_UBX_UCENTER_CONFIG_STEPS)
 1360              		.loc 1 331 0
 1361 01a8 102A     		cmp	r2, #16
 1362 01aa 02D8     		bhi	.L67
 332:./modules/gps/gps_ubx_ucenter.c ****     gps_ubx_ucenter.replies[nr] = gps_ubx_ucenter.reply;
 1363              		.loc 1 332 0
 1364 01ac 5878     		ldrb	r0, [r3, #1]	@ zero_extendqisi2
 1365 01ae 9918     		adds	r1, r3, r2
 1366 01b0 8873     		strb	r0, [r1, #14]
 1367              	.L67:
 333:./modules/gps/gps_ubx_ucenter.c **** 
 334:./modules/gps/gps_ubx_ucenter.c ****   gps_ubx_ucenter.reply = GPS_UBX_UCENTER_REPLY_NONE;
 1368              		.loc 1 334 0
 1369 01b2 0021     		movs	r1, #0
 1370 01b4 5970     		strb	r1, [r3, #1]
 1371 01b6 1E4C     		ldr	r4, .L102
 335:./modules/gps/gps_ubx_ucenter.c **** 
 336:./modules/gps/gps_ubx_ucenter.c ****   switch (nr) {
 1372              		.loc 1 336 0
 1373 01b8 102A     		cmp	r2, #16
 1374 01ba 01F28E81 		bhi	.L68
 1375 01be DFE812F0 		tbh	[pc, r2, lsl #1]
 1376              	.L82:
 1377 01c2 1100     		.2byte	(.L69-.L82)/2
 1378 01c4 8C09     		.2byte	(.L68-.L82)/2
 1379 01c6 8C09     		.2byte	(.L68-.L82)/2
 1380 01c8 8C09     		.2byte	(.L68-.L82)/2
 1381 01ca 8C09     		.2byte	(.L68-.L82)/2
 1382 01cc 3D00     		.2byte	(.L70-.L82)/2
 1383 01ce 3B02     		.2byte	(.L71-.L82)/2
 1384 01d0 C106     		.2byte	(.L72-.L82)/2
 1385 01d2 C306     		.2byte	(.L73-.L82)/2
 1386 01d4 C506     		.2byte	(.L74-.L82)/2
 1387 01d6 C706     		.2byte	(.L75-.L82)/2
 1388 01d8 CA06     		.2byte	(.L76-.L82)/2
 1389 01da CD06     		.2byte	(.L77-.L82)/2
 1390 01dc D206     		.2byte	(.L78-.L82)/2
 1391 01de 8707     		.2byte	(.L79-.L82)/2
 1392 01e0 2508     		.2byte	(.L80-.L82)/2
 1393 01e2 3509     		.2byte	(.L81-.L82)/2
 1394              	.L69:
 337:./modules/gps/gps_ubx_ucenter.c ****   case 0:
 338:./modules/gps/gps_ubx_ucenter.c ****     UbxSend_MON_GET_VER();
 1395              		.loc 1 338 0
 1396 01e4 144C     		ldr	r4, .L102+8
 1397 01e6 1348     		ldr	r0, .L102+4
 1398 01e8 B521     		movs	r1, #181
 1399 01ea FFF7FEFF 		bl	uart_transmit
 1400              	.LVL45:
 1401 01ee 0025     		movs	r5, #0
 1402 01f0 1048     		ldr	r0, .L102+4
 1403 01f2 6221     		movs	r1, #98
 1404 01f4 FFF7FEFF 		bl	uart_transmit
 1405              	.LBB394:
 1406 01f8 0E48     		ldr	r0, .L102+4
 1407 01fa 0A21     		movs	r1, #10
 1408              	.LBE394:
 1409 01fc 84F81051 		strb	r5, [r4, #272]
 1410 0200 84F80F51 		strb	r5, [r4, #271]
 1411              	.LVL46:
 1412              	.LBB395:
 1413 0204 FFF7FEFF 		bl	uart_transmit
 1414 0208 94F80F31 		ldrb	r3, [r4, #271]	@ zero_extendqisi2
 1415 020c 94F81021 		ldrb	r2, [r4, #272]	@ zero_extendqisi2
 1416 0210 0A33     		adds	r3, r3, #10
 1417 0212 DBB2     		uxtb	r3, r3
 1418 0214 84F80F31 		strb	r3, [r4, #271]
 1419 0218 9B18     		adds	r3, r3, r2
 1420 021a 84F81031 		strb	r3, [r4, #272]
 1421              	.LVL47:
 1422              	.LBE395:
 1423              	.LBB396:
 1424 021e 0548     		ldr	r0, .L102+4
 1425 0220 0421     		movs	r1, #4
 1426 0222 FFF7FEFF 		bl	uart_transmit
 1427 0226 94F80F31 		ldrb	r3, [r4, #271]	@ zero_extendqisi2
 1428 022a 0433     		adds	r3, r3, #4
 1429 022c 9FE7     		b	.L100
 1430              	.L103:
 1431 022e 00BF     		.align	2
 1432              	.L102:
 1433 0230 00000000 		.word	.LANCHOR1
 1434 0234 00000000 		.word	uart3
 1435 0238 00000000 		.word	.LANCHOR0
 1436              	.LVL48:
 1437              	.L70:
 1438              	.LBE396:
 339:./modules/gps/gps_ubx_ucenter.c ****     break;
 340:./modules/gps/gps_ubx_ucenter.c ****   case 1:
 341:./modules/gps/gps_ubx_ucenter.c ****   case 2:
 342:./modules/gps/gps_ubx_ucenter.c ****   case 3:
 343:./modules/gps/gps_ubx_ucenter.c ****   case 4:
 344:./modules/gps/gps_ubx_ucenter.c ****     // UBX_G5010 takes 0.7 seconds to answer a firmware request
 345:./modules/gps/gps_ubx_ucenter.c ****     // Version info is important for porper configuration as different firmwares have different set
 346:./modules/gps/gps_ubx_ucenter.c ****     break;
 347:./modules/gps/gps_ubx_ucenter.c ****   case 5:
 348:./modules/gps/gps_ubx_ucenter.c ****     // Send some debugging info: detected baudrate, software version etc...
 349:./modules/gps/gps_ubx_ucenter.c ****     gps_ubx_ucenter.replies[0] = (gps_ubx_ucenter.baud_init/1000);
 1439              		.loc 1 349 0
 1440 023c A388     		ldrh	r3, [r4, #4]
 1441 023e 4FF47A72 		mov	r2, #1000
 1442              	.LVL49:
 1443 0242 B3FBF2F2 		udiv	r2, r3, r2
 1444 0246 D1B2     		uxtb	r1, r2
 1445 0248 A273     		strb	r2, [r4, #14]
 350:./modules/gps/gps_ubx_ucenter.c ****     gps_ubx_ucenter.replies[1] = (gps_ubx_ucenter.baud_init - 1000 * gps_ubx_ucenter.replies[0]) / 
 1446              		.loc 1 350 0
 1447 024a 304A     		ldr	r2, .L104
 351:./modules/gps/gps_ubx_ucenter.c ****     gps_ubx_ucenter.replies[2] = gps_ubx_ucenter.sw_ver_h;
 352:./modules/gps/gps_ubx_ucenter.c ****     gps_ubx_ucenter.replies[3] = gps_ubx_ucenter.sw_ver_l;
 353:./modules/gps/gps_ubx_ucenter.c ****     gps_ubx_ucenter.replies[4] = gps_ubx_ucenter.hw_ver_h;
 354:./modules/gps/gps_ubx_ucenter.c ****     gps_ubx_ucenter.replies[5] = gps_ubx_ucenter.hw_ver_l;
 355:./modules/gps/gps_ubx_ucenter.c ****     DOWNLINK_SEND_DEBUG(DefaultChannel, DefaultDevice,6,gps_ubx_ucenter.replies);
 1448              		.loc 1 355 0
 1449 024c 3048     		ldr	r0, .L104+4
 350:./modules/gps/gps_ubx_ucenter.c ****     gps_ubx_ucenter.replies[1] = (gps_ubx_ucenter.baud_init - 1000 * gps_ubx_ucenter.replies[0]) / 
 1450              		.loc 1 350 0
 1451 024e 02FB0133 		mla	r3, r2, r1, r3
 1452 0252 6422     		movs	r2, #100
 1453 0254 93FBF2F3 		sdiv	r3, r3, r2
 1454 0258 E373     		strb	r3, [r4, #15]
 351:./modules/gps/gps_ubx_ucenter.c ****     gps_ubx_ucenter.replies[2] = gps_ubx_ucenter.sw_ver_h;
 1455              		.loc 1 351 0
 1456 025a 237A     		ldrb	r3, [r4, #8]	@ zero_extendqisi2
 1457              		.loc 1 355 0
 1458 025c 0D21     		movs	r1, #13
 351:./modules/gps/gps_ubx_ucenter.c ****     gps_ubx_ucenter.replies[2] = gps_ubx_ucenter.sw_ver_h;
 1459              		.loc 1 351 0
 1460 025e 2374     		strb	r3, [r4, #16]
 352:./modules/gps/gps_ubx_ucenter.c ****     gps_ubx_ucenter.replies[3] = gps_ubx_ucenter.sw_ver_l;
 1461              		.loc 1 352 0
 1462 0260 637A     		ldrb	r3, [r4, #9]	@ zero_extendqisi2
 1463 0262 6374     		strb	r3, [r4, #17]
 353:./modules/gps/gps_ubx_ucenter.c ****     gps_ubx_ucenter.replies[4] = gps_ubx_ucenter.hw_ver_h;
 1464              		.loc 1 353 0
 1465 0264 6389     		ldrh	r3, [r4, #10]
 1466 0266 A374     		strb	r3, [r4, #18]
 354:./modules/gps/gps_ubx_ucenter.c ****     gps_ubx_ucenter.replies[5] = gps_ubx_ucenter.hw_ver_l;
 1467              		.loc 1 354 0
 1468 0268 A389     		ldrh	r3, [r4, #12]
 1469 026a E374     		strb	r3, [r4, #19]
 1470              		.loc 1 355 0
 1471 026c FFF7FEFF 		bl	uart_check_free_space
 1472 0270 0028     		cmp	r0, #0
 1473 0272 59D0     		beq	.L83
 1474 0274 274B     		ldr	r3, .L104+8
 1475              	.LBB397:
 1476 0276 2648     		ldr	r0, .L104+4
 1477              	.LBE397:
 1478 0278 1A88     		ldrh	r2, [r3, #0]
 1479              	.LBB398:
 1480 027a 9921     		movs	r1, #153
 1481              	.LBE398:
 1482 027c 0D32     		adds	r2, r2, #13
 1483 027e 1A80     		strh	r2, [r3, #0]	@ movhi
 1484 0280 254B     		ldr	r3, .L104+12
 1485 0282 264D     		ldr	r5, .L104+16
 1486 0284 1A88     		ldrh	r2, [r3, #0]
 1487 0286 264C     		ldr	r4, .L104+20
 1488 0288 0132     		adds	r2, r2, #1
 1489 028a 1A80     		strh	r2, [r3, #0]	@ movhi
 1490              	.LBB399:
 1491 028c FFF7FEFF 		bl	uart_transmit
 1492              	.LVL50:
 1493 0290 1F48     		ldr	r0, .L104+4
 1494 0292 0D21     		movs	r1, #13
 1495 0294 FFF7FEFF 		bl	uart_transmit
 1496              	.LBE399:
 1497 0298 0E23     		movs	r3, #14
 1498 029a 2B70     		strb	r3, [r5, #0]
 1499 029c 1B23     		movs	r3, #27
 1500 029e 2370     		strb	r3, [r4, #0]
 1501 02a0 1B48     		ldr	r0, .L104+4
 1502 02a2 0121     		movs	r1, #1
 1503 02a4 FFF7FEFF 		bl	uart_transmit
 1504 02a8 2B78     		ldrb	r3, [r5, #0]	@ zero_extendqisi2
 1505 02aa 2278     		ldrb	r2, [r4, #0]	@ zero_extendqisi2
 1506 02ac 1A33     		adds	r3, r3, #26
 1507 02ae DBB2     		uxtb	r3, r3
 1508 02b0 2B70     		strb	r3, [r5, #0]
 1509 02b2 9B18     		adds	r3, r3, r2
 1510 02b4 2370     		strb	r3, [r4, #0]
 1511 02b6 1648     		ldr	r0, .L104+4
 1512 02b8 1A21     		movs	r1, #26
 1513 02ba FFF7FEFF 		bl	uart_transmit
 1514              	.LBB400:
 1515 02be 2B78     		ldrb	r3, [r5, #0]	@ zero_extendqisi2
 1516 02c0 2278     		ldrb	r2, [r4, #0]	@ zero_extendqisi2
 1517 02c2 0633     		adds	r3, r3, #6
 1518 02c4 DBB2     		uxtb	r3, r3
 1519              	.LVL51:
 1520 02c6 2B70     		strb	r3, [r5, #0]
 1521 02c8 9B18     		adds	r3, r3, r2
 1522              	.LVL52:
 1523 02ca 2370     		strb	r3, [r4, #0]
 1524 02cc 1048     		ldr	r0, .L104+4
 1525 02ce 0621     		movs	r1, #6
 1526 02d0 FFF7FEFF 		bl	uart_transmit
 1527              	.LVL53:
 1528 02d4 134E     		ldr	r6, .L104+24
  76:./modules/gps/gps_ubx_ucenter.c **** void gps_ubx_ucenter_periodic(void)
 1529              		.loc 1 76 0
 1530 02d6 B71D     		adds	r7, r6, #6
 1531              	.LVL54:
 1532              	.L84:
 1533              	.LBB401:
 1534              		.loc 1 355 0
 1535 02d8 B17B     		ldrb	r1, [r6, #14]	@ zero_extendqisi2
 1536              	.LVL55:
 1537 02da 2B78     		ldrb	r3, [r5, #0]	@ zero_extendqisi2
 1538 02dc 2278     		ldrb	r2, [r4, #0]	@ zero_extendqisi2
 1539 02de CB18     		adds	r3, r1, r3
 1540 02e0 DBB2     		uxtb	r3, r3
 1541              	.LVL56:
 1542 02e2 2B70     		strb	r3, [r5, #0]
 1543 02e4 9B18     		adds	r3, r3, r2
 1544              	.LVL57:
 1545 02e6 2370     		strb	r3, [r4, #0]
 1546 02e8 0948     		ldr	r0, .L104+4
 1547 02ea 0136     		adds	r6, r6, #1
 1548 02ec FFF7FEFF 		bl	uart_transmit
 1549              	.LVL58:
 1550              	.LBE401:
 1551 02f0 BE42     		cmp	r6, r7
 1552 02f2 F1D1     		bne	.L84
 1553              	.LBE400:
 1554 02f4 094B     		ldr	r3, .L104+16
 1555 02f6 0648     		ldr	r0, .L104+4
 1556 02f8 1978     		ldrb	r1, [r3, #0]	@ zero_extendqisi2
 1557 02fa FFF7FEFF 		bl	uart_transmit
 1558 02fe 084B     		ldr	r3, .L104+20
 1559 0300 0348     		ldr	r0, .L104+4
 1560 0302 1978     		ldrb	r1, [r3, #0]	@ zero_extendqisi2
 1561 0304 FFF7FEFF 		bl	uart_transmit
 1562 0308 12E0     		b	.L85
 1563              	.L105:
 1564 030a 00BF     		.align	2
 1565              	.L104:
 1566 030c 18FCFFFF 		.word	-1000
 1567 0310 00000000 		.word	uart2
 1568 0314 00000000 		.word	downlink_nb_bytes
 1569 0318 00000000 		.word	downlink_nb_msgs
 1570 031c 00000000 		.word	ck_a
 1571 0320 00000000 		.word	ck_b
 1572 0324 00000000 		.word	.LANCHOR1
 1573              	.LVL59:
 1574              	.L83:
 1575 0328 C04B     		ldr	r3, .L106
 1576 032a 1A78     		ldrb	r2, [r3, #0]	@ zero_extendqisi2
 1577 032c 0132     		adds	r2, r2, #1
 1578 032e 1A70     		strb	r2, [r3, #0]
 1579              	.L85:
 1580              	.LBB402:
 1581              	.LBB403:
 289:./modules/gps/gps_ubx_ucenter.c ****     UbxSend_CFG_PRT(GPS_PORT_ID, 0x0, 0x0, 0x000008D0, 38400, UBX_PROTO_MASK, UBX_PROTO_MASK, 0x0, 
 1582              		.loc 1 289 0
 1583 0330 BF4C     		ldr	r4, .L106+4
 1584 0332 B521     		movs	r1, #181
 1585 0334 BF48     		ldr	r0, .L106+8
 1586 0336 0025     		movs	r5, #0
 1587 0338 FFF7FEFF 		bl	uart_transmit
 1588 033c 6221     		movs	r1, #98
 1589 033e BD48     		ldr	r0, .L106+8
 1590 0340 FFF7FEFF 		bl	uart_transmit
 1591              	.LBB404:
 1592 0344 0621     		movs	r1, #6
 1593              	.LBE404:
 1594 0346 84F81051 		strb	r5, [r4, #272]
 1595 034a 84F80F51 		strb	r5, [r4, #271]
 1596              	.LVL60:
 1597              	.LBB405:
 1598 034e B948     		ldr	r0, .L106+8
 1599 0350 FFF7FEFF 		bl	uart_transmit
 1600 0354 94F80F31 		ldrb	r3, [r4, #271]	@ zero_extendqisi2
 1601 0358 94F81021 		ldrb	r2, [r4, #272]	@ zero_extendqisi2
 1602 035c 0633     		adds	r3, r3, #6
 1603 035e DBB2     		uxtb	r3, r3
 1604 0360 84F80F31 		strb	r3, [r4, #271]
 1605 0364 9B18     		adds	r3, r3, r2
 1606              	.LBE405:
 1607              	.LBB406:
 1608 0366 2946     		mov	r1, r5
 1609              	.LBE406:
 1610              	.LBB407:
 1611 0368 84F81031 		strb	r3, [r4, #272]
 1612              	.LVL61:
 1613              	.LBE407:
 1614              	.LBB408:
 1615 036c B148     		ldr	r0, .L106+8
 1616 036e FFF7FEFF 		bl	uart_transmit
 1617 0372 94F81021 		ldrb	r2, [r4, #272]	@ zero_extendqisi2
 1618 0376 94F80F31 		ldrb	r3, [r4, #271]	@ zero_extendqisi2
 1619              	.LBE408:
 1620              	.LBB409:
 1621              	.LBB410:
 1622 037a 1421     		movs	r1, #20
 1623              	.LBE410:
 1624              	.LBE409:
 1625              	.LBB416:
 1626 037c D318     		adds	r3, r2, r3
 1627 037e 84F81031 		strb	r3, [r4, #272]
 1628              	.LVL62:
 1629              	.LBE416:
 1630              	.LBB417:
 1631              	.LBB411:
 1632 0382 AC48     		ldr	r0, .L106+8
 1633 0384 FFF7FEFF 		bl	uart_transmit
 1634 0388 94F80F31 		ldrb	r3, [r4, #271]	@ zero_extendqisi2
 1635 038c 94F81021 		ldrb	r2, [r4, #272]	@ zero_extendqisi2
 1636 0390 1433     		adds	r3, r3, #20
 1637 0392 DBB2     		uxtb	r3, r3
 1638 0394 84F80F31 		strb	r3, [r4, #271]
 1639 0398 9B18     		adds	r3, r3, r2
 1640              	.LBE411:
 1641              	.LBB412:
 1642 039a 2946     		mov	r1, r5
 1643              	.LBE412:
 1644              	.LBB413:
 1645 039c 84F81031 		strb	r3, [r4, #272]
 1646              	.LVL63:
 1647              	.LBE413:
 1648              	.LBB414:
 1649 03a0 A448     		ldr	r0, .L106+8
 1650 03a2 FFF7FEFF 		bl	uart_transmit
 1651 03a6 94F81021 		ldrb	r2, [r4, #272]	@ zero_extendqisi2
 1652 03aa 94F80F31 		ldrb	r3, [r4, #271]	@ zero_extendqisi2
 1653              	.LBE414:
 1654              	.LBE417:
 1655              	.LBB418:
 1656 03ae 0121     		movs	r1, #1
 1657              	.LBE418:
 1658              	.LBB419:
 1659              	.LBB415:
 1660 03b0 D318     		adds	r3, r2, r3
 1661 03b2 84F81031 		strb	r3, [r4, #272]
 1662              	.LVL64:
 1663              	.LBE415:
 1664              	.LBE419:
 1665              	.LBB420:
 1666 03b6 9F48     		ldr	r0, .L106+8
 1667 03b8 FFF7FEFF 		bl	uart_transmit
 1668 03bc 94F80F31 		ldrb	r3, [r4, #271]	@ zero_extendqisi2
 1669 03c0 94F81021 		ldrb	r2, [r4, #272]	@ zero_extendqisi2
 1670 03c4 0133     		adds	r3, r3, #1
 1671 03c6 DBB2     		uxtb	r3, r3
 1672 03c8 84F80F31 		strb	r3, [r4, #271]
 1673 03cc 9B18     		adds	r3, r3, r2
 1674              	.LBE420:
 1675              	.LBB421:
 1676 03ce 2946     		mov	r1, r5
 1677              	.LBE421:
 1678              	.LBB422:
 1679 03d0 84F81031 		strb	r3, [r4, #272]
 1680              	.LVL65:
 1681              	.LBE422:
 1682              	.LBB423:
 1683 03d4 9748     		ldr	r0, .L106+8
 1684 03d6 FFF7FEFF 		bl	uart_transmit
 1685 03da 94F81021 		ldrb	r2, [r4, #272]	@ zero_extendqisi2
 1686 03de 94F80F31 		ldrb	r3, [r4, #271]	@ zero_extendqisi2
 1687              	.LBE423:
 1688              	.LBB424:
 1689 03e2 2946     		mov	r1, r5
 1690              	.LBE424:
 1691              	.LBB425:
 1692 03e4 D318     		adds	r3, r2, r3
 1693 03e6 84F81031 		strb	r3, [r4, #272]
 1694              	.LBE425:
 1695              	.LBB426:
 1696 03ea 9248     		ldr	r0, .L106+8
 1697              	.LBE426:
 1698 03ec ADF81A50 		strh	r5, [sp, #26]	@ movhi
 1699              	.LVL66:
 1700              	.LBB427:
 1701 03f0 FFF7FEFF 		bl	uart_transmit
 1702 03f4 94F81021 		ldrb	r2, [r4, #272]	@ zero_extendqisi2
 1703 03f8 94F80F31 		ldrb	r3, [r4, #271]	@ zero_extendqisi2
 1704              	.LBE427:
 1705              	.LBB428:
 1706 03fc 9DF81B60 		ldrb	r6, [sp, #27]	@ zero_extendqisi2
 1707              	.LVL67:
 1708              	.LBE428:
 1709              	.LBB429:
 1710 0400 84F80F31 		strb	r3, [r4, #271]
 1711 0404 9B18     		adds	r3, r3, r2
 1712              	.LBE429:
 1713              	.LBB430:
 1714 0406 3146     		mov	r1, r6
 1715              	.LBE430:
 1716              	.LBB431:
 1717 0408 84F81031 		strb	r3, [r4, #272]
 1718              	.LBE431:
 1719              	.LBB432:
 1720 040c 8948     		ldr	r0, .L106+8
 1721 040e FFF7FEFF 		bl	uart_transmit
 1722 0412 94F80F31 		ldrb	r3, [r4, #271]	@ zero_extendqisi2
 1723              	.LBE432:
 1724              	.LBB433:
 1725 0416 8748     		ldr	r0, .L106+8
 1726              	.LBE433:
 1727              	.LBB434:
 1728 0418 F618     		adds	r6, r6, r3
 1729              	.LVL68:
 1730 041a 94F81031 		ldrb	r3, [r4, #272]	@ zero_extendqisi2
 1731 041e F6B2     		uxtb	r6, r6
 1732 0420 84F80F61 		strb	r6, [r4, #271]
 1733 0424 F618     		adds	r6, r6, r3
 1734 0426 84F81061 		strb	r6, [r4, #272]
 1735              	.LBE434:
 1736 042a 4FF40D66 		mov	r6, #2256
 1737 042e 0196     		str	r6, [sp, #4]
 1738              	.LVL69:
 1739              	.LBB435:
 1740 0430 06F0D006 		and	r6, r6, #208
 1741              	.LVL70:
 1742 0434 3146     		mov	r1, r6
 1743 0436 FFF7FEFF 		bl	uart_transmit
 1744 043a 94F80F31 		ldrb	r3, [r4, #271]	@ zero_extendqisi2
 1745              	.LBE435:
 1746              	.LBB436:
 1747 043e 7D48     		ldr	r0, .L106+8
 1748              	.LBE436:
 1749              	.LBB437:
 1750 0440 F618     		adds	r6, r6, r3
 1751              	.LVL71:
 1752 0442 94F81031 		ldrb	r3, [r4, #272]	@ zero_extendqisi2
 1753 0446 F6B2     		uxtb	r6, r6
 1754 0448 84F80F61 		strb	r6, [r4, #271]
 1755 044c F618     		adds	r6, r6, r3
 1756 044e 84F81061 		strb	r6, [r4, #272]
 1757              	.LBE437:
 1758              	.LBB438:
 1759 0452 9DF80560 		ldrb	r6, [sp, #5]	@ zero_extendqisi2
 1760              	.LVL72:
 1761 0456 3146     		mov	r1, r6
 1762 0458 FFF7FEFF 		bl	uart_transmit
 1763 045c 94F80F31 		ldrb	r3, [r4, #271]	@ zero_extendqisi2
 1764              	.LBE438:
 1765              	.LBB439:
 1766 0460 7448     		ldr	r0, .L106+8
 1767              	.LBE439:
 1768              	.LBB440:
 1769 0462 F618     		adds	r6, r6, r3
 1770              	.LVL73:
 1771 0464 94F81031 		ldrb	r3, [r4, #272]	@ zero_extendqisi2
 1772 0468 F6B2     		uxtb	r6, r6
 1773 046a 84F80F61 		strb	r6, [r4, #271]
 1774 046e F618     		adds	r6, r6, r3
 1775 0470 84F81061 		strb	r6, [r4, #272]
 1776              	.LBE440:
 1777              	.LBB441:
 1778 0474 9DF80660 		ldrb	r6, [sp, #6]	@ zero_extendqisi2
 1779              	.LVL74:
 1780 0478 3146     		mov	r1, r6
 1781 047a FFF7FEFF 		bl	uart_transmit
 1782 047e 94F80F31 		ldrb	r3, [r4, #271]	@ zero_extendqisi2
 1783              	.LBE441:
 1784              	.LBB442:
 1785 0482 6C48     		ldr	r0, .L106+8
 1786              	.LBE442:
 1787              	.LBB443:
 1788 0484 F618     		adds	r6, r6, r3
 1789              	.LVL75:
 1790 0486 94F81031 		ldrb	r3, [r4, #272]	@ zero_extendqisi2
 1791 048a F6B2     		uxtb	r6, r6
 1792 048c 84F80F61 		strb	r6, [r4, #271]
 1793 0490 F618     		adds	r6, r6, r3
 1794 0492 84F81061 		strb	r6, [r4, #272]
 1795              	.LBE443:
 1796              	.LBB444:
 1797 0496 9DF80760 		ldrb	r6, [sp, #7]	@ zero_extendqisi2
 1798              	.LVL76:
 1799 049a 3146     		mov	r1, r6
 1800 049c FFF7FEFF 		bl	uart_transmit
 1801 04a0 94F80F31 		ldrb	r3, [r4, #271]	@ zero_extendqisi2
 1802              	.LBE444:
 1803              	.LBB445:
 1804 04a4 2946     		mov	r1, r5
 1805              	.LBE445:
 1806              	.LBB446:
 1807 04a6 F618     		adds	r6, r6, r3
 1808              	.LVL77:
 1809 04a8 94F81031 		ldrb	r3, [r4, #272]	@ zero_extendqisi2
 1810 04ac F6B2     		uxtb	r6, r6
 1811 04ae 84F80F61 		strb	r6, [r4, #271]
 1812 04b2 F618     		adds	r6, r6, r3
 1813 04b4 84F81061 		strb	r6, [r4, #272]
 1814              	.LBE446:
 1815 04b8 4FF41643 		mov	r3, #38400
 1816              	.LBB447:
 1817 04bc 5D48     		ldr	r0, .L106+8
 1818              	.LBE447:
 1819 04be 0293     		str	r3, [sp, #8]
 1820              	.LVL78:
 1821              	.LBB448:
 1822 04c0 FFF7FEFF 		bl	uart_transmit
 1823 04c4 94F81021 		ldrb	r2, [r4, #272]	@ zero_extendqisi2
 1824 04c8 94F80F31 		ldrb	r3, [r4, #271]	@ zero_extendqisi2
 1825              	.LBE448:
 1826              	.LBB449:
 1827 04cc 9DF80960 		ldrb	r6, [sp, #9]	@ zero_extendqisi2
 1828              	.LVL79:
 1829              	.LBE449:
 1830              	.LBB450:
 1831 04d0 84F80F31 		strb	r3, [r4, #271]
 1832 04d4 9B18     		adds	r3, r3, r2
 1833              	.LBE450:
 1834              	.LBB451:
 1835 04d6 3146     		mov	r1, r6
 1836              	.LBE451:
 1837              	.LBB452:
 1838 04d8 84F81031 		strb	r3, [r4, #272]
 1839              	.LBE452:
 1840              	.LBB453:
 1841 04dc 5548     		ldr	r0, .L106+8
 1842 04de FFF7FEFF 		bl	uart_transmit
 1843 04e2 94F80F31 		ldrb	r3, [r4, #271]	@ zero_extendqisi2
 1844              	.LBE453:
 1845              	.LBB454:
 1846 04e6 5348     		ldr	r0, .L106+8
 1847              	.LBE454:
 1848              	.LBB455:
 1849 04e8 F618     		adds	r6, r6, r3
 1850              	.LVL80:
 1851 04ea 94F81031 		ldrb	r3, [r4, #272]	@ zero_extendqisi2
 1852 04ee F6B2     		uxtb	r6, r6
 1853 04f0 84F80F61 		strb	r6, [r4, #271]
 1854 04f4 F618     		adds	r6, r6, r3
 1855 04f6 84F81061 		strb	r6, [r4, #272]
 1856              	.LBE455:
 1857              	.LBB456:
 1858 04fa 9DF80A60 		ldrb	r6, [sp, #10]	@ zero_extendqisi2
 1859              	.LVL81:
 1860 04fe 3146     		mov	r1, r6
 1861 0500 FFF7FEFF 		bl	uart_transmit
 1862 0504 94F80F31 		ldrb	r3, [r4, #271]	@ zero_extendqisi2
 1863              	.LBE456:
 1864              	.LBB457:
 1865 0508 4A48     		ldr	r0, .L106+8
 1866              	.LBE457:
 1867              	.LBB458:
 1868 050a F618     		adds	r6, r6, r3
 1869              	.LVL82:
 1870 050c 94F81031 		ldrb	r3, [r4, #272]	@ zero_extendqisi2
 1871 0510 F6B2     		uxtb	r6, r6
 1872 0512 84F80F61 		strb	r6, [r4, #271]
 1873 0516 F618     		adds	r6, r6, r3
 1874 0518 84F81061 		strb	r6, [r4, #272]
 1875              	.LBE458:
 1876              	.LBB459:
 1877 051c 9DF80B60 		ldrb	r6, [sp, #11]	@ zero_extendqisi2
 1878              	.LVL83:
 1879 0520 3146     		mov	r1, r6
 1880 0522 FFF7FEFF 		bl	uart_transmit
 1881 0526 94F80F31 		ldrb	r3, [r4, #271]	@ zero_extendqisi2
 1882              	.LBE459:
 1883              	.LBB460:
 1884 052a 4248     		ldr	r0, .L106+8
 1885              	.LBE460:
 1886              	.LBB461:
 1887 052c F618     		adds	r6, r6, r3
 1888              	.LVL84:
 1889 052e 94F81031 		ldrb	r3, [r4, #272]	@ zero_extendqisi2
 1890 0532 F6B2     		uxtb	r6, r6
 1891 0534 84F80F61 		strb	r6, [r4, #271]
 1892 0538 F618     		adds	r6, r6, r3
 1893 053a 84F81061 		strb	r6, [r4, #272]
 1894              	.LBE461:
 1895 053e 0126     		movs	r6, #1
 1896              	.LBB462:
 1897 0540 3146     		mov	r1, r6
 1898              	.LBE462:
 1899 0542 ADF81C60 		strh	r6, [sp, #28]	@ movhi
 1900              	.LVL85:
 1901              	.LBB463:
 1902 0546 FFF7FEFF 		bl	uart_transmit
 1903 054a 94F80F31 		ldrb	r3, [r4, #271]	@ zero_extendqisi2
 1904 054e 94F81021 		ldrb	r2, [r4, #272]	@ zero_extendqisi2
 1905 0552 F318     		adds	r3, r6, r3
 1906              	.LBE463:
 1907              	.LBB464:
 1908 0554 9DF81D70 		ldrb	r7, [sp, #29]	@ zero_extendqisi2
 1909              	.LVL86:
 1910              	.LBE464:
 1911              	.LBB465:
 1912 0558 DBB2     		uxtb	r3, r3
 1913 055a 84F80F31 		strb	r3, [r4, #271]
 1914 055e 9B18     		adds	r3, r3, r2
 1915              	.LBE465:
 1916              	.LBB466:
 1917 0560 3946     		mov	r1, r7
 1918              	.LBE466:
 1919              	.LBB467:
 1920 0562 84F81031 		strb	r3, [r4, #272]
 1921              	.LBE467:
 1922              	.LBB468:
 1923 0566 3348     		ldr	r0, .L106+8
 1924 0568 FFF7FEFF 		bl	uart_transmit
 1925 056c 94F80F31 		ldrb	r3, [r4, #271]	@ zero_extendqisi2
 1926              	.LBE468:
 1927              	.LBB469:
 1928 0570 3146     		mov	r1, r6
 1929              	.LBE469:
 1930              	.LBB470:
 1931 0572 FF18     		adds	r7, r7, r3
 1932              	.LVL87:
 1933 0574 94F81031 		ldrb	r3, [r4, #272]	@ zero_extendqisi2
 1934 0578 FFB2     		uxtb	r7, r7
 1935 057a 84F80F71 		strb	r7, [r4, #271]
 1936 057e FF18     		adds	r7, r7, r3
 1937              	.LBE470:
 1938              	.LBB471:
 1939 0580 2C48     		ldr	r0, .L106+8
 1940              	.LBE471:
 1941              	.LBB472:
 1942 0582 84F81071 		strb	r7, [r4, #272]
 1943              	.LBE472:
 1944 0586 ADF81E60 		strh	r6, [sp, #30]	@ movhi
 1945              	.LVL88:
 1946              	.LBB473:
 1947 058a FFF7FEFF 		bl	uart_transmit
 1948 058e 94F80F31 		ldrb	r3, [r4, #271]	@ zero_extendqisi2
 1949              	.LBE473:
 1950              	.LBB474:
 1951 0592 2848     		ldr	r0, .L106+8
 1952              	.LBE474:
 1953              	.LBB475:
 1954 0594 F618     		adds	r6, r6, r3
 1955              	.LVL89:
 1956 0596 94F81031 		ldrb	r3, [r4, #272]	@ zero_extendqisi2
 1957 059a F6B2     		uxtb	r6, r6
 1958 059c 84F80F61 		strb	r6, [r4, #271]
 1959 05a0 F618     		adds	r6, r6, r3
 1960 05a2 84F81061 		strb	r6, [r4, #272]
 1961              	.LBE475:
 1962              	.LBB476:
 1963 05a6 9DF81F60 		ldrb	r6, [sp, #31]	@ zero_extendqisi2
 1964              	.LVL90:
 1965 05aa 3146     		mov	r1, r6
 1966 05ac FFF7FEFF 		bl	uart_transmit
 1967 05b0 94F80F31 		ldrb	r3, [r4, #271]	@ zero_extendqisi2
 1968              	.LBE476:
 1969              	.LBB477:
 1970 05b4 2946     		mov	r1, r5
 1971              	.LBE477:
 1972              	.LBB478:
 1973 05b6 F618     		adds	r6, r6, r3
 1974              	.LVL91:
 1975 05b8 94F81031 		ldrb	r3, [r4, #272]	@ zero_extendqisi2
 1976 05bc F6B2     		uxtb	r6, r6
 1977 05be 84F80F61 		strb	r6, [r4, #271]
 1978 05c2 F618     		adds	r6, r6, r3
 1979 05c4 84F81061 		strb	r6, [r4, #272]
 1980              	.LBE478:
 1981              	.LBB479:
 1982 05c8 1A48     		ldr	r0, .L106+8
 1983              	.LBE479:
 1984 05ca ADF82050 		strh	r5, [sp, #32]	@ movhi
 1985              	.LVL92:
 1986              	.LBB480:
 1987 05ce FFF7FEFF 		bl	uart_transmit
 1988 05d2 94F81021 		ldrb	r2, [r4, #272]	@ zero_extendqisi2
 1989 05d6 94F80F31 		ldrb	r3, [r4, #271]	@ zero_extendqisi2
 1990              	.LBE480:
 1991              	.LBB481:
 1992 05da 9DF82160 		ldrb	r6, [sp, #33]	@ zero_extendqisi2
 1993              	.LVL93:
 1994              	.LBE481:
 1995              	.LBB482:
 1996 05de 84F80F31 		strb	r3, [r4, #271]
 1997 05e2 9B18     		adds	r3, r3, r2
 1998              	.LBE482:
 1999              	.LBB483:
 2000 05e4 3146     		mov	r1, r6
 2001              	.LBE483:
 2002              	.LBB484:
 2003 05e6 84F81031 		strb	r3, [r4, #272]
 2004              	.LBE484:
 2005              	.LBB485:
 2006 05ea 1248     		ldr	r0, .L106+8
 2007 05ec FFF7FEFF 		bl	uart_transmit
 2008 05f0 94F80F31 		ldrb	r3, [r4, #271]	@ zero_extendqisi2
 2009              	.LBE485:
 2010              	.LBB486:
 2011 05f4 2946     		mov	r1, r5
 2012              	.LBE486:
 2013              	.LBB487:
 2014 05f6 F618     		adds	r6, r6, r3
 2015              	.LVL94:
 2016 05f8 94F81031 		ldrb	r3, [r4, #272]	@ zero_extendqisi2
 2017 05fc F6B2     		uxtb	r6, r6
 2018 05fe 84F80F61 		strb	r6, [r4, #271]
 2019 0602 F618     		adds	r6, r6, r3
 2020 0604 84F81061 		strb	r6, [r4, #272]
 2021              	.LBE487:
 2022              	.LBB488:
 2023 0608 0A48     		ldr	r0, .L106+8
 2024              	.LBE488:
 2025 060a ADF82250 		strh	r5, [sp, #34]	@ movhi
 2026              	.LVL95:
 2027              	.LBB489:
 2028 060e FFF7FEFF 		bl	uart_transmit
 2029 0612 94F80F31 		ldrb	r3, [r4, #271]	@ zero_extendqisi2
 2030 0616 94F81021 		ldrb	r2, [r4, #272]	@ zero_extendqisi2
 2031 061a 84F80F31 		strb	r3, [r4, #271]
 2032 061e 9B18     		adds	r3, r3, r2
 2033 0620 84F81031 		strb	r3, [r4, #272]
 2034              	.LBE489:
 2035              	.LBB490:
 2036 0624 9DF82350 		ldrb	r5, [sp, #35]	@ zero_extendqisi2
 2037              	.LVL96:
 2038 0628 00F0EFBE 		b	.L97
 2039              	.L107:
 2040              		.align	2
 2041              	.L106:
 2042 062c 00000000 		.word	downlink_nb_ovrn
 2043 0630 00000000 		.word	.LANCHOR0
 2044 0634 00000000 		.word	uart3
 2045              	.LVL97:
 2046              	.L71:
 2047              	.LBE490:
 2048              	.LBE403:
 2049              	.LBE402:
 356:./modules/gps/gps_ubx_ucenter.c **** 
 357:./modules/gps/gps_ubx_ucenter.c ****     //////////////////////////////////
 358:./modules/gps/gps_ubx_ucenter.c ****     // Actual configuration start
 359:./modules/gps/gps_ubx_ucenter.c **** 
 360:./modules/gps/gps_ubx_ucenter.c ****     // Use old baudrate to issue a baudrate change command
 361:./modules/gps/gps_ubx_ucenter.c ****     gps_ubx_ucenter_config_port();
 362:./modules/gps/gps_ubx_ucenter.c ****     break;
 363:./modules/gps/gps_ubx_ucenter.c ****   case 6:
 364:./modules/gps/gps_ubx_ucenter.c ****     // Now the GPS baudrate should have changed
 365:./modules/gps/gps_ubx_ucenter.c ****     GpsUartSetBaudrate(B38400);
 2050              		.loc 1 365 0
 2051 0638 DB48     		ldr	r0, .L108
 2052 063a 4FF41641 		mov	r1, #38400
 2053 063e FFF7FEFF 		bl	uart_periph_set_baudrate
 2054              	.LVL98:
 366:./modules/gps/gps_ubx_ucenter.c ****     gps_ubx_ucenter.baud_run = 38400;
 2055              		.loc 1 366 0
 2056 0642 4FF41643 		mov	r3, #38400
 2057 0646 E380     		strh	r3, [r4, #6]	@ movhi
 2058              	.LBB491:
 2059              	.LBB492:
 248:./modules/gps/gps_ubx_ucenter.c ****     if (gps_ubx_ucenter.sw_ver_h < 5)
 2060              		.loc 1 248 0
 2061 0648 237A     		ldrb	r3, [r4, #8]	@ zero_extendqisi2
 2062              	.LBB493:
 250:./modules/gps/gps_ubx_ucenter.c ****       UbxSend_CFG_NAV(NAV_DYN_AIRBORNE_2G, 3, 16, 24, 20, 5, 0, 0x3C, 0x3C, 0x14, 0x03E8 ,0x0000, 0
 2063              		.loc 1 250 0
 2064 064a B521     		movs	r1, #181
 2065              	.LBE493:
 248:./modules/gps/gps_ubx_ucenter.c ****     if (gps_ubx_ucenter.sw_ver_h < 5)
 2066              		.loc 1 248 0
 2067 064c 042B     		cmp	r3, #4
 2068              	.LBB597:
 250:./modules/gps/gps_ubx_ucenter.c ****       UbxSend_CFG_NAV(NAV_DYN_AIRBORNE_2G, 3, 16, 24, 20, 5, 0, 0x3C, 0x3C, 0x14, 0x03E8 ,0x0000, 0
 2069              		.loc 1 250 0
 2070 064e D648     		ldr	r0, .L108
 2071 0650 D64C     		ldr	r4, .L108+4
 2072              	.LBE597:
 248:./modules/gps/gps_ubx_ucenter.c ****     if (gps_ubx_ucenter.sw_ver_h < 5)
 2073              		.loc 1 248 0
 2074 0652 00F20D82 		bhi	.L86
 2075              	.LBB598:
 250:./modules/gps/gps_ubx_ucenter.c ****       UbxSend_CFG_NAV(NAV_DYN_AIRBORNE_2G, 3, 16, 24, 20, 5, 0, 0x3C, 0x3C, 0x14, 0x03E8 ,0x0000, 0
 2076              		.loc 1 250 0
 2077 0656 0025     		movs	r5, #0
 2078 0658 FFF7FEFF 		bl	uart_transmit
 2079 065c 6221     		movs	r1, #98
 2080 065e D248     		ldr	r0, .L108
 2081 0660 FFF7FEFF 		bl	uart_transmit
 2082              	.LBB494:
 2083 0664 0621     		movs	r1, #6
 2084 0666 D048     		ldr	r0, .L108
 2085              	.LBE494:
 2086 0668 84F81051 		strb	r5, [r4, #272]
 2087 066c 84F80F51 		strb	r5, [r4, #271]
 2088              	.LVL99:
 2089              	.LBB495:
 2090 0670 FFF7FEFF 		bl	uart_transmit
 2091 0674 94F80F31 		ldrb	r3, [r4, #271]	@ zero_extendqisi2
 2092 0678 94F81021 		ldrb	r2, [r4, #272]	@ zero_extendqisi2
 2093 067c 0633     		adds	r3, r3, #6
 2094 067e DBB2     		uxtb	r3, r3
 2095 0680 84F80F31 		strb	r3, [r4, #271]
 2096 0684 9B18     		adds	r3, r3, r2
 2097              	.LBE495:
 2098              	.LBB496:
 2099 0686 0321     		movs	r1, #3
 2100              	.LBE496:
 2101              	.LBB497:
 2102 0688 84F81031 		strb	r3, [r4, #272]
 2103              	.LVL100:
 2104              	.LBE497:
 2105              	.LBB498:
 2106 068c C648     		ldr	r0, .L108
 2107 068e FFF7FEFF 		bl	uart_transmit
 2108 0692 94F80F31 		ldrb	r3, [r4, #271]	@ zero_extendqisi2
 2109 0696 94F81021 		ldrb	r2, [r4, #272]	@ zero_extendqisi2
 2110 069a 0333     		adds	r3, r3, #3
 2111 069c DBB2     		uxtb	r3, r3
 2112 069e 84F80F31 		strb	r3, [r4, #271]
 2113 06a2 9B18     		adds	r3, r3, r2
 2114              	.LBE498:
 2115              	.LBB499:
 2116              	.LBB500:
 2117 06a4 1C21     		movs	r1, #28
 2118              	.LBE500:
 2119              	.LBE499:
 2120              	.LBB504:
 2121 06a6 84F81031 		strb	r3, [r4, #272]
 2122              	.LVL101:
 2123              	.LBE504:
 2124              	.LBB505:
 2125              	.LBB501:
 2126 06aa BF48     		ldr	r0, .L108
 2127 06ac FFF7FEFF 		bl	uart_transmit
 2128 06b0 94F80F31 		ldrb	r3, [r4, #271]	@ zero_extendqisi2
 2129 06b4 94F81021 		ldrb	r2, [r4, #272]	@ zero_extendqisi2
 2130 06b8 1C33     		adds	r3, r3, #28
 2131 06ba DBB2     		uxtb	r3, r3
 2132 06bc 84F80F31 		strb	r3, [r4, #271]
 2133 06c0 9B18     		adds	r3, r3, r2
 2134 06c2 84F81031 		strb	r3, [r4, #272]
 2135              	.LVL102:
 2136              	.LBE501:
 2137              	.LBB502:
 2138 06c6 B848     		ldr	r0, .L108
 2139 06c8 2946     		mov	r1, r5
 2140 06ca FFF7FEFF 		bl	uart_transmit
 2141 06ce 94F81021 		ldrb	r2, [r4, #272]	@ zero_extendqisi2
 2142 06d2 94F80F31 		ldrb	r3, [r4, #271]	@ zero_extendqisi2
 2143              	.LBE502:
 2144              	.LBE505:
 2145              	.LBB506:
 2146 06d6 0621     		movs	r1, #6
 2147              	.LBE506:
 2148              	.LBB507:
 2149              	.LBB503:
 2150 06d8 D318     		adds	r3, r2, r3
 2151 06da 84F81031 		strb	r3, [r4, #272]
 2152              	.LVL103:
 2153              	.LBE503:
 2154              	.LBE507:
 2155              	.LBB508:
 2156 06de B248     		ldr	r0, .L108
 2157 06e0 FFF7FEFF 		bl	uart_transmit
 2158 06e4 94F80F31 		ldrb	r3, [r4, #271]	@ zero_extendqisi2
 2159 06e8 94F81021 		ldrb	r2, [r4, #272]	@ zero_extendqisi2
 2160 06ec 0633     		adds	r3, r3, #6
 2161 06ee DBB2     		uxtb	r3, r3
 2162 06f0 84F80F31 		strb	r3, [r4, #271]
 2163 06f4 9B18     		adds	r3, r3, r2
 2164              	.LBE508:
 2165              	.LBB509:
 2166 06f6 0321     		movs	r1, #3
 2167              	.LBE509:
 2168              	.LBB510:
 2169 06f8 84F81031 		strb	r3, [r4, #272]
 2170              	.LVL104:
 2171              	.LBE510:
 2172              	.LBB511:
 2173 06fc AA48     		ldr	r0, .L108
 2174 06fe FFF7FEFF 		bl	uart_transmit
 2175 0702 94F80F31 		ldrb	r3, [r4, #271]	@ zero_extendqisi2
 2176 0706 94F81021 		ldrb	r2, [r4, #272]	@ zero_extendqisi2
 2177 070a 0333     		adds	r3, r3, #3
 2178 070c DBB2     		uxtb	r3, r3
 2179 070e 84F80F31 		strb	r3, [r4, #271]
 2180 0712 9B18     		adds	r3, r3, r2
 2181              	.LBE511:
 2182              	.LBB512:
 2183 0714 1021     		movs	r1, #16
 2184              	.LBE512:
 2185              	.LBB513:
 2186 0716 84F81031 		strb	r3, [r4, #272]
 2187              	.LVL105:
 2188              	.LBE513:
 2189              	.LBB514:
 2190 071a A348     		ldr	r0, .L108
 2191 071c FFF7FEFF 		bl	uart_transmit
 2192 0720 94F80F31 		ldrb	r3, [r4, #271]	@ zero_extendqisi2
 2193 0724 94F81021 		ldrb	r2, [r4, #272]	@ zero_extendqisi2
 2194 0728 1033     		adds	r3, r3, #16
 2195 072a DBB2     		uxtb	r3, r3
 2196 072c 84F80F31 		strb	r3, [r4, #271]
 2197 0730 9B18     		adds	r3, r3, r2
 2198              	.LBE514:
 2199              	.LBB515:
 2200 0732 1821     		movs	r1, #24
 2201              	.LBE515:
 2202              	.LBB516:
 2203 0734 84F81031 		strb	r3, [r4, #272]
 2204              	.LVL106:
 2205              	.LBE516:
 2206              	.LBB517:
 2207 0738 9B48     		ldr	r0, .L108
 2208 073a FFF7FEFF 		bl	uart_transmit
 2209 073e 94F80F31 		ldrb	r3, [r4, #271]	@ zero_extendqisi2
 2210 0742 94F81021 		ldrb	r2, [r4, #272]	@ zero_extendqisi2
 2211 0746 1833     		adds	r3, r3, #24
 2212 0748 DBB2     		uxtb	r3, r3
 2213 074a 84F80F31 		strb	r3, [r4, #271]
 2214 074e 9B18     		adds	r3, r3, r2
 2215              	.LBE517:
 2216              	.LBB518:
 2217 0750 1421     		movs	r1, #20
 2218              	.LBE518:
 2219              	.LBB519:
 2220 0752 84F81031 		strb	r3, [r4, #272]
 2221              	.LVL107:
 2222              	.LBE519:
 2223              	.LBB520:
 2224 0756 9448     		ldr	r0, .L108
 2225 0758 FFF7FEFF 		bl	uart_transmit
 2226 075c 94F80F31 		ldrb	r3, [r4, #271]	@ zero_extendqisi2
 2227 0760 94F81021 		ldrb	r2, [r4, #272]	@ zero_extendqisi2
 2228 0764 1433     		adds	r3, r3, #20
 2229 0766 DBB2     		uxtb	r3, r3
 2230 0768 84F80F31 		strb	r3, [r4, #271]
 2231 076c 9B18     		adds	r3, r3, r2
 2232              	.LBE520:
 2233              	.LBB521:
 2234 076e 0521     		movs	r1, #5
 2235              	.LBE521:
 2236              	.LBB522:
 2237 0770 84F81031 		strb	r3, [r4, #272]
 2238              	.LVL108:
 2239              	.LBE522:
 2240              	.LBB523:
 2241 0774 8C48     		ldr	r0, .L108
 2242 0776 FFF7FEFF 		bl	uart_transmit
 2243 077a 94F80F31 		ldrb	r3, [r4, #271]	@ zero_extendqisi2
 2244 077e 94F81021 		ldrb	r2, [r4, #272]	@ zero_extendqisi2
 2245 0782 0533     		adds	r3, r3, #5
 2246 0784 DBB2     		uxtb	r3, r3
 2247 0786 84F80F31 		strb	r3, [r4, #271]
 2248 078a 9B18     		adds	r3, r3, r2
 2249 078c 84F81031 		strb	r3, [r4, #272]
 2250              	.LVL109:
 2251              	.LBE523:
 2252              	.LBB524:
 2253 0790 8548     		ldr	r0, .L108
 2254 0792 2946     		mov	r1, r5
 2255 0794 FFF7FEFF 		bl	uart_transmit
 2256 0798 94F81021 		ldrb	r2, [r4, #272]	@ zero_extendqisi2
 2257 079c 94F80F31 		ldrb	r3, [r4, #271]	@ zero_extendqisi2
 2258              	.LBE524:
 2259              	.LBB525:
 2260 07a0 3C21     		movs	r1, #60
 2261              	.LBE525:
 2262              	.LBB526:
 2263 07a2 D318     		adds	r3, r2, r3
 2264 07a4 84F81031 		strb	r3, [r4, #272]
 2265              	.LVL110:
 2266              	.LBE526:
 2267              	.LBB527:
 2268 07a8 7F48     		ldr	r0, .L108
 2269 07aa FFF7FEFF 		bl	uart_transmit
 2270 07ae 94F80F31 		ldrb	r3, [r4, #271]	@ zero_extendqisi2
 2271 07b2 94F81021 		ldrb	r2, [r4, #272]	@ zero_extendqisi2
 2272 07b6 3C33     		adds	r3, r3, #60
 2273 07b8 DBB2     		uxtb	r3, r3
 2274 07ba 84F80F31 		strb	r3, [r4, #271]
 2275 07be 9B18     		adds	r3, r3, r2
 2276 07c0 84F81031 		strb	r3, [r4, #272]
 2277              	.LVL111:
 2278              	.LBE527:
 2279              	.LBB528:
 2280 07c4 7848     		ldr	r0, .L108
 2281 07c6 3C21     		movs	r1, #60
 2282 07c8 FFF7FEFF 		bl	uart_transmit
 2283 07cc 94F80F31 		ldrb	r3, [r4, #271]	@ zero_extendqisi2
 2284 07d0 94F81021 		ldrb	r2, [r4, #272]	@ zero_extendqisi2
 2285 07d4 3C33     		adds	r3, r3, #60
 2286 07d6 DBB2     		uxtb	r3, r3
 2287 07d8 84F80F31 		strb	r3, [r4, #271]
 2288 07dc 9B18     		adds	r3, r3, r2
 2289 07de 84F81031 		strb	r3, [r4, #272]
 2290              	.LVL112:
 2291              	.LBE528:
 2292              	.LBB529:
 2293 07e2 7148     		ldr	r0, .L108
 2294 07e4 1421     		movs	r1, #20
 2295 07e6 FFF7FEFF 		bl	uart_transmit
 2296 07ea 94F80F31 		ldrb	r3, [r4, #271]	@ zero_extendqisi2
 2297 07ee 94F81021 		ldrb	r2, [r4, #272]	@ zero_extendqisi2
 2298 07f2 1433     		adds	r3, r3, #20
 2299 07f4 DBB2     		uxtb	r3, r3
 2300              	.LBE529:
 2301 07f6 4FF47A76 		mov	r6, #1000
 2302              	.LBB530:
 2303 07fa 84F80F31 		strb	r3, [r4, #271]
 2304              	.LBE530:
 2305 07fe ADF81E60 		strh	r6, [sp, #30]	@ movhi
 2306              	.LVL113:
 2307              	.LBB531:
 2308 0802 9B18     		adds	r3, r3, r2
 2309              	.LBE531:
 2310              	.LBB532:
 2311 0804 06F0E806 		and	r6, r6, #232
 2312              	.LVL114:
 2313 0808 3146     		mov	r1, r6
 2314              	.LBE532:
 2315              	.LBB533:
 2316 080a 84F81031 		strb	r3, [r4, #272]
 2317              	.LBE533:
 2318              	.LBB534:
 2319 080e 6648     		ldr	r0, .L108
 2320 0810 FFF7FEFF 		bl	uart_transmit
 2321 0814 94F80F31 		ldrb	r3, [r4, #271]	@ zero_extendqisi2
 2322              	.LBE534:
 2323              	.LBB535:
 2324 0818 6348     		ldr	r0, .L108
 2325              	.LBE535:
 2326              	.LBB536:
 2327 081a F618     		adds	r6, r6, r3
 2328              	.LVL115:
 2329 081c 94F81031 		ldrb	r3, [r4, #272]	@ zero_extendqisi2
 2330 0820 F6B2     		uxtb	r6, r6
 2331 0822 84F80F61 		strb	r6, [r4, #271]
 2332 0826 F618     		adds	r6, r6, r3
 2333 0828 84F81061 		strb	r6, [r4, #272]
 2334              	.LBE536:
 2335              	.LBB537:
 2336 082c 9DF81F60 		ldrb	r6, [sp, #31]	@ zero_extendqisi2
 2337              	.LVL116:
 2338 0830 3146     		mov	r1, r6
 2339 0832 FFF7FEFF 		bl	uart_transmit
 2340 0836 94F80F31 		ldrb	r3, [r4, #271]	@ zero_extendqisi2
 2341              	.LBE537:
 2342              	.LBB538:
 2343 083a 5B48     		ldr	r0, .L108
 2344              	.LBE538:
 2345              	.LBB539:
 2346 083c F618     		adds	r6, r6, r3
 2347              	.LVL117:
 2348 083e 94F81031 		ldrb	r3, [r4, #272]	@ zero_extendqisi2
 2349 0842 F6B2     		uxtb	r6, r6
 2350 0844 84F80F61 		strb	r6, [r4, #271]
 2351 0848 F618     		adds	r6, r6, r3
 2352 084a 84F81061 		strb	r6, [r4, #272]
 2353              	.LBE539:
 2354              	.LBB540:
 2355 084e 2946     		mov	r1, r5
 2356              	.LBE540:
 2357 0850 ADF82050 		strh	r5, [sp, #32]	@ movhi
 2358              	.LVL118:
 2359              	.LBB541:
 2360 0854 FFF7FEFF 		bl	uart_transmit
 2361 0858 94F81021 		ldrb	r2, [r4, #272]	@ zero_extendqisi2
 2362 085c 94F80F31 		ldrb	r3, [r4, #271]	@ zero_extendqisi2
 2363              	.LBE541:
 2364              	.LBB542:
 2365 0860 9DF82160 		ldrb	r6, [sp, #33]	@ zero_extendqisi2
 2366              	.LVL119:
 2367              	.LBE542:
 2368              	.LBB543:
 2369 0864 84F80F31 		strb	r3, [r4, #271]
 2370 0868 9B18     		adds	r3, r3, r2
 2371              	.LBE543:
 2372              	.LBB544:
 2373 086a 3146     		mov	r1, r6
 2374              	.LBE544:
 2375              	.LBB545:
 2376 086c 84F81031 		strb	r3, [r4, #272]
 2377              	.LBE545:
 2378              	.LBB546:
 2379 0870 4D48     		ldr	r0, .L108
 2380 0872 FFF7FEFF 		bl	uart_transmit
 2381 0876 94F80F31 		ldrb	r3, [r4, #271]	@ zero_extendqisi2
 2382              	.LBE546:
 2383              	.LBB547:
 2384 087a 4B48     		ldr	r0, .L108
 2385              	.LBE547:
 2386              	.LBB548:
 2387 087c F618     		adds	r6, r6, r3
 2388              	.LVL120:
 2389 087e 94F81031 		ldrb	r3, [r4, #272]	@ zero_extendqisi2
 2390 0882 F6B2     		uxtb	r6, r6
 2391 0884 84F80F61 		strb	r6, [r4, #271]
 2392 0888 F618     		adds	r6, r6, r3
 2393 088a 84F81061 		strb	r6, [r4, #272]
 2394              	.LVL121:
 2395              	.LBE548:
 2396              	.LBB549:
 2397 088e 2946     		mov	r1, r5
 2398 0890 FFF7FEFF 		bl	uart_transmit
 2399 0894 94F81021 		ldrb	r2, [r4, #272]	@ zero_extendqisi2
 2400 0898 94F80F31 		ldrb	r3, [r4, #271]	@ zero_extendqisi2
 2401              	.LBE549:
 2402              	.LBB550:
 2403 089c 4248     		ldr	r0, .L108
 2404              	.LBE550:
 2405              	.LBB551:
 2406 089e D318     		adds	r3, r2, r3
 2407 08a0 84F81031 		strb	r3, [r4, #272]
 2408              	.LVL122:
 2409              	.LBE551:
 2410              	.LBB552:
 2411 08a4 1721     		movs	r1, #23
 2412 08a6 FFF7FEFF 		bl	uart_transmit
 2413 08aa 94F80F31 		ldrb	r3, [r4, #271]	@ zero_extendqisi2
 2414 08ae 94F81021 		ldrb	r2, [r4, #272]	@ zero_extendqisi2
 2415 08b2 1733     		adds	r3, r3, #23
 2416 08b4 DBB2     		uxtb	r3, r3
 2417              	.LBE552:
 2418 08b6 FA26     		movs	r6, #250
 2419              	.LBB553:
 2420 08b8 84F80F31 		strb	r3, [r4, #271]
 2421 08bc 9B18     		adds	r3, r3, r2
 2422              	.LBE553:
 2423              	.LBB554:
 2424 08be 3146     		mov	r1, r6
 2425              	.LBE554:
 2426              	.LBB555:
 2427 08c0 84F81031 		strb	r3, [r4, #272]
 2428              	.LBE555:
 2429              	.LBB556:
 2430 08c4 3848     		ldr	r0, .L108
 2431              	.LBE556:
 2432 08c6 ADF82260 		strh	r6, [sp, #34]	@ movhi
 2433              	.LVL123:
 2434              	.LBB557:
 2435 08ca FFF7FEFF 		bl	uart_transmit
 2436 08ce 94F80F31 		ldrb	r3, [r4, #271]	@ zero_extendqisi2
 2437 08d2 94F81021 		ldrb	r2, [r4, #272]	@ zero_extendqisi2
 2438 08d6 F318     		adds	r3, r6, r3
 2439              	.LBE557:
 2440              	.LBB558:
 2441 08d8 9DF82370 		ldrb	r7, [sp, #35]	@ zero_extendqisi2
 2442              	.LVL124:
 2443              	.LBE558:
 2444              	.LBB559:
 2445 08dc DBB2     		uxtb	r3, r3
 2446 08de 84F80F31 		strb	r3, [r4, #271]
 2447 08e2 9B18     		adds	r3, r3, r2
 2448              	.LBE559:
 2449              	.LBB560:
 2450 08e4 3946     		mov	r1, r7
 2451              	.LBE560:
 2452              	.LBB561:
 2453 08e6 84F81031 		strb	r3, [r4, #272]
 2454              	.LBE561:
 2455              	.LBB562:
 2456 08ea 2F48     		ldr	r0, .L108
 2457 08ec FFF7FEFF 		bl	uart_transmit
 2458 08f0 94F80F31 		ldrb	r3, [r4, #271]	@ zero_extendqisi2
 2459              	.LBE562:
 2460              	.LBB563:
 2461 08f4 3146     		mov	r1, r6
 2462              	.LBE563:
 2463              	.LBB564:
 2464 08f6 FF18     		adds	r7, r7, r3
 2465              	.LVL125:
 2466 08f8 94F81031 		ldrb	r3, [r4, #272]	@ zero_extendqisi2
 2467 08fc FFB2     		uxtb	r7, r7
 2468 08fe 84F80F71 		strb	r7, [r4, #271]
 2469 0902 FF18     		adds	r7, r7, r3
 2470 0904 84F81071 		strb	r7, [r4, #272]
 2471              	.LBE564:
 2472              	.LBB565:
 2473 0908 2748     		ldr	r0, .L108
 2474              	.LBE565:
 2475 090a ADF81C60 		strh	r6, [sp, #28]	@ movhi
 2476              	.LVL126:
 2477              	.LBB566:
 2478 090e FFF7FEFF 		bl	uart_transmit
 2479 0912 94F80F31 		ldrb	r3, [r4, #271]	@ zero_extendqisi2
 2480              	.LBE566:
 2481              	.LBB567:
 2482 0916 2448     		ldr	r0, .L108
 2483              	.LBE567:
 2484              	.LBB568:
 2485 0918 F618     		adds	r6, r6, r3
 2486              	.LVL127:
 2487 091a 94F81031 		ldrb	r3, [r4, #272]	@ zero_extendqisi2
 2488 091e F6B2     		uxtb	r6, r6
 2489 0920 84F80F61 		strb	r6, [r4, #271]
 2490 0924 F618     		adds	r6, r6, r3
 2491 0926 84F81061 		strb	r6, [r4, #272]
 2492              	.LBE568:
 2493              	.LBB569:
 2494 092a 9DF81D60 		ldrb	r6, [sp, #29]	@ zero_extendqisi2
 2495              	.LVL128:
 2496              	.LBE569:
 2497 092e 0F27     		movs	r7, #15
 2498              	.LBB570:
 2499 0930 3146     		mov	r1, r6
 2500 0932 FFF7FEFF 		bl	uart_transmit
 2501 0936 94F80F31 		ldrb	r3, [r4, #271]	@ zero_extendqisi2
 2502              	.LBE570:
 2503              	.LBB571:
 2504 093a 1B48     		ldr	r0, .L108
 2505              	.LBE571:
 2506              	.LBB572:
 2507 093c F618     		adds	r6, r6, r3
 2508              	.LVL129:
 2509 093e 94F81031 		ldrb	r3, [r4, #272]	@ zero_extendqisi2
 2510 0942 F6B2     		uxtb	r6, r6
 2511 0944 84F80F61 		strb	r6, [r4, #271]
 2512 0948 F618     		adds	r6, r6, r3
 2513 094a 84F81061 		strb	r6, [r4, #272]
 2514              	.LBE572:
 2515 094e 6426     		movs	r6, #100
 2516              	.LBB573:
 2517 0950 3146     		mov	r1, r6
 2518              	.LBE573:
 2519 0952 ADF81A60 		strh	r6, [sp, #26]	@ movhi
 2520              	.LVL130:
 2521              	.LBB574:
 2522 0956 FFF7FEFF 		bl	uart_transmit
 2523 095a 94F80F31 		ldrb	r3, [r4, #271]	@ zero_extendqisi2
 2524              	.LBE574:
 2525              	.LBB575:
 2526 095e 1248     		ldr	r0, .L108
 2527              	.LBE575:
 2528              	.LBB576:
 2529 0960 F618     		adds	r6, r6, r3
 2530              	.LVL131:
 2531 0962 94F81031 		ldrb	r3, [r4, #272]	@ zero_extendqisi2
 2532 0966 F6B2     		uxtb	r6, r6
 2533 0968 84F80F61 		strb	r6, [r4, #271]
 2534 096c F618     		adds	r6, r6, r3
 2535 096e 84F81061 		strb	r6, [r4, #272]
 2536              	.LBE576:
 2537              	.LBB577:
 2538 0972 9DF81B60 		ldrb	r6, [sp, #27]	@ zero_extendqisi2
 2539              	.LVL132:
 2540 0976 3146     		mov	r1, r6
 2541 0978 FFF7FEFF 		bl	uart_transmit
 2542 097c 94F80F31 		ldrb	r3, [r4, #271]	@ zero_extendqisi2
 2543              	.LBE577:
 2544              	.LBB578:
 2545 0980 0948     		ldr	r0, .L108
 2546              	.LBE578:
 2547              	.LBB579:
 2548 0982 F618     		adds	r6, r6, r3
 2549              	.LVL133:
 2550 0984 94F81031 		ldrb	r3, [r4, #272]	@ zero_extendqisi2
 2551 0988 F6B2     		uxtb	r6, r6
 2552 098a 84F80F61 		strb	r6, [r4, #271]
 2553 098e F618     		adds	r6, r6, r3
 2554 0990 84F81061 		strb	r6, [r4, #272]
 2555              	.LBE579:
 2556 0994 4FF49676 		mov	r6, #300
 2557 0998 ADF82460 		strh	r6, [sp, #36]	@ movhi
 2558              	.LVL134:
 2559              	.LBB580:
 2560 099c 06F02C06 		and	r6, r6, #44
 2561              	.LVL135:
 2562 09a0 3146     		mov	r1, r6
 2563 09a2 FFF7FEFF 		bl	uart_transmit
 2564 09a6 03E0     		b	.L109
 2565              	.L110:
 2566              		.align	2
 2567              	.L108:
 2568 09a8 00000000 		.word	uart3
 2569 09ac 00000000 		.word	.LANCHOR0
 2570              	.L109:
 2571 09b0 94F80F31 		ldrb	r3, [r4, #271]	@ zero_extendqisi2
 2572              	.LBE580:
 2573              	.LBB581:
 2574 09b4 2D48     		ldr	r0, .L111
 2575              	.LBE581:
 2576              	.LBB582:
 2577 09b6 F618     		adds	r6, r6, r3
 2578              	.LVL136:
 2579 09b8 94F81031 		ldrb	r3, [r4, #272]	@ zero_extendqisi2
 2580 09bc F6B2     		uxtb	r6, r6
 2581 09be 84F80F61 		strb	r6, [r4, #271]
 2582 09c2 F618     		adds	r6, r6, r3
 2583 09c4 84F81061 		strb	r6, [r4, #272]
 2584              	.LBE582:
 2585              	.LBB583:
 2586 09c8 9DF82560 		ldrb	r6, [sp, #37]	@ zero_extendqisi2
 2587              	.LVL137:
 2588 09cc 3146     		mov	r1, r6
 2589 09ce FFF7FEFF 		bl	uart_transmit
 2590 09d2 94F80F31 		ldrb	r3, [r4, #271]	@ zero_extendqisi2
 2591              	.LBE583:
 2592              	.LBB584:
 2593 09d6 3946     		mov	r1, r7
 2594              	.LBE584:
 2595              	.LBB585:
 2596 09d8 F618     		adds	r6, r6, r3
 2597              	.LVL138:
 2598 09da 94F81031 		ldrb	r3, [r4, #272]	@ zero_extendqisi2
 2599 09de F6B2     		uxtb	r6, r6
 2600 09e0 84F80F61 		strb	r6, [r4, #271]
 2601 09e4 F618     		adds	r6, r6, r3
 2602 09e6 84F81061 		strb	r6, [r4, #272]
 2603              	.LBE585:
 2604 09ea 0AAE     		add	r6, sp, #40
 2605 09ec 26F8027D 		strh	r7, [r6, #-2]!	@ movhi
 2606              	.LVL139:
 2607              	.LBB586:
 2608 09f0 1E48     		ldr	r0, .L111
 2609 09f2 FFF7FEFF 		bl	uart_transmit
 2610 09f6 94F80F31 		ldrb	r3, [r4, #271]	@ zero_extendqisi2
 2611              	.LBE586:
 2612              	.LBB587:
 2613 09fa 7678     		ldrb	r6, [r6, #1]	@ zero_extendqisi2
 2614              	.LVL140:
 2615              	.LBE587:
 2616              	.LBB588:
 2617 09fc FF18     		adds	r7, r7, r3
 2618              	.LVL141:
 2619 09fe 94F81031 		ldrb	r3, [r4, #272]	@ zero_extendqisi2
 2620 0a02 FFB2     		uxtb	r7, r7
 2621 0a04 84F80F71 		strb	r7, [r4, #271]
 2622 0a08 FF18     		adds	r7, r7, r3
 2623              	.LBE588:
 2624              	.LBB589:
 2625 0a0a 3146     		mov	r1, r6
 2626              	.LBE589:
 2627              	.LBB590:
 2628 0a0c 84F81071 		strb	r7, [r4, #272]
 2629              	.LBE590:
 2630              	.LBB591:
 2631 0a10 1648     		ldr	r0, .L111
 2632 0a12 FFF7FEFF 		bl	uart_transmit
 2633 0a16 94F80F31 		ldrb	r3, [r4, #271]	@ zero_extendqisi2
 2634 0a1a F618     		adds	r6, r6, r3
 2635              	.LVL142:
 2636 0a1c 94F81031 		ldrb	r3, [r4, #272]	@ zero_extendqisi2
 2637 0a20 F6B2     		uxtb	r6, r6
 2638 0a22 84F80F61 		strb	r6, [r4, #271]
 2639 0a26 F618     		adds	r6, r6, r3
 2640 0a28 84F81061 		strb	r6, [r4, #272]
 2641              	.LVL143:
 2642              	.L98:
 2643              	.LBE591:
 2644              	.LBB592:
 2645 0a2c 0F48     		ldr	r0, .L111
 2646 0a2e 2946     		mov	r1, r5
 2647 0a30 FFF7FEFF 		bl	uart_transmit
 2648 0a34 94F81021 		ldrb	r2, [r4, #272]	@ zero_extendqisi2
 2649 0a38 94F80F31 		ldrb	r3, [r4, #271]	@ zero_extendqisi2
 2650              	.LBE592:
 2651              	.LBB593:
 2652 0a3c 2946     		mov	r1, r5
 2653              	.LBE593:
 2654              	.LBB594:
 2655 0a3e D318     		adds	r3, r2, r3
 2656 0a40 84F81031 		strb	r3, [r4, #272]
 2657              	.LVL144:
 2658              	.LBE594:
 2659              	.LBB595:
 2660 0a44 0948     		ldr	r0, .L111
 2661 0a46 FFF7FEFF 		bl	uart_transmit
 2662 0a4a 94F80F11 		ldrb	r1, [r4, #271]	@ zero_extendqisi2
 2663              	.LVL145:
 2664              	.L93:
 2665 0a4e 94F81031 		ldrb	r3, [r4, #272]	@ zero_extendqisi2
 2666              	.LBE595:
 2667 0a52 0648     		ldr	r0, .L111
 2668              	.LBB596:
 2669 0a54 CB18     		adds	r3, r1, r3
 2670 0a56 84F81031 		strb	r3, [r4, #272]
 2671              	.LBE596:
 2672 0a5a FFF7FEFF 		bl	uart_transmit
 2673 0a5e 0348     		ldr	r0, .L111
 2674 0a60 94F81011 		ldrb	r1, [r4, #272]	@ zero_extendqisi2
 2675 0a64 FFF7FEFF 		bl	uart_transmit
 2676 0a68 00F037BD 		b	.L68
 2677              	.L112:
 2678              		.align	2
 2679              	.L111:
 2680 0a6c 00000000 		.word	uart3
 2681              	.LVL146:
 2682              	.L86:
 2683              	.LBE598:
 2684              	.LBB599:
 254:./modules/gps/gps_ubx_ucenter.c ****       UbxSend_CFG_NAV5(0x05, NAV5_DYN_AIRBORNE_2G, NAV5_3D_ONLY, IGNORED, IGNORED, IGNORED, IGNORED
 2685              		.loc 1 254 0
 2686 0a70 0025     		movs	r5, #0
 2687 0a72 FFF7FEFF 		bl	uart_transmit
 2688 0a76 6221     		movs	r1, #98
 2689 0a78 D848     		ldr	r0, .L113
 2690 0a7a FFF7FEFF 		bl	uart_transmit
 2691              	.LBB600:
 2692 0a7e 0621     		movs	r1, #6
 2693              	.LBE600:
 2694 0a80 84F81051 		strb	r5, [r4, #272]
 2695 0a84 84F80F51 		strb	r5, [r4, #271]
 2696              	.LVL147:
 2697              	.LBB601:
 2698 0a88 D448     		ldr	r0, .L113
 2699 0a8a FFF7FEFF 		bl	uart_transmit
 2700 0a8e 94F80F31 		ldrb	r3, [r4, #271]	@ zero_extendqisi2
 2701 0a92 94F81021 		ldrb	r2, [r4, #272]	@ zero_extendqisi2
 2702 0a96 0633     		adds	r3, r3, #6
 2703 0a98 DBB2     		uxtb	r3, r3
 2704 0a9a 84F80F31 		strb	r3, [r4, #271]
 2705 0a9e 9B18     		adds	r3, r3, r2
 2706              	.LBE601:
 2707              	.LBB602:
 2708 0aa0 2421     		movs	r1, #36
 2709              	.LBE602:
 2710              	.LBB603:
 2711 0aa2 84F81031 		strb	r3, [r4, #272]
 2712              	.LVL148:
 2713              	.LBE603:
 2714              	.LBB604:
 2715 0aa6 CD48     		ldr	r0, .L113
 2716 0aa8 FFF7FEFF 		bl	uart_transmit
 2717 0aac 94F80F31 		ldrb	r3, [r4, #271]	@ zero_extendqisi2
 2718 0ab0 94F81021 		ldrb	r2, [r4, #272]	@ zero_extendqisi2
 2719 0ab4 2433     		adds	r3, r3, #36
 2720 0ab6 DBB2     		uxtb	r3, r3
 2721 0ab8 84F80F31 		strb	r3, [r4, #271]
 2722 0abc 9B18     		adds	r3, r3, r2
 2723              	.LBE604:
 2724              	.LBB605:
 2725              	.LBB606:
 2726 0abe 2421     		movs	r1, #36
 2727              	.LBE606:
 2728              	.LBE605:
 2729              	.LBB613:
 2730 0ac0 84F81031 		strb	r3, [r4, #272]
 2731              	.LVL149:
 2732              	.LBE613:
 2733              	.LBB614:
 2734              	.LBB607:
 2735 0ac4 C548     		ldr	r0, .L113
 2736 0ac6 FFF7FEFF 		bl	uart_transmit
 2737 0aca 94F80F31 		ldrb	r3, [r4, #271]	@ zero_extendqisi2
 2738 0ace 94F81021 		ldrb	r2, [r4, #272]	@ zero_extendqisi2
 2739 0ad2 2433     		adds	r3, r3, #36
 2740 0ad4 DBB2     		uxtb	r3, r3
 2741 0ad6 84F80F31 		strb	r3, [r4, #271]
 2742 0ada 9B18     		adds	r3, r3, r2
 2743              	.LBE607:
 2744              	.LBB608:
 2745 0adc 2946     		mov	r1, r5
 2746              	.LBE608:
 2747              	.LBB609:
 2748 0ade 84F81031 		strb	r3, [r4, #272]
 2749              	.LVL150:
 2750              	.LBE609:
 2751              	.LBB610:
 2752 0ae2 BE48     		ldr	r0, .L113
 2753 0ae4 FFF7FEFF 		bl	uart_transmit
 2754 0ae8 94F81021 		ldrb	r2, [r4, #272]	@ zero_extendqisi2
 2755 0aec 94F80F31 		ldrb	r3, [r4, #271]	@ zero_extendqisi2
 2756              	.LBE610:
 2757              	.LBE614:
 2758 0af0 0527     		movs	r7, #5
 2759              	.LBB615:
 2760              	.LBB611:
 2761 0af2 D318     		adds	r3, r2, r3
 2762              	.LBE611:
 2763              	.LBE615:
 2764 0af4 0AAE     		add	r6, sp, #40
 2765 0af6 26F8027D 		strh	r7, [r6, #-2]!	@ movhi
 2766              	.LVL151:
 2767              	.LBB616:
 2768 0afa 3946     		mov	r1, r7
 2769              	.LBE616:
 2770              	.LBB617:
 2771              	.LBB612:
 2772 0afc 84F81031 		strb	r3, [r4, #272]
 2773              	.LBE612:
 2774              	.LBE617:
 2775              	.LBB618:
 2776 0b00 B648     		ldr	r0, .L113
 2777 0b02 FFF7FEFF 		bl	uart_transmit
 2778 0b06 94F80F31 		ldrb	r3, [r4, #271]	@ zero_extendqisi2
 2779              	.LBE618:
 2780              	.LBB619:
 2781 0b0a 7678     		ldrb	r6, [r6, #1]	@ zero_extendqisi2
 2782              	.LVL152:
 2783              	.LBE619:
 2784              	.LBB620:
 2785 0b0c FF18     		adds	r7, r7, r3
 2786              	.LVL153:
 2787 0b0e 94F81031 		ldrb	r3, [r4, #272]	@ zero_extendqisi2
 2788 0b12 FFB2     		uxtb	r7, r7
 2789 0b14 84F80F71 		strb	r7, [r4, #271]
 2790 0b18 FF18     		adds	r7, r7, r3
 2791              	.LBE620:
 2792              	.LBB621:
 2793 0b1a 3146     		mov	r1, r6
 2794 0b1c AF48     		ldr	r0, .L113
 2795              	.LBE621:
 2796              	.LBB622:
 2797 0b1e 84F81071 		strb	r7, [r4, #272]
 2798              	.LBE622:
 2799              	.LBB623:
 2800 0b22 FFF7FEFF 		bl	uart_transmit
 2801 0b26 94F80F31 		ldrb	r3, [r4, #271]	@ zero_extendqisi2
 2802              	.LBE623:
 2803              	.LBB624:
 2804 0b2a 0721     		movs	r1, #7
 2805              	.LBE624:
 2806              	.LBB625:
 2807 0b2c F618     		adds	r6, r6, r3
 2808              	.LVL154:
 2809 0b2e 94F81031 		ldrb	r3, [r4, #272]	@ zero_extendqisi2
 2810 0b32 F6B2     		uxtb	r6, r6
 2811 0b34 84F80F61 		strb	r6, [r4, #271]
 2812 0b38 F618     		adds	r6, r6, r3
 2813 0b3a 84F81061 		strb	r6, [r4, #272]
 2814              	.LVL155:
 2815              	.LBE625:
 2816              	.LBB626:
 2817 0b3e A748     		ldr	r0, .L113
 2818 0b40 FFF7FEFF 		bl	uart_transmit
 2819 0b44 94F80F31 		ldrb	r3, [r4, #271]	@ zero_extendqisi2
 2820 0b48 94F81021 		ldrb	r2, [r4, #272]	@ zero_extendqisi2
 2821 0b4c 0733     		adds	r3, r3, #7
 2822 0b4e DBB2     		uxtb	r3, r3
 2823 0b50 84F80F31 		strb	r3, [r4, #271]
 2824 0b54 9B18     		adds	r3, r3, r2
 2825              	.LBE626:
 2826              	.LBB627:
 2827 0b56 0221     		movs	r1, #2
 2828              	.LBE627:
 2829              	.LBB628:
 2830 0b58 84F81031 		strb	r3, [r4, #272]
 2831              	.LVL156:
 2832              	.LBE628:
 2833              	.LBB629:
 2834 0b5c 9F48     		ldr	r0, .L113
 2835 0b5e FFF7FEFF 		bl	uart_transmit
 2836 0b62 94F80F31 		ldrb	r3, [r4, #271]	@ zero_extendqisi2
 2837 0b66 94F81021 		ldrb	r2, [r4, #272]	@ zero_extendqisi2
 2838 0b6a 0233     		adds	r3, r3, #2
 2839 0b6c DBB2     		uxtb	r3, r3
 2840 0b6e 84F80F31 		strb	r3, [r4, #271]
 2841 0b72 9B18     		adds	r3, r3, r2
 2842              	.LBE629:
 2843              	.LBB630:
 2844 0b74 2946     		mov	r1, r5
 2845              	.LBE630:
 2846              	.LBB631:
 2847 0b76 84F81031 		strb	r3, [r4, #272]
 2848              	.LBE631:
 2849              	.LBB632:
 2850 0b7a 9848     		ldr	r0, .L113
 2851              	.LBE632:
 2852 0b7c 0395     		str	r5, [sp, #12]
 2853              	.LVL157:
 2854              	.LBB633:
 2855 0b7e FFF7FEFF 		bl	uart_transmit
 2856 0b82 94F81021 		ldrb	r2, [r4, #272]	@ zero_extendqisi2
 2857 0b86 94F80F31 		ldrb	r3, [r4, #271]	@ zero_extendqisi2
 2858              	.LBE633:
 2859              	.LBB634:
 2860 0b8a 9DF80D60 		ldrb	r6, [sp, #13]	@ zero_extendqisi2
 2861              	.LVL158:
 2862              	.LBE634:
 2863              	.LBB635:
 2864 0b8e 84F80F31 		strb	r3, [r4, #271]
 2865 0b92 9B18     		adds	r3, r3, r2
 2866              	.LBE635:
 2867              	.LBB636:
 2868 0b94 3146     		mov	r1, r6
 2869              	.LBE636:
 2870              	.LBB637:
 2871 0b96 84F81031 		strb	r3, [r4, #272]
 2872              	.LBE637:
 2873              	.LBB638:
 2874 0b9a 9048     		ldr	r0, .L113
 2875 0b9c FFF7FEFF 		bl	uart_transmit
 2876 0ba0 94F80F31 		ldrb	r3, [r4, #271]	@ zero_extendqisi2
 2877              	.LBE638:
 2878              	.LBB639:
 2879 0ba4 8D48     		ldr	r0, .L113
 2880              	.LBE639:
 2881              	.LBB640:
 2882 0ba6 F618     		adds	r6, r6, r3
 2883              	.LVL159:
 2884 0ba8 94F81031 		ldrb	r3, [r4, #272]	@ zero_extendqisi2
 2885 0bac F6B2     		uxtb	r6, r6
 2886 0bae 84F80F61 		strb	r6, [r4, #271]
 2887 0bb2 F618     		adds	r6, r6, r3
 2888 0bb4 84F81061 		strb	r6, [r4, #272]
 2889              	.LBE640:
 2890              	.LBB641:
 2891 0bb8 9DF80E60 		ldrb	r6, [sp, #14]	@ zero_extendqisi2
 2892              	.LVL160:
 2893 0bbc 3146     		mov	r1, r6
 2894 0bbe FFF7FEFF 		bl	uart_transmit
 2895 0bc2 94F80F31 		ldrb	r3, [r4, #271]	@ zero_extendqisi2
 2896              	.LBE641:
 2897              	.LBB642:
 2898 0bc6 8548     		ldr	r0, .L113
 2899              	.LBE642:
 2900              	.LBB643:
 2901 0bc8 F618     		adds	r6, r6, r3
 2902              	.LVL161:
 2903 0bca 94F81031 		ldrb	r3, [r4, #272]	@ zero_extendqisi2
 2904 0bce F6B2     		uxtb	r6, r6
 2905 0bd0 84F80F61 		strb	r6, [r4, #271]
 2906 0bd4 F618     		adds	r6, r6, r3
 2907 0bd6 84F81061 		strb	r6, [r4, #272]
 2908              	.LBE643:
 2909              	.LBB644:
 2910 0bda 9DF80F60 		ldrb	r6, [sp, #15]	@ zero_extendqisi2
 2911              	.LVL162:
 2912 0bde 3146     		mov	r1, r6
 2913 0be0 FFF7FEFF 		bl	uart_transmit
 2914 0be4 94F80F31 		ldrb	r3, [r4, #271]	@ zero_extendqisi2
 2915              	.LBE644:
 2916              	.LBB645:
 2917 0be8 2946     		mov	r1, r5
 2918              	.LBE645:
 2919              	.LBB646:
 2920 0bea F618     		adds	r6, r6, r3
 2921              	.LVL163:
 2922 0bec 94F81031 		ldrb	r3, [r4, #272]	@ zero_extendqisi2
 2923 0bf0 F6B2     		uxtb	r6, r6
 2924 0bf2 84F80F61 		strb	r6, [r4, #271]
 2925 0bf6 F618     		adds	r6, r6, r3
 2926 0bf8 84F81061 		strb	r6, [r4, #272]
 2927              	.LBE646:
 2928              	.LBB647:
 2929 0bfc 7748     		ldr	r0, .L113
 2930              	.LBE647:
 2931 0bfe 0195     		str	r5, [sp, #4]
 2932              	.LVL164:
 2933              	.LBB648:
 2934 0c00 FFF7FEFF 		bl	uart_transmit
 2935 0c04 94F81021 		ldrb	r2, [r4, #272]	@ zero_extendqisi2
 2936 0c08 94F80F31 		ldrb	r3, [r4, #271]	@ zero_extendqisi2
 2937              	.LBE648:
 2938              	.LBB649:
 2939 0c0c 9DF80560 		ldrb	r6, [sp, #5]	@ zero_extendqisi2
 2940              	.LVL165:
 2941              	.LBE649:
 2942              	.LBB650:
 2943 0c10 84F80F31 		strb	r3, [r4, #271]
 2944 0c14 9B18     		adds	r3, r3, r2
 2945              	.LBE650:
 2946              	.LBB651:
 2947 0c16 3146     		mov	r1, r6
 2948              	.LBE651:
 2949              	.LBB652:
 2950 0c18 84F81031 		strb	r3, [r4, #272]
 2951              	.LBE652:
 2952              	.LBB653:
 2953 0c1c 6F48     		ldr	r0, .L113
 2954 0c1e FFF7FEFF 		bl	uart_transmit
 2955 0c22 94F80F31 		ldrb	r3, [r4, #271]	@ zero_extendqisi2
 2956              	.LBE653:
 2957              	.LBB654:
 2958 0c26 6D48     		ldr	r0, .L113
 2959              	.LBE654:
 2960              	.LBB655:
 2961 0c28 F618     		adds	r6, r6, r3
 2962              	.LVL166:
 2963 0c2a 94F81031 		ldrb	r3, [r4, #272]	@ zero_extendqisi2
 2964 0c2e F6B2     		uxtb	r6, r6
 2965 0c30 84F80F61 		strb	r6, [r4, #271]
 2966 0c34 F618     		adds	r6, r6, r3
 2967 0c36 84F81061 		strb	r6, [r4, #272]
 2968              	.LBE655:
 2969              	.LBB656:
 2970 0c3a 9DF80660 		ldrb	r6, [sp, #6]	@ zero_extendqisi2
 2971              	.LVL167:
 2972 0c3e 3146     		mov	r1, r6
 2973 0c40 FFF7FEFF 		bl	uart_transmit
 2974 0c44 94F80F31 		ldrb	r3, [r4, #271]	@ zero_extendqisi2
 2975              	.LBE656:
 2976              	.LBB657:
 2977 0c48 6448     		ldr	r0, .L113
 2978              	.LBE657:
 2979              	.LBB658:
 2980 0c4a F618     		adds	r6, r6, r3
 2981              	.LVL168:
 2982 0c4c 94F81031 		ldrb	r3, [r4, #272]	@ zero_extendqisi2
 2983 0c50 F6B2     		uxtb	r6, r6
 2984 0c52 84F80F61 		strb	r6, [r4, #271]
 2985 0c56 F618     		adds	r6, r6, r3
 2986 0c58 84F81061 		strb	r6, [r4, #272]
 2987              	.LBE658:
 2988              	.LBB659:
 2989 0c5c 9DF80760 		ldrb	r6, [sp, #7]	@ zero_extendqisi2
 2990              	.LVL169:
 2991 0c60 3146     		mov	r1, r6
 2992 0c62 FFF7FEFF 		bl	uart_transmit
 2993 0c66 94F80F31 		ldrb	r3, [r4, #271]	@ zero_extendqisi2
 2994              	.LBE659:
 2995              	.LBB660:
 2996 0c6a 2946     		mov	r1, r5
 2997              	.LBE660:
 2998              	.LBB661:
 2999 0c6c F618     		adds	r6, r6, r3
 3000              	.LVL170:
 3001 0c6e 94F81031 		ldrb	r3, [r4, #272]	@ zero_extendqisi2
 3002 0c72 F6B2     		uxtb	r6, r6
 3003 0c74 84F80F61 		strb	r6, [r4, #271]
 3004 0c78 F618     		adds	r6, r6, r3
 3005 0c7a 84F81061 		strb	r6, [r4, #272]
 3006              	.LVL171:
 3007              	.LBE661:
 3008              	.LBB662:
 3009 0c7e 5748     		ldr	r0, .L113
 3010 0c80 FFF7FEFF 		bl	uart_transmit
 3011 0c84 94F81021 		ldrb	r2, [r4, #272]	@ zero_extendqisi2
 3012 0c88 94F80F31 		ldrb	r3, [r4, #271]	@ zero_extendqisi2
 3013              	.LBE662:
 3014              	.LBB663:
 3015 0c8c 2946     		mov	r1, r5
 3016              	.LBE663:
 3017              	.LBB664:
 3018 0c8e D318     		adds	r3, r2, r3
 3019 0c90 84F81031 		strb	r3, [r4, #272]
 3020              	.LVL172:
 3021              	.LBE664:
 3022              	.LBB665:
 3023 0c94 5148     		ldr	r0, .L113
 3024 0c96 FFF7FEFF 		bl	uart_transmit
 3025 0c9a 94F81021 		ldrb	r2, [r4, #272]	@ zero_extendqisi2
 3026 0c9e 94F80F31 		ldrb	r3, [r4, #271]	@ zero_extendqisi2
 3027              	.LBE665:
 3028              	.LBB666:
 3029 0ca2 2946     		mov	r1, r5
 3030              	.LBE666:
 3031              	.LBB667:
 3032 0ca4 D318     		adds	r3, r2, r3
 3033 0ca6 84F81031 		strb	r3, [r4, #272]
 3034              	.LBE667:
 3035              	.LBB668:
 3036 0caa 4C48     		ldr	r0, .L113
 3037              	.LBE668:
 3038 0cac ADF82450 		strh	r5, [sp, #36]	@ movhi
 3039              	.LVL173:
 3040              	.LBB669:
 3041 0cb0 FFF7FEFF 		bl	uart_transmit
 3042 0cb4 94F81021 		ldrb	r2, [r4, #272]	@ zero_extendqisi2
 3043 0cb8 94F80F31 		ldrb	r3, [r4, #271]	@ zero_extendqisi2
 3044              	.LBE669:
 3045              	.LBB670:
 3046 0cbc 9DF82560 		ldrb	r6, [sp, #37]	@ zero_extendqisi2
 3047              	.LVL174:
 3048              	.LBE670:
 3049              	.LBB671:
 3050 0cc0 84F80F31 		strb	r3, [r4, #271]
 3051 0cc4 9B18     		adds	r3, r3, r2
 3052              	.LBE671:
 3053              	.LBB672:
 3054 0cc6 3146     		mov	r1, r6
 3055              	.LBE672:
 3056              	.LBB673:
 3057 0cc8 84F81031 		strb	r3, [r4, #272]
 3058              	.LBE673:
 3059              	.LBB674:
 3060 0ccc 4348     		ldr	r0, .L113
 3061 0cce FFF7FEFF 		bl	uart_transmit
 3062 0cd2 94F80F31 		ldrb	r3, [r4, #271]	@ zero_extendqisi2
 3063              	.LBE674:
 3064              	.LBB675:
 3065 0cd6 2946     		mov	r1, r5
 3066              	.LBE675:
 3067              	.LBB676:
 3068 0cd8 F618     		adds	r6, r6, r3
 3069              	.LVL175:
 3070 0cda 94F81031 		ldrb	r3, [r4, #272]	@ zero_extendqisi2
 3071 0cde F6B2     		uxtb	r6, r6
 3072 0ce0 84F80F61 		strb	r6, [r4, #271]
 3073 0ce4 F618     		adds	r6, r6, r3
 3074 0ce6 84F81061 		strb	r6, [r4, #272]
 3075              	.LBE676:
 3076              	.LBB677:
 3077 0cea 3C48     		ldr	r0, .L113
 3078              	.LBE677:
 3079 0cec ADF81A50 		strh	r5, [sp, #26]	@ movhi
 3080              	.LVL176:
 3081              	.LBB678:
 3082 0cf0 FFF7FEFF 		bl	uart_transmit
 3083 0cf4 94F81021 		ldrb	r2, [r4, #272]	@ zero_extendqisi2
 3084 0cf8 94F80F31 		ldrb	r3, [r4, #271]	@ zero_extendqisi2
 3085              	.LBE678:
 3086              	.LBB679:
 3087 0cfc 9DF81B60 		ldrb	r6, [sp, #27]	@ zero_extendqisi2
 3088              	.LVL177:
 3089              	.LBE679:
 3090              	.LBB680:
 3091 0d00 84F80F31 		strb	r3, [r4, #271]
 3092 0d04 9B18     		adds	r3, r3, r2
 3093              	.LBE680:
 3094              	.LBB681:
 3095 0d06 3146     		mov	r1, r6
 3096              	.LBE681:
 3097              	.LBB682:
 3098 0d08 84F81031 		strb	r3, [r4, #272]
 3099              	.LBE682:
 3100              	.LBB683:
 3101 0d0c 3348     		ldr	r0, .L113
 3102 0d0e FFF7FEFF 		bl	uart_transmit
 3103 0d12 94F80F31 		ldrb	r3, [r4, #271]	@ zero_extendqisi2
 3104              	.LBE683:
 3105              	.LBB684:
 3106 0d16 2946     		mov	r1, r5
 3107              	.LBE684:
 3108              	.LBB685:
 3109 0d18 F618     		adds	r6, r6, r3
 3110              	.LVL178:
 3111 0d1a 94F81031 		ldrb	r3, [r4, #272]	@ zero_extendqisi2
 3112 0d1e F6B2     		uxtb	r6, r6
 3113 0d20 84F80F61 		strb	r6, [r4, #271]
 3114 0d24 F618     		adds	r6, r6, r3
 3115 0d26 84F81061 		strb	r6, [r4, #272]
 3116              	.LBE685:
 3117              	.LBB686:
 3118 0d2a 2C48     		ldr	r0, .L113
 3119              	.LBE686:
 3120 0d2c ADF81C50 		strh	r5, [sp, #28]	@ movhi
 3121              	.LVL179:
 3122              	.LBB687:
 3123 0d30 FFF7FEFF 		bl	uart_transmit
 3124 0d34 94F81021 		ldrb	r2, [r4, #272]	@ zero_extendqisi2
 3125 0d38 94F80F31 		ldrb	r3, [r4, #271]	@ zero_extendqisi2
 3126              	.LBE687:
 3127              	.LBB688:
 3128 0d3c 9DF81D60 		ldrb	r6, [sp, #29]	@ zero_extendqisi2
 3129              	.LVL180:
 3130              	.LBE688:
 3131              	.LBB689:
 3132 0d40 84F80F31 		strb	r3, [r4, #271]
 3133 0d44 9B18     		adds	r3, r3, r2
 3134              	.LBE689:
 3135              	.LBB690:
 3136 0d46 3146     		mov	r1, r6
 3137              	.LBE690:
 3138              	.LBB691:
 3139 0d48 84F81031 		strb	r3, [r4, #272]
 3140              	.LBE691:
 3141              	.LBB692:
 3142 0d4c 2348     		ldr	r0, .L113
 3143 0d4e FFF7FEFF 		bl	uart_transmit
 3144 0d52 94F80F31 		ldrb	r3, [r4, #271]	@ zero_extendqisi2
 3145              	.LBE692:
 3146              	.LBB693:
 3147 0d56 2946     		mov	r1, r5
 3148              	.LBE693:
 3149              	.LBB694:
 3150 0d58 F618     		adds	r6, r6, r3
 3151              	.LVL181:
 3152 0d5a 94F81031 		ldrb	r3, [r4, #272]	@ zero_extendqisi2
 3153 0d5e F6B2     		uxtb	r6, r6
 3154 0d60 84F80F61 		strb	r6, [r4, #271]
 3155 0d64 F618     		adds	r6, r6, r3
 3156 0d66 84F81061 		strb	r6, [r4, #272]
 3157              	.LBE694:
 3158              	.LBB695:
 3159 0d6a 1C48     		ldr	r0, .L113
 3160              	.LBE695:
 3161 0d6c ADF82250 		strh	r5, [sp, #34]	@ movhi
 3162              	.LVL182:
 3163              	.LBB696:
 3164 0d70 FFF7FEFF 		bl	uart_transmit
 3165 0d74 94F81021 		ldrb	r2, [r4, #272]	@ zero_extendqisi2
 3166 0d78 94F80F31 		ldrb	r3, [r4, #271]	@ zero_extendqisi2
 3167              	.LBE696:
 3168              	.LBB697:
 3169 0d7c 9DF82360 		ldrb	r6, [sp, #35]	@ zero_extendqisi2
 3170              	.LVL183:
 3171              	.LBE697:
 3172              	.LBB698:
 3173 0d80 84F80F31 		strb	r3, [r4, #271]
 3174 0d84 9B18     		adds	r3, r3, r2
 3175              	.LBE698:
 3176              	.LBB699:
 3177 0d86 3146     		mov	r1, r6
 3178              	.LBE699:
 3179              	.LBB700:
 3180 0d88 84F81031 		strb	r3, [r4, #272]
 3181              	.LBE700:
 3182              	.LBB701:
 3183 0d8c 1348     		ldr	r0, .L113
 3184 0d8e FFF7FEFF 		bl	uart_transmit
 3185 0d92 94F80F31 		ldrb	r3, [r4, #271]	@ zero_extendqisi2
 3186              	.LBE701:
 3187              	.LBB702:
 3188 0d96 2946     		mov	r1, r5
 3189              	.LBE702:
 3190              	.LBB703:
 3191 0d98 F618     		adds	r6, r6, r3
 3192              	.LVL184:
 3193 0d9a 94F81031 		ldrb	r3, [r4, #272]	@ zero_extendqisi2
 3194 0d9e F6B2     		uxtb	r6, r6
 3195 0da0 84F80F61 		strb	r6, [r4, #271]
 3196 0da4 F618     		adds	r6, r6, r3
 3197 0da6 84F81061 		strb	r6, [r4, #272]
 3198              	.LVL185:
 3199              	.LBE703:
 3200              	.LBB704:
 3201 0daa 0C48     		ldr	r0, .L113
 3202 0dac FFF7FEFF 		bl	uart_transmit
 3203 0db0 94F81021 		ldrb	r2, [r4, #272]	@ zero_extendqisi2
 3204 0db4 94F80F31 		ldrb	r3, [r4, #271]	@ zero_extendqisi2
 3205              	.LBE704:
 3206              	.LBB705:
 3207 0db8 2946     		mov	r1, r5
 3208              	.LBE705:
 3209              	.LBB706:
 3210 0dba D318     		adds	r3, r2, r3
 3211 0dbc 84F81031 		strb	r3, [r4, #272]
 3212              	.LVL186:
 3213              	.LBE706:
 3214              	.LBB707:
 3215 0dc0 0648     		ldr	r0, .L113
 3216 0dc2 FFF7FEFF 		bl	uart_transmit
 3217 0dc6 94F81021 		ldrb	r2, [r4, #272]	@ zero_extendqisi2
 3218 0dca 94F80F31 		ldrb	r3, [r4, #271]	@ zero_extendqisi2
 3219              	.LBE707:
 3220              	.LBB708:
 3221 0dce 2946     		mov	r1, r5
 3222              	.LBE708:
 3223              	.LBB709:
 3224 0dd0 D318     		adds	r3, r2, r3
 3225 0dd2 84F81031 		strb	r3, [r4, #272]
 3226              	.LBE709:
 3227              	.LBB710:
 3228 0dd6 0148     		ldr	r0, .L113
 3229              	.LBE710:
 3230 0dd8 0295     		str	r5, [sp, #8]
 3231 0dda 01E0     		b	.L114
 3232              	.L115:
 3233              		.align	2
 3234              	.L113:
 3235 0ddc 00000000 		.word	uart3
 3236              	.L114:
 3237              	.LVL187:
 3238              	.LBB711:
 3239 0de0 FFF7FEFF 		bl	uart_transmit
 3240 0de4 94F81021 		ldrb	r2, [r4, #272]	@ zero_extendqisi2
 3241 0de8 94F80F31 		ldrb	r3, [r4, #271]	@ zero_extendqisi2
 3242              	.LBE711:
 3243              	.LBB712:
 3244 0dec 9DF80960 		ldrb	r6, [sp, #9]	@ zero_extendqisi2
 3245              	.LVL188:
 3246              	.LBE712:
 3247              	.LBB713:
 3248 0df0 84F80F31 		strb	r3, [r4, #271]
 3249 0df4 9B18     		adds	r3, r3, r2
 3250              	.LBE713:
 3251              	.LBB714:
 3252 0df6 3146     		mov	r1, r6
 3253              	.LBE714:
 3254              	.LBB715:
 3255 0df8 84F81031 		strb	r3, [r4, #272]
 3256              	.LBE715:
 3257              	.LBB716:
 3258 0dfc B248     		ldr	r0, .L116
 3259 0dfe FFF7FEFF 		bl	uart_transmit
 3260 0e02 94F80F31 		ldrb	r3, [r4, #271]	@ zero_extendqisi2
 3261              	.LBE716:
 3262              	.LBB717:
 3263 0e06 B048     		ldr	r0, .L116
 3264              	.LBE717:
 3265              	.LBB718:
 3266 0e08 F618     		adds	r6, r6, r3
 3267              	.LVL189:
 3268 0e0a 94F81031 		ldrb	r3, [r4, #272]	@ zero_extendqisi2
 3269 0e0e F6B2     		uxtb	r6, r6
 3270 0e10 84F80F61 		strb	r6, [r4, #271]
 3271 0e14 F618     		adds	r6, r6, r3
 3272 0e16 84F81061 		strb	r6, [r4, #272]
 3273              	.LBE718:
 3274              	.LBB719:
 3275 0e1a 9DF80A60 		ldrb	r6, [sp, #10]	@ zero_extendqisi2
 3276              	.LVL190:
 3277 0e1e 3146     		mov	r1, r6
 3278 0e20 FFF7FEFF 		bl	uart_transmit
 3279 0e24 94F80F31 		ldrb	r3, [r4, #271]	@ zero_extendqisi2
 3280              	.LBE719:
 3281              	.LBB720:
 3282 0e28 A748     		ldr	r0, .L116
 3283              	.LBE720:
 3284              	.LBB721:
 3285 0e2a F618     		adds	r6, r6, r3
 3286              	.LVL191:
 3287 0e2c 94F81031 		ldrb	r3, [r4, #272]	@ zero_extendqisi2
 3288 0e30 F6B2     		uxtb	r6, r6
 3289 0e32 84F80F61 		strb	r6, [r4, #271]
 3290 0e36 F618     		adds	r6, r6, r3
 3291 0e38 84F81061 		strb	r6, [r4, #272]
 3292              	.LBE721:
 3293              	.LBB722:
 3294 0e3c 9DF80B60 		ldrb	r6, [sp, #11]	@ zero_extendqisi2
 3295              	.LVL192:
 3296 0e40 3146     		mov	r1, r6
 3297 0e42 FFF7FEFF 		bl	uart_transmit
 3298 0e46 94F80F31 		ldrb	r3, [r4, #271]	@ zero_extendqisi2
 3299              	.LBE722:
 3300              	.LBB723:
 3301 0e4a 2946     		mov	r1, r5
 3302              	.LBE723:
 3303              	.LBB724:
 3304 0e4c F618     		adds	r6, r6, r3
 3305              	.LVL193:
 3306 0e4e 94F81031 		ldrb	r3, [r4, #272]	@ zero_extendqisi2
 3307 0e52 F6B2     		uxtb	r6, r6
 3308 0e54 84F80F61 		strb	r6, [r4, #271]
 3309 0e58 F618     		adds	r6, r6, r3
 3310 0e5a 84F81061 		strb	r6, [r4, #272]
 3311              	.LBE724:
 3312              	.LBB725:
 3313 0e5e 9A48     		ldr	r0, .L116
 3314              	.LBE725:
 3315 0e60 0495     		str	r5, [sp, #16]
 3316              	.LVL194:
 3317              	.LBB726:
 3318 0e62 FFF7FEFF 		bl	uart_transmit
 3319 0e66 94F81021 		ldrb	r2, [r4, #272]	@ zero_extendqisi2
 3320 0e6a 94F80F31 		ldrb	r3, [r4, #271]	@ zero_extendqisi2
 3321              	.LBE726:
 3322              	.LBB727:
 3323 0e6e 9DF81160 		ldrb	r6, [sp, #17]	@ zero_extendqisi2
 3324              	.LVL195:
 3325              	.LBE727:
 3326              	.LBB728:
 3327 0e72 84F80F31 		strb	r3, [r4, #271]
 3328 0e76 9B18     		adds	r3, r3, r2
 3329              	.LBE728:
 3330              	.LBB729:
 3331 0e78 3146     		mov	r1, r6
 3332              	.LBE729:
 3333              	.LBB730:
 3334 0e7a 84F81031 		strb	r3, [r4, #272]
 3335              	.LBE730:
 3336              	.LBB731:
 3337 0e7e 9248     		ldr	r0, .L116
 3338 0e80 FFF7FEFF 		bl	uart_transmit
 3339 0e84 94F80F31 		ldrb	r3, [r4, #271]	@ zero_extendqisi2
 3340              	.LBE731:
 3341              	.LBB732:
 3342 0e88 8F48     		ldr	r0, .L116
 3343              	.LBE732:
 3344              	.LBB733:
 3345 0e8a F618     		adds	r6, r6, r3
 3346              	.LVL196:
 3347 0e8c 94F81031 		ldrb	r3, [r4, #272]	@ zero_extendqisi2
 3348 0e90 F6B2     		uxtb	r6, r6
 3349 0e92 84F80F61 		strb	r6, [r4, #271]
 3350 0e96 F618     		adds	r6, r6, r3
 3351 0e98 84F81061 		strb	r6, [r4, #272]
 3352              	.LBE733:
 3353              	.LBB734:
 3354 0e9c 9DF81260 		ldrb	r6, [sp, #18]	@ zero_extendqisi2
 3355              	.LVL197:
 3356 0ea0 3146     		mov	r1, r6
 3357 0ea2 FFF7FEFF 		bl	uart_transmit
 3358 0ea6 94F80F31 		ldrb	r3, [r4, #271]	@ zero_extendqisi2
 3359              	.LBE734:
 3360              	.LBB735:
 3361 0eaa 8748     		ldr	r0, .L116
 3362              	.LBE735:
 3363              	.LBB736:
 3364 0eac F618     		adds	r6, r6, r3
 3365              	.LVL198:
 3366 0eae 94F81031 		ldrb	r3, [r4, #272]	@ zero_extendqisi2
 3367 0eb2 F6B2     		uxtb	r6, r6
 3368 0eb4 84F80F61 		strb	r6, [r4, #271]
 3369 0eb8 F618     		adds	r6, r6, r3
 3370 0eba 84F81061 		strb	r6, [r4, #272]
 3371              	.LBE736:
 3372              	.LBB737:
 3373 0ebe 9DF81360 		ldrb	r6, [sp, #19]	@ zero_extendqisi2
 3374              	.LVL199:
 3375 0ec2 3146     		mov	r1, r6
 3376 0ec4 FFF7FEFF 		bl	uart_transmit
 3377 0ec8 94F80F31 		ldrb	r3, [r4, #271]	@ zero_extendqisi2
 3378              	.LBE737:
 3379              	.LBB738:
 3380 0ecc 2946     		mov	r1, r5
 3381              	.LBE738:
 3382              	.LBB739:
 3383 0ece F618     		adds	r6, r6, r3
 3384              	.LVL200:
 3385 0ed0 94F81031 		ldrb	r3, [r4, #272]	@ zero_extendqisi2
 3386 0ed4 F6B2     		uxtb	r6, r6
 3387 0ed6 84F80F61 		strb	r6, [r4, #271]
 3388 0eda F618     		adds	r6, r6, r3
 3389              	.LBE739:
 3390              	.LBB740:
 3391 0edc 7A48     		ldr	r0, .L116
 3392              	.LBE740:
 3393              	.LBB741:
 3394 0ede 84F81061 		strb	r6, [r4, #272]
 3395              	.LBE741:
 3396 0ee2 0595     		str	r5, [sp, #20]
 3397              	.LVL201:
 3398              	.LBB742:
 3399 0ee4 FFF7FEFF 		bl	uart_transmit
 3400 0ee8 94F81021 		ldrb	r2, [r4, #272]	@ zero_extendqisi2
 3401 0eec 94F80F31 		ldrb	r3, [r4, #271]	@ zero_extendqisi2
 3402              	.LBE742:
 3403              	.LBB743:
 3404 0ef0 9DF81550 		ldrb	r5, [sp, #21]	@ zero_extendqisi2
 3405              	.LVL202:
 3406              	.LBE743:
 3407              	.LBB744:
 3408 0ef4 84F80F31 		strb	r3, [r4, #271]
 3409 0ef8 9B18     		adds	r3, r3, r2
 3410              	.LBE744:
 3411              	.LBB745:
 3412 0efa 2946     		mov	r1, r5
 3413              	.LBE745:
 3414              	.LBB746:
 3415 0efc 84F81031 		strb	r3, [r4, #272]
 3416              	.LBE746:
 3417              	.LBB747:
 3418 0f00 7148     		ldr	r0, .L116
 3419 0f02 FFF7FEFF 		bl	uart_transmit
 3420 0f06 94F80F31 		ldrb	r3, [r4, #271]	@ zero_extendqisi2
 3421              	.LBE747:
 3422              	.LBB748:
 3423 0f0a 6F48     		ldr	r0, .L116
 3424              	.LBE748:
 3425              	.LBB749:
 3426 0f0c ED18     		adds	r5, r5, r3
 3427              	.LVL203:
 3428 0f0e 94F81031 		ldrb	r3, [r4, #272]	@ zero_extendqisi2
 3429 0f12 EDB2     		uxtb	r5, r5
 3430 0f14 84F80F51 		strb	r5, [r4, #271]
 3431 0f18 ED18     		adds	r5, r5, r3
 3432 0f1a 84F81051 		strb	r5, [r4, #272]
 3433              	.LBE749:
 3434              	.LBB750:
 3435 0f1e 9DF81650 		ldrb	r5, [sp, #22]	@ zero_extendqisi2
 3436              	.LVL204:
 3437 0f22 2946     		mov	r1, r5
 3438 0f24 FFF7FEFF 		bl	uart_transmit
 3439 0f28 94F80F31 		ldrb	r3, [r4, #271]	@ zero_extendqisi2
 3440 0f2c ED18     		adds	r5, r5, r3
 3441              	.LVL205:
 3442 0f2e 94F81031 		ldrb	r3, [r4, #272]	@ zero_extendqisi2
 3443 0f32 EDB2     		uxtb	r5, r5
 3444 0f34 84F80F51 		strb	r5, [r4, #271]
 3445 0f38 ED18     		adds	r5, r5, r3
 3446 0f3a 84F81051 		strb	r5, [r4, #272]
 3447              	.LBE750:
 3448              	.LBB751:
 3449 0f3e 9DF81750 		ldrb	r5, [sp, #23]	@ zero_extendqisi2
 3450              	.LVL206:
 3451 0f42 62E2     		b	.L97
 3452              	.LVL207:
 3453              	.L72:
 3454              	.LBE751:
 3455              	.LBE599:
 3456              	.LBE492:
 3457              	.LBE491:
 367:./modules/gps/gps_ubx_ucenter.c ****     gps_ubx_ucenter_config_nav();
 368:./modules/gps/gps_ubx_ucenter.c ****     break;
 369:./modules/gps/gps_ubx_ucenter.c ****   case 7:
 370:./modules/gps/gps_ubx_ucenter.c ****     gps_ubx_ucenter_enable_msg(UBX_NAV_ID, UBX_NAV_POSLLH_ID,1);
 3458              		.loc 1 370 0
 3459 0f44 0220     		movs	r0, #2
 3460 0f46 07E0     		b	.L99
 3461              	.L73:
 371:./modules/gps/gps_ubx_ucenter.c ****     break;
 372:./modules/gps/gps_ubx_ucenter.c ****   case 8:
 373:./modules/gps/gps_ubx_ucenter.c ****     gps_ubx_ucenter_enable_msg(UBX_NAV_ID, UBX_NAV_VELNED_ID, 1);
 3462              		.loc 1 373 0
 3463 0f48 1220     		movs	r0, #18
 3464 0f4a 05E0     		b	.L99
 3465              	.L74:
 374:./modules/gps/gps_ubx_ucenter.c ****     break;
 375:./modules/gps/gps_ubx_ucenter.c ****   case 9:
 376:./modules/gps/gps_ubx_ucenter.c ****     gps_ubx_ucenter_enable_msg(UBX_NAV_ID, UBX_NAV_STATUS_ID, 1);
 3466              		.loc 1 376 0
 3467 0f4c 0320     		movs	r0, #3
 3468 0f4e 03E0     		b	.L99
 3469              	.L75:
 377:./modules/gps/gps_ubx_ucenter.c ****     break;
 378:./modules/gps/gps_ubx_ucenter.c ****   case 10:
 379:./modules/gps/gps_ubx_ucenter.c ****     gps_ubx_ucenter_enable_msg(UBX_NAV_ID, UBX_NAV_SVINFO_ID, 4);
 3470              		.loc 1 379 0
 3471 0f50 3020     		movs	r0, #48
 3472 0f52 0421     		movs	r1, #4
 3473 0f54 04E0     		b	.L94
 3474              	.L76:
 380:./modules/gps/gps_ubx_ucenter.c ****     break;
 381:./modules/gps/gps_ubx_ucenter.c ****   case 11:
 382:./modules/gps/gps_ubx_ucenter.c **** #if defined FIRMWARE && FIRMWARE == ROTORCRAFT
 383:./modules/gps/gps_ubx_ucenter.c ****     gps_ubx_ucenter_enable_msg(UBX_NAV_ID, UBX_NAV_SOL_ID, 1);
 3475              		.loc 1 383 0
 3476 0f56 0620     		movs	r0, #6
 3477              	.L99:
 3478 0f58 0121     		movs	r1, #1
 3479 0f5a 01E0     		b	.L94
 3480              	.L77:
 384:./modules/gps/gps_ubx_ucenter.c **** #else
 385:./modules/gps/gps_ubx_ucenter.c ****     gps_ubx_ucenter_enable_msg(UBX_NAV_ID, UBX_NAV_SOL_ID, 8);
 386:./modules/gps/gps_ubx_ucenter.c **** #endif
 387:./modules/gps/gps_ubx_ucenter.c ****     break;
 388:./modules/gps/gps_ubx_ucenter.c ****   case 12:
 389:./modules/gps/gps_ubx_ucenter.c ****     // Disable UTM on old Lea4P
 390:./modules/gps/gps_ubx_ucenter.c ****     gps_ubx_ucenter_enable_msg(UBX_NAV_ID, UBX_NAV_POSUTM_ID, 0);
 3481              		.loc 1 390 0
 3482 0f5c 0820     		movs	r0, #8
 3483 0f5e 0021     		movs	r1, #0
 3484              	.L94:
 3485 0f60 FFF7FEFF 		bl	gps_ubx_ucenter_enable_msg.constprop.0
 3486              	.LVL208:
 3487 0f64 B9E2     		b	.L68
 3488              	.LVL209:
 3489              	.L78:
 3490              	.LBB752:
 3491              	.LBB753:
 3492              	.LBB754:
 303:./modules/gps/gps_ubx_ucenter.c ****   UbxSend_CFG_SBAS(GPS_SBAS_ENABLED, GPS_SBAS_RANGING | GPS_SBAS_CORRECTIONS | GPS_SBAS_INTEGRITY, 
 3493              		.loc 1 303 0
 3494 0f66 594C     		ldr	r4, .L116+4
 3495 0f68 5748     		ldr	r0, .L116
 3496 0f6a B521     		movs	r1, #181
 3497 0f6c 0025     		movs	r5, #0
 3498 0f6e FFF7FEFF 		bl	uart_transmit
 3499              	.LVL210:
 3500 0f72 5548     		ldr	r0, .L116
 3501 0f74 6221     		movs	r1, #98
 3502 0f76 FFF7FEFF 		bl	uart_transmit
 3503 0f7a 84F81051 		strb	r5, [r4, #272]
 3504 0f7e 84F80F51 		strb	r5, [r4, #271]
 3505              	.LVL211:
 3506              	.LBB755:
 3507 0f82 5148     		ldr	r0, .L116
 3508 0f84 0621     		movs	r1, #6
 3509 0f86 FFF7FEFF 		bl	uart_transmit
 3510 0f8a 94F80F31 		ldrb	r3, [r4, #271]	@ zero_extendqisi2
 3511 0f8e 94F81021 		ldrb	r2, [r4, #272]	@ zero_extendqisi2
 3512 0f92 0633     		adds	r3, r3, #6
 3513 0f94 DBB2     		uxtb	r3, r3
 3514 0f96 84F80F31 		strb	r3, [r4, #271]
 3515 0f9a 9B18     		adds	r3, r3, r2
 3516 0f9c 84F81031 		strb	r3, [r4, #272]
 3517              	.LVL212:
 3518              	.LBE755:
 3519              	.LBB756:
 3520 0fa0 4948     		ldr	r0, .L116
 3521 0fa2 1621     		movs	r1, #22
 3522 0fa4 FFF7FEFF 		bl	uart_transmit
 3523 0fa8 94F80F31 		ldrb	r3, [r4, #271]	@ zero_extendqisi2
 3524 0fac 94F81021 		ldrb	r2, [r4, #272]	@ zero_extendqisi2
 3525 0fb0 1633     		adds	r3, r3, #22
 3526 0fb2 DBB2     		uxtb	r3, r3
 3527 0fb4 84F80F31 		strb	r3, [r4, #271]
 3528 0fb8 9B18     		adds	r3, r3, r2
 3529 0fba 84F81031 		strb	r3, [r4, #272]
 3530              	.LVL213:
 3531              	.LBE756:
 3532              	.LBB757:
 3533              	.LBB758:
 3534 0fbe 4248     		ldr	r0, .L116
 3535 0fc0 0821     		movs	r1, #8
 3536 0fc2 FFF7FEFF 		bl	uart_transmit
 3537 0fc6 94F80F31 		ldrb	r3, [r4, #271]	@ zero_extendqisi2
 3538 0fca 94F81021 		ldrb	r2, [r4, #272]	@ zero_extendqisi2
 3539 0fce 0833     		adds	r3, r3, #8
 3540 0fd0 DBB2     		uxtb	r3, r3
 3541 0fd2 84F80F31 		strb	r3, [r4, #271]
 3542 0fd6 9B18     		adds	r3, r3, r2
 3543              	.LBE758:
 3544              	.LBB759:
 3545 0fd8 2946     		mov	r1, r5
 3546              	.LBE759:
 3547              	.LBB760:
 3548 0fda 84F81031 		strb	r3, [r4, #272]
 3549              	.LVL214:
 3550              	.LBE760:
 3551              	.LBB761:
 3552 0fde 3A48     		ldr	r0, .L116
 3553 0fe0 FFF7FEFF 		bl	uart_transmit
 3554 0fe4 94F81021 		ldrb	r2, [r4, #272]	@ zero_extendqisi2
 3555 0fe8 94F80F31 		ldrb	r3, [r4, #271]	@ zero_extendqisi2
 3556              	.LBE761:
 3557              	.LBE757:
 3558              	.LBB763:
 3559 0fec 3648     		ldr	r0, .L116
 3560              	.LBE763:
 3561              	.LBB764:
 3562              	.LBB762:
 3563 0fee D318     		adds	r3, r2, r3
 3564 0ff0 84F81031 		strb	r3, [r4, #272]
 3565              	.LVL215:
 3566              	.LBE762:
 3567              	.LBE764:
 3568              	.LBB765:
 3569 0ff4 0121     		movs	r1, #1
 3570 0ff6 FFF7FEFF 		bl	uart_transmit
 3571 0ffa 94F80F31 		ldrb	r3, [r4, #271]	@ zero_extendqisi2
 3572 0ffe 94F81021 		ldrb	r2, [r4, #272]	@ zero_extendqisi2
 3573 1002 0133     		adds	r3, r3, #1
 3574 1004 DBB2     		uxtb	r3, r3
 3575 1006 84F80F31 		strb	r3, [r4, #271]
 3576 100a 9B18     		adds	r3, r3, r2
 3577 100c 84F81031 		strb	r3, [r4, #272]
 3578              	.LVL216:
 3579              	.LBE765:
 3580              	.LBB766:
 3581 1010 2D48     		ldr	r0, .L116
 3582 1012 0721     		movs	r1, #7
 3583 1014 FFF7FEFF 		bl	uart_transmit
 3584 1018 94F80F31 		ldrb	r3, [r4, #271]	@ zero_extendqisi2
 3585 101c 94F81021 		ldrb	r2, [r4, #272]	@ zero_extendqisi2
 3586 1020 0733     		adds	r3, r3, #7
 3587 1022 DBB2     		uxtb	r3, r3
 3588 1024 84F80F31 		strb	r3, [r4, #271]
 3589 1028 9B18     		adds	r3, r3, r2
 3590 102a 84F81031 		strb	r3, [r4, #272]
 3591              	.LVL217:
 3592              	.LBE766:
 3593              	.LBB767:
 3594 102e 2648     		ldr	r0, .L116
 3595 1030 0121     		movs	r1, #1
 3596 1032 FFF7FEFF 		bl	uart_transmit
 3597 1036 94F80F31 		ldrb	r3, [r4, #271]	@ zero_extendqisi2
 3598 103a 94F81021 		ldrb	r2, [r4, #272]	@ zero_extendqisi2
 3599 103e 0133     		adds	r3, r3, #1
 3600 1040 DBB2     		uxtb	r3, r3
 3601 1042 84F80F31 		strb	r3, [r4, #271]
 3602 1046 9B18     		adds	r3, r3, r2
 3603              	.LBE767:
 3604              	.LBB768:
 3605 1048 2946     		mov	r1, r5
 3606              	.LBE768:
 3607              	.LBB769:
 3608 104a 84F81031 		strb	r3, [r4, #272]
 3609              	.LVL218:
 3610              	.LBE769:
 3611              	.LBB770:
 3612 104e 1E48     		ldr	r0, .L116
 3613 1050 FFF7FEFF 		bl	uart_transmit
 3614 1054 94F81021 		ldrb	r2, [r4, #272]	@ zero_extendqisi2
 3615 1058 94F80F31 		ldrb	r3, [r4, #271]	@ zero_extendqisi2
 3616              	.LBE770:
 3617              	.LBB771:
 3618 105c 2946     		mov	r1, r5
 3619              	.LBE771:
 3620              	.LBB772:
 3621 105e D318     		adds	r3, r2, r3
 3622 1060 84F81031 		strb	r3, [r4, #272]
 3623              	.LBE772:
 3624              	.LBB773:
 3625 1064 1848     		ldr	r0, .L116
 3626              	.LBE773:
 3627 1066 0195     		str	r5, [sp, #4]
 3628              	.LVL219:
 3629              	.LBB774:
 3630 1068 FFF7FEFF 		bl	uart_transmit
 3631 106c 94F81021 		ldrb	r2, [r4, #272]	@ zero_extendqisi2
 3632 1070 94F80F31 		ldrb	r3, [r4, #271]	@ zero_extendqisi2
 3633              	.LBE774:
 3634              	.LBB775:
 3635 1074 9DF80550 		ldrb	r5, [sp, #5]	@ zero_extendqisi2
 3636              	.LVL220:
 3637              	.LBE775:
 3638              	.LBB776:
 3639 1078 84F80F31 		strb	r3, [r4, #271]
 3640 107c 9B18     		adds	r3, r3, r2
 3641              	.LBE776:
 3642              	.LBB777:
 3643 107e 2946     		mov	r1, r5
 3644              	.LBE777:
 3645              	.LBB778:
 3646 1080 84F81031 		strb	r3, [r4, #272]
 3647              	.LBE778:
 3648              	.LBB779:
 3649 1084 1048     		ldr	r0, .L116
 3650 1086 FFF7FEFF 		bl	uart_transmit
 3651 108a 94F80F31 		ldrb	r3, [r4, #271]	@ zero_extendqisi2
 3652              	.LBE779:
 3653              	.LBB780:
 3654 108e 0E48     		ldr	r0, .L116
 3655              	.LBE780:
 3656              	.LBB781:
 3657 1090 ED18     		adds	r5, r5, r3
 3658              	.LVL221:
 3659 1092 94F81031 		ldrb	r3, [r4, #272]	@ zero_extendqisi2
 3660 1096 EDB2     		uxtb	r5, r5
 3661 1098 84F80F51 		strb	r5, [r4, #271]
 3662 109c ED18     		adds	r5, r5, r3
 3663 109e 84F81051 		strb	r5, [r4, #272]
 3664              	.LBE781:
 3665              	.LBB782:
 3666 10a2 9DF80650 		ldrb	r5, [sp, #6]	@ zero_extendqisi2
 3667              	.LVL222:
 3668 10a6 2946     		mov	r1, r5
 3669 10a8 FFF7FEFF 		bl	uart_transmit
 3670 10ac 94F80F31 		ldrb	r3, [r4, #271]	@ zero_extendqisi2
 3671 10b0 ED18     		adds	r5, r5, r3
 3672              	.LVL223:
 3673 10b2 94F81031 		ldrb	r3, [r4, #272]	@ zero_extendqisi2
 3674 10b6 EDB2     		uxtb	r5, r5
 3675 10b8 84F80F51 		strb	r5, [r4, #271]
 3676 10bc ED18     		adds	r5, r5, r3
 3677 10be 84F81051 		strb	r5, [r4, #272]
 3678              	.LBE782:
 3679              	.LBB783:
 3680 10c2 9DF80750 		ldrb	r5, [sp, #7]	@ zero_extendqisi2
 3681              	.LVL224:
 3682 10c6 A0E1     		b	.L97
 3683              	.L117:
 3684              		.align	2
 3685              	.L116:
 3686 10c8 00000000 		.word	uart3
 3687 10cc 00000000 		.word	.LANCHOR0
 3688              	.LVL225:
 3689              	.L79:
 3690              	.LBE783:
 3691              	.LBE754:
 3692              	.LBE753:
 3693              	.LBE752:
 3694              	.LBB784:
 391:./modules/gps/gps_ubx_ucenter.c ****     break;
 392:./modules/gps/gps_ubx_ucenter.c ****   case 13:
 393:./modules/gps/gps_ubx_ucenter.c ****     gps_ubx_ucenter_config_sbas();
 394:./modules/gps/gps_ubx_ucenter.c ****     break;
 395:./modules/gps/gps_ubx_ucenter.c ****   case 14:
 396:./modules/gps/gps_ubx_ucenter.c ****     UbxSend_CFG_RATE(0x00FA, 0x0001, 0x0000);
 3695              		.loc 1 396 0
 3696 10d0 D44C     		ldr	r4, .L118
 3697 10d2 D548     		ldr	r0, .L118+4
 3698 10d4 B521     		movs	r1, #181
 3699 10d6 0025     		movs	r5, #0
 3700 10d8 FFF7FEFF 		bl	uart_transmit
 3701              	.LVL226:
 3702 10dc D248     		ldr	r0, .L118+4
 3703 10de 6221     		movs	r1, #98
 3704 10e0 FFF7FEFF 		bl	uart_transmit
 3705 10e4 84F81051 		strb	r5, [r4, #272]
 3706 10e8 84F80F51 		strb	r5, [r4, #271]
 3707              	.LVL227:
 3708              	.LBB785:
 3709 10ec CE48     		ldr	r0, .L118+4
 3710 10ee 0621     		movs	r1, #6
 3711 10f0 FFF7FEFF 		bl	uart_transmit
 3712 10f4 94F80F31 		ldrb	r3, [r4, #271]	@ zero_extendqisi2
 3713 10f8 94F81021 		ldrb	r2, [r4, #272]	@ zero_extendqisi2
 3714 10fc 0633     		adds	r3, r3, #6
 3715 10fe DBB2     		uxtb	r3, r3
 3716 1100 84F80F31 		strb	r3, [r4, #271]
 3717 1104 9B18     		adds	r3, r3, r2
 3718 1106 84F81031 		strb	r3, [r4, #272]
 3719              	.LVL228:
 3720              	.LBE785:
 3721              	.LBB786:
 3722 110a C748     		ldr	r0, .L118+4
 3723 110c 0821     		movs	r1, #8
 3724 110e FFF7FEFF 		bl	uart_transmit
 3725 1112 94F80F31 		ldrb	r3, [r4, #271]	@ zero_extendqisi2
 3726 1116 94F81021 		ldrb	r2, [r4, #272]	@ zero_extendqisi2
 3727 111a 0833     		adds	r3, r3, #8
 3728 111c DBB2     		uxtb	r3, r3
 3729 111e 84F80F31 		strb	r3, [r4, #271]
 3730 1122 9B18     		adds	r3, r3, r2
 3731 1124 84F81031 		strb	r3, [r4, #272]
 3732              	.LVL229:
 3733              	.LBE786:
 3734              	.LBB787:
 3735              	.LBB788:
 3736 1128 BF48     		ldr	r0, .L118+4
 3737 112a 0621     		movs	r1, #6
 3738 112c FFF7FEFF 		bl	uart_transmit
 3739 1130 94F80F31 		ldrb	r3, [r4, #271]	@ zero_extendqisi2
 3740 1134 94F81021 		ldrb	r2, [r4, #272]	@ zero_extendqisi2
 3741 1138 0633     		adds	r3, r3, #6
 3742 113a DBB2     		uxtb	r3, r3
 3743 113c 84F80F31 		strb	r3, [r4, #271]
 3744 1140 9B18     		adds	r3, r3, r2
 3745              	.LBE788:
 3746              	.LBB789:
 3747 1142 2946     		mov	r1, r5
 3748              	.LBE789:
 3749              	.LBB790:
 3750 1144 84F81031 		strb	r3, [r4, #272]
 3751              	.LVL230:
 3752              	.LBE790:
 3753              	.LBB791:
 3754 1148 B748     		ldr	r0, .L118+4
 3755 114a FFF7FEFF 		bl	uart_transmit
 3756 114e 94F81021 		ldrb	r2, [r4, #272]	@ zero_extendqisi2
 3757 1152 94F80F31 		ldrb	r3, [r4, #271]	@ zero_extendqisi2
 3758              	.LBE791:
 3759              	.LBE787:
 3760 1156 FA26     		movs	r6, #250
 3761              	.LBB794:
 3762              	.LBB792:
 3763 1158 D318     		adds	r3, r2, r3
 3764              	.LBE792:
 3765              	.LBE794:
 3766              	.LBB795:
 3767 115a 3146     		mov	r1, r6
 3768              	.LBE795:
 3769              	.LBB796:
 3770              	.LBB793:
 3771 115c 84F81031 		strb	r3, [r4, #272]
 3772              	.LBE793:
 3773              	.LBE796:
 3774              	.LBB797:
 3775 1160 B148     		ldr	r0, .L118+4
 3776              	.LBE797:
 3777 1162 ADF82260 		strh	r6, [sp, #34]	@ movhi
 3778              	.LVL231:
 3779              	.LBB798:
 3780 1166 FFF7FEFF 		bl	uart_transmit
 3781 116a 94F80F31 		ldrb	r3, [r4, #271]	@ zero_extendqisi2
 3782              	.LBE798:
 3783              	.LBB799:
 3784 116e AE48     		ldr	r0, .L118+4
 3785              	.LBE799:
 3786              	.LBB800:
 3787 1170 F618     		adds	r6, r6, r3
 3788              	.LVL232:
 3789 1172 94F81031 		ldrb	r3, [r4, #272]	@ zero_extendqisi2
 3790 1176 F6B2     		uxtb	r6, r6
 3791 1178 84F80F61 		strb	r6, [r4, #271]
 3792 117c F618     		adds	r6, r6, r3
 3793 117e 84F81061 		strb	r6, [r4, #272]
 3794              	.LBE800:
 3795              	.LBB801:
 3796 1182 9DF82360 		ldrb	r6, [sp, #35]	@ zero_extendqisi2
 3797              	.LVL233:
 3798 1186 3146     		mov	r1, r6
 3799 1188 FFF7FEFF 		bl	uart_transmit
 3800 118c 94F80F31 		ldrb	r3, [r4, #271]	@ zero_extendqisi2
 3801              	.LBE801:
 3802              	.LBB802:
 3803 1190 A548     		ldr	r0, .L118+4
 3804              	.LBE802:
 3805              	.LBB803:
 3806 1192 F618     		adds	r6, r6, r3
 3807              	.LVL234:
 3808 1194 94F81031 		ldrb	r3, [r4, #272]	@ zero_extendqisi2
 3809 1198 F6B2     		uxtb	r6, r6
 3810 119a 84F80F61 		strb	r6, [r4, #271]
 3811 119e F618     		adds	r6, r6, r3
 3812 11a0 84F81061 		strb	r6, [r4, #272]
 3813              	.LBE803:
 3814 11a4 0126     		movs	r6, #1
 3815              	.LBB804:
 3816 11a6 3146     		mov	r1, r6
 3817              	.LBE804:
 3818 11a8 ADF82060 		strh	r6, [sp, #32]	@ movhi
 3819              	.LVL235:
 3820              	.LBB805:
 3821 11ac FFF7FEFF 		bl	uart_transmit
 3822 11b0 94F80F31 		ldrb	r3, [r4, #271]	@ zero_extendqisi2
 3823              	.LBE805:
 3824              	.LBB806:
 3825 11b4 9C48     		ldr	r0, .L118+4
 3826              	.LBE806:
 3827              	.LBB807:
 3828 11b6 F618     		adds	r6, r6, r3
 3829              	.LVL236:
 3830 11b8 94F81031 		ldrb	r3, [r4, #272]	@ zero_extendqisi2
 3831 11bc F6B2     		uxtb	r6, r6
 3832 11be 84F80F61 		strb	r6, [r4, #271]
 3833 11c2 F618     		adds	r6, r6, r3
 3834 11c4 84F81061 		strb	r6, [r4, #272]
 3835              	.LBE807:
 3836              	.LBB808:
 3837 11c8 9DF82160 		ldrb	r6, [sp, #33]	@ zero_extendqisi2
 3838              	.LVL237:
 3839 11cc 3146     		mov	r1, r6
 3840 11ce FFF7FEFF 		bl	uart_transmit
 3841 11d2 94F80F31 		ldrb	r3, [r4, #271]	@ zero_extendqisi2
 3842              	.LBE808:
 3843              	.LBB809:
 3844 11d6 2946     		mov	r1, r5
 3845              	.LBE809:
 3846              	.LBB810:
 3847 11d8 F618     		adds	r6, r6, r3
 3848              	.LVL238:
 3849 11da 94F81031 		ldrb	r3, [r4, #272]	@ zero_extendqisi2
 3850 11de F6B2     		uxtb	r6, r6
 3851 11e0 84F80F61 		strb	r6, [r4, #271]
 3852 11e4 F618     		adds	r6, r6, r3
 3853 11e6 84F81061 		strb	r6, [r4, #272]
 3854              	.LBE810:
 3855              	.LBB811:
 3856 11ea 8F48     		ldr	r0, .L118+4
 3857              	.LBE811:
 3858 11ec ADF81E50 		strh	r5, [sp, #30]	@ movhi
 3859              	.LVL239:
 3860              	.LBB812:
 3861 11f0 FFF7FEFF 		bl	uart_transmit
 3862 11f4 94F80F31 		ldrb	r3, [r4, #271]	@ zero_extendqisi2
 3863 11f8 94F81021 		ldrb	r2, [r4, #272]	@ zero_extendqisi2
 3864 11fc 84F80F31 		strb	r3, [r4, #271]
 3865 1200 9B18     		adds	r3, r3, r2
 3866 1202 84F81031 		strb	r3, [r4, #272]
 3867              	.LBE812:
 3868              	.LBB813:
 3869 1206 9DF81F50 		ldrb	r5, [sp, #31]	@ zero_extendqisi2
 3870              	.LVL240:
 3871 120a FEE0     		b	.L97
 3872              	.LVL241:
 3873              	.L80:
 3874              	.LBE813:
 3875              	.LBE784:
 3876              	.LBB814:
 397:./modules/gps/gps_ubx_ucenter.c ****     break;
 398:./modules/gps/gps_ubx_ucenter.c ****   case 15:
 399:./modules/gps/gps_ubx_ucenter.c ****     // Try to save on non-ROM devices...
 400:./modules/gps/gps_ubx_ucenter.c ****     UbxSend_CFG_CFG(0x00000000,0xffffffff,0x00000000);
 3877              		.loc 1 400 0
 3878 120c 854C     		ldr	r4, .L118
 3879 120e 8648     		ldr	r0, .L118+4
 3880 1210 B521     		movs	r1, #181
 3881 1212 0025     		movs	r5, #0
 3882 1214 FFF7FEFF 		bl	uart_transmit
 3883              	.LVL242:
 3884 1218 8348     		ldr	r0, .L118+4
 3885 121a 6221     		movs	r1, #98
 3886 121c FFF7FEFF 		bl	uart_transmit
 3887 1220 84F81051 		strb	r5, [r4, #272]
 3888 1224 84F80F51 		strb	r5, [r4, #271]
 3889              	.LVL243:
 3890              	.LBB815:
 3891 1228 7F48     		ldr	r0, .L118+4
 3892 122a 0621     		movs	r1, #6
 3893 122c FFF7FEFF 		bl	uart_transmit
 3894 1230 94F80F31 		ldrb	r3, [r4, #271]	@ zero_extendqisi2
 3895 1234 94F81021 		ldrb	r2, [r4, #272]	@ zero_extendqisi2
 3896 1238 0633     		adds	r3, r3, #6
 3897 123a DBB2     		uxtb	r3, r3
 3898 123c 84F80F31 		strb	r3, [r4, #271]
 3899 1240 9B18     		adds	r3, r3, r2
 3900 1242 84F81031 		strb	r3, [r4, #272]
 3901              	.LVL244:
 3902              	.LBE815:
 3903              	.LBB816:
 3904 1246 7848     		ldr	r0, .L118+4
 3905 1248 0921     		movs	r1, #9
 3906 124a FFF7FEFF 		bl	uart_transmit
 3907 124e 94F80F31 		ldrb	r3, [r4, #271]	@ zero_extendqisi2
 3908 1252 94F81021 		ldrb	r2, [r4, #272]	@ zero_extendqisi2
 3909 1256 0933     		adds	r3, r3, #9
 3910 1258 DBB2     		uxtb	r3, r3
 3911 125a 84F80F31 		strb	r3, [r4, #271]
 3912 125e 9B18     		adds	r3, r3, r2
 3913 1260 84F81031 		strb	r3, [r4, #272]
 3914              	.LVL245:
 3915              	.LBE816:
 3916              	.LBB817:
 3917              	.LBB818:
 3918 1264 7048     		ldr	r0, .L118+4
 3919 1266 0C21     		movs	r1, #12
 3920 1268 FFF7FEFF 		bl	uart_transmit
 3921 126c 94F80F31 		ldrb	r3, [r4, #271]	@ zero_extendqisi2
 3922 1270 94F81021 		ldrb	r2, [r4, #272]	@ zero_extendqisi2
 3923 1274 0C33     		adds	r3, r3, #12
 3924 1276 DBB2     		uxtb	r3, r3
 3925 1278 84F80F31 		strb	r3, [r4, #271]
 3926 127c 9B18     		adds	r3, r3, r2
 3927              	.LBE818:
 3928              	.LBB819:
 3929 127e 2946     		mov	r1, r5
 3930              	.LBE819:
 3931              	.LBB820:
 3932 1280 84F81031 		strb	r3, [r4, #272]
 3933              	.LVL246:
 3934              	.LBE820:
 3935              	.LBB821:
 3936 1284 6848     		ldr	r0, .L118+4
 3937 1286 FFF7FEFF 		bl	uart_transmit
 3938 128a 94F81021 		ldrb	r2, [r4, #272]	@ zero_extendqisi2
 3939 128e 94F80F31 		ldrb	r3, [r4, #271]	@ zero_extendqisi2
 3940              	.LBE821:
 3941              	.LBE817:
 3942              	.LBB823:
 3943 1292 2946     		mov	r1, r5
 3944              	.LBE823:
 3945              	.LBB824:
 3946              	.LBB822:
 3947 1294 D318     		adds	r3, r2, r3
 3948 1296 84F81031 		strb	r3, [r4, #272]
 3949              	.LBE822:
 3950              	.LBE824:
 3951              	.LBB825:
 3952 129a 6348     		ldr	r0, .L118+4
 3953              	.LBE825:
 3954 129c 0295     		str	r5, [sp, #8]
 3955              	.LVL247:
 3956              	.LBB826:
 3957 129e FFF7FEFF 		bl	uart_transmit
 3958 12a2 94F81021 		ldrb	r2, [r4, #272]	@ zero_extendqisi2
 3959 12a6 94F80F31 		ldrb	r3, [r4, #271]	@ zero_extendqisi2
 3960              	.LBE826:
 3961              	.LBB827:
 3962 12aa 9DF80960 		ldrb	r6, [sp, #9]	@ zero_extendqisi2
 3963              	.LVL248:
 3964              	.LBE827:
 3965              	.LBB828:
 3966 12ae 84F80F31 		strb	r3, [r4, #271]
 3967 12b2 9B18     		adds	r3, r3, r2
 3968              	.LBE828:
 3969              	.LBB829:
 3970 12b4 3146     		mov	r1, r6
 3971              	.LBE829:
 3972              	.LBB830:
 3973 12b6 84F81031 		strb	r3, [r4, #272]
 3974              	.LBE830:
 3975              	.LBB831:
 3976 12ba 5B48     		ldr	r0, .L118+4
 3977 12bc FFF7FEFF 		bl	uart_transmit
 3978 12c0 94F80F31 		ldrb	r3, [r4, #271]	@ zero_extendqisi2
 3979              	.LBE831:
 3980              	.LBB832:
 3981 12c4 5848     		ldr	r0, .L118+4
 3982              	.LBE832:
 3983              	.LBB833:
 3984 12c6 F618     		adds	r6, r6, r3
 3985              	.LVL249:
 3986 12c8 94F81031 		ldrb	r3, [r4, #272]	@ zero_extendqisi2
 3987 12cc F6B2     		uxtb	r6, r6
 3988 12ce 84F80F61 		strb	r6, [r4, #271]
 3989 12d2 F618     		adds	r6, r6, r3
 3990 12d4 84F81061 		strb	r6, [r4, #272]
 3991              	.LBE833:
 3992              	.LBB834:
 3993 12d8 9DF80A60 		ldrb	r6, [sp, #10]	@ zero_extendqisi2
 3994              	.LVL250:
 3995 12dc 3146     		mov	r1, r6
 3996 12de FFF7FEFF 		bl	uart_transmit
 3997 12e2 94F80F31 		ldrb	r3, [r4, #271]	@ zero_extendqisi2
 3998              	.LBE834:
 3999              	.LBB835:
 4000 12e6 5048     		ldr	r0, .L118+4
 4001              	.LBE835:
 4002              	.LBB836:
 4003 12e8 F618     		adds	r6, r6, r3
 4004              	.LVL251:
 4005 12ea 94F81031 		ldrb	r3, [r4, #272]	@ zero_extendqisi2
 4006 12ee F6B2     		uxtb	r6, r6
 4007 12f0 84F80F61 		strb	r6, [r4, #271]
 4008 12f4 F618     		adds	r6, r6, r3
 4009 12f6 84F81061 		strb	r6, [r4, #272]
 4010              	.LBE836:
 4011              	.LBB837:
 4012 12fa 9DF80B60 		ldrb	r6, [sp, #11]	@ zero_extendqisi2
 4013              	.LVL252:
 4014 12fe 3146     		mov	r1, r6
 4015 1300 FFF7FEFF 		bl	uart_transmit
 4016 1304 94F80F31 		ldrb	r3, [r4, #271]	@ zero_extendqisi2
 4017              	.LBE837:
 4018              	.LBB838:
 4019 1308 4748     		ldr	r0, .L118+4
 4020              	.LBE838:
 4021              	.LBB839:
 4022 130a F618     		adds	r6, r6, r3
 4023              	.LVL253:
 4024 130c 94F81031 		ldrb	r3, [r4, #272]	@ zero_extendqisi2
 4025 1310 F6B2     		uxtb	r6, r6
 4026 1312 84F80F61 		strb	r6, [r4, #271]
 4027 1316 F618     		adds	r6, r6, r3
 4028 1318 84F81061 		strb	r6, [r4, #272]
 4029              	.LBE839:
 4030 131c 4FF0FF36 		mov	r6, #-1
 4031 1320 0196     		str	r6, [sp, #4]
 4032              	.LVL254:
 4033              	.LBB840:
 4034 1322 F6B2     		uxtb	r6, r6
 4035              	.LVL255:
 4036 1324 3146     		mov	r1, r6
 4037 1326 FFF7FEFF 		bl	uart_transmit
 4038 132a 94F80F31 		ldrb	r3, [r4, #271]	@ zero_extendqisi2
 4039              	.LBE840:
 4040              	.LBB841:
 4041 132e 3E48     		ldr	r0, .L118+4
 4042              	.LBE841:
 4043              	.LBB842:
 4044 1330 F618     		adds	r6, r6, r3
 4045              	.LVL256:
 4046 1332 94F81031 		ldrb	r3, [r4, #272]	@ zero_extendqisi2
 4047 1336 F6B2     		uxtb	r6, r6
 4048 1338 84F80F61 		strb	r6, [r4, #271]
 4049 133c F618     		adds	r6, r6, r3
 4050 133e 84F81061 		strb	r6, [r4, #272]
 4051              	.LBE842:
 4052              	.LBB843:
 4053 1342 9DF80560 		ldrb	r6, [sp, #5]	@ zero_extendqisi2
 4054              	.LVL257:
 4055 1346 3146     		mov	r1, r6
 4056 1348 FFF7FEFF 		bl	uart_transmit
 4057 134c 94F80F31 		ldrb	r3, [r4, #271]	@ zero_extendqisi2
 4058              	.LBE843:
 4059              	.LBB844:
 4060 1350 3548     		ldr	r0, .L118+4
 4061              	.LBE844:
 4062              	.LBB845:
 4063 1352 F618     		adds	r6, r6, r3
 4064              	.LVL258:
 4065 1354 94F81031 		ldrb	r3, [r4, #272]	@ zero_extendqisi2
 4066 1358 F6B2     		uxtb	r6, r6
 4067 135a 84F80F61 		strb	r6, [r4, #271]
 4068 135e F618     		adds	r6, r6, r3
 4069 1360 84F81061 		strb	r6, [r4, #272]
 4070              	.LBE845:
 4071              	.LBB846:
 4072 1364 9DF80660 		ldrb	r6, [sp, #6]	@ zero_extendqisi2
 4073              	.LVL259:
 4074 1368 3146     		mov	r1, r6
 4075 136a FFF7FEFF 		bl	uart_transmit
 4076 136e 94F80F31 		ldrb	r3, [r4, #271]	@ zero_extendqisi2
 4077              	.LBE846:
 4078              	.LBB847:
 4079 1372 2D48     		ldr	r0, .L118+4
 4080              	.LBE847:
 4081              	.LBB848:
 4082 1374 F618     		adds	r6, r6, r3
 4083              	.LVL260:
 4084 1376 94F81031 		ldrb	r3, [r4, #272]	@ zero_extendqisi2
 4085 137a F6B2     		uxtb	r6, r6
 4086 137c 84F80F61 		strb	r6, [r4, #271]
 4087 1380 F618     		adds	r6, r6, r3
 4088 1382 84F81061 		strb	r6, [r4, #272]
 4089              	.LBE848:
 4090              	.LBB849:
 4091 1386 9DF80760 		ldrb	r6, [sp, #7]	@ zero_extendqisi2
 4092              	.LVL261:
 4093 138a 3146     		mov	r1, r6
 4094 138c FFF7FEFF 		bl	uart_transmit
 4095 1390 94F80F31 		ldrb	r3, [r4, #271]	@ zero_extendqisi2
 4096              	.LBE849:
 4097              	.LBB850:
 4098 1394 2946     		mov	r1, r5
 4099              	.LBE850:
 4100              	.LBB851:
 4101 1396 F618     		adds	r6, r6, r3
 4102              	.LVL262:
 4103 1398 94F81031 		ldrb	r3, [r4, #272]	@ zero_extendqisi2
 4104 139c F6B2     		uxtb	r6, r6
 4105 139e 84F80F61 		strb	r6, [r4, #271]
 4106 13a2 F618     		adds	r6, r6, r3
 4107              	.LBE851:
 4108              	.LBB852:
 4109 13a4 2048     		ldr	r0, .L118+4
 4110              	.LBE852:
 4111              	.LBB853:
 4112 13a6 84F81061 		strb	r6, [r4, #272]
 4113              	.LBE853:
 4114 13aa 0395     		str	r5, [sp, #12]
 4115              	.LVL263:
 4116              	.LBB854:
 4117 13ac FFF7FEFF 		bl	uart_transmit
 4118 13b0 94F81021 		ldrb	r2, [r4, #272]	@ zero_extendqisi2
 4119 13b4 94F80F31 		ldrb	r3, [r4, #271]	@ zero_extendqisi2
 4120              	.LBE854:
 4121              	.LBB855:
 4122 13b8 9DF80D50 		ldrb	r5, [sp, #13]	@ zero_extendqisi2
 4123              	.LVL264:
 4124              	.LBE855:
 4125              	.LBB856:
 4126 13bc 84F80F31 		strb	r3, [r4, #271]
 4127 13c0 9B18     		adds	r3, r3, r2
 4128              	.LBE856:
 4129              	.LBB857:
 4130 13c2 2946     		mov	r1, r5
 4131              	.LBE857:
 4132              	.LBB858:
 4133 13c4 84F81031 		strb	r3, [r4, #272]
 4134              	.LBE858:
 4135              	.LBB859:
 4136 13c8 1748     		ldr	r0, .L118+4
 4137 13ca FFF7FEFF 		bl	uart_transmit
 4138 13ce 94F80F31 		ldrb	r3, [r4, #271]	@ zero_extendqisi2
 4139              	.LBE859:
 4140              	.LBB860:
 4141 13d2 1548     		ldr	r0, .L118+4
 4142              	.LBE860:
 4143              	.LBB861:
 4144 13d4 ED18     		adds	r5, r5, r3
 4145              	.LVL265:
 4146 13d6 94F81031 		ldrb	r3, [r4, #272]	@ zero_extendqisi2
 4147 13da EDB2     		uxtb	r5, r5
 4148 13dc 84F80F51 		strb	r5, [r4, #271]
 4149 13e0 ED18     		adds	r5, r5, r3
 4150 13e2 84F81051 		strb	r5, [r4, #272]
 4151              	.LBE861:
 4152              	.LBB862:
 4153 13e6 9DF80E50 		ldrb	r5, [sp, #14]	@ zero_extendqisi2
 4154              	.LVL266:
 4155 13ea 2946     		mov	r1, r5
 4156 13ec FFF7FEFF 		bl	uart_transmit
 4157 13f0 94F80F31 		ldrb	r3, [r4, #271]	@ zero_extendqisi2
 4158 13f4 ED18     		adds	r5, r5, r3
 4159              	.LVL267:
 4160 13f6 94F81031 		ldrb	r3, [r4, #272]	@ zero_extendqisi2
 4161 13fa EDB2     		uxtb	r5, r5
 4162 13fc 84F80F51 		strb	r5, [r4, #271]
 4163 1400 ED18     		adds	r5, r5, r3
 4164 1402 84F81051 		strb	r5, [r4, #272]
 4165              	.LBE862:
 4166              	.LBB863:
 4167 1406 9DF80F50 		ldrb	r5, [sp, #15]	@ zero_extendqisi2
 4168              	.LVL268:
 4169              	.L97:
 4170 140a 2946     		mov	r1, r5
 4171 140c 0648     		ldr	r0, .L118+4
 4172 140e FFF7FEFF 		bl	uart_transmit
 4173 1412 94F80F11 		ldrb	r1, [r4, #271]	@ zero_extendqisi2
 4174 1416 6D18     		adds	r5, r5, r1
 4175              	.LVL269:
 4176 1418 E9B2     		uxtb	r1, r5
 4177 141a 84F80F11 		strb	r1, [r4, #271]
 4178 141e FFF716BB 		b	.L93
 4179              	.L119:
 4180 1422 00BF     		.align	2
 4181              	.L118:
 4182 1424 00000000 		.word	.LANCHOR0
 4183 1428 00000000 		.word	uart3
 4184              	.LVL270:
 4185              	.L81:
 4186              	.LBE863:
 4187              	.LBE814:
 401:./modules/gps/gps_ubx_ucenter.c ****     break;
 402:./modules/gps/gps_ubx_ucenter.c ****   case 16:
 403:./modules/gps/gps_ubx_ucenter.c ****     // Debug Downlink the result of all configuration steps: see messages
 404:./modules/gps/gps_ubx_ucenter.c ****     DOWNLINK_SEND_DEBUG(DefaultChannel, DefaultDevice,GPS_UBX_UCENTER_CONFIG_STEPS,gps_ubx_ucenter.
 4188              		.loc 1 404 0
 4189 142c 3248     		ldr	r0, .L120
 4190 142e 1821     		movs	r1, #24
 4191 1430 FFF7FEFF 		bl	uart_check_free_space
 4192              	.LVL271:
 4193 1434 0028     		cmp	r0, #0
 4194 1436 4BD0     		beq	.L87
 4195 1438 304B     		ldr	r3, .L120+4
 4196              	.LBB864:
 4197 143a 2F48     		ldr	r0, .L120
 4198              	.LBE864:
 4199 143c 1A88     		ldrh	r2, [r3, #0]
 4200              	.LBB865:
 4201 143e 9921     		movs	r1, #153
 4202              	.LBE865:
 4203 1440 1832     		adds	r2, r2, #24
 4204 1442 1A80     		strh	r2, [r3, #0]	@ movhi
 4205 1444 2E4B     		ldr	r3, .L120+8
 4206 1446 2F4D     		ldr	r5, .L120+12
 4207 1448 1A88     		ldrh	r2, [r3, #0]
 4208 144a 2F4C     		ldr	r4, .L120+16
 4209 144c 0132     		adds	r2, r2, #1
 4210 144e 1A80     		strh	r2, [r3, #0]	@ movhi
 4211              	.LBB866:
 4212 1450 FFF7FEFF 		bl	uart_transmit
 4213              	.LVL272:
 4214 1454 2848     		ldr	r0, .L120
 4215 1456 1821     		movs	r1, #24
 4216 1458 FFF7FEFF 		bl	uart_transmit
 4217              	.LBE866:
 4218 145c 1923     		movs	r3, #25
 4219 145e 2B70     		strb	r3, [r5, #0]
 4220 1460 3123     		movs	r3, #49
 4221 1462 2370     		strb	r3, [r4, #0]
 4222 1464 2448     		ldr	r0, .L120
 4223 1466 0121     		movs	r1, #1
 4224 1468 FFF7FEFF 		bl	uart_transmit
 4225 146c 2B78     		ldrb	r3, [r5, #0]	@ zero_extendqisi2
 4226 146e 2278     		ldrb	r2, [r4, #0]	@ zero_extendqisi2
 4227 1470 1A33     		adds	r3, r3, #26
 4228 1472 DBB2     		uxtb	r3, r3
 4229 1474 2B70     		strb	r3, [r5, #0]
 4230 1476 9B18     		adds	r3, r3, r2
 4231 1478 2370     		strb	r3, [r4, #0]
 4232 147a 1F48     		ldr	r0, .L120
 4233 147c 1A21     		movs	r1, #26
 4234 147e FFF7FEFF 		bl	uart_transmit
 4235              	.LBB867:
 4236 1482 2B78     		ldrb	r3, [r5, #0]	@ zero_extendqisi2
 4237 1484 2278     		ldrb	r2, [r4, #0]	@ zero_extendqisi2
 4238 1486 1133     		adds	r3, r3, #17
 4239 1488 DBB2     		uxtb	r3, r3
 4240              	.LVL273:
 4241 148a 2B70     		strb	r3, [r5, #0]
 4242 148c 9B18     		adds	r3, r3, r2
 4243              	.LVL274:
 4244 148e 2370     		strb	r3, [r4, #0]
 4245 1490 1948     		ldr	r0, .L120
 4246 1492 1121     		movs	r1, #17
 4247 1494 FFF7FEFF 		bl	uart_transmit
 4248              	.LVL275:
 4249 1498 1C4E     		ldr	r6, .L120+20
  76:./modules/gps/gps_ubx_ucenter.c **** void gps_ubx_ucenter_periodic(void)
 4250              		.loc 1 76 0
 4251 149a 06F11107 		add	r7, r6, #17
 4252              	.LVL276:
 4253              	.L88:
 4254              	.LBB868:
 4255              		.loc 1 404 0
 4256 149e B17B     		ldrb	r1, [r6, #14]	@ zero_extendqisi2
 4257              	.LVL277:
 4258 14a0 2B78     		ldrb	r3, [r5, #0]	@ zero_extendqisi2
 4259 14a2 2278     		ldrb	r2, [r4, #0]	@ zero_extendqisi2
 4260 14a4 CB18     		adds	r3, r1, r3
 4261 14a6 DBB2     		uxtb	r3, r3
 4262              	.LVL278:
 4263 14a8 2B70     		strb	r3, [r5, #0]
 4264 14aa 9B18     		adds	r3, r3, r2
 4265              	.LVL279:
 4266 14ac 2370     		strb	r3, [r4, #0]
 4267 14ae 1248     		ldr	r0, .L120
 4268 14b0 0136     		adds	r6, r6, #1
 4269 14b2 FFF7FEFF 		bl	uart_transmit
 4270              	.LVL280:
 4271              	.LBE868:
 4272 14b6 BE42     		cmp	r6, r7
 4273 14b8 F1D1     		bne	.L88
 4274              	.LBE867:
 4275 14ba 124B     		ldr	r3, .L120+12
 4276 14bc 0E48     		ldr	r0, .L120
 4277 14be 1978     		ldrb	r1, [r3, #0]	@ zero_extendqisi2
 4278 14c0 FFF7FEFF 		bl	uart_transmit
 4279 14c4 104B     		ldr	r3, .L120+16
 4280 14c6 0C48     		ldr	r0, .L120
 4281 14c8 1978     		ldrb	r1, [r3, #0]	@ zero_extendqisi2
 4282 14ca FFF7FEFF 		bl	uart_transmit
 4283 14ce 0DE0     		b	.L89
 4284              	.LVL281:
 4285              	.L87:
 4286 14d0 0F4B     		ldr	r3, .L120+24
 4287 14d2 1A78     		ldrb	r2, [r3, #0]	@ zero_extendqisi2
 4288 14d4 0132     		adds	r2, r2, #1
 4289 14d6 1A70     		strb	r2, [r3, #0]
 4290 14d8 08E0     		b	.L89
 4291              	.LVL282:
 4292              	.L68:
 4293              	.LBE393:
 4294              	.LBE392:
 104:./modules/gps/gps_ubx_ucenter.c ****         gps_ubx_ucenter.cnt++;
 4295              		.loc 1 104 0
 4296 14da 0C4B     		ldr	r3, .L120+20
 4297 14dc 9A78     		ldrb	r2, [r3, #2]	@ zero_extendqisi2
 4298 14de 0132     		adds	r2, r2, #1
 4299 14e0 07E0     		b	.L96
 4300              	.LVL283:
 4301              	.L63:
  87:./modules/gps/gps_ubx_ucenter.c ****         gps_ubx_ucenter.status = GPS_UBX_UCENTER_STATUS_CONFIG;
 4302              		.loc 1 87 0
 4303 14e2 0A4B     		ldr	r3, .L120+20
 4304 14e4 0222     		movs	r2, #2
 4305 14e6 1A70     		strb	r2, [r3, #0]
  88:./modules/gps/gps_ubx_ucenter.c ****         gps_ubx_ucenter.cnt = 0;
 4306              		.loc 1 88 0
 4307 14e8 0022     		movs	r2, #0
 4308 14ea 02E0     		b	.L96
 4309              	.L89:
  99:./modules/gps/gps_ubx_ucenter.c ****         gps_ubx_ucenter.status = GPS_UBX_UCENTER_STATUS_STOPPED;
 4310              		.loc 1 99 0
 4311 14ec 074B     		ldr	r3, .L120+20
 4312 14ee 0022     		movs	r2, #0
 4313 14f0 1A70     		strb	r2, [r3, #0]
 4314              	.LVL284:
 4315              	.L96:
 100:./modules/gps/gps_ubx_ucenter.c ****         gps_ubx_ucenter.cnt = 0;
 4316              		.loc 1 100 0
 4317 14f2 9A70     		strb	r2, [r3, #2]
 4318              	.L51:
 112:./modules/gps/gps_ubx_ucenter.c **** }
 4319              		.loc 1 112 0
 4320 14f4 0BB0     		add	sp, sp, #44
 4321 14f6 F0BD     		pop	{r4, r5, r6, r7, pc}
 4322              	.L121:
 4323              		.align	2
 4324              	.L120:
 4325 14f8 00000000 		.word	uart2
 4326 14fc 00000000 		.word	downlink_nb_bytes
 4327 1500 00000000 		.word	downlink_nb_msgs
 4328 1504 00000000 		.word	ck_a
 4329 1508 00000000 		.word	ck_b
 4330 150c 00000000 		.word	.LANCHOR1
 4331 1510 00000000 		.word	downlink_nb_ovrn
 4332              		.cfi_endproc
 4333              	.LFE31:
 4335              		.section	.text.gps_ubx_ucenter_event,"ax",%progbits
 4336              		.align	1
 4337              		.global	gps_ubx_ucenter_event
 4338              		.thumb
 4339              		.thumb_func
 4341              	gps_ubx_ucenter_event:
 4342              	.LFB32:
 119:./modules/gps/gps_ubx_ucenter.c **** {
 4343              		.loc 1 119 0
 4344              		.cfi_startproc
 4345              		@ args = 0, pretend = 0, frame = 0
 4346              		@ frame_needed = 0, uses_anonymous_args = 0
 4347 0000 10B5     		push	{r4, lr}
 4348              	.LCFI6:
 4349              		.cfi_def_cfa_offset 8
 4350              		.cfi_offset 14, -4
 4351              		.cfi_offset 4, -8
 121:./modules/gps/gps_ubx_ucenter.c ****   if (gps_ubx_ucenter.status == GPS_UBX_UCENTER_STATUS_STOPPED)
 4352              		.loc 1 121 0
 4353 0002 194A     		ldr	r2, .L127
 4354 0004 1378     		ldrb	r3, [r2, #0]	@ zero_extendqisi2
 4355 0006 73B3     		cbz	r3, .L122
 125:./modules/gps/gps_ubx_ucenter.c ****   if (gps_ubx.msg_class == UBX_ACK_ID) {
 4356              		.loc 1 125 0
 4357 0008 184B     		ldr	r3, .L127+4
 4358 000a 93F80811 		ldrb	r1, [r3, #264]	@ zero_extendqisi2
 4359 000e 0529     		cmp	r1, #5
 4360 0010 06D1     		bne	.L124
 126:./modules/gps/gps_ubx_ucenter.c ****     if (gps_ubx.msg_id == UBX_ACK_ACK_ID) {
 4361              		.loc 1 126 0
 4362 0012 93F80731 		ldrb	r3, [r3, #263]	@ zero_extendqisi2
 4363 0016 012B     		cmp	r3, #1
 131:./modules/gps/gps_ubx_ucenter.c ****       gps_ubx_ucenter.reply = GPS_UBX_UCENTER_REPLY_NACK;
 4364              		.loc 1 131 0
 4365 0018 18BF     		it	ne
 4366 001a 0223     		movne	r3, #2
 4367 001c 5370     		strb	r3, [r2, #1]
 4368 001e 10BD     		pop	{r4, pc}
 4369              	.L124:
 135:./modules/gps/gps_ubx_ucenter.c ****   else if (gps_ubx.msg_class == UBX_MON_ID) {
 4370              		.loc 1 135 0
 4371 0020 0A29     		cmp	r1, #10
 4372 0022 20D1     		bne	.L122
 136:./modules/gps/gps_ubx_ucenter.c ****     if (gps_ubx.msg_id == UBX_MON_VER_ID ) {
 4373              		.loc 1 136 0
 4374 0024 93F80701 		ldrb	r0, [r3, #263]	@ zero_extendqisi2
 4375 0028 0428     		cmp	r0, #4
 4376 002a 1CD1     		bne	.L122
 137:./modules/gps/gps_ubx_ucenter.c ****       gps_ubx_ucenter.reply = GPS_UBX_UCENTER_REPLY_VERSION;
 4377              		.loc 1 137 0
 4378 002c 0320     		movs	r0, #3
 4379 002e 5070     		strb	r0, [r2, #1]
 138:./modules/gps/gps_ubx_ucenter.c ****       gps_ubx_ucenter.sw_ver_h = UBX_MON_VER_c(gps_ubx.msg_buf,0) - '0';
 4380              		.loc 1 138 0
 4381 0030 187A     		ldrb	r0, [r3, #8]	@ zero_extendqisi2
 139:./modules/gps/gps_ubx_ucenter.c ****       gps_ubx_ucenter.sw_ver_l = 10*(UBX_MON_VER_c(gps_ubx.msg_buf,2) - '0');
 4382              		.loc 1 139 0
 4383 0032 9C7A     		ldrb	r4, [r3, #10]	@ zero_extendqisi2
 138:./modules/gps/gps_ubx_ucenter.c ****       gps_ubx_ucenter.sw_ver_h = UBX_MON_VER_c(gps_ubx.msg_buf,0) - '0';
 4384              		.loc 1 138 0
 4385 0034 3038     		subs	r0, r0, #48
 4386 0036 1072     		strb	r0, [r2, #8]
 140:./modules/gps/gps_ubx_ucenter.c ****       gps_ubx_ucenter.sw_ver_l += UBX_MON_VER_c(gps_ubx.msg_buf,3) - '0';
 4387              		.loc 1 140 0
 4388 0038 D87A     		ldrb	r0, [r3, #11]	@ zero_extendqisi2
 4389 003a 1038     		subs	r0, r0, #16
 4390 003c 01FB0400 		mla	r0, r1, r4, r0
 4391 0040 5072     		strb	r0, [r2, #9]
 141:./modules/gps/gps_ubx_ucenter.c ****       gps_ubx_ucenter.hw_ver_h = UBX_MON_VER_c(gps_ubx.msg_buf,33) - '0';
 4392              		.loc 1 141 0
 4393 0042 93F82900 		ldrb	r0, [r3, #41]	@ zero_extendqisi2
 142:./modules/gps/gps_ubx_ucenter.c ****       gps_ubx_ucenter.hw_ver_h += 10*(UBX_MON_VER_c(gps_ubx.msg_buf,32) - '0');
 4394              		.loc 1 142 0
 4395 0046 93F82840 		ldrb	r4, [r3, #40]	@ zero_extendqisi2
 4396 004a A0F50470 		sub	r0, r0, #528
 4397 004e 01FB0400 		mla	r0, r1, r4, r0
 4398 0052 5081     		strh	r0, [r2, #10]	@ movhi
 143:./modules/gps/gps_ubx_ucenter.c ****       gps_ubx_ucenter.hw_ver_l = UBX_MON_VER_c(gps_ubx.msg_buf,37) - '0';
 4399              		.loc 1 143 0
 4400 0054 93F82D00 		ldrb	r0, [r3, #45]	@ zero_extendqisi2
 144:./modules/gps/gps_ubx_ucenter.c ****       gps_ubx_ucenter.hw_ver_l += 10*(UBX_MON_VER_c(gps_ubx.msg_buf,36) - '0');
 4401              		.loc 1 144 0
 4402 0058 93F82C30 		ldrb	r3, [r3, #44]	@ zero_extendqisi2
 4403 005c A0F50470 		sub	r0, r0, #528
 4404 0060 01FB0301 		mla	r1, r1, r3, r0
 4405 0064 9181     		strh	r1, [r2, #12]	@ movhi
 4406              	.L122:
 4407 0066 10BD     		pop	{r4, pc}
 4408              	.L128:
 4409              		.align	2
 4410              	.L127:
 4411 0068 00000000 		.word	.LANCHOR1
 4412 006c 00000000 		.word	.LANCHOR0
 4413              		.cfi_endproc
 4414              	.LFE32:
 4416              		.section	.text.ubxsend_cfg_rst,"ax",%progbits
 4417              		.align	1
 4418              		.global	ubxsend_cfg_rst
 4419              		.thumb
 4420              		.thumb_func
 4422              	ubxsend_cfg_rst:
 4423              	.LFB43:
 269:subsystems/gps/gps_ubx.c ****   return;
 270:subsystems/gps/gps_ubx.c **** }
 271:subsystems/gps/gps_ubx.c **** 
 272:subsystems/gps/gps_ubx.c **** #ifdef GPS_UBX_UCENTER
 273:subsystems/gps/gps_ubx.c **** #include GPS_UBX_UCENTER
 274:subsystems/gps/gps_ubx.c **** #endif
 275:subsystems/gps/gps_ubx.c **** 
 276:subsystems/gps/gps_ubx.c **** 
 277:subsystems/gps/gps_ubx.c **** void ubxsend_cfg_rst(uint16_t bbr , uint8_t reset_mode) {
 4424              		.loc 2 277 0
 4425              		.cfi_startproc
 4426              		@ args = 0, pretend = 0, frame = 8
 4427              		@ frame_needed = 0, uses_anonymous_args = 0
 4428              	.LVL285:
 4429 0000 2DE9F743 		push	{r0, r1, r2, r4, r5, r6, r7, r8, r9, lr}
 4430              	.LCFI7:
 4431              		.cfi_def_cfa_offset 40
 4432              		.cfi_offset 14, -4
 4433              		.cfi_offset 9, -8
 4434              		.cfi_offset 8, -12
 4435              		.cfi_offset 7, -16
 4436              		.cfi_offset 6, -20
 4437              		.cfi_offset 5, -24
 4438              		.cfi_offset 4, -28
 4439              		.cfi_offset 2, -32
 4440              		.cfi_offset 1, -36
 4441              		.cfi_offset 0, -40
 4442              	.LBB869:
 278:subsystems/gps/gps_ubx.c **** #ifdef GPS_LINK
 279:subsystems/gps/gps_ubx.c ****   UbxSend_CFG_RST(bbr, reset_mode, 0x00);
 4443              		.loc 2 279 0
 4444 0004 494D     		ldr	r5, .L130
 4445              	.LBE869:
 277:subsystems/gps/gps_ubx.c **** void ubxsend_cfg_rst(uint16_t bbr , uint8_t reset_mode) {
 4446              		.loc 2 277 0
 4447 0006 8146     		mov	r9, r0
 4448 0008 8846     		mov	r8, r1
 4449              	.LBB916:
 4450              		.loc 2 279 0
 4451 000a 2846     		mov	r0, r5
 4452              	.LVL286:
 4453 000c B521     		movs	r1, #181
 4454              	.LVL287:
 4455 000e 484C     		ldr	r4, .L130+4
 4456 0010 FFF7FEFF 		bl	uart_transmit
 4457 0014 2846     		mov	r0, r5
 4458 0016 6221     		movs	r1, #98
 4459 0018 FFF7FEFF 		bl	uart_transmit
 4460 001c 0026     		movs	r6, #0
 4461              	.LBB870:
 4462 001e 2846     		mov	r0, r5
 4463 0020 0621     		movs	r1, #6
 4464              	.LBE870:
 4465 0022 84F81061 		strb	r6, [r4, #272]
 4466 0026 84F80F61 		strb	r6, [r4, #271]
 4467              	.LVL288:
 4468              	.LBB871:
 4469 002a FFF7FEFF 		bl	uart_transmit
 4470 002e 94F80F31 		ldrb	r3, [r4, #271]	@ zero_extendqisi2
 4471 0032 94F81021 		ldrb	r2, [r4, #272]	@ zero_extendqisi2
 4472 0036 0633     		adds	r3, r3, #6
 4473 0038 DBB2     		uxtb	r3, r3
 4474 003a 84F80F31 		strb	r3, [r4, #271]
 4475              	.LBE871:
 4476              	.LBB872:
 4477 003e 2846     		mov	r0, r5
 4478              	.LBE872:
 4479              	.LBB873:
 4480 0040 9B18     		adds	r3, r3, r2
 4481              	.LBE873:
 4482              	.LBB874:
 4483 0042 0421     		movs	r1, #4
 4484              	.LBE874:
 4485              	.LBB875:
 4486 0044 84F81031 		strb	r3, [r4, #272]
 4487              	.LVL289:
 4488              	.LBE875:
 4489              	.LBB876:
 4490 0048 FFF7FEFF 		bl	uart_transmit
 4491 004c 94F80F31 		ldrb	r3, [r4, #271]	@ zero_extendqisi2
 4492 0050 94F81021 		ldrb	r2, [r4, #272]	@ zero_extendqisi2
 4493 0054 0433     		adds	r3, r3, #4
 4494 0056 DBB2     		uxtb	r3, r3
 4495 0058 84F80F31 		strb	r3, [r4, #271]
 4496              	.LBE876:
 4497              	.LBB877:
 4498              	.LBB878:
 4499 005c 2846     		mov	r0, r5
 4500              	.LBE878:
 4501              	.LBE877:
 4502              	.LBB888:
 4503 005e 9B18     		adds	r3, r3, r2
 4504              	.LBE888:
 4505              	.LBB889:
 4506              	.LBB879:
 4507 0060 0421     		movs	r1, #4
 4508              	.LBE879:
 4509              	.LBE889:
 4510              	.LBB890:
 4511 0062 84F81031 		strb	r3, [r4, #272]
 4512              	.LVL290:
 4513              	.LBE890:
 4514              	.LBB891:
 4515              	.LBB880:
 4516 0066 FFF7FEFF 		bl	uart_transmit
 4517 006a 94F80F31 		ldrb	r3, [r4, #271]	@ zero_extendqisi2
 4518 006e 94F81021 		ldrb	r2, [r4, #272]	@ zero_extendqisi2
 4519 0072 0433     		adds	r3, r3, #4
 4520 0074 DBB2     		uxtb	r3, r3
 4521 0076 84F80F31 		strb	r3, [r4, #271]
 4522              	.LBE880:
 4523              	.LBB881:
 4524 007a 2846     		mov	r0, r5
 4525              	.LBE881:
 4526              	.LBB882:
 4527 007c 9B18     		adds	r3, r3, r2
 4528              	.LBE882:
 4529              	.LBB883:
 4530 007e 3146     		mov	r1, r6
 4531              	.LBE883:
 4532              	.LBB884:
 4533 0080 84F81031 		strb	r3, [r4, #272]
 4534              	.LVL291:
 4535              	.LBE884:
 4536              	.LBE891:
 4537 0084 02AF     		add	r7, sp, #8
 4538              	.LBB892:
 4539              	.LBB885:
 4540 0086 FFF7FEFF 		bl	uart_transmit
 4541 008a 94F81021 		ldrb	r2, [r4, #272]	@ zero_extendqisi2
 4542 008e 94F80F31 		ldrb	r3, [r4, #271]	@ zero_extendqisi2
 4543              	.LBE885:
 4544              	.LBE892:
 4545 0092 27F8029D 		strh	r9, [r7, #-2]!	@ movhi
 4546              	.LVL292:
 4547              	.LBB893:
 4548 0096 5FFA89F9 		uxtb	r9, r9
 4549              	.LVL293:
 4550              	.LBE893:
 4551              	.LBB894:
 4552              	.LBB886:
 4553 009a D318     		adds	r3, r2, r3
 4554              	.LBE886:
 4555              	.LBE894:
 4556              	.LBB895:
 4557 009c 2846     		mov	r0, r5
 4558 009e 4946     		mov	r1, r9
 4559              	.LBE895:
 4560              	.LBB896:
 4561              	.LBB887:
 4562 00a0 84F81031 		strb	r3, [r4, #272]
 4563              	.LBE887:
 4564              	.LBE896:
 4565              	.LBB897:
 4566 00a4 FFF7FEFF 		bl	uart_transmit
 4567 00a8 94F80F31 		ldrb	r3, [r4, #271]	@ zero_extendqisi2
 4568              	.LBE897:
 4569              	.LBB898:
 4570 00ac 7F78     		ldrb	r7, [r7, #1]	@ zero_extendqisi2
 4571              	.LVL294:
 4572              	.LBE898:
 4573              	.LBB899:
 4574 00ae 9944     		add	r9, r9, r3
 4575              	.LVL295:
 4576 00b0 94F81031 		ldrb	r3, [r4, #272]	@ zero_extendqisi2
 4577 00b4 5FFA89F9 		uxtb	r9, r9
 4578 00b8 84F80F91 		strb	r9, [r4, #271]
 4579              	.LBE899:
 4580              	.LBB900:
 4581 00bc 2846     		mov	r0, r5
 4582              	.LBE900:
 4583              	.LBB901:
 4584 00be 9944     		add	r9, r9, r3
 4585              	.LBE901:
 4586              	.LBB902:
 4587 00c0 3946     		mov	r1, r7
 4588              	.LBE902:
 4589              	.LBB903:
 4590 00c2 84F81091 		strb	r9, [r4, #272]
 4591              	.LBE903:
 4592              	.LBB904:
 4593 00c6 FFF7FEFF 		bl	uart_transmit
 4594 00ca 94F80F31 		ldrb	r3, [r4, #271]	@ zero_extendqisi2
 4595              	.LBE904:
 4596              	.LBB905:
 4597 00ce 2846     		mov	r0, r5
 4598              	.LBE905:
 4599              	.LBB906:
 4600 00d0 FF18     		adds	r7, r7, r3
 4601              	.LVL296:
 4602 00d2 94F81031 		ldrb	r3, [r4, #272]	@ zero_extendqisi2
 4603 00d6 FFB2     		uxtb	r7, r7
 4604 00d8 84F80F71 		strb	r7, [r4, #271]
 4605              	.LBE906:
 4606              	.LBB907:
 4607 00dc 4146     		mov	r1, r8
 4608              	.LBE907:
 4609              	.LBB908:
 4610 00de FF18     		adds	r7, r7, r3
 4611 00e0 84F81071 		strb	r7, [r4, #272]
 4612              	.LVL297:
 4613              	.LBE908:
 4614              	.LBB909:
 4615 00e4 FFF7FEFF 		bl	uart_transmit
 4616 00e8 94F80F31 		ldrb	r3, [r4, #271]	@ zero_extendqisi2
 4617              	.LBE909:
 4618              	.LBB910:
 4619 00ec 2846     		mov	r0, r5
 4620              	.LBE910:
 4621              	.LBB911:
 4622 00ee 9844     		add	r8, r8, r3
 4623              	.LVL298:
 4624 00f0 94F81031 		ldrb	r3, [r4, #272]	@ zero_extendqisi2
 4625 00f4 5FFA88F8 		uxtb	r8, r8
 4626 00f8 84F80F81 		strb	r8, [r4, #271]
 4627              	.LBE911:
 4628              	.LBB912:
 4629 00fc 3146     		mov	r1, r6
 4630              	.LBE912:
 4631              	.LBB913:
 4632 00fe 9844     		add	r8, r8, r3
 4633 0100 84F81081 		strb	r8, [r4, #272]
 4634              	.LVL299:
 4635              	.LBE913:
 4636              	.LBB914:
 4637 0104 FFF7FEFF 		bl	uart_transmit
 4638 0108 94F80F11 		ldrb	r1, [r4, #271]	@ zero_extendqisi2
 4639 010c 94F81031 		ldrb	r3, [r4, #272]	@ zero_extendqisi2
 4640              	.LBE914:
 4641 0110 2846     		mov	r0, r5
 4642              	.LBB915:
 4643 0112 CB18     		adds	r3, r1, r3
 4644 0114 84F81031 		strb	r3, [r4, #272]
 4645              	.LBE915:
 4646 0118 FFF7FEFF 		bl	uart_transmit
 4647 011c 94F81011 		ldrb	r1, [r4, #272]	@ zero_extendqisi2
 4648 0120 2846     		mov	r0, r5
 4649              	.LBE916:
 280:subsystems/gps/gps_ubx.c **** #endif /* else less harmful for HITL */
 281:subsystems/gps/gps_ubx.c **** }
 4650              		.loc 2 281 0
 4651 0122 03B0     		add	sp, sp, #12
 4652 0124 BDE8F043 		pop	{r4, r5, r6, r7, r8, r9, lr}
 4653              	.LBB917:
 279:subsystems/gps/gps_ubx.c ****   UbxSend_CFG_RST(bbr, reset_mode, 0x00);
 4654              		.loc 2 279 0
 4655 0128 FFF7FEBF 		b	uart_transmit
 4656              	.L131:
 4657              		.align	2
 4658              	.L130:
 4659 012c 00000000 		.word	uart3
 4660 0130 00000000 		.word	.LANCHOR0
 4661              	.LBE917:
 4662              		.cfi_endproc
 4663              	.LFE43:
 4665              		.global	gps_ubx_ucenter
 4666              		.global	gps_ubx
 4667              		.section	.bss.gps_ubx_ucenter,"aw",%nobits
 4668              		.align	1
 4669              		.set	.LANCHOR1,. + 0
 4672              	gps_ubx_ucenter:
 4673 0000 00000000 		.space	32
 4673      00000000 
 4673      00000000 
 4673      00000000 
 4673      00000000 
 4674              		.section	.bss.gps_ubx,"aw",%nobits
 4675              		.align	3
 4676              		.set	.LANCHOR0,. + 0
 4679              	gps_ubx:
 4680 0000 00000000 		.space	280
 4680      00000000 
 4680      00000000 
 4680      00000000 
 4680      00000000 
 4681              		.text
 4682              	.Letext0:
 4683              		.file 3 "/opt/paparazzi/arm-multilib/lib/gcc/arm-none-eabi/4.6.2/../../../../arm-none-eabi/include
 4684              		.file 4 "/home/uav/USTUAV/paparazzi/sw/include/std.h"
 4685              		.file 5 "./math/pprz_geodetic_int.h"
 4686              		.file 6 "./mcu_periph/uart.h"
 4687              		.file 7 "./subsystems/gps/gps_ubx.h"
 4688              		.file 8 "./subsystems/gps.h"
 4689              		.file 9 "/opt/paparazzi/arm-multilib/lib/gcc/arm-none-eabi/4.6.2/../../../../arm-none-eabi/include
 4690              		.file 10 "./math/pprz_geodetic_float.h"
 4691              		.file 11 "./modules/gps/gps_ubx_ucenter.h"
 4692              		.file 12 "./subsystems/navigation/common_nav.h"
 4693              		.file 13 "./subsystems/datalink/datalink.h"
 4694              		.file 14 "./subsystems/datalink/pprz_transport.h"
 4695              		.file 15 "./subsystems/datalink/xbee.h"
 4696              		.file 16 "./subsystems/datalink/downlink.h"