   1              		.syntax unified
   2              		.cpu cortex-m3
   3              		.fpu softvfp
   4              		.eabi_attribute 20, 1
   5              		.eabi_attribute 21, 1
   6              		.eabi_attribute 23, 3
   7              		.eabi_attribute 24, 1
   8              		.eabi_attribute 25, 1
   9              		.eabi_attribute 26, 1
  10              		.eabi_attribute 30, 4
  11              		.eabi_attribute 18, 4
  12              		.thumb
  13              		.file	"main_ap.c"
  14              		.text
  15              	.Ltext0:
  16              		.cfi_sections	.debug_frame
  17              		.section	.text.init_ap,"ax",%progbits
  18              		.align	1
  19              		.global	init_ap
  20              		.thumb
  21              		.thumb_func
  23              	init_ap:
  24              	.LFB48:
  25              		.file 1 "firmwares/fixedwing/main_ap.c"
   1:firmwares/fixedwing/main_ap.c **** /*
   2:firmwares/fixedwing/main_ap.c ****  * $Id$
   3:firmwares/fixedwing/main_ap.c ****  *
   4:firmwares/fixedwing/main_ap.c ****  * Copyright (C) 2003-2010  The Paparazzi Team
   5:firmwares/fixedwing/main_ap.c ****  *
   6:firmwares/fixedwing/main_ap.c ****  * This file is part of paparazzi.
   7:firmwares/fixedwing/main_ap.c ****  *
   8:firmwares/fixedwing/main_ap.c ****  * paparazzi is free software; you can redistribute it and/or modify
   9:firmwares/fixedwing/main_ap.c ****  * it under the terms of the GNU General Public License as published by
  10:firmwares/fixedwing/main_ap.c ****  * the Free Software Foundation; either version 2, or (at your option)
  11:firmwares/fixedwing/main_ap.c ****  * any later version.
  12:firmwares/fixedwing/main_ap.c ****  *
  13:firmwares/fixedwing/main_ap.c ****  * paparazzi is distributed in the hope that it will be useful,
  14:firmwares/fixedwing/main_ap.c ****  * but WITHOUT ANY WARRANTY; without even the implied warranty of
  15:firmwares/fixedwing/main_ap.c ****  * MERCHANTABILITY or FITNESS FOR A PARTICULAR PURPOSE.  See the
  16:firmwares/fixedwing/main_ap.c ****  * GNU General Public License for more details.
  17:firmwares/fixedwing/main_ap.c ****  *
  18:firmwares/fixedwing/main_ap.c ****  * You should have received a copy of the GNU General Public License
  19:firmwares/fixedwing/main_ap.c ****  * along with paparazzi; see the file COPYING.  If not, write to
  20:firmwares/fixedwing/main_ap.c ****  * the Free Software Foundation, 59 Temple Place - Suite 330,
  21:firmwares/fixedwing/main_ap.c ****  * Boston, MA 02111-1307, USA.
  22:firmwares/fixedwing/main_ap.c ****  *
  23:firmwares/fixedwing/main_ap.c ****  */
  24:firmwares/fixedwing/main_ap.c **** 
  25:firmwares/fixedwing/main_ap.c **** /**
  26:firmwares/fixedwing/main_ap.c ****  * @file main_ap.c
  27:firmwares/fixedwing/main_ap.c ****  * AP ( AutoPilot ) tasks
  28:firmwares/fixedwing/main_ap.c ****  *
  29:firmwares/fixedwing/main_ap.c ****  * This process is reponsible for the collecting the different sensors data, fusing them to obtain
  30:firmwares/fixedwing/main_ap.c ****  * aircraft attitude and running the different control loops
  31:firmwares/fixedwing/main_ap.c ****  */
  32:firmwares/fixedwing/main_ap.c **** 
  33:firmwares/fixedwing/main_ap.c **** #define MODULES_C
  34:firmwares/fixedwing/main_ap.c **** 
  35:firmwares/fixedwing/main_ap.c **** #include <math.h>
  36:firmwares/fixedwing/main_ap.c **** 
  37:firmwares/fixedwing/main_ap.c **** #include "firmwares/fixedwing/main_ap.h"
  38:firmwares/fixedwing/main_ap.c **** #include "mcu.h"
  39:firmwares/fixedwing/main_ap.c **** #include "mcu_periph/sys_time.h"
  40:firmwares/fixedwing/main_ap.c **** 
  41:firmwares/fixedwing/main_ap.c **** #include "link_mcu.h"
  42:firmwares/fixedwing/main_ap.c **** 
  43:firmwares/fixedwing/main_ap.c **** // Sensors
  44:firmwares/fixedwing/main_ap.c **** #if USE_GPS
  45:firmwares/fixedwing/main_ap.c **** #include "subsystems/gps.h"
  46:firmwares/fixedwing/main_ap.c **** #endif
  47:firmwares/fixedwing/main_ap.c **** #if USE_IMU
  48:firmwares/fixedwing/main_ap.c **** #include "subsystems/imu.h"
  49:firmwares/fixedwing/main_ap.c **** #endif
  50:firmwares/fixedwing/main_ap.c **** #if USE_AHRS
  51:firmwares/fixedwing/main_ap.c **** #include "subsystems/ahrs.h"
  52:firmwares/fixedwing/main_ap.c **** #endif
  53:firmwares/fixedwing/main_ap.c **** #if USE_AHRS_ALIGNER
  54:firmwares/fixedwing/main_ap.c **** #include "subsystems/ahrs/ahrs_aligner.h"
  55:firmwares/fixedwing/main_ap.c **** #endif
  56:firmwares/fixedwing/main_ap.c **** 
  57:firmwares/fixedwing/main_ap.c **** // autopilot & control
  58:firmwares/fixedwing/main_ap.c **** #include "firmwares/fixedwing/autopilot.h"
  59:firmwares/fixedwing/main_ap.c **** #include "estimator.h"
  60:firmwares/fixedwing/main_ap.c **** #include "firmwares/fixedwing/stabilization/stabilization_attitude.h"
  61:firmwares/fixedwing/main_ap.c **** #include "firmwares/fixedwing/guidance/guidance_v.h"
  62:firmwares/fixedwing/main_ap.c **** #include "subsystems/nav.h"
  63:firmwares/fixedwing/main_ap.c **** #include "generated/flight_plan.h"
  64:firmwares/fixedwing/main_ap.c **** #ifdef TRAFFIC_INFO
  65:firmwares/fixedwing/main_ap.c **** #include "subsystems/navigation/traffic_info.h"
  66:firmwares/fixedwing/main_ap.c **** #endif
  67:firmwares/fixedwing/main_ap.c **** 
  68:firmwares/fixedwing/main_ap.c **** // datalink & telemetry
  69:firmwares/fixedwing/main_ap.c **** #include "subsystems/datalink/datalink.h"
  70:firmwares/fixedwing/main_ap.c **** #include "subsystems/settings.h"
  71:firmwares/fixedwing/main_ap.c **** #include "subsystems/datalink/xbee.h"
  72:firmwares/fixedwing/main_ap.c **** #include "firmwares/fixedwing/ap_downlink.h"
  73:firmwares/fixedwing/main_ap.c **** 
  74:firmwares/fixedwing/main_ap.c **** // modules & settings
  75:firmwares/fixedwing/main_ap.c **** #include "generated/modules.h"
  76:firmwares/fixedwing/main_ap.c **** #include "generated/settings.h"
  77:firmwares/fixedwing/main_ap.c **** #if defined RADIO_CONTROL || defined RADIO_CONTROL_AUTO1
  78:firmwares/fixedwing/main_ap.c **** #include "rc_settings.h"
  79:firmwares/fixedwing/main_ap.c **** #endif
  80:firmwares/fixedwing/main_ap.c **** 
  81:firmwares/fixedwing/main_ap.c **** #include "gpio.h"
  82:firmwares/fixedwing/main_ap.c **** #include "led.h"
  83:firmwares/fixedwing/main_ap.c **** 
  84:firmwares/fixedwing/main_ap.c **** #if defined RADIO_CONTROL
  85:firmwares/fixedwing/main_ap.c **** #pragma message "CAUTION! radio control roll channel input has been changed to follow aerospace sig
  86:firmwares/fixedwing/main_ap.c **** #endif
  87:firmwares/fixedwing/main_ap.c **** 
  88:firmwares/fixedwing/main_ap.c **** 
  89:firmwares/fixedwing/main_ap.c **** 
  90:firmwares/fixedwing/main_ap.c **** #if USE_AHRS
  91:firmwares/fixedwing/main_ap.c **** #if USE_IMU
  92:firmwares/fixedwing/main_ap.c **** static inline void on_gyro_event( void );
  93:firmwares/fixedwing/main_ap.c **** static inline void on_accel_event( void );
  94:firmwares/fixedwing/main_ap.c **** static inline void on_mag_event( void );
  95:firmwares/fixedwing/main_ap.c **** volatile uint8_t ahrs_timeout_counter = 0;
  96:firmwares/fixedwing/main_ap.c **** #else
  97:firmwares/fixedwing/main_ap.c **** static inline void on_ahrs_event(void);
  98:firmwares/fixedwing/main_ap.c **** #endif // USE_IMU
  99:firmwares/fixedwing/main_ap.c **** #endif // USE_AHRS
 100:firmwares/fixedwing/main_ap.c **** 
 101:firmwares/fixedwing/main_ap.c **** #if USE_GPS
 102:firmwares/fixedwing/main_ap.c **** static inline void on_gps_solution( void );
 103:firmwares/fixedwing/main_ap.c **** #endif
 104:firmwares/fixedwing/main_ap.c **** 
 105:firmwares/fixedwing/main_ap.c **** 
 106:firmwares/fixedwing/main_ap.c **** bool_t power_switch;
 107:firmwares/fixedwing/main_ap.c **** 
 108:firmwares/fixedwing/main_ap.c **** // what version is this ????
 109:firmwares/fixedwing/main_ap.c **** static const uint16_t version = 1;
 110:firmwares/fixedwing/main_ap.c **** 
 111:firmwares/fixedwing/main_ap.c **** uint8_t pprz_mode = PPRZ_MODE_AUTO2;
 112:firmwares/fixedwing/main_ap.c **** uint8_t lateral_mode = LATERAL_MODE_MANUAL;
 113:firmwares/fixedwing/main_ap.c **** 
 114:firmwares/fixedwing/main_ap.c **** static uint8_t  mcu1_status;
 115:firmwares/fixedwing/main_ap.c **** 
 116:firmwares/fixedwing/main_ap.c **** #if defined RADIO_CONTROL || defined RADIO_CONTROL_AUTO1
 117:firmwares/fixedwing/main_ap.c **** static uint8_t  mcu1_ppm_cpt;
 118:firmwares/fixedwing/main_ap.c **** #endif
 119:firmwares/fixedwing/main_ap.c **** 
 120:firmwares/fixedwing/main_ap.c **** bool_t kill_throttle = FALSE;
 121:firmwares/fixedwing/main_ap.c **** 
 122:firmwares/fixedwing/main_ap.c **** bool_t launch = FALSE;
 123:firmwares/fixedwing/main_ap.c **** 
 124:firmwares/fixedwing/main_ap.c **** 
 125:firmwares/fixedwing/main_ap.c **** /** Supply voltage in deciVolt.
 126:firmwares/fixedwing/main_ap.c ****  * This the ap copy of the measurement from fbw
 127:firmwares/fixedwing/main_ap.c ****  */
 128:firmwares/fixedwing/main_ap.c **** uint8_t vsupply;
 129:firmwares/fixedwing/main_ap.c **** 
 130:firmwares/fixedwing/main_ap.c **** /** Supply current in milliAmpere.
 131:firmwares/fixedwing/main_ap.c ****  * This the ap copy of the measurement from fbw
 132:firmwares/fixedwing/main_ap.c ****  */
 133:firmwares/fixedwing/main_ap.c **** static int32_t current;	// milliAmpere
 134:firmwares/fixedwing/main_ap.c **** 
 135:firmwares/fixedwing/main_ap.c **** /** Fuel consumption (mAh)
 136:firmwares/fixedwing/main_ap.c ****  * TODO: move to electrical subsystem
 137:firmwares/fixedwing/main_ap.c ****  */
 138:firmwares/fixedwing/main_ap.c **** float energy;
 139:firmwares/fixedwing/main_ap.c **** 
 140:firmwares/fixedwing/main_ap.c **** bool_t gps_lost = FALSE;
 141:firmwares/fixedwing/main_ap.c **** 
 142:firmwares/fixedwing/main_ap.c **** 
 143:firmwares/fixedwing/main_ap.c **** tid_t modules_tid;     ///< id for modules_periodic_task() timer
 144:firmwares/fixedwing/main_ap.c **** tid_t telemetry_tid;   ///< id for telemetry_periodic() timer
 145:firmwares/fixedwing/main_ap.c **** tid_t sensors_tid;     ///< id for sensors_task() timer
 146:firmwares/fixedwing/main_ap.c **** tid_t attitude_tid;    ///< id for attitude_loop() timer
 147:firmwares/fixedwing/main_ap.c **** tid_t navigation_tid;  ///< id for navigation_task() timer
 148:firmwares/fixedwing/main_ap.c **** tid_t monitor_tid;     ///< id for monitor_task() timer
 149:firmwares/fixedwing/main_ap.c **** 
 150:firmwares/fixedwing/main_ap.c **** #ifndef CONTROL_FREQUENCY
 151:firmwares/fixedwing/main_ap.c **** #ifdef  CONTROL_RATE
 152:firmwares/fixedwing/main_ap.c **** #define CONTROL_FREQUENCY CONTROL_RATE
 153:firmwares/fixedwing/main_ap.c **** //#warning "CONTROL_RATE deprecated. Renamed into CONTROL_FREQUENCY (in airframe file)"
 154:firmwares/fixedwing/main_ap.c **** #else
 155:firmwares/fixedwing/main_ap.c **** #define CONTROL_FREQUENCY 20
 156:firmwares/fixedwing/main_ap.c **** #endif
 157:firmwares/fixedwing/main_ap.c **** #endif
 158:firmwares/fixedwing/main_ap.c **** 
 159:firmwares/fixedwing/main_ap.c **** #ifndef NAVIGATION_FREQUENCY
 160:firmwares/fixedwing/main_ap.c **** #define NAVIGATION_FREQUENCY 4
 161:firmwares/fixedwing/main_ap.c **** #endif
 162:firmwares/fixedwing/main_ap.c **** 
 163:firmwares/fixedwing/main_ap.c **** #ifndef MODULES_FREQUENCY
 164:firmwares/fixedwing/main_ap.c **** #define MODULES_FREQUENCY 60
 165:firmwares/fixedwing/main_ap.c **** #endif
 166:firmwares/fixedwing/main_ap.c **** 
 167:firmwares/fixedwing/main_ap.c **** void init_ap( void ) {
  26              		.loc 1 167 0
  27              		.cfi_startproc
  28              		@ args = 0, pretend = 0, frame = 0
  29              		@ frame_needed = 0, uses_anonymous_args = 0
  30 0000 10B5     		push	{r4, lr}
  31              	.LCFI0:
  32              		.cfi_def_cfa_offset 8
  33              		.cfi_offset 14, -4
  34              		.cfi_offset 4, -8
 168:firmwares/fixedwing/main_ap.c **** #ifndef SINGLE_MCU /** init done in main_fbw in single MCU */
 169:firmwares/fixedwing/main_ap.c ****   mcu_init();
 170:firmwares/fixedwing/main_ap.c **** #endif /* SINGLE_MCU */
 171:firmwares/fixedwing/main_ap.c **** 
 172:firmwares/fixedwing/main_ap.c ****   /************* Sensors initialization ***************/
 173:firmwares/fixedwing/main_ap.c **** #if USE_GPS
 174:firmwares/fixedwing/main_ap.c ****   gps_init();
  35              		.loc 1 174 0
  36 0002 FFF7FEFF 		bl	gps_init
 175:firmwares/fixedwing/main_ap.c **** #endif
 176:firmwares/fixedwing/main_ap.c **** 
 177:firmwares/fixedwing/main_ap.c **** #ifdef USE_GPIO
 178:firmwares/fixedwing/main_ap.c ****   GpioInit();
 179:firmwares/fixedwing/main_ap.c **** #endif
 180:firmwares/fixedwing/main_ap.c **** 
 181:firmwares/fixedwing/main_ap.c **** #if USE_IMU
 182:firmwares/fixedwing/main_ap.c ****   imu_init();
  37              		.loc 1 182 0
  38 0006 FFF7FEFF 		bl	imu_init
 183:firmwares/fixedwing/main_ap.c **** #endif
 184:firmwares/fixedwing/main_ap.c **** 
 185:firmwares/fixedwing/main_ap.c **** #if USE_AHRS_ALIGNER
 186:firmwares/fixedwing/main_ap.c ****   ahrs_aligner_init();
  39              		.loc 1 186 0
  40 000a FFF7FEFF 		bl	ahrs_aligner_init
 187:firmwares/fixedwing/main_ap.c **** #endif
 188:firmwares/fixedwing/main_ap.c **** 
 189:firmwares/fixedwing/main_ap.c **** #if USE_AHRS
 190:firmwares/fixedwing/main_ap.c ****   ahrs_init();
  41              		.loc 1 190 0
  42 000e FFF7FEFF 		bl	ahrs_init
 191:firmwares/fixedwing/main_ap.c **** #endif
 192:firmwares/fixedwing/main_ap.c **** 
 193:firmwares/fixedwing/main_ap.c ****   /************* Links initialization ***************/
 194:firmwares/fixedwing/main_ap.c **** #if defined MCU_SPI_LINK
 195:firmwares/fixedwing/main_ap.c ****   link_mcu_init();
 196:firmwares/fixedwing/main_ap.c **** #endif
 197:firmwares/fixedwing/main_ap.c **** #if USE_AUDIO_TELEMETRY
 198:firmwares/fixedwing/main_ap.c ****   audio_telemetry_init();
 199:firmwares/fixedwing/main_ap.c **** #endif
 200:firmwares/fixedwing/main_ap.c **** 
 201:firmwares/fixedwing/main_ap.c ****   /************ Internal status ***************/
 202:firmwares/fixedwing/main_ap.c ****   h_ctl_init();
  43              		.loc 1 202 0
  44 0012 FFF7FEFF 		bl	h_ctl_init
 203:firmwares/fixedwing/main_ap.c ****   v_ctl_init();
  45              		.loc 1 203 0
  46 0016 FFF7FEFF 		bl	v_ctl_init
 204:firmwares/fixedwing/main_ap.c ****   estimator_init();
  47              		.loc 1 204 0
  48 001a FFF7FEFF 		bl	estimator_init
 205:firmwares/fixedwing/main_ap.c **** #ifdef ALT_KALMAN
 206:firmwares/fixedwing/main_ap.c ****   alt_kalman_init();
  49              		.loc 1 206 0
  50 001e FFF7FEFF 		bl	alt_kalman_init
 207:firmwares/fixedwing/main_ap.c **** #endif
 208:firmwares/fixedwing/main_ap.c ****   nav_init();
  51              		.loc 1 208 0
  52 0022 FFF7FEFF 		bl	nav_init
  53              	.LBB105:
  54              	.LBB106:
  55              		.file 2 "/home/uav/USTUAV/paparazzi/var/MYAC/generated/modules.h"
   1:/home/uav/USTUAV/paparazzi/var/MYAC/generated/modules.h **** /* This file has been generated from /home/uav/USTUAV/paparazzi/conf/airframes/examples/LisaM2_Nov2
   2:/home/uav/USTUAV/paparazzi/var/MYAC/generated/modules.h **** /* Please DO NOT EDIT */
   3:/home/uav/USTUAV/paparazzi/var/MYAC/generated/modules.h **** 
   4:/home/uav/USTUAV/paparazzi/var/MYAC/generated/modules.h **** #ifndef MODULES_H
   5:/home/uav/USTUAV/paparazzi/var/MYAC/generated/modules.h **** #define MODULES_H
   6:/home/uav/USTUAV/paparazzi/var/MYAC/generated/modules.h **** 
   7:/home/uav/USTUAV/paparazzi/var/MYAC/generated/modules.h **** #define MODULES_IDLE  0
   8:/home/uav/USTUAV/paparazzi/var/MYAC/generated/modules.h **** #define MODULES_RUN   1
   9:/home/uav/USTUAV/paparazzi/var/MYAC/generated/modules.h **** #define MODULES_START 2
  10:/home/uav/USTUAV/paparazzi/var/MYAC/generated/modules.h **** #define MODULES_STOP  3
  11:/home/uav/USTUAV/paparazzi/var/MYAC/generated/modules.h **** 
  12:/home/uav/USTUAV/paparazzi/var/MYAC/generated/modules.h **** #ifdef MODULES_C
  13:/home/uav/USTUAV/paparazzi/var/MYAC/generated/modules.h **** #define EXTERN_MODULES
  14:/home/uav/USTUAV/paparazzi/var/MYAC/generated/modules.h **** #else
  15:/home/uav/USTUAV/paparazzi/var/MYAC/generated/modules.h **** #define EXTERN_MODULES extern
  16:/home/uav/USTUAV/paparazzi/var/MYAC/generated/modules.h **** #endif
  17:/home/uav/USTUAV/paparazzi/var/MYAC/generated/modules.h **** #include "std.h"
  18:/home/uav/USTUAV/paparazzi/var/MYAC/generated/modules.h **** #include "gps/gps_ubx_ucenter.h"
  19:/home/uav/USTUAV/paparazzi/var/MYAC/generated/modules.h **** #include "core/sys_mon.h"
  20:/home/uav/USTUAV/paparazzi/var/MYAC/generated/modules.h **** #include "adcs/adc_generic.h"
  21:/home/uav/USTUAV/paparazzi/var/MYAC/generated/modules.h **** 
  22:/home/uav/USTUAV/paparazzi/var/MYAC/generated/modules.h **** #define GPS_UBX_UCENTER_PERIODIC_PERIOD 0.250000
  23:/home/uav/USTUAV/paparazzi/var/MYAC/generated/modules.h **** #define GPS_UBX_UCENTER_PERIODIC_FREQ 4.000000
  24:/home/uav/USTUAV/paparazzi/var/MYAC/generated/modules.h **** #define PERIODIC_REPORT_SYSMON_PERIOD 1.000000
  25:/home/uav/USTUAV/paparazzi/var/MYAC/generated/modules.h **** #define PERIODIC_REPORT_SYSMON_FREQ 1.000000
  26:/home/uav/USTUAV/paparazzi/var/MYAC/generated/modules.h **** #define PERIODIC_SYSMON_PERIOD 0.016667
  27:/home/uav/USTUAV/paparazzi/var/MYAC/generated/modules.h **** #define PERIODIC_SYSMON_FREQ 60.000000
  28:/home/uav/USTUAV/paparazzi/var/MYAC/generated/modules.h **** #define ADC_GENERIC_PERIODIC_PERIOD 0.250000
  29:/home/uav/USTUAV/paparazzi/var/MYAC/generated/modules.h **** #define ADC_GENERIC_PERIODIC_FREQ 4.000000
  30:/home/uav/USTUAV/paparazzi/var/MYAC/generated/modules.h **** 
  31:/home/uav/USTUAV/paparazzi/var/MYAC/generated/modules.h **** EXTERN_MODULES uint8_t gps_ubx_gps_ubx_ucenter_periodic_status;
  32:/home/uav/USTUAV/paparazzi/var/MYAC/generated/modules.h **** 
  33:/home/uav/USTUAV/paparazzi/var/MYAC/generated/modules.h **** #ifdef MODULES_C
  34:/home/uav/USTUAV/paparazzi/var/MYAC/generated/modules.h **** 
  35:/home/uav/USTUAV/paparazzi/var/MYAC/generated/modules.h **** static inline void modules_init(void) {
  36:/home/uav/USTUAV/paparazzi/var/MYAC/generated/modules.h ****   gps_ubx_ucenter_init();
  56              		.loc 2 36 0
  57 0026 FFF7FEFF 		bl	gps_ubx_ucenter_init
  37:/home/uav/USTUAV/paparazzi/var/MYAC/generated/modules.h ****   gps_ubx_gps_ubx_ucenter_periodic_status = MODULES_START;
  58              		.loc 2 37 0
  59 002a 1B4B     		ldr	r3, .L2
  60 002c 0222     		movs	r2, #2
  61 002e 1A70     		strb	r2, [r3, #0]
  38:/home/uav/USTUAV/paparazzi/var/MYAC/generated/modules.h ****   init_sysmon();
  62              		.loc 2 38 0
  63 0030 FFF7FEFF 		bl	init_sysmon
  39:/home/uav/USTUAV/paparazzi/var/MYAC/generated/modules.h ****   adc_generic_init();
  64              		.loc 2 39 0
  65 0034 FFF7FEFF 		bl	adc_generic_init
  66              	.LBE106:
  67              	.LBE105:
 209:firmwares/fixedwing/main_ap.c **** 
 210:firmwares/fixedwing/main_ap.c ****   modules_init();
 211:firmwares/fixedwing/main_ap.c **** 
 212:firmwares/fixedwing/main_ap.c ****   settings_init();
  68              		.loc 1 212 0
  69 0038 FFF7FEFF 		bl	settings_init
 213:firmwares/fixedwing/main_ap.c **** 
 214:firmwares/fixedwing/main_ap.c ****   /**** start timers for periodic functions *****/
 215:firmwares/fixedwing/main_ap.c ****   sensors_tid = sys_time_register_timer(1./PERIODIC_FREQUENCY, NULL);
  70              		.loc 1 215 0
  71 003c 0021     		movs	r1, #0
  72 003e 1748     		ldr	r0, .L2+4
  73 0040 FFF7FEFF 		bl	sys_time_register_timer
  74 0044 164B     		ldr	r3, .L2+8
 216:firmwares/fixedwing/main_ap.c ****   navigation_tid = sys_time_register_timer(1./NAVIGATION_FREQUENCY, NULL);
  75              		.loc 1 216 0
  76 0046 0021     		movs	r1, #0
 215:firmwares/fixedwing/main_ap.c ****   sensors_tid = sys_time_register_timer(1./PERIODIC_FREQUENCY, NULL);
  77              		.loc 1 215 0
  78 0048 1870     		strb	r0, [r3, #0]
  79              		.loc 1 216 0
  80 004a 4FF07A50 		mov	r0, #1048576000
  81 004e FFF7FEFF 		bl	sys_time_register_timer
 217:firmwares/fixedwing/main_ap.c ****   attitude_tid = sys_time_register_timer(1./CONTROL_FREQUENCY, NULL);
  82              		.loc 1 217 0
  83 0052 144C     		ldr	r4, .L2+12
 216:firmwares/fixedwing/main_ap.c ****   navigation_tid = sys_time_register_timer(1./NAVIGATION_FREQUENCY, NULL);
  84              		.loc 1 216 0
  85 0054 144B     		ldr	r3, .L2+16
  86              		.loc 1 217 0
  87 0056 0021     		movs	r1, #0
 216:firmwares/fixedwing/main_ap.c ****   navigation_tid = sys_time_register_timer(1./NAVIGATION_FREQUENCY, NULL);
  88              		.loc 1 216 0
  89 0058 1870     		strb	r0, [r3, #0]
  90              		.loc 1 217 0
  91 005a 2046     		mov	r0, r4
  92 005c FFF7FEFF 		bl	sys_time_register_timer
  93 0060 124B     		ldr	r3, .L2+20
 218:firmwares/fixedwing/main_ap.c ****   modules_tid = sys_time_register_timer(1./MODULES_FREQUENCY, NULL);
  94              		.loc 1 218 0
  95 0062 0021     		movs	r1, #0
 217:firmwares/fixedwing/main_ap.c ****   attitude_tid = sys_time_register_timer(1./CONTROL_FREQUENCY, NULL);
  96              		.loc 1 217 0
  97 0064 1870     		strb	r0, [r3, #0]
  98              		.loc 1 218 0
  99 0066 2046     		mov	r0, r4
 100 0068 FFF7FEFF 		bl	sys_time_register_timer
 101 006c 104B     		ldr	r3, .L2+24
 219:firmwares/fixedwing/main_ap.c ****   telemetry_tid = sys_time_register_timer(1./60, NULL);
 102              		.loc 1 219 0
 103 006e 0021     		movs	r1, #0
 218:firmwares/fixedwing/main_ap.c ****   modules_tid = sys_time_register_timer(1./MODULES_FREQUENCY, NULL);
 104              		.loc 1 218 0
 105 0070 1870     		strb	r0, [r3, #0]
 106              		.loc 1 219 0
 107 0072 2046     		mov	r0, r4
 108 0074 FFF7FEFF 		bl	sys_time_register_timer
 109 0078 0E4B     		ldr	r3, .L2+28
 220:firmwares/fixedwing/main_ap.c ****   monitor_tid = sys_time_register_timer(1.0, NULL);
 110              		.loc 1 220 0
 111 007a 0021     		movs	r1, #0
 219:firmwares/fixedwing/main_ap.c ****   telemetry_tid = sys_time_register_timer(1./60, NULL);
 112              		.loc 1 219 0
 113 007c 1870     		strb	r0, [r3, #0]
 114              		.loc 1 220 0
 115 007e 4FF07E50 		mov	r0, #1065353216
 116 0082 FFF7FEFF 		bl	sys_time_register_timer
 117 0086 0C4B     		ldr	r3, .L2+32
 221:firmwares/fixedwing/main_ap.c **** 
 222:firmwares/fixedwing/main_ap.c ****   /** - start interrupt task */
 223:firmwares/fixedwing/main_ap.c ****   mcu_int_enable();
 224:firmwares/fixedwing/main_ap.c **** 
 225:firmwares/fixedwing/main_ap.c **** #if defined DATALINK
 226:firmwares/fixedwing/main_ap.c **** #if DATALINK == XBEE
 227:firmwares/fixedwing/main_ap.c ****   xbee_init();
 228:firmwares/fixedwing/main_ap.c **** #endif
 229:firmwares/fixedwing/main_ap.c **** #endif /* DATALINK */
 230:firmwares/fixedwing/main_ap.c **** 
 231:firmwares/fixedwing/main_ap.c **** #if defined AEROCOMM_DATA_PIN
 232:firmwares/fixedwing/main_ap.c ****   IO0DIR |= _BV(AEROCOMM_DATA_PIN);
 233:firmwares/fixedwing/main_ap.c ****   IO0SET = _BV(AEROCOMM_DATA_PIN);
 234:firmwares/fixedwing/main_ap.c **** #endif
 235:firmwares/fixedwing/main_ap.c **** 
 236:firmwares/fixedwing/main_ap.c ****   power_switch = FALSE;
 118              		.loc 1 236 0
 119 0088 0022     		movs	r2, #0
 220:firmwares/fixedwing/main_ap.c ****   monitor_tid = sys_time_register_timer(1.0, NULL);
 120              		.loc 1 220 0
 121 008a 1870     		strb	r0, [r3, #0]
 122              		.loc 1 236 0
 123 008c 0B4B     		ldr	r3, .L2+36
 124 008e 1A70     		strb	r2, [r3, #0]
 237:firmwares/fixedwing/main_ap.c **** 
 238:firmwares/fixedwing/main_ap.c ****   /************ Multi-uavs status ***************/
 239:firmwares/fixedwing/main_ap.c **** 
 240:firmwares/fixedwing/main_ap.c **** #ifdef TRAFFIC_INFO
 241:firmwares/fixedwing/main_ap.c ****   traffic_info_init();
 242:firmwares/fixedwing/main_ap.c **** #endif
 243:firmwares/fixedwing/main_ap.c **** }
 125              		.loc 1 243 0
 126 0090 BDE81040 		pop	{r4, lr}
 241:firmwares/fixedwing/main_ap.c ****   traffic_info_init();
 127              		.loc 1 241 0
 128 0094 FFF7FEBF 		b	traffic_info_init
 129              	.L3:
 130              		.align	2
 131              	.L2:
 132 0098 00000000 		.word	.LANCHOR0
 133 009c 8988083C 		.word	1007192201
 134 00a0 00000000 		.word	.LANCHOR1
 135 00a4 8988883C 		.word	1015580809
 136 00a8 00000000 		.word	.LANCHOR2
 137 00ac 00000000 		.word	.LANCHOR3
 138 00b0 00000000 		.word	.LANCHOR4
 139 00b4 00000000 		.word	.LANCHOR5
 140 00b8 00000000 		.word	.LANCHOR6
 141 00bc 00000000 		.word	.LANCHOR7
 142              		.cfi_endproc
 143              	.LFE48:
 145              		.global	__aeabi_i2d
 146              		.global	__aeabi_dmul
 147              		.global	__aeabi_ddiv
 148              		.global	__aeabi_d2iz
 149              		.global	__aeabi_i2f
 150              		.global	__aeabi_fadd
 151              		.global	__aeabi_f2d
 152              		.global	__aeabi_d2uiz
 153              		.global	__aeabi_f2iz
 154              		.global	__aeabi_fmul
 155              		.global	__aeabi_ui2f
 156              		.global	__aeabi_fdiv
 157              		.section	.text.reporting_task,"ax",%progbits
 158              		.align	1
 159              		.global	reporting_task
 160              		.thumb
 161              		.thumb_func
 163              	reporting_task:
 164              	.LFB54:
 244:firmwares/fixedwing/main_ap.c **** 
 245:firmwares/fixedwing/main_ap.c **** 
 246:firmwares/fixedwing/main_ap.c **** void handle_periodic_tasks_ap(void) {
 247:firmwares/fixedwing/main_ap.c **** 
 248:firmwares/fixedwing/main_ap.c ****   if (sys_time_check_and_ack_timer(sensors_tid))
 249:firmwares/fixedwing/main_ap.c ****     sensors_task();
 250:firmwares/fixedwing/main_ap.c **** 
 251:firmwares/fixedwing/main_ap.c ****   if (sys_time_check_and_ack_timer(navigation_tid))
 252:firmwares/fixedwing/main_ap.c ****     navigation_task();
 253:firmwares/fixedwing/main_ap.c **** 
 254:firmwares/fixedwing/main_ap.c **** #ifndef AHRS_TRIGGERED_ATTITUDE_LOOP
 255:firmwares/fixedwing/main_ap.c ****   if (sys_time_check_and_ack_timer(attitude_tid))
 256:firmwares/fixedwing/main_ap.c ****     attitude_loop();
 257:firmwares/fixedwing/main_ap.c **** #endif
 258:firmwares/fixedwing/main_ap.c **** 
 259:firmwares/fixedwing/main_ap.c ****   if (sys_time_check_and_ack_timer(modules_tid))
 260:firmwares/fixedwing/main_ap.c ****     modules_periodic_task();
 261:firmwares/fixedwing/main_ap.c **** 
 262:firmwares/fixedwing/main_ap.c ****   if (sys_time_check_and_ack_timer(monitor_tid))
 263:firmwares/fixedwing/main_ap.c ****     monitor_task();
 264:firmwares/fixedwing/main_ap.c **** 
 265:firmwares/fixedwing/main_ap.c ****   if (sys_time_check_and_ack_timer(telemetry_tid)) {
 266:firmwares/fixedwing/main_ap.c ****     reporting_task();
 267:firmwares/fixedwing/main_ap.c ****     LED_PERIODIC();
 268:firmwares/fixedwing/main_ap.c ****   }
 269:firmwares/fixedwing/main_ap.c **** 
 270:firmwares/fixedwing/main_ap.c **** }
 271:firmwares/fixedwing/main_ap.c **** 
 272:firmwares/fixedwing/main_ap.c **** 
 273:firmwares/fixedwing/main_ap.c **** /******************** Interaction with FBW *****************************/
 274:firmwares/fixedwing/main_ap.c **** 
 275:firmwares/fixedwing/main_ap.c **** /** Update paparazzi mode.
 276:firmwares/fixedwing/main_ap.c ****  */
 277:firmwares/fixedwing/main_ap.c **** #if defined RADIO_CONTROL || defined RADIO_CONTROL_AUTO1
 278:firmwares/fixedwing/main_ap.c **** static inline uint8_t pprz_mode_update( void ) {
 279:firmwares/fixedwing/main_ap.c ****   if ((pprz_mode != PPRZ_MODE_HOME &&
 280:firmwares/fixedwing/main_ap.c ****        pprz_mode != PPRZ_MODE_GPS_OUT_OF_ORDER)
 281:firmwares/fixedwing/main_ap.c **** #ifdef UNLOCKED_HOME_MODE
 282:firmwares/fixedwing/main_ap.c ****       || TRUE
 283:firmwares/fixedwing/main_ap.c **** #endif
 284:firmwares/fixedwing/main_ap.c ****       ) {
 285:firmwares/fixedwing/main_ap.c **** #ifndef RADIO_AUTO_MODE
 286:firmwares/fixedwing/main_ap.c ****     return ModeUpdate(pprz_mode, PPRZ_MODE_OF_PULSE(fbw_state->channels[RADIO_MODE]));
 287:firmwares/fixedwing/main_ap.c **** #else
 288:firmwares/fixedwing/main_ap.c **** #pragma message "Using RADIO_AUTO_MODE to switch between AUTO1 and AUTO2."
 289:firmwares/fixedwing/main_ap.c ****     /* If RADIO_AUTO_MODE is enabled mode swithing will be seperated between two switches/channels
 290:firmwares/fixedwing/main_ap.c ****      * RADIO_MODE will switch between PPRZ_MODE_MANUAL and any PPRZ_MODE_AUTO mode selected by RADI
 291:firmwares/fixedwing/main_ap.c ****      *
 292:firmwares/fixedwing/main_ap.c ****      * This is mainly a cludge for entry level radios with no three-way switch but two available tw
 293:firmwares/fixedwing/main_ap.c ****      */
 294:firmwares/fixedwing/main_ap.c ****     if(PPRZ_MODE_OF_PULSE(fbw_state->channels[RADIO_MODE]) == PPRZ_MODE_MANUAL) {
 295:firmwares/fixedwing/main_ap.c ****       /* RADIO_MODE in MANUAL position */
 296:firmwares/fixedwing/main_ap.c ****       return ModeUpdate(pprz_mode, PPRZ_MODE_MANUAL);
 297:firmwares/fixedwing/main_ap.c ****     } else {
 298:firmwares/fixedwing/main_ap.c ****       /* RADIO_MODE not in MANUAL position.
 299:firmwares/fixedwing/main_ap.c ****        * Select AUTO mode bassed on RADIO_AUTO_MODE channel
 300:firmwares/fixedwing/main_ap.c ****        */
 301:firmwares/fixedwing/main_ap.c ****       return ModeUpdate(pprz_mode, (fbw_state->channels[RADIO_AUTO_MODE] > THRESHOLD2) ? PPRZ_MODE_
 302:firmwares/fixedwing/main_ap.c ****     }
 303:firmwares/fixedwing/main_ap.c **** #endif // RADIO_AUTO_MODE
 304:firmwares/fixedwing/main_ap.c ****   } else
 305:firmwares/fixedwing/main_ap.c ****     return FALSE;
 306:firmwares/fixedwing/main_ap.c **** }
 307:firmwares/fixedwing/main_ap.c **** #else // not RADIO_CONTROL
 308:firmwares/fixedwing/main_ap.c **** static inline uint8_t pprz_mode_update( void ) {
 309:firmwares/fixedwing/main_ap.c ****   return FALSE;
 310:firmwares/fixedwing/main_ap.c **** }
 311:firmwares/fixedwing/main_ap.c **** #endif
 312:firmwares/fixedwing/main_ap.c **** 
 313:firmwares/fixedwing/main_ap.c **** static inline uint8_t mcu1_status_update( void ) {
 314:firmwares/fixedwing/main_ap.c ****   uint8_t new_status = fbw_state->status;
 315:firmwares/fixedwing/main_ap.c ****   if (mcu1_status != new_status) {
 316:firmwares/fixedwing/main_ap.c ****     bool_t changed = ((mcu1_status&MASK_FBW_CHANGED) != (new_status&MASK_FBW_CHANGED));
 317:firmwares/fixedwing/main_ap.c ****     mcu1_status = new_status;
 318:firmwares/fixedwing/main_ap.c ****     return changed;
 319:firmwares/fixedwing/main_ap.c ****   }
 320:firmwares/fixedwing/main_ap.c ****   return FALSE;
 321:firmwares/fixedwing/main_ap.c **** }
 322:firmwares/fixedwing/main_ap.c **** 
 323:firmwares/fixedwing/main_ap.c **** 
 324:firmwares/fixedwing/main_ap.c **** /** Send back uncontrolled channels.
 325:firmwares/fixedwing/main_ap.c ****  */
 326:firmwares/fixedwing/main_ap.c **** static inline void copy_from_to_fbw ( void ) {
 327:firmwares/fixedwing/main_ap.c **** #ifdef SetAutoCommandsFromRC
 328:firmwares/fixedwing/main_ap.c ****   SetAutoCommandsFromRC(ap_state->commands, fbw_state->channels);
 329:firmwares/fixedwing/main_ap.c **** #elif defined RADIO_YAW && defined COMMAND_YAW
 330:firmwares/fixedwing/main_ap.c ****   ap_state->commands[COMMAND_YAW] = fbw_state->channels[RADIO_YAW];
 331:firmwares/fixedwing/main_ap.c **** #endif
 332:firmwares/fixedwing/main_ap.c **** }
 333:firmwares/fixedwing/main_ap.c **** 
 334:firmwares/fixedwing/main_ap.c **** /** mode to enter when RC is lost in PPRZ_MODE_MANUAL or PPRZ_MODE_AUTO1 */
 335:firmwares/fixedwing/main_ap.c **** #ifndef RC_LOST_MODE
 336:firmwares/fixedwing/main_ap.c **** #define RC_LOST_MODE PPRZ_MODE_HOME
 337:firmwares/fixedwing/main_ap.c **** #endif
 338:firmwares/fixedwing/main_ap.c **** 
 339:firmwares/fixedwing/main_ap.c **** /**
 340:firmwares/fixedwing/main_ap.c ****  * Function to be called when a message from FBW is available
 341:firmwares/fixedwing/main_ap.c ****  */
 342:firmwares/fixedwing/main_ap.c **** static inline void telecommand_task( void ) {
 343:firmwares/fixedwing/main_ap.c ****   uint8_t mode_changed = FALSE;
 344:firmwares/fixedwing/main_ap.c ****   copy_from_to_fbw();
 345:firmwares/fixedwing/main_ap.c **** 
 346:firmwares/fixedwing/main_ap.c ****   uint8_t really_lost = bit_is_set(fbw_state->status, STATUS_RADIO_REALLY_LOST) && (pprz_mode == PP
 347:firmwares/fixedwing/main_ap.c ****   if (pprz_mode != PPRZ_MODE_HOME && pprz_mode != PPRZ_MODE_GPS_OUT_OF_ORDER && launch) {
 348:firmwares/fixedwing/main_ap.c ****     if  (too_far_from_home) {
 349:firmwares/fixedwing/main_ap.c ****       pprz_mode = PPRZ_MODE_HOME;
 350:firmwares/fixedwing/main_ap.c ****       mode_changed = TRUE;
 351:firmwares/fixedwing/main_ap.c ****     }
 352:firmwares/fixedwing/main_ap.c ****     if  (really_lost) {
 353:firmwares/fixedwing/main_ap.c ****       pprz_mode = RC_LOST_MODE;
 354:firmwares/fixedwing/main_ap.c ****       mode_changed = TRUE;
 355:firmwares/fixedwing/main_ap.c ****     }
 356:firmwares/fixedwing/main_ap.c ****   }
 357:firmwares/fixedwing/main_ap.c ****   if (bit_is_set(fbw_state->status, AVERAGED_CHANNELS_SENT)) {
 358:firmwares/fixedwing/main_ap.c ****     bool_t pprz_mode_changed = pprz_mode_update();
 359:firmwares/fixedwing/main_ap.c ****     mode_changed |= pprz_mode_changed;
 360:firmwares/fixedwing/main_ap.c **** #if defined RADIO_CALIB && defined RADIO_CONTROL_SETTINGS
 361:firmwares/fixedwing/main_ap.c ****     bool_t calib_mode_changed = RcSettingsModeUpdate(fbw_state->channels);
 362:firmwares/fixedwing/main_ap.c ****     rc_settings(calib_mode_changed || pprz_mode_changed);
 363:firmwares/fixedwing/main_ap.c ****     mode_changed |= calib_mode_changed;
 364:firmwares/fixedwing/main_ap.c **** #endif
 365:firmwares/fixedwing/main_ap.c ****   }
 366:firmwares/fixedwing/main_ap.c ****   mode_changed |= mcu1_status_update();
 367:firmwares/fixedwing/main_ap.c ****   if ( mode_changed )
 368:firmwares/fixedwing/main_ap.c ****     PERIODIC_SEND_PPRZ_MODE(DefaultChannel, DefaultDevice);
 369:firmwares/fixedwing/main_ap.c **** 
 370:firmwares/fixedwing/main_ap.c **** #if defined RADIO_CONTROL || defined RADIO_CONTROL_AUTO1
 371:firmwares/fixedwing/main_ap.c ****   /** In AUTO1 mode, compute roll setpoint and pitch setpoint from
 372:firmwares/fixedwing/main_ap.c ****    * \a RADIO_ROLL and \a RADIO_PITCH \n
 373:firmwares/fixedwing/main_ap.c ****    */
 374:firmwares/fixedwing/main_ap.c ****   if (pprz_mode == PPRZ_MODE_AUTO1) {
 375:firmwares/fixedwing/main_ap.c ****     /** Roll is bounded between [-AUTO1_MAX_ROLL;AUTO1_MAX_ROLL] */
 376:firmwares/fixedwing/main_ap.c ****     h_ctl_roll_setpoint = FLOAT_OF_PPRZ(fbw_state->channels[RADIO_ROLL], 0., AUTO1_MAX_ROLL);
 377:firmwares/fixedwing/main_ap.c **** 
 378:firmwares/fixedwing/main_ap.c ****     /** Pitch is bounded between [-AUTO1_MAX_PITCH;AUTO1_MAX_PITCH] */
 379:firmwares/fixedwing/main_ap.c ****     h_ctl_pitch_setpoint = FLOAT_OF_PPRZ(fbw_state->channels[RADIO_PITCH], 0., AUTO1_MAX_PITCH);
 380:firmwares/fixedwing/main_ap.c ****   } /** Else asynchronously set by \a h_ctl_course_loop() */
 381:firmwares/fixedwing/main_ap.c **** 
 382:firmwares/fixedwing/main_ap.c ****   /** In AUTO1, throttle comes from RADIO_THROTTLE
 383:firmwares/fixedwing/main_ap.c ****       In MANUAL, the value is copied to get it in the telemetry */
 384:firmwares/fixedwing/main_ap.c ****   if (pprz_mode == PPRZ_MODE_MANUAL || pprz_mode == PPRZ_MODE_AUTO1) {
 385:firmwares/fixedwing/main_ap.c ****     v_ctl_throttle_setpoint = fbw_state->channels[RADIO_THROTTLE];
 386:firmwares/fixedwing/main_ap.c ****   }
 387:firmwares/fixedwing/main_ap.c ****   /** else asynchronously set by v_ctl_climb_loop(); */
 388:firmwares/fixedwing/main_ap.c **** 
 389:firmwares/fixedwing/main_ap.c ****   mcu1_ppm_cpt = fbw_state->ppm_cpt;
 390:firmwares/fixedwing/main_ap.c **** #endif // RADIO_CONTROL
 391:firmwares/fixedwing/main_ap.c **** 
 392:firmwares/fixedwing/main_ap.c **** 
 393:firmwares/fixedwing/main_ap.c ****   vsupply = fbw_state->vsupply;
 394:firmwares/fixedwing/main_ap.c ****   current = fbw_state->current;
 395:firmwares/fixedwing/main_ap.c **** 
 396:firmwares/fixedwing/main_ap.c **** #ifdef RADIO_CONTROL
 397:firmwares/fixedwing/main_ap.c ****   if (!estimator_flight_time) {
 398:firmwares/fixedwing/main_ap.c ****     if (pprz_mode == PPRZ_MODE_AUTO2 && fbw_state->channels[RADIO_THROTTLE] > THROTTLE_THRESHOLD_TA
 399:firmwares/fixedwing/main_ap.c ****       launch = TRUE;
 400:firmwares/fixedwing/main_ap.c ****     }
 401:firmwares/fixedwing/main_ap.c ****   }
 402:firmwares/fixedwing/main_ap.c **** #endif
 403:firmwares/fixedwing/main_ap.c **** }
 404:firmwares/fixedwing/main_ap.c **** 
 405:firmwares/fixedwing/main_ap.c **** 
 406:firmwares/fixedwing/main_ap.c **** /**************************** Periodic tasks ***********************************/
 407:firmwares/fixedwing/main_ap.c **** 
 408:firmwares/fixedwing/main_ap.c **** /**
 409:firmwares/fixedwing/main_ap.c ****  * Send a series of initialisation messages followed by a stream of periodic ones.
 410:firmwares/fixedwing/main_ap.c ****  * Called at 60Hz.
 411:firmwares/fixedwing/main_ap.c ****  */
 412:firmwares/fixedwing/main_ap.c **** void reporting_task( void ) {
 165              		.loc 1 412 0
 166              		.cfi_startproc
 167              		@ args = 0, pretend = 0, frame = 32
 168              		@ frame_needed = 0, uses_anonymous_args = 0
 169 0000 2DE9F041 		push	{r4, r5, r6, r7, r8, lr}
 170              	.LCFI1:
 171              		.cfi_def_cfa_offset 24
 172              		.cfi_offset 14, -4
 173              		.cfi_offset 8, -8
 174              		.cfi_offset 7, -12
 175              		.cfi_offset 6, -16
 176              		.cfi_offset 5, -20
 177              		.cfi_offset 4, -24
 413:firmwares/fixedwing/main_ap.c ****   static uint8_t boot = TRUE;
 414:firmwares/fixedwing/main_ap.c **** 
 415:firmwares/fixedwing/main_ap.c ****   /** initialisation phase during boot */
 416:firmwares/fixedwing/main_ap.c ****   if (boot) {
 178              		.loc 1 416 0
 179 0004 2B4B     		ldr	r3, .L230
 412:firmwares/fixedwing/main_ap.c **** void reporting_task( void ) {
 180              		.loc 1 412 0
 181 0006 88B0     		sub	sp, sp, #32
 182              	.LCFI2:
 183              		.cfi_def_cfa_offset 56
 184              		.loc 1 416 0
 185 0008 1B78     		ldrb	r3, [r3, #0]	@ zero_extendqisi2
 186 000a 002B     		cmp	r3, #0
 187 000c 62D0     		beq	.L5
 417:firmwares/fixedwing/main_ap.c ****     DOWNLINK_SEND_BOOT(DefaultChannel, DefaultDevice, &version);
 188              		.loc 1 417 0
 189 000e 2A48     		ldr	r0, .L230+4
 190 0010 0821     		movs	r1, #8
 191 0012 FFF7FEFF 		bl	uart_check_free_space
 192 0016 0028     		cmp	r0, #0
 193 0018 44D0     		beq	.L6
 194              		.loc 1 417 0 is_stmt 0 discriminator 1
 195 001a 284B     		ldr	r3, .L230+8
 196              	.LBB107:
 197 001c 9921     		movs	r1, #153
 198              	.LBE107:
 199 001e 1A88     		ldrh	r2, [r3, #0]
 200              	.LBB108:
 201 0020 2548     		ldr	r0, .L230+4
 202              	.LBE108:
 203 0022 0832     		adds	r2, r2, #8
 204 0024 1A80     		strh	r2, [r3, #0]	@ movhi
 205 0026 264B     		ldr	r3, .L230+12
 206 0028 264D     		ldr	r5, .L230+16
 207 002a 1A88     		ldrh	r2, [r3, #0]
 208 002c 264C     		ldr	r4, .L230+20
 209 002e 0132     		adds	r2, r2, #1
 210 0030 1A80     		strh	r2, [r3, #0]	@ movhi
 211              	.LBB109:
 212 0032 FFF7FEFF 		bl	uart_transmit
 213              	.LVL0:
 214 0036 0821     		movs	r1, #8
 215 0038 1F48     		ldr	r0, .L230+4
 216 003a FFF7FEFF 		bl	uart_transmit
 217              	.LBE109:
 218 003e 0923     		movs	r3, #9
 219 0040 2B70     		strb	r3, [r5, #0]
 220 0042 1123     		movs	r3, #17
 221 0044 2370     		strb	r3, [r4, #0]
 222 0046 0121     		movs	r1, #1
 223 0048 1B48     		ldr	r0, .L230+4
 224 004a FFF7FEFF 		bl	uart_transmit
 225 004e 2B78     		ldrb	r3, [r5, #0]	@ zero_extendqisi2
 226 0050 2278     		ldrb	r2, [r4, #0]	@ zero_extendqisi2
 227 0052 0133     		adds	r3, r3, #1
 228 0054 DBB2     		uxtb	r3, r3
 229              	.LVL1:
 230 0056 2B70     		strb	r3, [r5, #0]
 231              	.LBB110:
 232 0058 1C4E     		ldr	r6, .L230+24
 233              	.LBE110:
 234 005a 9B18     		adds	r3, r3, r2
 235              	.LVL2:
 236 005c 2370     		strb	r3, [r4, #0]
 237 005e 0121     		movs	r1, #1
 238 0060 1548     		ldr	r0, .L230+4
 239 0062 FFF7FEFF 		bl	uart_transmit
 240              	.LBB111:
 241 0066 3178     		ldrb	r1, [r6, #0]	@ zero_extendqisi2
 242              	.LVL3:
 243 0068 2B78     		ldrb	r3, [r5, #0]	@ zero_extendqisi2
 244 006a 2278     		ldrb	r2, [r4, #0]	@ zero_extendqisi2
 245 006c CB18     		adds	r3, r1, r3
 246 006e DBB2     		uxtb	r3, r3
 247              	.LVL4:
 248 0070 2B70     		strb	r3, [r5, #0]
 249 0072 9B18     		adds	r3, r3, r2
 250              	.LVL5:
 251 0074 2370     		strb	r3, [r4, #0]
 252 0076 1048     		ldr	r0, .L230+4
 253 0078 FFF7FEFF 		bl	uart_transmit
 254              	.LVL6:
 255              	.LBE111:
 256              	.LBB112:
 257 007c 7178     		ldrb	r1, [r6, #1]	@ zero_extendqisi2
 258              	.LVL7:
 259 007e 2B78     		ldrb	r3, [r5, #0]	@ zero_extendqisi2
 260 0080 2278     		ldrb	r2, [r4, #0]	@ zero_extendqisi2
 261 0082 CB18     		adds	r3, r1, r3
 262 0084 DBB2     		uxtb	r3, r3
 263              	.LVL8:
 264 0086 2B70     		strb	r3, [r5, #0]
 265 0088 9B18     		adds	r3, r3, r2
 266              	.LVL9:
 267 008a 2370     		strb	r3, [r4, #0]
 268 008c 0A48     		ldr	r0, .L230+4
 269 008e FFF7FEFF 		bl	uart_transmit
 270              	.LVL10:
 271              	.LBE112:
 272 0092 2978     		ldrb	r1, [r5, #0]	@ zero_extendqisi2
 273 0094 0848     		ldr	r0, .L230+4
 274 0096 FFF7FEFF 		bl	uart_transmit
 275 009a 0748     		ldr	r0, .L230+4
 276 009c 2178     		ldrb	r1, [r4, #0]	@ zero_extendqisi2
 277 009e FFF7FEFF 		bl	uart_transmit
 278 00a2 03E0     		b	.L7
 279              	.LVL11:
 280              	.L6:
 281              		.loc 1 417 0 discriminator 2
 282 00a4 0A4B     		ldr	r3, .L230+28
 283 00a6 1A78     		ldrb	r2, [r3, #0]	@ zero_extendqisi2
 284 00a8 0132     		adds	r2, r2, #1
 285 00aa 1A70     		strb	r2, [r3, #0]
 286              	.L7:
 418:firmwares/fixedwing/main_ap.c ****     boot = FALSE;
 287              		.loc 1 418 0 is_stmt 1
 288 00ac 0022     		movs	r2, #0
 289 00ae 014B     		ldr	r3, .L230
 290 00b0 05F009BF 		b	.L225
 291              	.L231:
 292              		.align	2
 293              	.L230:
 294 00b4 00000000 		.word	.LANCHOR8
 295 00b8 00000000 		.word	uart2
 296 00bc 00000000 		.word	downlink_nb_bytes
 297 00c0 00000000 		.word	downlink_nb_msgs
 298 00c4 00000000 		.word	ck_a
 299 00c8 00000000 		.word	ck_b
 300 00cc 00000000 		.word	.LANCHOR9
 301 00d0 00000000 		.word	downlink_nb_ovrn
 302              	.L5:
 419:firmwares/fixedwing/main_ap.c ****   }
 420:firmwares/fixedwing/main_ap.c ****   /** then report periodicly */
 421:firmwares/fixedwing/main_ap.c ****   else {
 422:firmwares/fixedwing/main_ap.c ****     PeriodicSendAp(DefaultChannel, DefaultDevice);
 303              		.loc 1 422 0
 304 00d4 A24B     		ldr	r3, .L232+16
 305 00d6 1A78     		ldrb	r2, [r3, #0]	@ zero_extendqisi2
 306 00d8 002A     		cmp	r2, #0
 307 00da 42F0C182 		bne	.L9
 308              	.LBB113:
 309              		.loc 1 422 0 is_stmt 0 discriminator 1
 310 00de A14B     		ldr	r3, .L232+20
 311 00e0 1978     		ldrb	r1, [r3, #0]	@ zero_extendqisi2
 312 00e2 0131     		adds	r1, r1, #1
 313 00e4 C9B2     		uxtb	r1, r1
 314 00e6 0E29     		cmp	r1, #14
 315 00e8 1970     		strb	r1, [r3, #0]
 316 00ea 88BF     		it	hi
 317 00ec 1A70     		strbhi	r2, [r3, #0]
 318 00ee 9E4B     		ldr	r3, .L232+24
 319 00f0 1A78     		ldrb	r2, [r3, #0]	@ zero_extendqisi2
 320 00f2 0132     		adds	r2, r2, #1
 321 00f4 D2B2     		uxtb	r2, r2
 322 00f6 1D2A     		cmp	r2, #29
 323 00f8 1A70     		strb	r2, [r3, #0]
 324 00fa 01D9     		bls	.L11
 325              		.loc 1 422 0 discriminator 5
 326 00fc 0022     		movs	r2, #0
 327 00fe 1A70     		strb	r2, [r3, #0]
 328              	.L11:
 329              		.loc 1 422 0 discriminator 6
 330 0100 9A4B     		ldr	r3, .L232+28
 331 0102 1A78     		ldrb	r2, [r3, #0]	@ zero_extendqisi2
 332 0104 0132     		adds	r2, r2, #1
 333 0106 D2B2     		uxtb	r2, r2
 334 0108 3B2A     		cmp	r2, #59
 335 010a 1A70     		strb	r2, [r3, #0]
 336 010c 01D9     		bls	.L12
 337              		.loc 1 422 0 discriminator 7
 338 010e 0022     		movs	r2, #0
 339 0110 1A70     		strb	r2, [r3, #0]
 340              	.L12:
 341              		.loc 1 422 0 discriminator 8
 342 0112 974B     		ldr	r3, .L232+32
 343 0114 1A78     		ldrb	r2, [r3, #0]	@ zero_extendqisi2
 344 0116 0132     		adds	r2, r2, #1
 345 0118 D2B2     		uxtb	r2, r2
 346 011a 3E2A     		cmp	r2, #62
 347 011c 1A70     		strb	r2, [r3, #0]
 348 011e 01D9     		bls	.L13
 349              		.loc 1 422 0 discriminator 9
 350 0120 0022     		movs	r2, #0
 351 0122 1A70     		strb	r2, [r3, #0]
 352              	.L13:
 353              		.loc 1 422 0 discriminator 10
 354 0124 934B     		ldr	r3, .L232+36
 355 0126 1A78     		ldrb	r2, [r3, #0]	@ zero_extendqisi2
 356 0128 0132     		adds	r2, r2, #1
 357 012a D2B2     		uxtb	r2, r2
 358 012c 412A     		cmp	r2, #65
 359 012e 1A70     		strb	r2, [r3, #0]
 360 0130 01D9     		bls	.L14
 361              		.loc 1 422 0 discriminator 11
 362 0132 0022     		movs	r2, #0
 363 0134 1A70     		strb	r2, [r3, #0]
 364              	.L14:
 365              		.loc 1 422 0 discriminator 12
 366 0136 904B     		ldr	r3, .L232+40
 367 0138 1A78     		ldrb	r2, [r3, #0]	@ zero_extendqisi2
 368 013a 0132     		adds	r2, r2, #1
 369 013c D2B2     		uxtb	r2, r2
 370 013e 472A     		cmp	r2, #71
 371 0140 1A70     		strb	r2, [r3, #0]
 372 0142 01D9     		bls	.L15
 373              		.loc 1 422 0 discriminator 13
 374 0144 0022     		movs	r2, #0
 375 0146 1A70     		strb	r2, [r3, #0]
 376              	.L15:
 377              		.loc 1 422 0 discriminator 14
 378 0148 8C4B     		ldr	r3, .L232+44
 379 014a 1A78     		ldrb	r2, [r3, #0]	@ zero_extendqisi2
 380 014c 0132     		adds	r2, r2, #1
 381 014e D2B2     		uxtb	r2, r2
 382 0150 592A     		cmp	r2, #89
 383 0152 1A70     		strb	r2, [r3, #0]
 384 0154 01D9     		bls	.L16
 385              		.loc 1 422 0 discriminator 15
 386 0156 0022     		movs	r2, #0
 387 0158 1A70     		strb	r2, [r3, #0]
 388              	.L16:
 389              		.loc 1 422 0 discriminator 16
 390 015a 894B     		ldr	r3, .L232+48
 391 015c 1A78     		ldrb	r2, [r3, #0]	@ zero_extendqisi2
 392 015e 0132     		adds	r2, r2, #1
 393 0160 D2B2     		uxtb	r2, r2
 394 0162 772A     		cmp	r2, #119
 395 0164 1A70     		strb	r2, [r3, #0]
 396 0166 01D9     		bls	.L17
 397              		.loc 1 422 0 discriminator 17
 398 0168 0022     		movs	r2, #0
 399 016a 1A70     		strb	r2, [r3, #0]
 400              	.L17:
 401              		.loc 1 422 0 discriminator 18
 402 016c 854B     		ldr	r3, .L232+52
 403 016e 1A78     		ldrb	r2, [r3, #0]	@ zero_extendqisi2
 404 0170 0132     		adds	r2, r2, #1
 405 0172 D2B2     		uxtb	r2, r2
 406 0174 7D2A     		cmp	r2, #125
 407 0176 1A70     		strb	r2, [r3, #0]
 408 0178 01D9     		bls	.L18
 409              		.loc 1 422 0 discriminator 19
 410 017a 0022     		movs	r2, #0
 411 017c 1A70     		strb	r2, [r3, #0]
 412              	.L18:
 413              		.loc 1 422 0 discriminator 20
 414 017e 824B     		ldr	r3, .L232+56
 415 0180 1A78     		ldrb	r2, [r3, #0]	@ zero_extendqisi2
 416 0182 0132     		adds	r2, r2, #1
 417 0184 D2B2     		uxtb	r2, r2
 418 0186 952A     		cmp	r2, #149
 419 0188 1A70     		strb	r2, [r3, #0]
 420 018a 01D9     		bls	.L19
 421              		.loc 1 422 0 discriminator 21
 422 018c 0022     		movs	r2, #0
 423 018e 1A70     		strb	r2, [r3, #0]
 424              	.L19:
 425              		.loc 1 422 0 discriminator 22
 426 0190 7E4B     		ldr	r3, .L232+60
 427 0192 1A88     		ldrh	r2, [r3, #0]
 428 0194 0132     		adds	r2, r2, #1
 429 0196 92B2     		uxth	r2, r2
 430 0198 B2F5967F 		cmp	r2, #300
 431 019c 1A80     		strh	r2, [r3, #0]	@ movhi
 432 019e 01D3     		bcc	.L20
 433              		.loc 1 422 0 discriminator 23
 434 01a0 0022     		movs	r2, #0
 435 01a2 1A80     		strh	r2, [r3, #0]	@ movhi
 436              	.L20:
 437              		.loc 1 422 0 discriminator 24
 438 01a4 7A4B     		ldr	r3, .L232+64
 439 01a6 1A88     		ldrh	r2, [r3, #0]
 440 01a8 0132     		adds	r2, r2, #1
 441 01aa 92B2     		uxth	r2, r2
 442 01ac B2F5997F 		cmp	r2, #306
 443 01b0 1A80     		strh	r2, [r3, #0]	@ movhi
 444 01b2 01D3     		bcc	.L21
 445              		.loc 1 422 0 discriminator 25
 446 01b4 0022     		movs	r2, #0
 447 01b6 1A80     		strh	r2, [r3, #0]	@ movhi
 448              	.L21:
 449              		.loc 1 422 0 discriminator 26
 450 01b8 764B     		ldr	r3, .L232+68
 451 01ba 1A88     		ldrh	r2, [r3, #0]
 452 01bc 0132     		adds	r2, r2, #1
 453 01be 92B2     		uxth	r2, r2
 454 01c0 B2F5077F 		cmp	r2, #540
 455 01c4 1A80     		strh	r2, [r3, #0]	@ movhi
 456 01c6 01D3     		bcc	.L22
 457              		.loc 1 422 0 discriminator 27
 458 01c8 0022     		movs	r2, #0
 459 01ca 1A80     		strh	r2, [r3, #0]	@ movhi
 460              	.L22:
 461              		.loc 1 422 0 discriminator 28
 462 01cc 654B     		ldr	r3, .L232+20
 463 01ce 1B78     		ldrb	r3, [r3, #0]	@ zero_extendqisi2
 464 01d0 002B     		cmp	r3, #0
 465 01d2 40F0A582 		bne	.L23
 466              	.LBB114:
 467              		.loc 1 422 0 discriminator 29
 468 01d6 704C     		ldr	r4, .L232+72
 469 01d8 236C     		ldr	r3, [r4, #64]
 470 01da A06C     		ldr	r0, [r4, #72]
 471 01dc 5B42     		negs	r3, r3
 472 01de ADF81C30 		strh	r3, [sp, #28]	@ movhi
 473              	.LVL12:
 474 01e2 FFF7FEFF 		bl	__aeabi_i2d
 475 01e6 5AA3     		adr	r3, .L232
 476 01e8 D3E90023 		ldrd	r2, [r3]
 477 01ec FFF7FEFF 		bl	__aeabi_dmul
 478 01f0 59A3     		adr	r3, .L232+8
 479 01f2 D3E90023 		ldrd	r2, [r3]
 480 01f6 FFF7FEFF 		bl	__aeabi_ddiv
 481 01fa FFF7FEFF 		bl	__aeabi_d2iz
 482 01fe 2121     		movs	r1, #33
 483 0200 ADF81E00 		strh	r0, [sp, #30]	@ movhi
 484              	.LVL13:
 485 0204 6548     		ldr	r0, .L232+76
 486 0206 FFF7FEFF 		bl	uart_check_free_space
 487 020a 0028     		cmp	r0, #0
 488 020c 00F0A081 		beq	.L24
 489              		.loc 1 422 0 discriminator 31
 490 0210 634B     		ldr	r3, .L232+80
 491              	.LBB115:
 492 0212 9921     		movs	r1, #153
 493              	.LBE115:
 494 0214 1A88     		ldrh	r2, [r3, #0]
 495              	.LBB116:
 496 0216 6148     		ldr	r0, .L232+76
 497              	.LBE116:
 498 0218 2132     		adds	r2, r2, #33
 499 021a 1A80     		strh	r2, [r3, #0]	@ movhi
 500 021c 614B     		ldr	r3, .L232+84
 501 021e 624E     		ldr	r6, .L232+88
 502 0220 1A88     		ldrh	r2, [r3, #0]
 503 0222 624D     		ldr	r5, .L232+92
 504 0224 0132     		adds	r2, r2, #1
 505 0226 1A80     		strh	r2, [r3, #0]	@ movhi
 506              	.LBB117:
 507 0228 FFF7FEFF 		bl	uart_transmit
 508              	.LVL14:
 509 022c 2121     		movs	r1, #33
 510 022e 5B48     		ldr	r0, .L232+76
 511 0230 FFF7FEFF 		bl	uart_transmit
 512              	.LBE117:
 513 0234 2223     		movs	r3, #34
 514 0236 3370     		strb	r3, [r6, #0]
 515 0238 4323     		movs	r3, #67
 516 023a 2B70     		strb	r3, [r5, #0]
 517 023c 0121     		movs	r1, #1
 518 023e 5748     		ldr	r0, .L232+76
 519 0240 FFF7FEFF 		bl	uart_transmit
 520 0244 3378     		ldrb	r3, [r6, #0]	@ zero_extendqisi2
 521 0246 2A78     		ldrb	r2, [r5, #0]	@ zero_extendqisi2
 522 0248 0833     		adds	r3, r3, #8
 523 024a DBB2     		uxtb	r3, r3
 524 024c 3370     		strb	r3, [r6, #0]
 525 024e 9B18     		adds	r3, r3, r2
 526 0250 2B70     		strb	r3, [r5, #0]
 527 0252 0821     		movs	r1, #8
 528 0254 5148     		ldr	r0, .L232+76
 529 0256 FFF7FEFF 		bl	uart_transmit
 530              	.LBB118:
 531 025a 94F85B10 		ldrb	r1, [r4, #91]	@ zero_extendqisi2
 532              	.LVL15:
 533 025e 3378     		ldrb	r3, [r6, #0]	@ zero_extendqisi2
 534 0260 2A78     		ldrb	r2, [r5, #0]	@ zero_extendqisi2
 535 0262 CB18     		adds	r3, r1, r3
 536 0264 DBB2     		uxtb	r3, r3
 537              	.LVL16:
 538 0266 3370     		strb	r3, [r6, #0]
 539 0268 9B18     		adds	r3, r3, r2
 540              	.LVL17:
 541 026a 2B70     		strb	r3, [r5, #0]
 542 026c 4B48     		ldr	r0, .L232+76
 543 026e FFF7FEFF 		bl	uart_transmit
 544              	.LVL18:
 545              	.LBE118:
 546              	.LBB119:
 547 0272 217F     		ldrb	r1, [r4, #28]	@ zero_extendqisi2
 548              	.LVL19:
 549 0274 3378     		ldrb	r3, [r6, #0]	@ zero_extendqisi2
 550 0276 2A78     		ldrb	r2, [r5, #0]	@ zero_extendqisi2
 551 0278 CB18     		adds	r3, r1, r3
 552 027a DBB2     		uxtb	r3, r3
 553              	.LVL20:
 554 027c 3370     		strb	r3, [r6, #0]
 555 027e 9B18     		adds	r3, r3, r2
 556              	.LVL21:
 557 0280 2B70     		strb	r3, [r5, #0]
 558 0282 4648     		ldr	r0, .L232+76
 559 0284 FFF7FEFF 		bl	uart_transmit
 560              	.LVL22:
 561              	.LBE119:
 562              	.LBB120:
 563 0288 617F     		ldrb	r1, [r4, #29]	@ zero_extendqisi2
 564              	.LVL23:
 565 028a 3378     		ldrb	r3, [r6, #0]	@ zero_extendqisi2
 566 028c 2A78     		ldrb	r2, [r5, #0]	@ zero_extendqisi2
 567 028e CB18     		adds	r3, r1, r3
 568 0290 DBB2     		uxtb	r3, r3
 569              	.LVL24:
 570 0292 3370     		strb	r3, [r6, #0]
 571 0294 9B18     		adds	r3, r3, r2
 572              	.LVL25:
 573 0296 2B70     		strb	r3, [r5, #0]
 574 0298 4048     		ldr	r0, .L232+76
 575 029a FFF7FEFF 		bl	uart_transmit
 576              	.LVL26:
 577              	.LBE120:
 578              	.LBB121:
 579 029e A17F     		ldrb	r1, [r4, #30]	@ zero_extendqisi2
 580              	.LVL27:
 581 02a0 3378     		ldrb	r3, [r6, #0]	@ zero_extendqisi2
 582 02a2 2A78     		ldrb	r2, [r5, #0]	@ zero_extendqisi2
 583 02a4 CB18     		adds	r3, r1, r3
 584 02a6 DBB2     		uxtb	r3, r3
 585              	.LVL28:
 586 02a8 3370     		strb	r3, [r6, #0]
 587 02aa 9B18     		adds	r3, r3, r2
 588              	.LVL29:
 589 02ac 2B70     		strb	r3, [r5, #0]
 590 02ae 3B48     		ldr	r0, .L232+76
 591 02b0 FFF7FEFF 		bl	uart_transmit
 592              	.LVL30:
 593              	.LBE121:
 594              	.LBB122:
 595 02b4 E17F     		ldrb	r1, [r4, #31]	@ zero_extendqisi2
 596              	.LVL31:
 597 02b6 3378     		ldrb	r3, [r6, #0]	@ zero_extendqisi2
 598 02b8 2A78     		ldrb	r2, [r5, #0]	@ zero_extendqisi2
 599 02ba CB18     		adds	r3, r1, r3
 600 02bc DBB2     		uxtb	r3, r3
 601              	.LVL32:
 602 02be 3370     		strb	r3, [r6, #0]
 603 02c0 9B18     		adds	r3, r3, r2
 604              	.LVL33:
 605 02c2 2B70     		strb	r3, [r5, #0]
 606 02c4 3548     		ldr	r0, .L232+76
 607 02c6 FFF7FEFF 		bl	uart_transmit
 608              	.LVL34:
 609              	.LBE122:
 610              	.LBB123:
 611 02ca 217E     		ldrb	r1, [r4, #24]	@ zero_extendqisi2
 612              	.LVL35:
 613 02cc 3378     		ldrb	r3, [r6, #0]	@ zero_extendqisi2
 614 02ce 2A78     		ldrb	r2, [r5, #0]	@ zero_extendqisi2
 615 02d0 CB18     		adds	r3, r1, r3
 616 02d2 DBB2     		uxtb	r3, r3
 617              	.LVL36:
 618 02d4 3370     		strb	r3, [r6, #0]
 619 02d6 9B18     		adds	r3, r3, r2
 620              	.LVL37:
 621 02d8 2B70     		strb	r3, [r5, #0]
 622 02da 3048     		ldr	r0, .L232+76
 623 02dc FFF7FEFF 		bl	uart_transmit
 624              	.LVL38:
 625              	.LBE123:
 626              	.LBB124:
 627 02e0 617E     		ldrb	r1, [r4, #25]	@ zero_extendqisi2
 628              	.LVL39:
 629 02e2 3378     		ldrb	r3, [r6, #0]	@ zero_extendqisi2
 630 02e4 2A78     		ldrb	r2, [r5, #0]	@ zero_extendqisi2
 631 02e6 CB18     		adds	r3, r1, r3
 632 02e8 DBB2     		uxtb	r3, r3
 633              	.LVL40:
 634 02ea 3370     		strb	r3, [r6, #0]
 635 02ec 9B18     		adds	r3, r3, r2
 636              	.LVL41:
 637 02ee 2B70     		strb	r3, [r5, #0]
 638 02f0 2A48     		ldr	r0, .L232+76
 639 02f2 FFF7FEFF 		bl	uart_transmit
 640              	.LVL42:
 641              	.LBE124:
 642              	.LBB125:
 643 02f6 A17E     		ldrb	r1, [r4, #26]	@ zero_extendqisi2
 644              	.LVL43:
 645 02f8 3378     		ldrb	r3, [r6, #0]	@ zero_extendqisi2
 646 02fa 2A78     		ldrb	r2, [r5, #0]	@ zero_extendqisi2
 647 02fc CB18     		adds	r3, r1, r3
 648 02fe DBB2     		uxtb	r3, r3
 649              	.LVL44:
 650 0300 3370     		strb	r3, [r6, #0]
 651 0302 9B18     		adds	r3, r3, r2
 652              	.LVL45:
 653 0304 2B70     		strb	r3, [r5, #0]
 654 0306 2548     		ldr	r0, .L232+76
 655 0308 FFF7FEFF 		bl	uart_transmit
 656              	.LVL46:
 657              	.LBE125:
 658              	.LBB126:
 659 030c E17E     		ldrb	r1, [r4, #27]	@ zero_extendqisi2
 660              	.LVL47:
 661 030e 3378     		ldrb	r3, [r6, #0]	@ zero_extendqisi2
 662 0310 2A78     		ldrb	r2, [r5, #0]	@ zero_extendqisi2
 663 0312 CB18     		adds	r3, r1, r3
 664 0314 DBB2     		uxtb	r3, r3
 665              	.LVL48:
 666 0316 3370     		strb	r3, [r6, #0]
 667 0318 9B18     		adds	r3, r3, r2
 668              	.LVL49:
 669 031a 2B70     		strb	r3, [r5, #0]
 670 031c 1F48     		ldr	r0, .L232+76
 671 031e FFF7FEFF 		bl	uart_transmit
 672              	.LVL50:
 673              	.LBE126:
 674              	.LBB127:
 675 0322 9DF81E10 		ldrb	r1, [sp, #30]	@ zero_extendqisi2
 676              	.LVL51:
 677 0326 3378     		ldrb	r3, [r6, #0]	@ zero_extendqisi2
 678 0328 2A78     		ldrb	r2, [r5, #0]	@ zero_extendqisi2
 679 032a CB18     		adds	r3, r1, r3
 680 032c DBB2     		uxtb	r3, r3
 681              	.LVL52:
 682 032e 3370     		strb	r3, [r6, #0]
 683 0330 9B18     		adds	r3, r3, r2
 684              	.LVL53:
 685 0332 2B70     		strb	r3, [r5, #0]
 686 0334 1948     		ldr	r0, .L232+76
 687 0336 FFF7FEFF 		bl	uart_transmit
 688              	.LVL54:
 689              	.LBE127:
 690              	.LBB128:
 691 033a 9DF81F10 		ldrb	r1, [sp, #31]	@ zero_extendqisi2
 692              	.LVL55:
 693 033e 3378     		ldrb	r3, [r6, #0]	@ zero_extendqisi2
 694 0340 2A78     		ldrb	r2, [r5, #0]	@ zero_extendqisi2
 695 0342 CB18     		adds	r3, r1, r3
 696 0344 DBB2     		uxtb	r3, r3
 697              	.LVL56:
 698 0346 3370     		strb	r3, [r6, #0]
 699 0348 9B18     		adds	r3, r3, r2
 700              	.LVL57:
 701 034a 2B70     		strb	r3, [r5, #0]
 702 034c 30E0     		b	.L233
 703              	.L234:
 704 034e 00BF     		.align	3
 705              	.L232:
 706 0350 F8C1631A 		.word	442745336
 707 0354 DCA54C40 		.word	1078765020
 708 0358 00000000 		.word	0
 709 035c 80842E41 		.word	1093567616
 710 0360 00000000 		.word	telemetry_mode_Ap
 711 0364 00000000 		.word	.LANCHOR10
 712 0368 00000000 		.word	.LANCHOR11
 713 036c 00000000 		.word	.LANCHOR12
 714 0370 00000000 		.word	.LANCHOR13
 715 0374 00000000 		.word	.LANCHOR14
 716 0378 00000000 		.word	.LANCHOR15
 717 037c 00000000 		.word	.LANCHOR16
 718 0380 00000000 		.word	.LANCHOR17
 719 0384 00000000 		.word	.LANCHOR18
 720 0388 00000000 		.word	.LANCHOR19
 721 038c 00000000 		.word	.LANCHOR20
 722 0390 00000000 		.word	.LANCHOR21
 723 0394 00000000 		.word	.LANCHOR22
 724 0398 00000000 		.word	gps
 725 039c 00000000 		.word	uart2
 726 03a0 00000000 		.word	downlink_nb_bytes
 727 03a4 00000000 		.word	downlink_nb_msgs
 728 03a8 00000000 		.word	ck_a
 729 03ac 00000000 		.word	ck_b
 730              	.L233:
 731 03b0 6548     		ldr	r0, .L235
 732 03b2 FFF7FEFF 		bl	uart_transmit
 733              	.LVL58:
 734              	.LBE128:
 735              	.LBB129:
 736 03b6 94F82810 		ldrb	r1, [r4, #40]	@ zero_extendqisi2
 737              	.LVL59:
 738 03ba 3378     		ldrb	r3, [r6, #0]	@ zero_extendqisi2
 739 03bc 2A78     		ldrb	r2, [r5, #0]	@ zero_extendqisi2
 740 03be CB18     		adds	r3, r1, r3
 741 03c0 DBB2     		uxtb	r3, r3
 742              	.LVL60:
 743 03c2 3370     		strb	r3, [r6, #0]
 744 03c4 9B18     		adds	r3, r3, r2
 745              	.LVL61:
 746 03c6 2B70     		strb	r3, [r5, #0]
 747 03c8 5F48     		ldr	r0, .L235
 748 03ca FFF7FEFF 		bl	uart_transmit
 749              	.LVL62:
 750              	.LBE129:
 751              	.LBB130:
 752 03ce 94F82910 		ldrb	r1, [r4, #41]	@ zero_extendqisi2
 753              	.LVL63:
 754 03d2 3378     		ldrb	r3, [r6, #0]	@ zero_extendqisi2
 755 03d4 2A78     		ldrb	r2, [r5, #0]	@ zero_extendqisi2
 756 03d6 CB18     		adds	r3, r1, r3
 757 03d8 DBB2     		uxtb	r3, r3
 758              	.LVL64:
 759 03da 3370     		strb	r3, [r6, #0]
 760 03dc 9B18     		adds	r3, r3, r2
 761              	.LVL65:
 762 03de 2B70     		strb	r3, [r5, #0]
 763 03e0 5948     		ldr	r0, .L235
 764 03e2 FFF7FEFF 		bl	uart_transmit
 765              	.LVL66:
 766              	.LBE130:
 767              	.LBB131:
 768 03e6 94F82A10 		ldrb	r1, [r4, #42]	@ zero_extendqisi2
 769              	.LVL67:
 770 03ea 3378     		ldrb	r3, [r6, #0]	@ zero_extendqisi2
 771 03ec 2A78     		ldrb	r2, [r5, #0]	@ zero_extendqisi2
 772 03ee CB18     		adds	r3, r1, r3
 773 03f0 DBB2     		uxtb	r3, r3
 774              	.LVL68:
 775 03f2 3370     		strb	r3, [r6, #0]
 776 03f4 9B18     		adds	r3, r3, r2
 777              	.LVL69:
 778 03f6 2B70     		strb	r3, [r5, #0]
 779 03f8 5348     		ldr	r0, .L235
 780 03fa FFF7FEFF 		bl	uart_transmit
 781              	.LVL70:
 782              	.LBE131:
 783              	.LBB132:
 784 03fe 94F82B10 		ldrb	r1, [r4, #43]	@ zero_extendqisi2
 785              	.LVL71:
 786 0402 3378     		ldrb	r3, [r6, #0]	@ zero_extendqisi2
 787 0404 2A78     		ldrb	r2, [r5, #0]	@ zero_extendqisi2
 788 0406 CB18     		adds	r3, r1, r3
 789 0408 DBB2     		uxtb	r3, r3
 790              	.LVL72:
 791 040a 3370     		strb	r3, [r6, #0]
 792 040c 9B18     		adds	r3, r3, r2
 793              	.LVL73:
 794 040e 2B70     		strb	r3, [r5, #0]
 795 0410 4D48     		ldr	r0, .L235
 796 0412 FFF7FEFF 		bl	uart_transmit
 797              	.LVL74:
 798              	.LBE132:
 799              	.LBB133:
 800 0416 94F84410 		ldrb	r1, [r4, #68]	@ zero_extendqisi2
 801              	.LVL75:
 802 041a 3378     		ldrb	r3, [r6, #0]	@ zero_extendqisi2
 803 041c 2A78     		ldrb	r2, [r5, #0]	@ zero_extendqisi2
 804 041e CB18     		adds	r3, r1, r3
 805 0420 DBB2     		uxtb	r3, r3
 806              	.LVL76:
 807 0422 3370     		strb	r3, [r6, #0]
 808 0424 9B18     		adds	r3, r3, r2
 809              	.LVL77:
 810 0426 2B70     		strb	r3, [r5, #0]
 811 0428 4748     		ldr	r0, .L235
 812 042a FFF7FEFF 		bl	uart_transmit
 813              	.LVL78:
 814              	.LBE133:
 815              	.LBB134:
 816 042e 94F84510 		ldrb	r1, [r4, #69]	@ zero_extendqisi2
 817              	.LVL79:
 818 0432 3378     		ldrb	r3, [r6, #0]	@ zero_extendqisi2
 819 0434 2A78     		ldrb	r2, [r5, #0]	@ zero_extendqisi2
 820 0436 CB18     		adds	r3, r1, r3
 821 0438 DBB2     		uxtb	r3, r3
 822              	.LVL80:
 823 043a 3370     		strb	r3, [r6, #0]
 824 043c 9B18     		adds	r3, r3, r2
 825              	.LVL81:
 826 043e 2B70     		strb	r3, [r5, #0]
 827 0440 4148     		ldr	r0, .L235
 828 0442 FFF7FEFF 		bl	uart_transmit
 829              	.LVL82:
 830              	.LBE134:
 831              	.LBB135:
 832 0446 9DF81C10 		ldrb	r1, [sp, #28]	@ zero_extendqisi2
 833              	.LVL83:
 834 044a 3378     		ldrb	r3, [r6, #0]	@ zero_extendqisi2
 835 044c 2A78     		ldrb	r2, [r5, #0]	@ zero_extendqisi2
 836 044e CB18     		adds	r3, r1, r3
 837 0450 DBB2     		uxtb	r3, r3
 838              	.LVL84:
 839 0452 3370     		strb	r3, [r6, #0]
 840 0454 9B18     		adds	r3, r3, r2
 841              	.LVL85:
 842 0456 2B70     		strb	r3, [r5, #0]
 843 0458 3B48     		ldr	r0, .L235
 844 045a FFF7FEFF 		bl	uart_transmit
 845              	.LVL86:
 846              	.LBE135:
 847              	.LBB136:
 848 045e 9DF81D10 		ldrb	r1, [sp, #29]	@ zero_extendqisi2
 849              	.LVL87:
 850 0462 3378     		ldrb	r3, [r6, #0]	@ zero_extendqisi2
 851 0464 2A78     		ldrb	r2, [r5, #0]	@ zero_extendqisi2
 852 0466 CB18     		adds	r3, r1, r3
 853 0468 DBB2     		uxtb	r3, r3
 854              	.LVL88:
 855 046a 3370     		strb	r3, [r6, #0]
 856 046c 9B18     		adds	r3, r3, r2
 857              	.LVL89:
 858 046e 2B70     		strb	r3, [r5, #0]
 859 0470 3548     		ldr	r0, .L235
 860 0472 FFF7FEFF 		bl	uart_transmit
 861              	.LVL90:
 862              	.LBE136:
 863              	.LBB137:
 864 0476 94F85C10 		ldrb	r1, [r4, #92]	@ zero_extendqisi2
 865              	.LVL91:
 866 047a 3378     		ldrb	r3, [r6, #0]	@ zero_extendqisi2
 867 047c 2A78     		ldrb	r2, [r5, #0]	@ zero_extendqisi2
 868 047e CB18     		adds	r3, r1, r3
 869 0480 DBB2     		uxtb	r3, r3
 870              	.LVL92:
 871 0482 3370     		strb	r3, [r6, #0]
 872 0484 9B18     		adds	r3, r3, r2
 873              	.LVL93:
 874 0486 2B70     		strb	r3, [r5, #0]
 875 0488 2F48     		ldr	r0, .L235
 876 048a FFF7FEFF 		bl	uart_transmit
 877              	.LVL94:
 878              	.LBE137:
 879              	.LBB138:
 880 048e 94F85D10 		ldrb	r1, [r4, #93]	@ zero_extendqisi2
 881              	.LVL95:
 882 0492 3378     		ldrb	r3, [r6, #0]	@ zero_extendqisi2
 883 0494 2A78     		ldrb	r2, [r5, #0]	@ zero_extendqisi2
 884 0496 CB18     		adds	r3, r1, r3
 885 0498 DBB2     		uxtb	r3, r3
 886              	.LVL96:
 887 049a 3370     		strb	r3, [r6, #0]
 888 049c 9B18     		adds	r3, r3, r2
 889              	.LVL97:
 890 049e 2B70     		strb	r3, [r5, #0]
 891 04a0 2948     		ldr	r0, .L235
 892 04a2 FFF7FEFF 		bl	uart_transmit
 893              	.LVL98:
 894              	.LBE138:
 895              	.LBB139:
 896 04a6 94F86010 		ldrb	r1, [r4, #96]	@ zero_extendqisi2
 897              	.LVL99:
 898 04aa 3378     		ldrb	r3, [r6, #0]	@ zero_extendqisi2
 899 04ac 2A78     		ldrb	r2, [r5, #0]	@ zero_extendqisi2
 900 04ae CB18     		adds	r3, r1, r3
 901 04b0 DBB2     		uxtb	r3, r3
 902              	.LVL100:
 903 04b2 3370     		strb	r3, [r6, #0]
 904 04b4 9B18     		adds	r3, r3, r2
 905              	.LVL101:
 906 04b6 2B70     		strb	r3, [r5, #0]
 907 04b8 2348     		ldr	r0, .L235
 908 04ba FFF7FEFF 		bl	uart_transmit
 909              	.LVL102:
 910              	.LBE139:
 911              	.LBB140:
 912 04be 94F86110 		ldrb	r1, [r4, #97]	@ zero_extendqisi2
 913              	.LVL103:
 914 04c2 3378     		ldrb	r3, [r6, #0]	@ zero_extendqisi2
 915 04c4 2A78     		ldrb	r2, [r5, #0]	@ zero_extendqisi2
 916 04c6 CB18     		adds	r3, r1, r3
 917 04c8 DBB2     		uxtb	r3, r3
 918              	.LVL104:
 919 04ca 3370     		strb	r3, [r6, #0]
 920 04cc 9B18     		adds	r3, r3, r2
 921              	.LVL105:
 922 04ce 2B70     		strb	r3, [r5, #0]
 923 04d0 1D48     		ldr	r0, .L235
 924 04d2 FFF7FEFF 		bl	uart_transmit
 925              	.LVL106:
 926              	.LBE140:
 927              	.LBB141:
 928 04d6 94F86210 		ldrb	r1, [r4, #98]	@ zero_extendqisi2
 929              	.LVL107:
 930 04da 3378     		ldrb	r3, [r6, #0]	@ zero_extendqisi2
 931 04dc 2A78     		ldrb	r2, [r5, #0]	@ zero_extendqisi2
 932 04de CB18     		adds	r3, r1, r3
 933 04e0 DBB2     		uxtb	r3, r3
 934              	.LVL108:
 935 04e2 3370     		strb	r3, [r6, #0]
 936 04e4 9B18     		adds	r3, r3, r2
 937              	.LVL109:
 938 04e6 2B70     		strb	r3, [r5, #0]
 939 04e8 1748     		ldr	r0, .L235
 940 04ea FFF7FEFF 		bl	uart_transmit
 941              	.LVL110:
 942              	.LBE141:
 943              	.LBB142:
 944 04ee 94F86310 		ldrb	r1, [r4, #99]	@ zero_extendqisi2
 945              	.LVL111:
 946 04f2 3378     		ldrb	r3, [r6, #0]	@ zero_extendqisi2
 947 04f4 2A78     		ldrb	r2, [r5, #0]	@ zero_extendqisi2
 948 04f6 CB18     		adds	r3, r1, r3
 949 04f8 DBB2     		uxtb	r3, r3
 950              	.LVL112:
 951 04fa 3370     		strb	r3, [r6, #0]
 952 04fc 9B18     		adds	r3, r3, r2
 953              	.LVL113:
 954 04fe 2B70     		strb	r3, [r5, #0]
 955 0500 1148     		ldr	r0, .L235
 956 0502 FFF7FEFF 		bl	uart_transmit
 957              	.LVL114:
 958              	.LBE142:
 959              	.LBB143:
 960 0506 94F82410 		ldrb	r1, [r4, #36]	@ zero_extendqisi2
 961              	.LVL115:
 962 050a 3378     		ldrb	r3, [r6, #0]	@ zero_extendqisi2
 963 050c 2A78     		ldrb	r2, [r5, #0]	@ zero_extendqisi2
 964 050e CB18     		adds	r3, r1, r3
 965 0510 DBB2     		uxtb	r3, r3
 966              	.LVL116:
 967 0512 3370     		strb	r3, [r6, #0]
 968 0514 9B18     		adds	r3, r3, r2
 969              	.LVL117:
 970 0516 2B70     		strb	r3, [r5, #0]
 971 0518 0B48     		ldr	r0, .L235
 972 051a FFF7FEFF 		bl	uart_transmit
 973              	.LVL118:
 974              	.LBE143:
 975              	.LBB144:
 976 051e 0B4B     		ldr	r3, .L235+4
 977 0520 2A78     		ldrb	r2, [r5, #0]	@ zero_extendqisi2
 978 0522 1978     		ldrb	r1, [r3, #0]	@ zero_extendqisi2
 979              	.LVL119:
 980 0524 3378     		ldrb	r3, [r6, #0]	@ zero_extendqisi2
 981 0526 0848     		ldr	r0, .L235
 982 0528 CB18     		adds	r3, r1, r3
 983 052a DBB2     		uxtb	r3, r3
 984              	.LVL120:
 985 052c 3370     		strb	r3, [r6, #0]
 986 052e 9B18     		adds	r3, r3, r2
 987              	.LVL121:
 988 0530 2B70     		strb	r3, [r5, #0]
 989 0532 FFF7FEFF 		bl	uart_transmit
 990              	.LVL122:
 991              	.LBE144:
 992 0536 3178     		ldrb	r1, [r6, #0]	@ zero_extendqisi2
 993 0538 0348     		ldr	r0, .L235
 994 053a FFF7FEFF 		bl	uart_transmit
 995 053e 0248     		ldr	r0, .L235
 996 0540 2978     		ldrb	r1, [r5, #0]	@ zero_extendqisi2
 997 0542 FFF7FEFF 		bl	uart_transmit
 998 0546 07E0     		b	.L25
 999              	.L236:
 1000              		.align	2
 1001              	.L235:
 1002 0548 00000000 		.word	uart2
 1003 054c 00000000 		.word	.LANCHOR23
 1004              	.LVL123:
 1005              	.L24:
 1006              		.loc 1 422 0 discriminator 32
 1007 0550 674B     		ldr	r3, .L237
 1008 0552 1A78     		ldrb	r2, [r3, #0]	@ zero_extendqisi2
 1009 0554 0132     		adds	r2, r2, #1
 1010 0556 1A70     		strb	r2, [r3, #0]
 1011              	.L25:
 1012              		.loc 1 422 0 discriminator 1
 1013 0558 664A     		ldr	r2, .L237+4
 1014 055a 92F85B30 		ldrb	r3, [r2, #91]	@ zero_extendqisi2
 1015 055e 032B     		cmp	r3, #3
 1016 0560 654B     		ldr	r3, .L237+8
 1017 0562 06D0     		beq	.L26
 1018              		.loc 1 422 0 discriminator 2
 1019 0564 1878     		ldrb	r0, [r3, #0]	@ zero_extendqisi2
 1020 0566 92F86410 		ldrb	r1, [r2, #100]	@ zero_extendqisi2
 1021 056a 8842     		cmp	r0, r1
 1022 056c 01D3     		bcc	.L26
 1023              		.loc 1 422 0 discriminator 4
 1024 056e 0021     		movs	r1, #0
 1025 0570 1970     		strb	r1, [r3, #0]
 1026              	.L26:
 1027              		.loc 1 422 0 discriminator 3
 1028 0572 92F86420 		ldrb	r2, [r2, #100]	@ zero_extendqisi2
 1029 0576 1B78     		ldrb	r3, [r3, #0]	@ zero_extendqisi2
 1030 0578 B3EB420F 		cmp	r3, r2, lsl #1
 1031 057c 02DB     		blt	.L27
 1032              		.loc 1 422 0 discriminator 5
 1033 057e 5E4B     		ldr	r3, .L237+8
 1034 0580 0021     		movs	r1, #0
 1035 0582 1970     		strb	r1, [r3, #0]
 1036              	.L27:
 1037              		.loc 1 422 0 discriminator 6
 1038 0584 5C4E     		ldr	r6, .L237+8
 1039 0586 3378     		ldrb	r3, [r6, #0]	@ zero_extendqisi2
 1040 0588 9342     		cmp	r3, r2
 1041 058a 80F0C580 		bcs	.L28
 1042              		.loc 1 422 0 discriminator 7
 1043 058e 594F     		ldr	r7, .L237+4
 1044 0590 07EBC303 		add	r3, r7, r3, lsl #3
 1045 0594 93F86930 		ldrb	r3, [r3, #105]	@ zero_extendqisi2
 1046 0598 002B     		cmp	r3, #0
 1047 059a 00F0BD80 		beq	.L28
 1048              		.loc 1 422 0 discriminator 9
 1049 059e 5748     		ldr	r0, .L237+12
 1050 05a0 0E21     		movs	r1, #14
 1051 05a2 FFF7FEFF 		bl	uart_check_free_space
 1052 05a6 0028     		cmp	r0, #0
 1053 05a8 00F0B280 		beq	.L29
 1054              		.loc 1 422 0 discriminator 10
 1055 05ac 544B     		ldr	r3, .L237+16
 1056              	.LBB145:
 1057 05ae 9921     		movs	r1, #153
 1058              	.LBE145:
 1059 05b0 1A88     		ldrh	r2, [r3, #0]
 1060              	.LBB146:
 1061 05b2 5248     		ldr	r0, .L237+12
 1062              	.LBE146:
 1063 05b4 0E32     		adds	r2, r2, #14
 1064 05b6 1A80     		strh	r2, [r3, #0]	@ movhi
 1065 05b8 524B     		ldr	r3, .L237+20
 1066 05ba 534D     		ldr	r5, .L237+24
 1067 05bc 1A88     		ldrh	r2, [r3, #0]
 1068 05be 534C     		ldr	r4, .L237+28
 1069 05c0 0132     		adds	r2, r2, #1
 1070 05c2 1A80     		strh	r2, [r3, #0]	@ movhi
 1071              	.LBB147:
 1072 05c4 FFF7FEFF 		bl	uart_transmit
 1073              	.LVL124:
 1074 05c8 0E21     		movs	r1, #14
 1075 05ca 4C48     		ldr	r0, .L237+12
 1076 05cc FFF7FEFF 		bl	uart_transmit
 1077              	.LBE147:
 1078 05d0 0F23     		movs	r3, #15
 1079 05d2 2B70     		strb	r3, [r5, #0]
 1080 05d4 1D23     		movs	r3, #29
 1081 05d6 2370     		strb	r3, [r4, #0]
 1082 05d8 0121     		movs	r1, #1
 1083 05da 4848     		ldr	r0, .L237+12
 1084 05dc FFF7FEFF 		bl	uart_transmit
 1085 05e0 2B78     		ldrb	r3, [r5, #0]	@ zero_extendqisi2
 1086 05e2 2278     		ldrb	r2, [r4, #0]	@ zero_extendqisi2
 1087 05e4 1933     		adds	r3, r3, #25
 1088 05e6 DBB2     		uxtb	r3, r3
 1089 05e8 2B70     		strb	r3, [r5, #0]
 1090 05ea 9B18     		adds	r3, r3, r2
 1091 05ec 2370     		strb	r3, [r4, #0]
 1092 05ee 1921     		movs	r1, #25
 1093 05f0 4248     		ldr	r0, .L237+12
 1094 05f2 FFF7FEFF 		bl	uart_transmit
 1095              	.LBB148:
 1096 05f6 3178     		ldrb	r1, [r6, #0]	@ zero_extendqisi2
 1097              	.LVL125:
 1098 05f8 2B78     		ldrb	r3, [r5, #0]	@ zero_extendqisi2
 1099 05fa 2278     		ldrb	r2, [r4, #0]	@ zero_extendqisi2
 1100 05fc CB18     		adds	r3, r1, r3
 1101 05fe DBB2     		uxtb	r3, r3
 1102              	.LVL126:
 1103 0600 2B70     		strb	r3, [r5, #0]
 1104 0602 9B18     		adds	r3, r3, r2
 1105              	.LVL127:
 1106 0604 2370     		strb	r3, [r4, #0]
 1107 0606 3D48     		ldr	r0, .L237+12
 1108 0608 FFF7FEFF 		bl	uart_transmit
 1109              	.LVL128:
 1110              	.LBE148:
 1111              	.LBB149:
 1112 060c 3378     		ldrb	r3, [r6, #0]	@ zero_extendqisi2
 1113 060e 2278     		ldrb	r2, [r4, #0]	@ zero_extendqisi2
 1114 0610 07EBC303 		add	r3, r7, r3, lsl #3
 1115 0614 93F86610 		ldrb	r1, [r3, #102]	@ zero_extendqisi2
 1116              	.LVL129:
 1117 0618 2B78     		ldrb	r3, [r5, #0]	@ zero_extendqisi2
 1118 061a 3848     		ldr	r0, .L237+12
 1119 061c CB18     		adds	r3, r1, r3
 1120 061e DBB2     		uxtb	r3, r3
 1121              	.LVL130:
 1122 0620 2B70     		strb	r3, [r5, #0]
 1123 0622 9B18     		adds	r3, r3, r2
 1124              	.LVL131:
 1125 0624 2370     		strb	r3, [r4, #0]
 1126 0626 FFF7FEFF 		bl	uart_transmit
 1127              	.LVL132:
 1128              	.LBE149:
 1129              	.LBB150:
 1130 062a 3378     		ldrb	r3, [r6, #0]	@ zero_extendqisi2
 1131 062c 2278     		ldrb	r2, [r4, #0]	@ zero_extendqisi2
 1132 062e 07EBC303 		add	r3, r7, r3, lsl #3
 1133 0632 93F86710 		ldrb	r1, [r3, #103]	@ zero_extendqisi2
 1134              	.LVL133:
 1135 0636 2B78     		ldrb	r3, [r5, #0]	@ zero_extendqisi2
 1136 0638 3048     		ldr	r0, .L237+12
 1137 063a CB18     		adds	r3, r1, r3
 1138 063c DBB2     		uxtb	r3, r3
 1139              	.LVL134:
 1140 063e 2B70     		strb	r3, [r5, #0]
 1141 0640 9B18     		adds	r3, r3, r2
 1142              	.LVL135:
 1143 0642 2370     		strb	r3, [r4, #0]
 1144 0644 FFF7FEFF 		bl	uart_transmit
 1145              	.LVL136:
 1146              	.LBE150:
 1147              	.LBB151:
 1148 0648 3378     		ldrb	r3, [r6, #0]	@ zero_extendqisi2
 1149 064a 2278     		ldrb	r2, [r4, #0]	@ zero_extendqisi2
 1150 064c 07EBC303 		add	r3, r7, r3, lsl #3
 1151 0650 93F86810 		ldrb	r1, [r3, #104]	@ zero_extendqisi2
 1152              	.LVL137:
 1153 0654 2B78     		ldrb	r3, [r5, #0]	@ zero_extendqisi2
 1154 0656 2948     		ldr	r0, .L237+12
 1155 0658 CB18     		adds	r3, r1, r3
 1156 065a DBB2     		uxtb	r3, r3
 1157              	.LVL138:
 1158 065c 2B70     		strb	r3, [r5, #0]
 1159 065e 9B18     		adds	r3, r3, r2
 1160              	.LVL139:
 1161 0660 2370     		strb	r3, [r4, #0]
 1162 0662 FFF7FEFF 		bl	uart_transmit
 1163              	.LVL140:
 1164              	.LBE151:
 1165              	.LBB152:
 1166 0666 3378     		ldrb	r3, [r6, #0]	@ zero_extendqisi2
 1167 0668 2278     		ldrb	r2, [r4, #0]	@ zero_extendqisi2
 1168 066a 07EBC303 		add	r3, r7, r3, lsl #3
 1169 066e 93F86910 		ldrb	r1, [r3, #105]	@ zero_extendqisi2
 1170              	.LVL141:
 1171 0672 2B78     		ldrb	r3, [r5, #0]	@ zero_extendqisi2
 1172 0674 2148     		ldr	r0, .L237+12
 1173 0676 CB18     		adds	r3, r1, r3
 1174 0678 DBB2     		uxtb	r3, r3
 1175              	.LVL142:
 1176 067a 2B70     		strb	r3, [r5, #0]
 1177 067c 9B18     		adds	r3, r3, r2
 1178              	.LVL143:
 1179 067e 2370     		strb	r3, [r4, #0]
 1180 0680 FFF7FEFF 		bl	uart_transmit
 1181              	.LVL144:
 1182              	.LBE152:
 1183              	.LBB153:
 1184 0684 3378     		ldrb	r3, [r6, #0]	@ zero_extendqisi2
 1185 0686 2278     		ldrb	r2, [r4, #0]	@ zero_extendqisi2
 1186 0688 07EBC303 		add	r3, r7, r3, lsl #3
 1187 068c 93F86A10 		ldrb	r1, [r3, #106]	@ zero_extendqisi2
 1188              	.LVL145:
 1189 0690 2B78     		ldrb	r3, [r5, #0]	@ zero_extendqisi2
 1190 0692 1A48     		ldr	r0, .L237+12
 1191 0694 CB18     		adds	r3, r1, r3
 1192 0696 DBB2     		uxtb	r3, r3
 1193              	.LVL146:
 1194 0698 2B70     		strb	r3, [r5, #0]
 1195 069a 9B18     		adds	r3, r3, r2
 1196              	.LVL147:
 1197 069c 2370     		strb	r3, [r4, #0]
 1198 069e FFF7FEFF 		bl	uart_transmit
 1199              	.LVL148:
 1200              	.LBE153:
 1201              	.LBB154:
 1202 06a2 3378     		ldrb	r3, [r6, #0]	@ zero_extendqisi2
 1203 06a4 0C37     		adds	r7, r7, #12
 1204 06a6 0C33     		adds	r3, r3, #12
 1205 06a8 17F83310 		ldrb	r1, [r7, r3, lsl #3]	@ zero_extendqisi2
 1206              	.LVL149:
 1207 06ac 2B78     		ldrb	r3, [r5, #0]	@ zero_extendqisi2
 1208 06ae 2278     		ldrb	r2, [r4, #0]	@ zero_extendqisi2
 1209 06b0 CB18     		adds	r3, r1, r3
 1210 06b2 DBB2     		uxtb	r3, r3
 1211              	.LVL150:
 1212 06b4 2B70     		strb	r3, [r5, #0]
 1213 06b6 9B18     		adds	r3, r3, r2
 1214              	.LVL151:
 1215 06b8 2370     		strb	r3, [r4, #0]
 1216 06ba 1048     		ldr	r0, .L237+12
 1217 06bc FFF7FEFF 		bl	uart_transmit
 1218              	.LVL152:
 1219              	.LBE154:
 1220              	.LBB155:
 1221 06c0 3378     		ldrb	r3, [r6, #0]	@ zero_extendqisi2
 1222 06c2 2278     		ldrb	r2, [r4, #0]	@ zero_extendqisi2
 1223 06c4 07EBC307 		add	r7, r7, r3, lsl #3
 1224 06c8 97F86110 		ldrb	r1, [r7, #97]	@ zero_extendqisi2
 1225              	.LVL153:
 1226 06cc 2B78     		ldrb	r3, [r5, #0]	@ zero_extendqisi2
 1227 06ce 0B48     		ldr	r0, .L237+12
 1228 06d0 CB18     		adds	r3, r1, r3
 1229 06d2 DBB2     		uxtb	r3, r3
 1230              	.LVL154:
 1231 06d4 2B70     		strb	r3, [r5, #0]
 1232 06d6 9B18     		adds	r3, r3, r2
 1233              	.LVL155:
 1234 06d8 2370     		strb	r3, [r4, #0]
 1235 06da FFF7FEFF 		bl	uart_transmit
 1236              	.LVL156:
 1237              	.LBE155:
 1238 06de 2978     		ldrb	r1, [r5, #0]	@ zero_extendqisi2
 1239 06e0 0648     		ldr	r0, .L237+12
 1240 06e2 FFF7FEFF 		bl	uart_transmit
 1241 06e6 0548     		ldr	r0, .L237+12
 1242 06e8 2178     		ldrb	r1, [r4, #0]	@ zero_extendqisi2
 1243 06ea FFF7FEFF 		bl	uart_transmit
 1244 06ee 13E0     		b	.L28
 1245              	.L238:
 1246              		.align	2
 1247              	.L237:
 1248 06f0 00000000 		.word	downlink_nb_ovrn
 1249 06f4 00000000 		.word	gps
 1250 06f8 00000000 		.word	.LANCHOR23
 1251 06fc 00000000 		.word	uart2
 1252 0700 00000000 		.word	downlink_nb_bytes
 1253 0704 00000000 		.word	downlink_nb_msgs
 1254 0708 00000000 		.word	ck_a
 1255 070c 00000000 		.word	ck_b
 1256              	.LVL157:
 1257              	.L29:
 1258              		.loc 1 422 0 discriminator 11
 1259 0710 934B     		ldr	r3, .L239
 1260 0712 1A78     		ldrb	r2, [r3, #0]	@ zero_extendqisi2
 1261 0714 0132     		adds	r2, r2, #1
 1262 0716 1A70     		strb	r2, [r3, #0]
 1263              	.L28:
 1264              		.loc 1 422 0 discriminator 8
 1265 0718 924B     		ldr	r3, .L239+4
 1266 071a 1A78     		ldrb	r2, [r3, #0]	@ zero_extendqisi2
 1267 071c 0132     		adds	r2, r2, #1
 1268 071e 1A70     		strb	r2, [r3, #0]
 1269              	.L23:
 1270              	.LBE114:
 1271              		.loc 1 422 0 discriminator 30
 1272 0720 914B     		ldr	r3, .L239+8
 1273 0722 1E78     		ldrb	r6, [r3, #0]	@ zero_extendqisi2
 1274 0724 062E     		cmp	r6, #6
 1275 0726 40F08880 		bne	.L30
 1276              		.loc 1 422 0 discriminator 12
 1277 072a 9048     		ldr	r0, .L239+12
 1278 072c 1221     		movs	r1, #18
 1279 072e FFF7FEFF 		bl	uart_check_free_space
 1280 0732 0028     		cmp	r0, #0
 1281 0734 00F04282 		beq	.L36
 1282              		.loc 1 422 0 discriminator 14
 1283 0738 8D4B     		ldr	r3, .L239+16
 1284              	.LBB156:
 1285 073a 8C48     		ldr	r0, .L239+12
 1286              	.LBE156:
 1287 073c 1A88     		ldrh	r2, [r3, #0]
 1288              	.LBB157:
 1289 073e 9921     		movs	r1, #153
 1290              	.LBE157:
 1291 0740 1232     		adds	r2, r2, #18
 1292 0742 1A80     		strh	r2, [r3, #0]	@ movhi
 1293 0744 8B4B     		ldr	r3, .L239+20
 1294 0746 8C4D     		ldr	r5, .L239+24
 1295 0748 1A88     		ldrh	r2, [r3, #0]
 1296 074a 8C4C     		ldr	r4, .L239+28
 1297 074c 0132     		adds	r2, r2, #1
 1298 074e 1A80     		strh	r2, [r3, #0]	@ movhi
 1299              	.LBB158:
 1300 0750 FFF7FEFF 		bl	uart_transmit
 1301              	.LVL158:
 1302 0754 8548     		ldr	r0, .L239+12
 1303 0756 1221     		movs	r1, #18
 1304 0758 FFF7FEFF 		bl	uart_transmit
 1305              	.LBE158:
 1306 075c 1323     		movs	r3, #19
 1307 075e 2B70     		strb	r3, [r5, #0]
 1308 0760 2523     		movs	r3, #37
 1309 0762 2370     		strb	r3, [r4, #0]
 1310 0764 8148     		ldr	r0, .L239+12
 1311 0766 0121     		movs	r1, #1
 1312 0768 FFF7FEFF 		bl	uart_transmit
 1313 076c 2B78     		ldrb	r3, [r5, #0]	@ zero_extendqisi2
 1314 076e 2278     		ldrb	r2, [r4, #0]	@ zero_extendqisi2
 1315 0770 0633     		adds	r3, r3, #6
 1316 0772 DBB2     		uxtb	r3, r3
 1317 0774 3146     		mov	r1, r6
 1318 0776 2B70     		strb	r3, [r5, #0]
 1319              	.LBB159:
 1320 0778 814E     		ldr	r6, .L239+32
 1321              	.LBE159:
 1322 077a 9B18     		adds	r3, r3, r2
 1323 077c 2370     		strb	r3, [r4, #0]
 1324 077e 7B48     		ldr	r0, .L239+12
 1325 0780 FFF7FEFF 		bl	uart_transmit
 1326              	.LBB160:
 1327 0784 3178     		ldrb	r1, [r6, #0]	@ zero_extendqisi2
 1328              	.LVL159:
 1329 0786 2B78     		ldrb	r3, [r5, #0]	@ zero_extendqisi2
 1330 0788 2278     		ldrb	r2, [r4, #0]	@ zero_extendqisi2
 1331 078a CB18     		adds	r3, r1, r3
 1332 078c DBB2     		uxtb	r3, r3
 1333              	.LVL160:
 1334 078e 2B70     		strb	r3, [r5, #0]
 1335 0790 9B18     		adds	r3, r3, r2
 1336              	.LVL161:
 1337 0792 2370     		strb	r3, [r4, #0]
 1338 0794 7548     		ldr	r0, .L239+12
 1339 0796 FFF7FEFF 		bl	uart_transmit
 1340              	.LVL162:
 1341              	.LBE160:
 1342              	.LBB161:
 1343 079a 7178     		ldrb	r1, [r6, #1]	@ zero_extendqisi2
 1344              	.LVL163:
 1345 079c 2B78     		ldrb	r3, [r5, #0]	@ zero_extendqisi2
 1346 079e 2278     		ldrb	r2, [r4, #0]	@ zero_extendqisi2
 1347 07a0 CB18     		adds	r3, r1, r3
 1348 07a2 DBB2     		uxtb	r3, r3
 1349              	.LVL164:
 1350 07a4 2B70     		strb	r3, [r5, #0]
 1351 07a6 9B18     		adds	r3, r3, r2
 1352              	.LVL165:
 1353 07a8 2370     		strb	r3, [r4, #0]
 1354 07aa 7048     		ldr	r0, .L239+12
 1355 07ac FFF7FEFF 		bl	uart_transmit
 1356              	.LVL166:
 1357              	.LBE161:
 1358              	.LBB162:
 1359 07b0 B178     		ldrb	r1, [r6, #2]	@ zero_extendqisi2
 1360              	.LVL167:
 1361 07b2 2B78     		ldrb	r3, [r5, #0]	@ zero_extendqisi2
 1362 07b4 2278     		ldrb	r2, [r4, #0]	@ zero_extendqisi2
 1363 07b6 CB18     		adds	r3, r1, r3
 1364 07b8 DBB2     		uxtb	r3, r3
 1365              	.LVL168:
 1366 07ba 2B70     		strb	r3, [r5, #0]
 1367 07bc 9B18     		adds	r3, r3, r2
 1368              	.LVL169:
 1369 07be 2370     		strb	r3, [r4, #0]
 1370 07c0 6A48     		ldr	r0, .L239+12
 1371 07c2 FFF7FEFF 		bl	uart_transmit
 1372              	.LVL170:
 1373              	.LBE162:
 1374              	.LBB163:
 1375 07c6 F178     		ldrb	r1, [r6, #3]	@ zero_extendqisi2
 1376              	.LVL171:
 1377 07c8 2B78     		ldrb	r3, [r5, #0]	@ zero_extendqisi2
 1378 07ca 2278     		ldrb	r2, [r4, #0]	@ zero_extendqisi2
 1379 07cc CB18     		adds	r3, r1, r3
 1380 07ce DBB2     		uxtb	r3, r3
 1381              	.LBE163:
 1382              	.LBB164:
 1383 07d0 6C4E     		ldr	r6, .L239+36
 1384              	.LVL172:
 1385              	.LBE164:
 1386              	.LBB165:
 1387 07d2 2B70     		strb	r3, [r5, #0]
 1388 07d4 9B18     		adds	r3, r3, r2
 1389              	.LVL173:
 1390 07d6 2370     		strb	r3, [r4, #0]
 1391 07d8 6448     		ldr	r0, .L239+12
 1392 07da FFF7FEFF 		bl	uart_transmit
 1393              	.LVL174:
 1394              	.LBE165:
 1395              	.LBB166:
 1396 07de 3178     		ldrb	r1, [r6, #0]	@ zero_extendqisi2
 1397              	.LVL175:
 1398 07e0 2B78     		ldrb	r3, [r5, #0]	@ zero_extendqisi2
 1399 07e2 2278     		ldrb	r2, [r4, #0]	@ zero_extendqisi2
 1400 07e4 CB18     		adds	r3, r1, r3
 1401 07e6 DBB2     		uxtb	r3, r3
 1402              	.LVL176:
 1403 07e8 2B70     		strb	r3, [r5, #0]
 1404 07ea 9B18     		adds	r3, r3, r2
 1405              	.LVL177:
 1406 07ec 2370     		strb	r3, [r4, #0]
 1407 07ee 5F48     		ldr	r0, .L239+12
 1408 07f0 FFF7FEFF 		bl	uart_transmit
 1409              	.LVL178:
 1410              	.LBE166:
 1411              	.LBB167:
 1412 07f4 7178     		ldrb	r1, [r6, #1]	@ zero_extendqisi2
 1413              	.LVL179:
 1414 07f6 2B78     		ldrb	r3, [r5, #0]	@ zero_extendqisi2
 1415 07f8 2278     		ldrb	r2, [r4, #0]	@ zero_extendqisi2
 1416 07fa CB18     		adds	r3, r1, r3
 1417 07fc DBB2     		uxtb	r3, r3
 1418              	.LVL180:
 1419 07fe 2B70     		strb	r3, [r5, #0]
 1420 0800 9B18     		adds	r3, r3, r2
 1421              	.LVL181:
 1422 0802 2370     		strb	r3, [r4, #0]
 1423 0804 5948     		ldr	r0, .L239+12
 1424 0806 FFF7FEFF 		bl	uart_transmit
 1425              	.LVL182:
 1426              	.LBE167:
 1427              	.LBB168:
 1428 080a B178     		ldrb	r1, [r6, #2]	@ zero_extendqisi2
 1429              	.LVL183:
 1430 080c 2B78     		ldrb	r3, [r5, #0]	@ zero_extendqisi2
 1431 080e 2278     		ldrb	r2, [r4, #0]	@ zero_extendqisi2
 1432 0810 CB18     		adds	r3, r1, r3
 1433 0812 DBB2     		uxtb	r3, r3
 1434              	.LVL184:
 1435 0814 2B70     		strb	r3, [r5, #0]
 1436 0816 9B18     		adds	r3, r3, r2
 1437              	.LVL185:
 1438 0818 2370     		strb	r3, [r4, #0]
 1439 081a 5448     		ldr	r0, .L239+12
 1440 081c FFF7FEFF 		bl	uart_transmit
 1441              	.LVL186:
 1442              	.LBE168:
 1443              	.LBB169:
 1444 0820 F178     		ldrb	r1, [r6, #3]	@ zero_extendqisi2
 1445              	.LVL187:
 1446 0822 2B78     		ldrb	r3, [r5, #0]	@ zero_extendqisi2
 1447 0824 2278     		ldrb	r2, [r4, #0]	@ zero_extendqisi2
 1448 0826 CB18     		adds	r3, r1, r3
 1449 0828 DBB2     		uxtb	r3, r3
 1450              	.LVL188:
 1451 082a 2B70     		strb	r3, [r5, #0]
 1452 082c 9B18     		adds	r3, r3, r2
 1453              	.LVL189:
 1454 082e 2370     		strb	r3, [r4, #0]
 1455 0830 4E48     		ldr	r0, .L239+12
 1456 0832 FFF7FEFF 		bl	uart_transmit
 1457              	.LVL190:
 1458              	.LBE169:
 1459              	.LBB170:
 1460 0836 544E     		ldr	r6, .L239+40
 1461 0838 5CE0     		b	.L211
 1462              	.LVL191:
 1463              	.L30:
 1464              	.LBE170:
 1465              		.loc 1 422 0 discriminator 13
 1466 083a 0C2E     		cmp	r6, #12
 1467 083c 40F0AA80 		bne	.L33
 1468              		.loc 1 422 0 discriminator 16
 1469 0840 4A48     		ldr	r0, .L239+12
 1470 0842 0E21     		movs	r1, #14
 1471 0844 FFF7FEFF 		bl	uart_check_free_space
 1472 0848 0028     		cmp	r0, #0
 1473 084a 00F0B781 		beq	.L36
 1474              		.loc 1 422 0 discriminator 18
 1475 084e 484B     		ldr	r3, .L239+16
 1476              	.LBB171:
 1477 0850 4648     		ldr	r0, .L239+12
 1478              	.LBE171:
 1479 0852 1A88     		ldrh	r2, [r3, #0]
 1480              	.LBB172:
 1481 0854 9921     		movs	r1, #153
 1482              	.LBE172:
 1483 0856 0E32     		adds	r2, r2, #14
 1484 0858 1A80     		strh	r2, [r3, #0]	@ movhi
 1485 085a 464B     		ldr	r3, .L239+20
 1486 085c 464D     		ldr	r5, .L239+24
 1487 085e 1A88     		ldrh	r2, [r3, #0]
 1488 0860 464C     		ldr	r4, .L239+28
 1489 0862 0132     		adds	r2, r2, #1
 1490 0864 1A80     		strh	r2, [r3, #0]	@ movhi
 1491              	.LBB173:
 1492 0866 FFF7FEFF 		bl	uart_transmit
 1493              	.LVL192:
 1494 086a 4048     		ldr	r0, .L239+12
 1495 086c 0E21     		movs	r1, #14
 1496 086e FFF7FEFF 		bl	uart_transmit
 1497              	.LBE173:
 1498 0872 0F23     		movs	r3, #15
 1499 0874 2B70     		strb	r3, [r5, #0]
 1500 0876 1D23     		movs	r3, #29
 1501 0878 2370     		strb	r3, [r4, #0]
 1502 087a 3C48     		ldr	r0, .L239+12
 1503 087c 0121     		movs	r1, #1
 1504 087e FFF7FEFF 		bl	uart_transmit
 1505 0882 2B78     		ldrb	r3, [r5, #0]	@ zero_extendqisi2
 1506 0884 2278     		ldrb	r2, [r4, #0]	@ zero_extendqisi2
 1507 0886 2A33     		adds	r3, r3, #42
 1508 0888 DBB2     		uxtb	r3, r3
 1509              	.LBB174:
 1510 088a 404E     		ldr	r6, .L239+44
 1511              	.LBE174:
 1512 088c 2B70     		strb	r3, [r5, #0]
 1513 088e 9B18     		adds	r3, r3, r2
 1514 0890 2370     		strb	r3, [r4, #0]
 1515 0892 3648     		ldr	r0, .L239+12
 1516 0894 2A21     		movs	r1, #42
 1517 0896 FFF7FEFF 		bl	uart_transmit
 1518              	.LBB175:
 1519 089a 3178     		ldrb	r1, [r6, #0]	@ zero_extendqisi2
 1520              	.LVL193:
 1521 089c 2B78     		ldrb	r3, [r5, #0]	@ zero_extendqisi2
 1522 089e 2278     		ldrb	r2, [r4, #0]	@ zero_extendqisi2
 1523 08a0 CB18     		adds	r3, r1, r3
 1524 08a2 DBB2     		uxtb	r3, r3
 1525              	.LVL194:
 1526 08a4 2B70     		strb	r3, [r5, #0]
 1527 08a6 9B18     		adds	r3, r3, r2
 1528              	.LVL195:
 1529 08a8 2370     		strb	r3, [r4, #0]
 1530 08aa 3048     		ldr	r0, .L239+12
 1531 08ac FFF7FEFF 		bl	uart_transmit
 1532              	.LVL196:
 1533              	.LBE175:
 1534              	.LBB176:
 1535 08b0 7178     		ldrb	r1, [r6, #1]	@ zero_extendqisi2
 1536              	.LVL197:
 1537 08b2 2B78     		ldrb	r3, [r5, #0]	@ zero_extendqisi2
 1538 08b4 2278     		ldrb	r2, [r4, #0]	@ zero_extendqisi2
 1539 08b6 CB18     		adds	r3, r1, r3
 1540 08b8 DBB2     		uxtb	r3, r3
 1541              	.LVL198:
 1542 08ba 2B70     		strb	r3, [r5, #0]
 1543 08bc 9B18     		adds	r3, r3, r2
 1544              	.LVL199:
 1545 08be 2370     		strb	r3, [r4, #0]
 1546 08c0 2A48     		ldr	r0, .L239+12
 1547 08c2 FFF7FEFF 		bl	uart_transmit
 1548              	.LVL200:
 1549              	.LBE176:
 1550              	.LBB177:
 1551 08c6 B178     		ldrb	r1, [r6, #2]	@ zero_extendqisi2
 1552              	.LVL201:
 1553 08c8 2B78     		ldrb	r3, [r5, #0]	@ zero_extendqisi2
 1554 08ca 2278     		ldrb	r2, [r4, #0]	@ zero_extendqisi2
 1555 08cc CB18     		adds	r3, r1, r3
 1556 08ce DBB2     		uxtb	r3, r3
 1557              	.LVL202:
 1558 08d0 2B70     		strb	r3, [r5, #0]
 1559 08d2 9B18     		adds	r3, r3, r2
 1560              	.LVL203:
 1561 08d4 2370     		strb	r3, [r4, #0]
 1562 08d6 2548     		ldr	r0, .L239+12
 1563 08d8 FFF7FEFF 		bl	uart_transmit
 1564              	.LVL204:
 1565              	.LBE177:
 1566              	.LBB178:
 1567 08dc F178     		ldrb	r1, [r6, #3]	@ zero_extendqisi2
 1568              	.LVL205:
 1569 08de 2B78     		ldrb	r3, [r5, #0]	@ zero_extendqisi2
 1570 08e0 2278     		ldrb	r2, [r4, #0]	@ zero_extendqisi2
 1571 08e2 CB18     		adds	r3, r1, r3
 1572 08e4 DBB2     		uxtb	r3, r3
 1573              	.LVL206:
 1574 08e6 2B70     		strb	r3, [r5, #0]
 1575 08e8 9B18     		adds	r3, r3, r2
 1576              	.LVL207:
 1577 08ea 2370     		strb	r3, [r4, #0]
 1578 08ec 1F48     		ldr	r0, .L239+12
 1579 08ee FFF7FEFF 		bl	uart_transmit
 1580              	.LVL208:
 1581              	.LBE178:
 1582              	.LBB179:
 1583 08f2 274E     		ldr	r6, .L239+48
 1584              	.LVL209:
 1585              	.L211:
 1586 08f4 3178     		ldrb	r1, [r6, #0]	@ zero_extendqisi2
 1587              	.LVL210:
 1588 08f6 2B78     		ldrb	r3, [r5, #0]	@ zero_extendqisi2
 1589 08f8 2278     		ldrb	r2, [r4, #0]	@ zero_extendqisi2
 1590 08fa CB18     		adds	r3, r1, r3
 1591 08fc DBB2     		uxtb	r3, r3
 1592              	.LVL211:
 1593 08fe 2B70     		strb	r3, [r5, #0]
 1594 0900 9B18     		adds	r3, r3, r2
 1595              	.LVL212:
 1596 0902 2370     		strb	r3, [r4, #0]
 1597 0904 1948     		ldr	r0, .L239+12
 1598 0906 FFF7FEFF 		bl	uart_transmit
 1599              	.LVL213:
 1600              	.LBE179:
 1601              	.LBB180:
 1602 090a 7178     		ldrb	r1, [r6, #1]	@ zero_extendqisi2
 1603              	.LVL214:
 1604 090c 2B78     		ldrb	r3, [r5, #0]	@ zero_extendqisi2
 1605 090e 2278     		ldrb	r2, [r4, #0]	@ zero_extendqisi2
 1606 0910 CB18     		adds	r3, r1, r3
 1607 0912 DBB2     		uxtb	r3, r3
 1608              	.LVL215:
 1609 0914 2B70     		strb	r3, [r5, #0]
 1610 0916 9B18     		adds	r3, r3, r2
 1611              	.LVL216:
 1612 0918 2370     		strb	r3, [r4, #0]
 1613 091a 1448     		ldr	r0, .L239+12
 1614 091c FFF7FEFF 		bl	uart_transmit
 1615              	.LVL217:
 1616              	.LBE180:
 1617              	.LBB181:
 1618 0920 B178     		ldrb	r1, [r6, #2]	@ zero_extendqisi2
 1619              	.LVL218:
 1620 0922 2B78     		ldrb	r3, [r5, #0]	@ zero_extendqisi2
 1621 0924 2278     		ldrb	r2, [r4, #0]	@ zero_extendqisi2
 1622 0926 CB18     		adds	r3, r1, r3
 1623 0928 DBB2     		uxtb	r3, r3
 1624              	.LVL219:
 1625 092a 2B70     		strb	r3, [r5, #0]
 1626 092c 9B18     		adds	r3, r3, r2
 1627              	.LVL220:
 1628 092e 2370     		strb	r3, [r4, #0]
 1629 0930 0E48     		ldr	r0, .L239+12
 1630 0932 FFF7FEFF 		bl	uart_transmit
 1631              	.LVL221:
 1632              	.LBE181:
 1633              	.LBB182:
 1634 0936 F178     		ldrb	r1, [r6, #3]	@ zero_extendqisi2
 1635              	.LVL222:
 1636              	.L212:
 1637 0938 2B78     		ldrb	r3, [r5, #0]	@ zero_extendqisi2
 1638 093a 2278     		ldrb	r2, [r4, #0]	@ zero_extendqisi2
 1639 093c CB18     		adds	r3, r1, r3
 1640 093e DBB2     		uxtb	r3, r3
 1641              	.LVL223:
 1642 0940 2B70     		strb	r3, [r5, #0]
 1643 0942 9B18     		adds	r3, r3, r2
 1644              	.LVL224:
 1645 0944 2370     		strb	r3, [r4, #0]
 1646 0946 0948     		ldr	r0, .L239+12
 1647 0948 FFF7FEFF 		bl	uart_transmit
 1648              	.LVL225:
 1649              	.LBE182:
 1650 094c 2978     		ldrb	r1, [r5, #0]	@ zero_extendqisi2
 1651 094e 0748     		ldr	r0, .L239+12
 1652 0950 FFF7FEFF 		bl	uart_transmit
 1653 0954 0548     		ldr	r0, .L239+12
 1654 0956 2178     		ldrb	r1, [r4, #0]	@ zero_extendqisi2
 1655 0958 FFF7FEFF 		bl	uart_transmit
 1656 095c 32E1     		b	.L32
 1657              	.L240:
 1658 095e 00BF     		.align	2
 1659              	.L239:
 1660 0960 00000000 		.word	downlink_nb_ovrn
 1661 0964 00000000 		.word	.LANCHOR23
 1662 0968 00000000 		.word	.LANCHOR11
 1663 096c 00000000 		.word	uart2
 1664 0970 00000000 		.word	downlink_nb_bytes
 1665 0974 00000000 		.word	downlink_nb_msgs
 1666 0978 00000000 		.word	ck_a
 1667 097c 00000000 		.word	ck_b
 1668 0980 00000000 		.word	estimator_phi
 1669 0984 00000000 		.word	estimator_psi
 1670 0988 00000000 		.word	estimator_theta
 1671 098c 00000000 		.word	estimator_z
 1672 0990 00000000 		.word	estimator_z_dot
 1673              	.LVL226:
 1674              	.L33:
 1675              		.loc 1 422 0 discriminator 17
 1676 0994 122E     		cmp	r6, #18
 1677 0996 40F01581 		bne	.L32
 1678              	.LBB183:
 1679              		.loc 1 422 0 discriminator 20
 1680 099a 7D4B     		ldr	r3, .L241
 1681 099c 7D49     		ldr	r1, .L241+4
 1682 099e 1A78     		ldrb	r2, [r3, #0]	@ zero_extendqisi2
 1683 09a0 0978     		ldrb	r1, [r1, #0]	@ zero_extendqisi2
 1684 09a2 0132     		adds	r2, r2, #1
 1685 09a4 D2B2     		uxtb	r2, r2
 1686 09a6 9142     		cmp	r1, r2
 1687 09a8 1A70     		strb	r2, [r3, #0]
 1688 09aa 01D8     		bhi	.L35
 1689              		.loc 1 422 0 discriminator 22
 1690 09ac 0022     		movs	r2, #0
 1691 09ae 1A70     		strb	r2, [r3, #0]
 1692              	.L35:
 1693              	.LBB184:
 1694              		.loc 1 422 0 discriminator 23
 1695 09b0 1C78     		ldrb	r4, [r3, #0]	@ zero_extendqisi2
 1696 09b2 794B     		ldr	r3, .L241+8
 1697 09b4 0C27     		movs	r7, #12
 1698 09b6 1868     		ldr	r0, [r3, #0]
 1699 09b8 FFF7FEFF 		bl	__aeabi_i2f
 1700 09bc 07FB04F3 		mul	r3, r7, r4
 1701 09c0 764E     		ldr	r6, .L241+12
 1702 09c2 DFF8CC81 		ldr	r8, .L241
 1703 09c6 F158     		ldr	r1, [r6, r3]	@ float
 1704 09c8 F418     		adds	r4, r6, r3
 1705 09ca FFF7FEFF 		bl	__aeabi_fadd
 1706 09ce 744B     		ldr	r3, .L241+16
 1707 09d0 0490     		str	r0, [sp, #16]	@ float
 1708              	.LVL227:
 1709 09d2 1868     		ldr	r0, [r3, #0]
 1710 09d4 FFF7FEFF 		bl	__aeabi_i2f
 1711 09d8 6168     		ldr	r1, [r4, #4]	@ float
 1712 09da FFF7FEFF 		bl	__aeabi_fadd
 1713 09de 1421     		movs	r1, #20
 1714 09e0 0590     		str	r0, [sp, #20]	@ float
 1715              	.LVL228:
 1716 09e2 7048     		ldr	r0, .L241+20
 1717 09e4 FFF7FEFF 		bl	uart_check_free_space
 1718 09e8 0028     		cmp	r0, #0
 1719 09ea 00F0E780 		beq	.L36
 1720              		.loc 1 422 0 discriminator 24
 1721 09ee 6E4B     		ldr	r3, .L241+24
 1722              	.LBB185:
 1723 09f0 6C48     		ldr	r0, .L241+20
 1724              	.LBE185:
 1725 09f2 1A88     		ldrh	r2, [r3, #0]
 1726              	.LBB186:
 1727 09f4 9921     		movs	r1, #153
 1728              	.LBE186:
 1729 09f6 1432     		adds	r2, r2, #20
 1730 09f8 1A80     		strh	r2, [r3, #0]	@ movhi
 1731 09fa 6C4B     		ldr	r3, .L241+28
 1732 09fc 6C4D     		ldr	r5, .L241+32
 1733 09fe 1A88     		ldrh	r2, [r3, #0]
 1734 0a00 6C4C     		ldr	r4, .L241+36
 1735 0a02 0132     		adds	r2, r2, #1
 1736 0a04 1A80     		strh	r2, [r3, #0]	@ movhi
 1737              	.LBB187:
 1738 0a06 FFF7FEFF 		bl	uart_transmit
 1739              	.LVL229:
 1740 0a0a 6648     		ldr	r0, .L241+20
 1741 0a0c 1421     		movs	r1, #20
 1742 0a0e FFF7FEFF 		bl	uart_transmit
 1743              	.LBE187:
 1744 0a12 1523     		movs	r3, #21
 1745 0a14 2B70     		strb	r3, [r5, #0]
 1746 0a16 2923     		movs	r3, #41
 1747 0a18 2370     		strb	r3, [r4, #0]
 1748 0a1a 6248     		ldr	r0, .L241+20
 1749 0a1c 0121     		movs	r1, #1
 1750 0a1e FFF7FEFF 		bl	uart_transmit
 1751 0a22 2B78     		ldrb	r3, [r5, #0]	@ zero_extendqisi2
 1752 0a24 2278     		ldrb	r2, [r4, #0]	@ zero_extendqisi2
 1753 0a26 2333     		adds	r3, r3, #35
 1754 0a28 DBB2     		uxtb	r3, r3
 1755 0a2a 2B70     		strb	r3, [r5, #0]
 1756 0a2c 9B18     		adds	r3, r3, r2
 1757 0a2e 2370     		strb	r3, [r4, #0]
 1758 0a30 5C48     		ldr	r0, .L241+20
 1759 0a32 2321     		movs	r1, #35
 1760 0a34 FFF7FEFF 		bl	uart_transmit
 1761              	.LBB188:
 1762 0a38 98F80010 		ldrb	r1, [r8, #0]	@ zero_extendqisi2
 1763              	.LVL230:
 1764 0a3c 2B78     		ldrb	r3, [r5, #0]	@ zero_extendqisi2
 1765 0a3e 2278     		ldrb	r2, [r4, #0]	@ zero_extendqisi2
 1766 0a40 CB18     		adds	r3, r1, r3
 1767 0a42 DBB2     		uxtb	r3, r3
 1768              	.LVL231:
 1769 0a44 2B70     		strb	r3, [r5, #0]
 1770 0a46 9B18     		adds	r3, r3, r2
 1771              	.LVL232:
 1772 0a48 2370     		strb	r3, [r4, #0]
 1773 0a4a 5648     		ldr	r0, .L241+20
 1774 0a4c FFF7FEFF 		bl	uart_transmit
 1775              	.LVL233:
 1776              	.LBE188:
 1777              	.LBB189:
 1778 0a50 9DF81010 		ldrb	r1, [sp, #16]	@ zero_extendqisi2
 1779              	.LVL234:
 1780 0a54 2B78     		ldrb	r3, [r5, #0]	@ zero_extendqisi2
 1781 0a56 2278     		ldrb	r2, [r4, #0]	@ zero_extendqisi2
 1782 0a58 CB18     		adds	r3, r1, r3
 1783 0a5a DBB2     		uxtb	r3, r3
 1784              	.LVL235:
 1785 0a5c 2B70     		strb	r3, [r5, #0]
 1786 0a5e 9B18     		adds	r3, r3, r2
 1787              	.LVL236:
 1788 0a60 2370     		strb	r3, [r4, #0]
 1789 0a62 5048     		ldr	r0, .L241+20
 1790 0a64 FFF7FEFF 		bl	uart_transmit
 1791              	.LVL237:
 1792              	.LBE189:
 1793              	.LBB190:
 1794 0a68 9DF81110 		ldrb	r1, [sp, #17]	@ zero_extendqisi2
 1795              	.LVL238:
 1796 0a6c 2B78     		ldrb	r3, [r5, #0]	@ zero_extendqisi2
 1797 0a6e 2278     		ldrb	r2, [r4, #0]	@ zero_extendqisi2
 1798 0a70 CB18     		adds	r3, r1, r3
 1799 0a72 DBB2     		uxtb	r3, r3
 1800              	.LVL239:
 1801 0a74 2B70     		strb	r3, [r5, #0]
 1802 0a76 9B18     		adds	r3, r3, r2
 1803              	.LVL240:
 1804 0a78 2370     		strb	r3, [r4, #0]
 1805 0a7a 4A48     		ldr	r0, .L241+20
 1806 0a7c FFF7FEFF 		bl	uart_transmit
 1807              	.LVL241:
 1808              	.LBE190:
 1809              	.LBB191:
 1810 0a80 9DF81210 		ldrb	r1, [sp, #18]	@ zero_extendqisi2
 1811              	.LVL242:
 1812 0a84 2B78     		ldrb	r3, [r5, #0]	@ zero_extendqisi2
 1813 0a86 2278     		ldrb	r2, [r4, #0]	@ zero_extendqisi2
 1814 0a88 CB18     		adds	r3, r1, r3
 1815 0a8a DBB2     		uxtb	r3, r3
 1816              	.LVL243:
 1817 0a8c 2B70     		strb	r3, [r5, #0]
 1818 0a8e 9B18     		adds	r3, r3, r2
 1819              	.LVL244:
 1820 0a90 2370     		strb	r3, [r4, #0]
 1821 0a92 4448     		ldr	r0, .L241+20
 1822 0a94 FFF7FEFF 		bl	uart_transmit
 1823              	.LVL245:
 1824              	.LBE191:
 1825              	.LBB192:
 1826 0a98 9DF81310 		ldrb	r1, [sp, #19]	@ zero_extendqisi2
 1827              	.LVL246:
 1828 0a9c 2B78     		ldrb	r3, [r5, #0]	@ zero_extendqisi2
 1829 0a9e 2278     		ldrb	r2, [r4, #0]	@ zero_extendqisi2
 1830 0aa0 CB18     		adds	r3, r1, r3
 1831 0aa2 DBB2     		uxtb	r3, r3
 1832              	.LVL247:
 1833 0aa4 2B70     		strb	r3, [r5, #0]
 1834 0aa6 9B18     		adds	r3, r3, r2
 1835              	.LVL248:
 1836 0aa8 2370     		strb	r3, [r4, #0]
 1837 0aaa 3E48     		ldr	r0, .L241+20
 1838 0aac FFF7FEFF 		bl	uart_transmit
 1839              	.LVL249:
 1840              	.LBE192:
 1841              	.LBB193:
 1842 0ab0 9DF81410 		ldrb	r1, [sp, #20]	@ zero_extendqisi2
 1843              	.LVL250:
 1844 0ab4 2B78     		ldrb	r3, [r5, #0]	@ zero_extendqisi2
 1845 0ab6 2278     		ldrb	r2, [r4, #0]	@ zero_extendqisi2
 1846 0ab8 CB18     		adds	r3, r1, r3
 1847 0aba DBB2     		uxtb	r3, r3
 1848              	.LVL251:
 1849 0abc 2B70     		strb	r3, [r5, #0]
 1850 0abe 9B18     		adds	r3, r3, r2
 1851              	.LVL252:
 1852 0ac0 2370     		strb	r3, [r4, #0]
 1853 0ac2 3848     		ldr	r0, .L241+20
 1854 0ac4 FFF7FEFF 		bl	uart_transmit
 1855              	.LVL253:
 1856              	.LBE193:
 1857              	.LBB194:
 1858 0ac8 9DF81510 		ldrb	r1, [sp, #21]	@ zero_extendqisi2
 1859              	.LVL254:
 1860 0acc 2B78     		ldrb	r3, [r5, #0]	@ zero_extendqisi2
 1861 0ace 2278     		ldrb	r2, [r4, #0]	@ zero_extendqisi2
 1862 0ad0 CB18     		adds	r3, r1, r3
 1863 0ad2 DBB2     		uxtb	r3, r3
 1864              	.LVL255:
 1865 0ad4 2B70     		strb	r3, [r5, #0]
 1866 0ad6 9B18     		adds	r3, r3, r2
 1867              	.LVL256:
 1868 0ad8 2370     		strb	r3, [r4, #0]
 1869 0ada 3248     		ldr	r0, .L241+20
 1870 0adc FFF7FEFF 		bl	uart_transmit
 1871              	.LVL257:
 1872              	.LBE194:
 1873              	.LBB195:
 1874 0ae0 9DF81610 		ldrb	r1, [sp, #22]	@ zero_extendqisi2
 1875              	.LVL258:
 1876 0ae4 2B78     		ldrb	r3, [r5, #0]	@ zero_extendqisi2
 1877 0ae6 2278     		ldrb	r2, [r4, #0]	@ zero_extendqisi2
 1878 0ae8 CB18     		adds	r3, r1, r3
 1879 0aea DBB2     		uxtb	r3, r3
 1880              	.LVL259:
 1881 0aec 2B70     		strb	r3, [r5, #0]
 1882 0aee 9B18     		adds	r3, r3, r2
 1883              	.LVL260:
 1884 0af0 2370     		strb	r3, [r4, #0]
 1885 0af2 2C48     		ldr	r0, .L241+20
 1886 0af4 FFF7FEFF 		bl	uart_transmit
 1887              	.LVL261:
 1888              	.LBE195:
 1889              	.LBB196:
 1890 0af8 9DF81710 		ldrb	r1, [sp, #23]	@ zero_extendqisi2
 1891              	.LVL262:
 1892 0afc 2B78     		ldrb	r3, [r5, #0]	@ zero_extendqisi2
 1893 0afe 2278     		ldrb	r2, [r4, #0]	@ zero_extendqisi2
 1894 0b00 CB18     		adds	r3, r1, r3
 1895 0b02 DBB2     		uxtb	r3, r3
 1896              	.LVL263:
 1897 0b04 2B70     		strb	r3, [r5, #0]
 1898 0b06 9B18     		adds	r3, r3, r2
 1899              	.LVL264:
 1900 0b08 2370     		strb	r3, [r4, #0]
 1901 0b0a 2648     		ldr	r0, .L241+20
 1902 0b0c FFF7FEFF 		bl	uart_transmit
 1903              	.LVL265:
 1904              	.LBE196:
 1905              	.LBB197:
 1906 0b10 98F80030 		ldrb	r3, [r8, #0]	@ zero_extendqisi2
 1907 0b14 2278     		ldrb	r2, [r4, #0]	@ zero_extendqisi2
 1908 0b16 07FB0363 		mla	r3, r7, r3, r6
 1909 0b1a 197A     		ldrb	r1, [r3, #8]	@ zero_extendqisi2
 1910              	.LVL266:
 1911 0b1c 2B78     		ldrb	r3, [r5, #0]	@ zero_extendqisi2
 1912 0b1e 2148     		ldr	r0, .L241+20
 1913 0b20 CB18     		adds	r3, r1, r3
 1914 0b22 DBB2     		uxtb	r3, r3
 1915              	.LVL267:
 1916 0b24 2B70     		strb	r3, [r5, #0]
 1917 0b26 9B18     		adds	r3, r3, r2
 1918              	.LVL268:
 1919 0b28 2370     		strb	r3, [r4, #0]
 1920 0b2a FFF7FEFF 		bl	uart_transmit
 1921              	.LVL269:
 1922              	.LBE197:
 1923              	.LBB198:
 1924 0b2e 98F80030 		ldrb	r3, [r8, #0]	@ zero_extendqisi2
 1925 0b32 2278     		ldrb	r2, [r4, #0]	@ zero_extendqisi2
 1926 0b34 07FB0363 		mla	r3, r7, r3, r6
 1927 0b38 597A     		ldrb	r1, [r3, #9]	@ zero_extendqisi2
 1928              	.LVL270:
 1929 0b3a 2B78     		ldrb	r3, [r5, #0]	@ zero_extendqisi2
 1930 0b3c 1948     		ldr	r0, .L241+20
 1931 0b3e CB18     		adds	r3, r1, r3
 1932 0b40 DBB2     		uxtb	r3, r3
 1933              	.LVL271:
 1934 0b42 2B70     		strb	r3, [r5, #0]
 1935 0b44 9B18     		adds	r3, r3, r2
 1936              	.LVL272:
 1937 0b46 2370     		strb	r3, [r4, #0]
 1938 0b48 FFF7FEFF 		bl	uart_transmit
 1939              	.LVL273:
 1940              	.LBE198:
 1941              	.LBB199:
 1942 0b4c 98F80030 		ldrb	r3, [r8, #0]	@ zero_extendqisi2
 1943 0b50 2278     		ldrb	r2, [r4, #0]	@ zero_extendqisi2
 1944 0b52 07FB0363 		mla	r3, r7, r3, r6
 1945 0b56 997A     		ldrb	r1, [r3, #10]	@ zero_extendqisi2
 1946              	.LVL274:
 1947 0b58 2B78     		ldrb	r3, [r5, #0]	@ zero_extendqisi2
 1948 0b5a 1248     		ldr	r0, .L241+20
 1949 0b5c CB18     		adds	r3, r1, r3
 1950 0b5e DBB2     		uxtb	r3, r3
 1951              	.LVL275:
 1952 0b60 2B70     		strb	r3, [r5, #0]
 1953 0b62 9B18     		adds	r3, r3, r2
 1954              	.LVL276:
 1955 0b64 2370     		strb	r3, [r4, #0]
 1956 0b66 FFF7FEFF 		bl	uart_transmit
 1957              	.LVL277:
 1958              	.LBE199:
 1959              	.LBB200:
 1960 0b6a 98F80030 		ldrb	r3, [r8, #0]	@ zero_extendqisi2
 1961 0b6e 2278     		ldrb	r2, [r4, #0]	@ zero_extendqisi2
 1962 0b70 07FB0366 		mla	r6, r7, r3, r6
 1963 0b74 2B78     		ldrb	r3, [r5, #0]	@ zero_extendqisi2
 1964 0b76 F17A     		ldrb	r1, [r6, #11]	@ zero_extendqisi2
 1965              	.LVL278:
 1966 0b78 0A48     		ldr	r0, .L241+20
 1967 0b7a CB18     		adds	r3, r1, r3
 1968 0b7c DBB2     		uxtb	r3, r3
 1969              	.LVL279:
 1970 0b7e 2B70     		strb	r3, [r5, #0]
 1971 0b80 9B18     		adds	r3, r3, r2
 1972              	.LVL280:
 1973 0b82 2370     		strb	r3, [r4, #0]
 1974 0b84 FFF7FEFF 		bl	uart_transmit
 1975              	.LVL281:
 1976              	.LBE200:
 1977              	.LBB201:
 1978 0b88 0B4B     		ldr	r3, .L241+40
 1979 0b8a 1978     		ldrb	r1, [r3, #0]	@ zero_extendqisi2
 1980              	.LVL282:
 1981 0b8c D4E6     		b	.L212
 1982              	.L242:
 1983 0b8e 00BF     		.align	2
 1984              	.L241:
 1985 0b90 00000000 		.word	.LANCHOR24
 1986 0b94 00000000 		.word	nb_waypoint
 1987 0b98 00000000 		.word	nav_utm_east0
 1988 0b9c 00000000 		.word	waypoints
 1989 0ba0 00000000 		.word	nav_utm_north0
 1990 0ba4 00000000 		.word	uart2
 1991 0ba8 00000000 		.word	downlink_nb_bytes
 1992 0bac 00000000 		.word	downlink_nb_msgs
 1993 0bb0 00000000 		.word	ck_a
 1994 0bb4 00000000 		.word	ck_b
 1995 0bb8 00000000 		.word	nav_utm_zone0
 1996              	.LVL283:
 1997              	.L36:
 1998              	.LBE201:
 1999              		.loc 1 422 0 discriminator 25
 2000 0bbc 9A4B     		ldr	r3, .L243+8
 2001 0bbe 1A78     		ldrb	r2, [r3, #0]	@ zero_extendqisi2
 2002 0bc0 0132     		adds	r2, r2, #1
 2003 0bc2 1A70     		strb	r2, [r3, #0]
 2004              	.L32:
 2005              	.LBE184:
 2006              	.LBE183:
 2007              		.loc 1 422 0 discriminator 21
 2008 0bc4 994B     		ldr	r3, .L243+12
 2009 0bc6 1B78     		ldrb	r3, [r3, #0]	@ zero_extendqisi2
 2010 0bc8 182B     		cmp	r3, #24
 2011 0bca 00F04F81 		beq	.L37
 2012              		.loc 1 422 0 discriminator 26
 2013 0bce 1E2B     		cmp	r3, #30
 2014 0bd0 40F04C81 		bne	.L37
 2015              	.LBB202:
 2016              		.loc 1 422 0 discriminator 27
 2017 0bd4 964B     		ldr	r3, .L243+16
 2018 0bd6 9748     		ldr	r0, .L243+20
 2019 0bd8 1A21     		movs	r1, #26
 2020 0bda 1C68     		ldr	r4, [r3, #0]	@ float
 2021              	.LVL284:
 2022 0bdc FFF7FEFF 		bl	uart_check_free_space
 2023              	.LVL285:
 2024 0be0 0028     		cmp	r0, #0
 2025 0be2 00F03F81 		beq	.L38
 2026              		.loc 1 422 0 discriminator 29
 2027 0be6 24F00040 		bic	r0, r4, #-2147483648
 2028 0bea FFF7FEFF 		bl	__aeabi_f2d
 2029 0bee 8CA3     		adr	r3, .L243
 2030 0bf0 D3E90023 		ldrd	r2, [r3]
 2031 0bf4 FFF7FEFF 		bl	__aeabi_ddiv
 2032 0bf8 FFF7FEFF 		bl	__aeabi_d2uiz
 2033 0bfc 8E4B     		ldr	r3, .L243+24
 2034 0bfe C7B2     		uxtb	r7, r0
 2035 0c00 1A88     		ldrh	r2, [r3, #0]
 2036              	.LBB203:
 2037 0c02 9921     		movs	r1, #153
 2038              	.LBE203:
 2039 0c04 1A32     		adds	r2, r2, #26
 2040 0c06 1A80     		strh	r2, [r3, #0]	@ movhi
 2041 0c08 8C4B     		ldr	r3, .L243+28
 2042              	.LBB204:
 2043 0c0a 8A48     		ldr	r0, .L243+20
 2044              	.LBE204:
 2045 0c0c 1A88     		ldrh	r2, [r3, #0]
 2046 0c0e 8C4D     		ldr	r5, .L243+32
 2047 0c10 0132     		adds	r2, r2, #1
 2048 0c12 1A80     		strh	r2, [r3, #0]	@ movhi
 2049              	.LBB205:
 2050 0c14 FFF7FEFF 		bl	uart_transmit
 2051              	.LVL286:
 2052 0c18 1A21     		movs	r1, #26
 2053 0c1a 8648     		ldr	r0, .L243+20
 2054              	.LBE205:
 2055 0c1c 894C     		ldr	r4, .L243+36
 2056              	.LVL287:
 2057              	.LBB206:
 2058 0c1e FFF7FEFF 		bl	uart_transmit
 2059              	.LBE206:
 2060 0c22 1B23     		movs	r3, #27
 2061 0c24 2B70     		strb	r3, [r5, #0]
 2062 0c26 3523     		movs	r3, #53
 2063 0c28 2370     		strb	r3, [r4, #0]
 2064 0c2a 0121     		movs	r1, #1
 2065 0c2c 8148     		ldr	r0, .L243+20
 2066 0c2e FFF7FEFF 		bl	uart_transmit
 2067 0c32 2B78     		ldrb	r3, [r5, #0]	@ zero_extendqisi2
 2068 0c34 2278     		ldrb	r2, [r4, #0]	@ zero_extendqisi2
 2069 0c36 0A33     		adds	r3, r3, #10
 2070 0c38 DBB2     		uxtb	r3, r3
 2071 0c3a 2B70     		strb	r3, [r5, #0]
 2072 0c3c 9B18     		adds	r3, r3, r2
 2073 0c3e 2370     		strb	r3, [r4, #0]
 2074 0c40 0A21     		movs	r1, #10
 2075 0c42 7C48     		ldr	r0, .L243+20
 2076 0c44 FFF7FEFF 		bl	uart_transmit
 2077              	.LBB207:
 2078 0c48 7F4B     		ldr	r3, .L243+40
 2079 0c4a 2278     		ldrb	r2, [r4, #0]	@ zero_extendqisi2
 2080 0c4c 1978     		ldrb	r1, [r3, #0]	@ zero_extendqisi2
 2081              	.LVL288:
 2082 0c4e 2B78     		ldrb	r3, [r5, #0]	@ zero_extendqisi2
 2083 0c50 7848     		ldr	r0, .L243+20
 2084 0c52 CB18     		adds	r3, r1, r3
 2085 0c54 DBB2     		uxtb	r3, r3
 2086              	.LVL289:
 2087 0c56 2B70     		strb	r3, [r5, #0]
 2088 0c58 9B18     		adds	r3, r3, r2
 2089              	.LVL290:
 2090 0c5a 2370     		strb	r3, [r4, #0]
 2091 0c5c FFF7FEFF 		bl	uart_transmit
 2092              	.LVL291:
 2093              	.LBE207:
 2094              	.LBB208:
 2095 0c60 7A4B     		ldr	r3, .L243+44
 2096 0c62 2278     		ldrb	r2, [r4, #0]	@ zero_extendqisi2
 2097 0c64 1978     		ldrb	r1, [r3, #0]	@ zero_extendqisi2
 2098              	.LVL292:
 2099 0c66 2B78     		ldrb	r3, [r5, #0]	@ zero_extendqisi2
 2100              	.LBE208:
 2101              	.LBB209:
 2102 0c68 794E     		ldr	r6, .L243+48
 2103              	.LBE209:
 2104              	.LBB210:
 2105 0c6a CB18     		adds	r3, r1, r3
 2106 0c6c DBB2     		uxtb	r3, r3
 2107              	.LVL293:
 2108 0c6e 2B70     		strb	r3, [r5, #0]
 2109 0c70 9B18     		adds	r3, r3, r2
 2110              	.LVL294:
 2111 0c72 2370     		strb	r3, [r4, #0]
 2112 0c74 6F48     		ldr	r0, .L243+20
 2113 0c76 FFF7FEFF 		bl	uart_transmit
 2114              	.LVL295:
 2115              	.LBE210:
 2116              	.LBB211:
 2117 0c7a 3178     		ldrb	r1, [r6, #0]	@ zero_extendqisi2
 2118              	.LVL296:
 2119 0c7c 2B78     		ldrb	r3, [r5, #0]	@ zero_extendqisi2
 2120 0c7e 2278     		ldrb	r2, [r4, #0]	@ zero_extendqisi2
 2121 0c80 CB18     		adds	r3, r1, r3
 2122 0c82 DBB2     		uxtb	r3, r3
 2123              	.LVL297:
 2124 0c84 2B70     		strb	r3, [r5, #0]
 2125 0c86 9B18     		adds	r3, r3, r2
 2126              	.LVL298:
 2127 0c88 2370     		strb	r3, [r4, #0]
 2128 0c8a 6A48     		ldr	r0, .L243+20
 2129 0c8c FFF7FEFF 		bl	uart_transmit
 2130              	.LVL299:
 2131              	.LBE211:
 2132              	.LBB212:
 2133 0c90 7178     		ldrb	r1, [r6, #1]	@ zero_extendqisi2
 2134              	.LVL300:
 2135 0c92 2B78     		ldrb	r3, [r5, #0]	@ zero_extendqisi2
 2136 0c94 2278     		ldrb	r2, [r4, #0]	@ zero_extendqisi2
 2137 0c96 CB18     		adds	r3, r1, r3
 2138 0c98 DBB2     		uxtb	r3, r3
 2139              	.LVL301:
 2140 0c9a 2B70     		strb	r3, [r5, #0]
 2141 0c9c 9B18     		adds	r3, r3, r2
 2142              	.LVL302:
 2143 0c9e 2370     		strb	r3, [r4, #0]
 2144 0ca0 6448     		ldr	r0, .L243+20
 2145 0ca2 FFF7FEFF 		bl	uart_transmit
 2146              	.LVL303:
 2147              	.LBE212:
 2148              	.LBB213:
 2149 0ca6 B178     		ldrb	r1, [r6, #2]	@ zero_extendqisi2
 2150              	.LVL304:
 2151 0ca8 2B78     		ldrb	r3, [r5, #0]	@ zero_extendqisi2
 2152 0caa 2278     		ldrb	r2, [r4, #0]	@ zero_extendqisi2
 2153 0cac CB18     		adds	r3, r1, r3
 2154 0cae DBB2     		uxtb	r3, r3
 2155              	.LVL305:
 2156 0cb0 2B70     		strb	r3, [r5, #0]
 2157 0cb2 9B18     		adds	r3, r3, r2
 2158              	.LVL306:
 2159 0cb4 2370     		strb	r3, [r4, #0]
 2160 0cb6 5F48     		ldr	r0, .L243+20
 2161 0cb8 FFF7FEFF 		bl	uart_transmit
 2162              	.LVL307:
 2163              	.LBE213:
 2164              	.LBB214:
 2165 0cbc F178     		ldrb	r1, [r6, #3]	@ zero_extendqisi2
 2166              	.LVL308:
 2167 0cbe 2B78     		ldrb	r3, [r5, #0]	@ zero_extendqisi2
 2168 0cc0 2278     		ldrb	r2, [r4, #0]	@ zero_extendqisi2
 2169 0cc2 CB18     		adds	r3, r1, r3
 2170 0cc4 DBB2     		uxtb	r3, r3
 2171              	.LBE214:
 2172              	.LBB215:
 2173 0cc6 634E     		ldr	r6, .L243+52
 2174              	.LVL309:
 2175              	.LBE215:
 2176              	.LBB216:
 2177 0cc8 2B70     		strb	r3, [r5, #0]
 2178 0cca 9B18     		adds	r3, r3, r2
 2179              	.LVL310:
 2180 0ccc 2370     		strb	r3, [r4, #0]
 2181 0cce 5948     		ldr	r0, .L243+20
 2182 0cd0 FFF7FEFF 		bl	uart_transmit
 2183              	.LVL311:
 2184              	.LBE216:
 2185              	.LBB217:
 2186 0cd4 3178     		ldrb	r1, [r6, #0]	@ zero_extendqisi2
 2187              	.LVL312:
 2188 0cd6 2B78     		ldrb	r3, [r5, #0]	@ zero_extendqisi2
 2189 0cd8 2278     		ldrb	r2, [r4, #0]	@ zero_extendqisi2
 2190 0cda CB18     		adds	r3, r1, r3
 2191 0cdc DBB2     		uxtb	r3, r3
 2192              	.LVL313:
 2193 0cde 2B70     		strb	r3, [r5, #0]
 2194 0ce0 9B18     		adds	r3, r3, r2
 2195              	.LVL314:
 2196 0ce2 2370     		strb	r3, [r4, #0]
 2197 0ce4 5348     		ldr	r0, .L243+20
 2198 0ce6 FFF7FEFF 		bl	uart_transmit
 2199              	.LVL315:
 2200              	.LBE217:
 2201              	.LBB218:
 2202 0cea 7178     		ldrb	r1, [r6, #1]	@ zero_extendqisi2
 2203              	.LVL316:
 2204 0cec 2B78     		ldrb	r3, [r5, #0]	@ zero_extendqisi2
 2205 0cee 2278     		ldrb	r2, [r4, #0]	@ zero_extendqisi2
 2206 0cf0 CB18     		adds	r3, r1, r3
 2207 0cf2 DBB2     		uxtb	r3, r3
 2208              	.LVL317:
 2209 0cf4 2B70     		strb	r3, [r5, #0]
 2210 0cf6 9B18     		adds	r3, r3, r2
 2211              	.LVL318:
 2212 0cf8 2370     		strb	r3, [r4, #0]
 2213 0cfa 4E48     		ldr	r0, .L243+20
 2214 0cfc FFF7FEFF 		bl	uart_transmit
 2215              	.LVL319:
 2216              	.LBE218:
 2217              	.LBB219:
 2218 0d00 B178     		ldrb	r1, [r6, #2]	@ zero_extendqisi2
 2219              	.LVL320:
 2220 0d02 2B78     		ldrb	r3, [r5, #0]	@ zero_extendqisi2
 2221 0d04 2278     		ldrb	r2, [r4, #0]	@ zero_extendqisi2
 2222 0d06 CB18     		adds	r3, r1, r3
 2223 0d08 DBB2     		uxtb	r3, r3
 2224              	.LVL321:
 2225 0d0a 2B70     		strb	r3, [r5, #0]
 2226 0d0c 9B18     		adds	r3, r3, r2
 2227              	.LVL322:
 2228 0d0e 2370     		strb	r3, [r4, #0]
 2229 0d10 4848     		ldr	r0, .L243+20
 2230 0d12 FFF7FEFF 		bl	uart_transmit
 2231              	.LVL323:
 2232              	.LBE219:
 2233              	.LBB220:
 2234 0d16 F178     		ldrb	r1, [r6, #3]	@ zero_extendqisi2
 2235              	.LVL324:
 2236 0d18 2B78     		ldrb	r3, [r5, #0]	@ zero_extendqisi2
 2237 0d1a 2278     		ldrb	r2, [r4, #0]	@ zero_extendqisi2
 2238 0d1c CB18     		adds	r3, r1, r3
 2239 0d1e DBB2     		uxtb	r3, r3
 2240              	.LBE220:
 2241              	.LBB221:
 2242 0d20 4D4E     		ldr	r6, .L243+56
 2243              	.LVL325:
 2244              	.LBE221:
 2245              	.LBB222:
 2246 0d22 2B70     		strb	r3, [r5, #0]
 2247 0d24 9B18     		adds	r3, r3, r2
 2248              	.LVL326:
 2249 0d26 2370     		strb	r3, [r4, #0]
 2250 0d28 4248     		ldr	r0, .L243+20
 2251 0d2a FFF7FEFF 		bl	uart_transmit
 2252              	.LVL327:
 2253              	.LBE222:
 2254              	.LBB223:
 2255 0d2e 3178     		ldrb	r1, [r6, #0]	@ zero_extendqisi2
 2256              	.LVL328:
 2257 0d30 2B78     		ldrb	r3, [r5, #0]	@ zero_extendqisi2
 2258 0d32 2278     		ldrb	r2, [r4, #0]	@ zero_extendqisi2
 2259 0d34 CB18     		adds	r3, r1, r3
 2260 0d36 DBB2     		uxtb	r3, r3
 2261              	.LVL329:
 2262 0d38 2B70     		strb	r3, [r5, #0]
 2263 0d3a 9B18     		adds	r3, r3, r2
 2264              	.LVL330:
 2265 0d3c 2370     		strb	r3, [r4, #0]
 2266 0d3e 3D48     		ldr	r0, .L243+20
 2267 0d40 FFF7FEFF 		bl	uart_transmit
 2268              	.LVL331:
 2269              	.LBE223:
 2270              	.LBB224:
 2271 0d44 7178     		ldrb	r1, [r6, #1]	@ zero_extendqisi2
 2272              	.LVL332:
 2273 0d46 2B78     		ldrb	r3, [r5, #0]	@ zero_extendqisi2
 2274 0d48 2278     		ldrb	r2, [r4, #0]	@ zero_extendqisi2
 2275 0d4a CB18     		adds	r3, r1, r3
 2276 0d4c DBB2     		uxtb	r3, r3
 2277              	.LVL333:
 2278 0d4e 2B70     		strb	r3, [r5, #0]
 2279 0d50 9B18     		adds	r3, r3, r2
 2280              	.LVL334:
 2281 0d52 2370     		strb	r3, [r4, #0]
 2282 0d54 3748     		ldr	r0, .L243+20
 2283 0d56 FFF7FEFF 		bl	uart_transmit
 2284              	.LVL335:
 2285              	.LBE224:
 2286              	.LBB225:
 2287 0d5a B178     		ldrb	r1, [r6, #2]	@ zero_extendqisi2
 2288              	.LVL336:
 2289 0d5c 2B78     		ldrb	r3, [r5, #0]	@ zero_extendqisi2
 2290 0d5e 2278     		ldrb	r2, [r4, #0]	@ zero_extendqisi2
 2291 0d60 CB18     		adds	r3, r1, r3
 2292 0d62 DBB2     		uxtb	r3, r3
 2293              	.LVL337:
 2294 0d64 2B70     		strb	r3, [r5, #0]
 2295 0d66 9B18     		adds	r3, r3, r2
 2296              	.LVL338:
 2297 0d68 2370     		strb	r3, [r4, #0]
 2298 0d6a 3248     		ldr	r0, .L243+20
 2299 0d6c FFF7FEFF 		bl	uart_transmit
 2300              	.LVL339:
 2301              	.LBE225:
 2302              	.LBB226:
 2303 0d70 F178     		ldrb	r1, [r6, #3]	@ zero_extendqisi2
 2304              	.LVL340:
 2305 0d72 2B78     		ldrb	r3, [r5, #0]	@ zero_extendqisi2
 2306 0d74 2278     		ldrb	r2, [r4, #0]	@ zero_extendqisi2
 2307 0d76 CB18     		adds	r3, r1, r3
 2308 0d78 DBB2     		uxtb	r3, r3
 2309              	.LBE226:
 2310              	.LBB227:
 2311 0d7a 384E     		ldr	r6, .L243+60
 2312              	.LVL341:
 2313              	.LBE227:
 2314              	.LBB228:
 2315 0d7c 2B70     		strb	r3, [r5, #0]
 2316 0d7e 9B18     		adds	r3, r3, r2
 2317              	.LVL342:
 2318 0d80 2370     		strb	r3, [r4, #0]
 2319 0d82 2C48     		ldr	r0, .L243+20
 2320 0d84 FFF7FEFF 		bl	uart_transmit
 2321              	.LVL343:
 2322              	.LBE228:
 2323              	.LBB229:
 2324 0d88 3178     		ldrb	r1, [r6, #0]	@ zero_extendqisi2
 2325              	.LVL344:
 2326 0d8a 2B78     		ldrb	r3, [r5, #0]	@ zero_extendqisi2
 2327 0d8c 2278     		ldrb	r2, [r4, #0]	@ zero_extendqisi2
 2328 0d8e CB18     		adds	r3, r1, r3
 2329 0d90 DBB2     		uxtb	r3, r3
 2330              	.LVL345:
 2331 0d92 2B70     		strb	r3, [r5, #0]
 2332 0d94 9B18     		adds	r3, r3, r2
 2333              	.LVL346:
 2334 0d96 2370     		strb	r3, [r4, #0]
 2335 0d98 2648     		ldr	r0, .L243+20
 2336 0d9a FFF7FEFF 		bl	uart_transmit
 2337              	.LVL347:
 2338              	.LBE229:
 2339              	.LBB230:
 2340 0d9e 7178     		ldrb	r1, [r6, #1]	@ zero_extendqisi2
 2341              	.LVL348:
 2342 0da0 2B78     		ldrb	r3, [r5, #0]	@ zero_extendqisi2
 2343 0da2 2278     		ldrb	r2, [r4, #0]	@ zero_extendqisi2
 2344 0da4 CB18     		adds	r3, r1, r3
 2345 0da6 DBB2     		uxtb	r3, r3
 2346              	.LVL349:
 2347 0da8 2B70     		strb	r3, [r5, #0]
 2348 0daa 9B18     		adds	r3, r3, r2
 2349              	.LVL350:
 2350 0dac 2370     		strb	r3, [r4, #0]
 2351 0dae 2148     		ldr	r0, .L243+20
 2352 0db0 FFF7FEFF 		bl	uart_transmit
 2353              	.LVL351:
 2354              	.LBE230:
 2355              	.LBB231:
 2356 0db4 B178     		ldrb	r1, [r6, #2]	@ zero_extendqisi2
 2357              	.LVL352:
 2358 0db6 2B78     		ldrb	r3, [r5, #0]	@ zero_extendqisi2
 2359 0db8 2278     		ldrb	r2, [r4, #0]	@ zero_extendqisi2
 2360 0dba CB18     		adds	r3, r1, r3
 2361 0dbc DBB2     		uxtb	r3, r3
 2362              	.LVL353:
 2363 0dbe 2B70     		strb	r3, [r5, #0]
 2364 0dc0 9B18     		adds	r3, r3, r2
 2365              	.LVL354:
 2366 0dc2 2370     		strb	r3, [r4, #0]
 2367 0dc4 1B48     		ldr	r0, .L243+20
 2368 0dc6 FFF7FEFF 		bl	uart_transmit
 2369              	.LVL355:
 2370              	.LBE231:
 2371              	.LBB232:
 2372 0dca F178     		ldrb	r1, [r6, #3]	@ zero_extendqisi2
 2373              	.LVL356:
 2374 0dcc 2B78     		ldrb	r3, [r5, #0]	@ zero_extendqisi2
 2375 0dce 2278     		ldrb	r2, [r4, #0]	@ zero_extendqisi2
 2376 0dd0 CB18     		adds	r3, r1, r3
 2377 0dd2 DBB2     		uxtb	r3, r3
 2378              	.LVL357:
 2379 0dd4 2B70     		strb	r3, [r5, #0]
 2380 0dd6 9B18     		adds	r3, r3, r2
 2381              	.LVL358:
 2382 0dd8 2370     		strb	r3, [r4, #0]
 2383 0dda 1648     		ldr	r0, .L243+20
 2384 0ddc FFF7FEFF 		bl	uart_transmit
 2385              	.LVL359:
 2386              	.LBE232:
 2387              	.LBB233:
 2388 0de0 2B78     		ldrb	r3, [r5, #0]	@ zero_extendqisi2
 2389 0de2 2278     		ldrb	r2, [r4, #0]	@ zero_extendqisi2
 2390 0de4 FB18     		adds	r3, r7, r3
 2391 0de6 DBB2     		uxtb	r3, r3
 2392              	.LVL360:
 2393 0de8 2B70     		strb	r3, [r5, #0]
 2394 0dea 9B18     		adds	r3, r3, r2
 2395              	.LVL361:
 2396 0dec 2370     		strb	r3, [r4, #0]
 2397 0dee 3946     		mov	r1, r7
 2398 0df0 1048     		ldr	r0, .L243+20
 2399 0df2 FFF7FEFF 		bl	uart_transmit
 2400              	.LBE233:
 2401              	.LBB234:
 2402 0df6 1A4B     		ldr	r3, .L243+64
 2403 0df8 2278     		ldrb	r2, [r4, #0]	@ zero_extendqisi2
 2404 0dfa 1978     		ldrb	r1, [r3, #0]	@ zero_extendqisi2
 2405              	.LVL362:
 2406 0dfc 2B78     		ldrb	r3, [r5, #0]	@ zero_extendqisi2
 2407 0dfe 0D48     		ldr	r0, .L243+20
 2408 0e00 CB18     		adds	r3, r1, r3
 2409 0e02 DBB2     		uxtb	r3, r3
 2410              	.LVL363:
 2411 0e04 2B70     		strb	r3, [r5, #0]
 2412 0e06 9B18     		adds	r3, r3, r2
 2413              	.LVL364:
 2414 0e08 2370     		strb	r3, [r4, #0]
 2415 0e0a FFF7FEFF 		bl	uart_transmit
 2416              	.LVL365:
 2417              	.LBE234:
 2418 0e0e 2978     		ldrb	r1, [r5, #0]	@ zero_extendqisi2
 2419 0e10 0848     		ldr	r0, .L243+20
 2420 0e12 FFF7FEFF 		bl	uart_transmit
 2421 0e16 0748     		ldr	r0, .L243+20
 2422 0e18 2178     		ldrb	r1, [r4, #0]	@ zero_extendqisi2
 2423 0e1a FFF7FEFF 		bl	uart_transmit
 2424 0e1e 25E0     		b	.L37
 2425              	.L244:
 2426              		.align	3
 2427              	.L243:
 2428 0e20 182D4454 		.word	1413754136
 2429 0e24 FB211940 		.word	1075388923
 2430 0e28 00000000 		.word	downlink_nb_ovrn
 2431 0e2c 00000000 		.word	.LANCHOR12
 2432 0e30 00000000 		.word	nav_circle_radians
 2433 0e34 00000000 		.word	uart2
 2434 0e38 00000000 		.word	downlink_nb_bytes
 2435 0e3c 00000000 		.word	downlink_nb_msgs
 2436 0e40 00000000 		.word	ck_a
 2437 0e44 00000000 		.word	ck_b
 2438 0e48 00000000 		.word	nav_block
 2439 0e4c 00000000 		.word	nav_stage
 2440 0e50 00000000 		.word	estimator_x
 2441 0e54 00000000 		.word	estimator_y
 2442 0e58 00000000 		.word	dist2_to_wp
 2443 0e5c 00000000 		.word	dist2_to_home
 2444 0e60 00000000 		.word	nav_oval_count
 2445              	.LVL366:
 2446              	.L38:
 2447              		.loc 1 422 0 discriminator 30
 2448 0e64 4A4B     		ldr	r3, .L245
 2449 0e66 1A78     		ldrb	r2, [r3, #0]	@ zero_extendqisi2
 2450 0e68 0132     		adds	r2, r2, #1
 2451 0e6a 1A70     		strb	r2, [r3, #0]
 2452              	.LVL367:
 2453              	.L37:
 2454              	.LBE202:
 2455              		.loc 1 422 0 discriminator 32
 2456 0e6c 494B     		ldr	r3, .L245+4
 2457 0e6e 1B78     		ldrb	r3, [r3, #0]	@ zero_extendqisi2
 2458 0e70 302B     		cmp	r3, #48
 2459 0e72 40F0A380 		bne	.L39
 2460              		.loc 1 422 0 discriminator 33
 2461 0e76 484B     		ldr	r3, .L245+8
 2462 0e78 1B78     		ldrb	r3, [r3, #0]	@ zero_extendqisi2
 2463 0e7a 002B     		cmp	r3, #0
 2464 0e7c 00F02D82 		beq	.L40
 2465              		.loc 1 422 0 discriminator 35
 2466 0e80 4648     		ldr	r0, .L245+12
 2467 0e82 1221     		movs	r1, #18
 2468 0e84 FFF7FEFF 		bl	uart_check_free_space
 2469 0e88 0028     		cmp	r0, #0
 2470 0e8a 00F02282 		beq	.L42
 2471              		.loc 1 422 0 discriminator 36
 2472 0e8e 444B     		ldr	r3, .L245+16
 2473              	.LBB235:
 2474 0e90 4248     		ldr	r0, .L245+12
 2475              	.LBE235:
 2476 0e92 1A88     		ldrh	r2, [r3, #0]
 2477              	.LBB236:
 2478 0e94 9921     		movs	r1, #153
 2479              	.LBE236:
 2480 0e96 1232     		adds	r2, r2, #18
 2481 0e98 1A80     		strh	r2, [r3, #0]	@ movhi
 2482 0e9a 424B     		ldr	r3, .L245+20
 2483 0e9c 424D     		ldr	r5, .L245+24
 2484 0e9e 1A88     		ldrh	r2, [r3, #0]
 2485 0ea0 424C     		ldr	r4, .L245+28
 2486 0ea2 0132     		adds	r2, r2, #1
 2487 0ea4 1A80     		strh	r2, [r3, #0]	@ movhi
 2488              	.LBB237:
 2489 0ea6 FFF7FEFF 		bl	uart_transmit
 2490              	.LVL368:
 2491 0eaa 3C48     		ldr	r0, .L245+12
 2492 0eac 1221     		movs	r1, #18
 2493 0eae FFF7FEFF 		bl	uart_transmit
 2494              	.LBE237:
 2495 0eb2 1323     		movs	r3, #19
 2496 0eb4 2B70     		strb	r3, [r5, #0]
 2497 0eb6 2523     		movs	r3, #37
 2498 0eb8 2370     		strb	r3, [r4, #0]
 2499 0eba 3848     		ldr	r0, .L245+12
 2500 0ebc 0121     		movs	r1, #1
 2501 0ebe FFF7FEFF 		bl	uart_transmit
 2502 0ec2 2B78     		ldrb	r3, [r5, #0]	@ zero_extendqisi2
 2503 0ec4 2278     		ldrb	r2, [r4, #0]	@ zero_extendqisi2
 2504 0ec6 1533     		adds	r3, r3, #21
 2505 0ec8 DBB2     		uxtb	r3, r3
 2506              	.LBB238:
 2507 0eca 394E     		ldr	r6, .L245+32
 2508              	.LBE238:
 2509 0ecc 2B70     		strb	r3, [r5, #0]
 2510 0ece 9B18     		adds	r3, r3, r2
 2511 0ed0 2370     		strb	r3, [r4, #0]
 2512 0ed2 3248     		ldr	r0, .L245+12
 2513 0ed4 1521     		movs	r1, #21
 2514 0ed6 FFF7FEFF 		bl	uart_transmit
 2515              	.LBB239:
 2516 0eda 3178     		ldrb	r1, [r6, #0]	@ zero_extendqisi2
 2517              	.LVL369:
 2518 0edc 2B78     		ldrb	r3, [r5, #0]	@ zero_extendqisi2
 2519 0ede 2278     		ldrb	r2, [r4, #0]	@ zero_extendqisi2
 2520 0ee0 CB18     		adds	r3, r1, r3
 2521 0ee2 DBB2     		uxtb	r3, r3
 2522              	.LVL370:
 2523 0ee4 2B70     		strb	r3, [r5, #0]
 2524 0ee6 9B18     		adds	r3, r3, r2
 2525              	.LVL371:
 2526 0ee8 2370     		strb	r3, [r4, #0]
 2527 0eea 2C48     		ldr	r0, .L245+12
 2528 0eec FFF7FEFF 		bl	uart_transmit
 2529              	.LVL372:
 2530              	.LBE239:
 2531              	.LBB240:
 2532 0ef0 7178     		ldrb	r1, [r6, #1]	@ zero_extendqisi2
 2533              	.LVL373:
 2534 0ef2 2B78     		ldrb	r3, [r5, #0]	@ zero_extendqisi2
 2535 0ef4 2278     		ldrb	r2, [r4, #0]	@ zero_extendqisi2
 2536 0ef6 CB18     		adds	r3, r1, r3
 2537 0ef8 DBB2     		uxtb	r3, r3
 2538              	.LVL374:
 2539 0efa 2B70     		strb	r3, [r5, #0]
 2540 0efc 9B18     		adds	r3, r3, r2
 2541              	.LVL375:
 2542 0efe 2370     		strb	r3, [r4, #0]
 2543 0f00 2648     		ldr	r0, .L245+12
 2544 0f02 FFF7FEFF 		bl	uart_transmit
 2545              	.LVL376:
 2546              	.LBE240:
 2547              	.LBB241:
 2548 0f06 B178     		ldrb	r1, [r6, #2]	@ zero_extendqisi2
 2549              	.LVL377:
 2550 0f08 2B78     		ldrb	r3, [r5, #0]	@ zero_extendqisi2
 2551 0f0a 2278     		ldrb	r2, [r4, #0]	@ zero_extendqisi2
 2552 0f0c CB18     		adds	r3, r1, r3
 2553 0f0e DBB2     		uxtb	r3, r3
 2554              	.LVL378:
 2555 0f10 2B70     		strb	r3, [r5, #0]
 2556 0f12 9B18     		adds	r3, r3, r2
 2557              	.LVL379:
 2558 0f14 2370     		strb	r3, [r4, #0]
 2559 0f16 2148     		ldr	r0, .L245+12
 2560 0f18 FFF7FEFF 		bl	uart_transmit
 2561              	.LVL380:
 2562              	.LBE241:
 2563              	.LBB242:
 2564 0f1c F178     		ldrb	r1, [r6, #3]	@ zero_extendqisi2
 2565              	.LVL381:
 2566 0f1e 2B78     		ldrb	r3, [r5, #0]	@ zero_extendqisi2
 2567 0f20 2278     		ldrb	r2, [r4, #0]	@ zero_extendqisi2
 2568 0f22 CB18     		adds	r3, r1, r3
 2569 0f24 DBB2     		uxtb	r3, r3
 2570              	.LBE242:
 2571              	.LBB243:
 2572 0f26 234E     		ldr	r6, .L245+36
 2573              	.LVL382:
 2574              	.LBE243:
 2575              	.LBB244:
 2576 0f28 2B70     		strb	r3, [r5, #0]
 2577 0f2a 9B18     		adds	r3, r3, r2
 2578              	.LVL383:
 2579 0f2c 2370     		strb	r3, [r4, #0]
 2580 0f2e 1B48     		ldr	r0, .L245+12
 2581 0f30 FFF7FEFF 		bl	uart_transmit
 2582              	.LVL384:
 2583              	.LBE244:
 2584              	.LBB245:
 2585 0f34 3178     		ldrb	r1, [r6, #0]	@ zero_extendqisi2
 2586              	.LVL385:
 2587 0f36 2B78     		ldrb	r3, [r5, #0]	@ zero_extendqisi2
 2588 0f38 2278     		ldrb	r2, [r4, #0]	@ zero_extendqisi2
 2589 0f3a CB18     		adds	r3, r1, r3
 2590 0f3c DBB2     		uxtb	r3, r3
 2591              	.LVL386:
 2592 0f3e 2B70     		strb	r3, [r5, #0]
 2593 0f40 9B18     		adds	r3, r3, r2
 2594              	.LVL387:
 2595 0f42 2370     		strb	r3, [r4, #0]
 2596 0f44 1548     		ldr	r0, .L245+12
 2597 0f46 FFF7FEFF 		bl	uart_transmit
 2598              	.LVL388:
 2599              	.LBE245:
 2600              	.LBB246:
 2601 0f4a 7178     		ldrb	r1, [r6, #1]	@ zero_extendqisi2
 2602              	.LVL389:
 2603 0f4c 2B78     		ldrb	r3, [r5, #0]	@ zero_extendqisi2
 2604 0f4e 2278     		ldrb	r2, [r4, #0]	@ zero_extendqisi2
 2605 0f50 CB18     		adds	r3, r1, r3
 2606 0f52 DBB2     		uxtb	r3, r3
 2607              	.LVL390:
 2608 0f54 2B70     		strb	r3, [r5, #0]
 2609 0f56 9B18     		adds	r3, r3, r2
 2610              	.LVL391:
 2611 0f58 2370     		strb	r3, [r4, #0]
 2612 0f5a 1048     		ldr	r0, .L245+12
 2613 0f5c FFF7FEFF 		bl	uart_transmit
 2614              	.LVL392:
 2615              	.LBE246:
 2616              	.LBB247:
 2617 0f60 B178     		ldrb	r1, [r6, #2]	@ zero_extendqisi2
 2618              	.LVL393:
 2619 0f62 2B78     		ldrb	r3, [r5, #0]	@ zero_extendqisi2
 2620 0f64 2278     		ldrb	r2, [r4, #0]	@ zero_extendqisi2
 2621 0f66 CB18     		adds	r3, r1, r3
 2622 0f68 DBB2     		uxtb	r3, r3
 2623              	.LVL394:
 2624 0f6a 2B70     		strb	r3, [r5, #0]
 2625 0f6c 9B18     		adds	r3, r3, r2
 2626              	.LVL395:
 2627 0f6e 2370     		strb	r3, [r4, #0]
 2628 0f70 0A48     		ldr	r0, .L245+12
 2629 0f72 FFF7FEFF 		bl	uart_transmit
 2630              	.LVL396:
 2631              	.LBE247:
 2632              	.LBB248:
 2633 0f76 F178     		ldrb	r1, [r6, #3]	@ zero_extendqisi2
 2634              	.LVL397:
 2635 0f78 2B78     		ldrb	r3, [r5, #0]	@ zero_extendqisi2
 2636 0f7a 2278     		ldrb	r2, [r4, #0]	@ zero_extendqisi2
 2637 0f7c CB18     		adds	r3, r1, r3
 2638 0f7e DBB2     		uxtb	r3, r3
 2639              	.LVL398:
 2640 0f80 2B70     		strb	r3, [r5, #0]
 2641 0f82 9B18     		adds	r3, r3, r2
 2642              	.LVL399:
 2643 0f84 2370     		strb	r3, [r4, #0]
 2644 0f86 0548     		ldr	r0, .L245+12
 2645 0f88 FFF7FEFF 		bl	uart_transmit
 2646              	.LVL400:
 2647              	.LBE248:
 2648              	.LBB249:
 2649 0f8c 0A4E     		ldr	r6, .L245+40
 2650 0f8e 6BE1     		b	.L213
 2651              	.L246:
 2652              		.align	2
 2653              	.L245:
 2654 0f90 00000000 		.word	downlink_nb_ovrn
 2655 0f94 00000000 		.word	.LANCHOR13
 2656 0f98 00000000 		.word	nav_in_circle
 2657 0f9c 00000000 		.word	uart2
 2658 0fa0 00000000 		.word	downlink_nb_bytes
 2659 0fa4 00000000 		.word	downlink_nb_msgs
 2660 0fa8 00000000 		.word	ck_a
 2661 0fac 00000000 		.word	ck_b
 2662 0fb0 00000000 		.word	nav_circle_x
 2663 0fb4 00000000 		.word	nav_circle_y
 2664 0fb8 00000000 		.word	nav_circle_radius
 2665              	.LVL401:
 2666              	.L39:
 2667              	.LBE249:
 2668              		.loc 1 422 0 discriminator 34
 2669 0fbc 362B     		cmp	r3, #54
 2670 0fbe 40F08C81 		bne	.L40
 2671              		.loc 1 422 0 discriminator 38
 2672 0fc2 9C48     		ldr	r0, .L247
 2673 0fc4 2221     		movs	r1, #34
 2674 0fc6 FFF7FEFF 		bl	uart_check_free_space
 2675 0fca 0028     		cmp	r0, #0
 2676 0fcc 00F08181 		beq	.L42
 2677              		.loc 1 422 0 discriminator 40
 2678 0fd0 994B     		ldr	r3, .L247+4
 2679              	.LBB250:
 2680 0fd2 9921     		movs	r1, #153
 2681              	.LBE250:
 2682 0fd4 1A88     		ldrh	r2, [r3, #0]
 2683              	.LBB251:
 2684 0fd6 9748     		ldr	r0, .L247
 2685              	.LBE251:
 2686 0fd8 2232     		adds	r2, r2, #34
 2687 0fda 1A80     		strh	r2, [r3, #0]	@ movhi
 2688 0fdc 974B     		ldr	r3, .L247+8
 2689 0fde 984D     		ldr	r5, .L247+12
 2690 0fe0 1A88     		ldrh	r2, [r3, #0]
 2691 0fe2 984C     		ldr	r4, .L247+16
 2692 0fe4 0132     		adds	r2, r2, #1
 2693 0fe6 1A80     		strh	r2, [r3, #0]	@ movhi
 2694              	.LBB252:
 2695 0fe8 FFF7FEFF 		bl	uart_transmit
 2696              	.LVL402:
 2697 0fec 2221     		movs	r1, #34
 2698 0fee 9148     		ldr	r0, .L247
 2699 0ff0 FFF7FEFF 		bl	uart_transmit
 2700              	.LBE252:
 2701 0ff4 2323     		movs	r3, #35
 2702 0ff6 2B70     		strb	r3, [r5, #0]
 2703 0ff8 4523     		movs	r3, #69
 2704 0ffa 0121     		movs	r1, #1
 2705 0ffc 2370     		strb	r3, [r4, #0]
 2706 0ffe 8D48     		ldr	r0, .L247
 2707 1000 FFF7FEFF 		bl	uart_transmit
 2708 1004 2B78     		ldrb	r3, [r5, #0]	@ zero_extendqisi2
 2709 1006 2278     		ldrb	r2, [r4, #0]	@ zero_extendqisi2
 2710 1008 1033     		adds	r3, r3, #16
 2711 100a DBB2     		uxtb	r3, r3
 2712              	.LBB253:
 2713 100c 8E4E     		ldr	r6, .L247+20
 2714              	.LBE253:
 2715 100e 2B70     		strb	r3, [r5, #0]
 2716 1010 9B18     		adds	r3, r3, r2
 2717 1012 1021     		movs	r1, #16
 2718 1014 2370     		strb	r3, [r4, #0]
 2719 1016 8748     		ldr	r0, .L247
 2720 1018 FFF7FEFF 		bl	uart_transmit
 2721              	.LBB254:
 2722 101c 3178     		ldrb	r1, [r6, #0]	@ zero_extendqisi2
 2723              	.LVL403:
 2724 101e 2B78     		ldrb	r3, [r5, #0]	@ zero_extendqisi2
 2725 1020 2278     		ldrb	r2, [r4, #0]	@ zero_extendqisi2
 2726 1022 CB18     		adds	r3, r1, r3
 2727 1024 DBB2     		uxtb	r3, r3
 2728              	.LVL404:
 2729 1026 2B70     		strb	r3, [r5, #0]
 2730 1028 9B18     		adds	r3, r3, r2
 2731              	.LVL405:
 2732 102a 2370     		strb	r3, [r4, #0]
 2733 102c 8148     		ldr	r0, .L247
 2734 102e FFF7FEFF 		bl	uart_transmit
 2735              	.LVL406:
 2736              	.LBE254:
 2737              	.LBB255:
 2738 1032 7178     		ldrb	r1, [r6, #1]	@ zero_extendqisi2
 2739              	.LVL407:
 2740 1034 2B78     		ldrb	r3, [r5, #0]	@ zero_extendqisi2
 2741 1036 2278     		ldrb	r2, [r4, #0]	@ zero_extendqisi2
 2742 1038 CB18     		adds	r3, r1, r3
 2743 103a DBB2     		uxtb	r3, r3
 2744              	.LVL408:
 2745 103c 2B70     		strb	r3, [r5, #0]
 2746 103e 9B18     		adds	r3, r3, r2
 2747              	.LVL409:
 2748 1040 2370     		strb	r3, [r4, #0]
 2749 1042 7C48     		ldr	r0, .L247
 2750 1044 FFF7FEFF 		bl	uart_transmit
 2751              	.LVL410:
 2752              	.LBE255:
 2753              	.LBB256:
 2754 1048 B178     		ldrb	r1, [r6, #2]	@ zero_extendqisi2
 2755              	.LVL411:
 2756 104a 2B78     		ldrb	r3, [r5, #0]	@ zero_extendqisi2
 2757 104c 2278     		ldrb	r2, [r4, #0]	@ zero_extendqisi2
 2758 104e CB18     		adds	r3, r1, r3
 2759 1050 DBB2     		uxtb	r3, r3
 2760              	.LVL412:
 2761 1052 2B70     		strb	r3, [r5, #0]
 2762 1054 9B18     		adds	r3, r3, r2
 2763              	.LVL413:
 2764 1056 2370     		strb	r3, [r4, #0]
 2765 1058 7648     		ldr	r0, .L247
 2766 105a FFF7FEFF 		bl	uart_transmit
 2767              	.LVL414:
 2768              	.LBE256:
 2769              	.LBB257:
 2770 105e F178     		ldrb	r1, [r6, #3]	@ zero_extendqisi2
 2771              	.LVL415:
 2772 1060 2B78     		ldrb	r3, [r5, #0]	@ zero_extendqisi2
 2773 1062 2278     		ldrb	r2, [r4, #0]	@ zero_extendqisi2
 2774 1064 CB18     		adds	r3, r1, r3
 2775 1066 DBB2     		uxtb	r3, r3
 2776              	.LBE257:
 2777              	.LBB258:
 2778 1068 784E     		ldr	r6, .L247+24
 2779              	.LVL416:
 2780              	.LBE258:
 2781              	.LBB259:
 2782 106a 2B70     		strb	r3, [r5, #0]
 2783 106c 9B18     		adds	r3, r3, r2
 2784              	.LVL417:
 2785 106e 2370     		strb	r3, [r4, #0]
 2786 1070 7048     		ldr	r0, .L247
 2787 1072 FFF7FEFF 		bl	uart_transmit
 2788              	.LVL418:
 2789              	.LBE259:
 2790              	.LBB260:
 2791 1076 3178     		ldrb	r1, [r6, #0]	@ zero_extendqisi2
 2792              	.LVL419:
 2793 1078 2B78     		ldrb	r3, [r5, #0]	@ zero_extendqisi2
 2794 107a 2278     		ldrb	r2, [r4, #0]	@ zero_extendqisi2
 2795 107c CB18     		adds	r3, r1, r3
 2796 107e DBB2     		uxtb	r3, r3
 2797              	.LVL420:
 2798 1080 2B70     		strb	r3, [r5, #0]
 2799 1082 9B18     		adds	r3, r3, r2
 2800              	.LVL421:
 2801 1084 2370     		strb	r3, [r4, #0]
 2802 1086 6B48     		ldr	r0, .L247
 2803 1088 FFF7FEFF 		bl	uart_transmit
 2804              	.LVL422:
 2805              	.LBE260:
 2806              	.LBB261:
 2807 108c 7178     		ldrb	r1, [r6, #1]	@ zero_extendqisi2
 2808              	.LVL423:
 2809 108e 2B78     		ldrb	r3, [r5, #0]	@ zero_extendqisi2
 2810 1090 2278     		ldrb	r2, [r4, #0]	@ zero_extendqisi2
 2811 1092 CB18     		adds	r3, r1, r3
 2812 1094 DBB2     		uxtb	r3, r3
 2813              	.LVL424:
 2814 1096 2B70     		strb	r3, [r5, #0]
 2815 1098 9B18     		adds	r3, r3, r2
 2816              	.LVL425:
 2817 109a 2370     		strb	r3, [r4, #0]
 2818 109c 6548     		ldr	r0, .L247
 2819 109e FFF7FEFF 		bl	uart_transmit
 2820              	.LVL426:
 2821              	.LBE261:
 2822              	.LBB262:
 2823 10a2 B178     		ldrb	r1, [r6, #2]	@ zero_extendqisi2
 2824              	.LVL427:
 2825 10a4 2B78     		ldrb	r3, [r5, #0]	@ zero_extendqisi2
 2826 10a6 2278     		ldrb	r2, [r4, #0]	@ zero_extendqisi2
 2827 10a8 CB18     		adds	r3, r1, r3
 2828 10aa DBB2     		uxtb	r3, r3
 2829              	.LVL428:
 2830 10ac 2B70     		strb	r3, [r5, #0]
 2831 10ae 9B18     		adds	r3, r3, r2
 2832              	.LVL429:
 2833 10b0 2370     		strb	r3, [r4, #0]
 2834 10b2 6048     		ldr	r0, .L247
 2835 10b4 FFF7FEFF 		bl	uart_transmit
 2836              	.LVL430:
 2837              	.LBE262:
 2838              	.LBB263:
 2839 10b8 F178     		ldrb	r1, [r6, #3]	@ zero_extendqisi2
 2840              	.LVL431:
 2841 10ba 2B78     		ldrb	r3, [r5, #0]	@ zero_extendqisi2
 2842 10bc 2278     		ldrb	r2, [r4, #0]	@ zero_extendqisi2
 2843 10be CB18     		adds	r3, r1, r3
 2844 10c0 DBB2     		uxtb	r3, r3
 2845              	.LBE263:
 2846              	.LBB264:
 2847 10c2 634E     		ldr	r6, .L247+28
 2848              	.LVL432:
 2849              	.LBE264:
 2850              	.LBB265:
 2851 10c4 2B70     		strb	r3, [r5, #0]
 2852 10c6 9B18     		adds	r3, r3, r2
 2853              	.LVL433:
 2854 10c8 2370     		strb	r3, [r4, #0]
 2855 10ca 5A48     		ldr	r0, .L247
 2856 10cc FFF7FEFF 		bl	uart_transmit
 2857              	.LVL434:
 2858              	.LBE265:
 2859              	.LBB266:
 2860 10d0 3178     		ldrb	r1, [r6, #0]	@ zero_extendqisi2
 2861              	.LVL435:
 2862 10d2 2B78     		ldrb	r3, [r5, #0]	@ zero_extendqisi2
 2863 10d4 2278     		ldrb	r2, [r4, #0]	@ zero_extendqisi2
 2864 10d6 CB18     		adds	r3, r1, r3
 2865 10d8 DBB2     		uxtb	r3, r3
 2866              	.LVL436:
 2867 10da 2B70     		strb	r3, [r5, #0]
 2868 10dc 9B18     		adds	r3, r3, r2
 2869              	.LVL437:
 2870 10de 2370     		strb	r3, [r4, #0]
 2871 10e0 5448     		ldr	r0, .L247
 2872 10e2 FFF7FEFF 		bl	uart_transmit
 2873              	.LVL438:
 2874              	.LBE266:
 2875              	.LBB267:
 2876 10e6 7178     		ldrb	r1, [r6, #1]	@ zero_extendqisi2
 2877              	.LVL439:
 2878 10e8 2B78     		ldrb	r3, [r5, #0]	@ zero_extendqisi2
 2879 10ea 2278     		ldrb	r2, [r4, #0]	@ zero_extendqisi2
 2880 10ec CB18     		adds	r3, r1, r3
 2881 10ee DBB2     		uxtb	r3, r3
 2882              	.LVL440:
 2883 10f0 2B70     		strb	r3, [r5, #0]
 2884 10f2 9B18     		adds	r3, r3, r2
 2885              	.LVL441:
 2886 10f4 2370     		strb	r3, [r4, #0]
 2887 10f6 4F48     		ldr	r0, .L247
 2888 10f8 FFF7FEFF 		bl	uart_transmit
 2889              	.LVL442:
 2890              	.LBE267:
 2891              	.LBB268:
 2892 10fc B178     		ldrb	r1, [r6, #2]	@ zero_extendqisi2
 2893              	.LVL443:
 2894 10fe 2B78     		ldrb	r3, [r5, #0]	@ zero_extendqisi2
 2895 1100 2278     		ldrb	r2, [r4, #0]	@ zero_extendqisi2
 2896 1102 CB18     		adds	r3, r1, r3
 2897 1104 DBB2     		uxtb	r3, r3
 2898              	.LVL444:
 2899 1106 2B70     		strb	r3, [r5, #0]
 2900 1108 9B18     		adds	r3, r3, r2
 2901              	.LVL445:
 2902 110a 2370     		strb	r3, [r4, #0]
 2903 110c 4948     		ldr	r0, .L247
 2904 110e FFF7FEFF 		bl	uart_transmit
 2905              	.LVL446:
 2906              	.LBE268:
 2907              	.LBB269:
 2908 1112 F178     		ldrb	r1, [r6, #3]	@ zero_extendqisi2
 2909              	.LVL447:
 2910 1114 2B78     		ldrb	r3, [r5, #0]	@ zero_extendqisi2
 2911 1116 2278     		ldrb	r2, [r4, #0]	@ zero_extendqisi2
 2912 1118 CB18     		adds	r3, r1, r3
 2913 111a DBB2     		uxtb	r3, r3
 2914              	.LBE269:
 2915              	.LBB270:
 2916 111c 4D4E     		ldr	r6, .L247+32
 2917              	.LVL448:
 2918              	.LBE270:
 2919              	.LBB271:
 2920 111e 2B70     		strb	r3, [r5, #0]
 2921 1120 9B18     		adds	r3, r3, r2
 2922              	.LVL449:
 2923 1122 2370     		strb	r3, [r4, #0]
 2924 1124 4348     		ldr	r0, .L247
 2925 1126 FFF7FEFF 		bl	uart_transmit
 2926              	.LVL450:
 2927              	.LBE271:
 2928              	.LBB272:
 2929 112a 3178     		ldrb	r1, [r6, #0]	@ zero_extendqisi2
 2930              	.LVL451:
 2931 112c 2B78     		ldrb	r3, [r5, #0]	@ zero_extendqisi2
 2932 112e 2278     		ldrb	r2, [r4, #0]	@ zero_extendqisi2
 2933 1130 CB18     		adds	r3, r1, r3
 2934 1132 DBB2     		uxtb	r3, r3
 2935              	.LVL452:
 2936 1134 2B70     		strb	r3, [r5, #0]
 2937 1136 9B18     		adds	r3, r3, r2
 2938              	.LVL453:
 2939 1138 2370     		strb	r3, [r4, #0]
 2940 113a 3E48     		ldr	r0, .L247
 2941 113c FFF7FEFF 		bl	uart_transmit
 2942              	.LVL454:
 2943              	.LBE272:
 2944              	.LBB273:
 2945 1140 7178     		ldrb	r1, [r6, #1]	@ zero_extendqisi2
 2946              	.LVL455:
 2947 1142 2B78     		ldrb	r3, [r5, #0]	@ zero_extendqisi2
 2948 1144 2278     		ldrb	r2, [r4, #0]	@ zero_extendqisi2
 2949 1146 CB18     		adds	r3, r1, r3
 2950 1148 DBB2     		uxtb	r3, r3
 2951              	.LVL456:
 2952 114a 2B70     		strb	r3, [r5, #0]
 2953 114c 9B18     		adds	r3, r3, r2
 2954              	.LVL457:
 2955 114e 2370     		strb	r3, [r4, #0]
 2956 1150 3848     		ldr	r0, .L247
 2957 1152 FFF7FEFF 		bl	uart_transmit
 2958              	.LVL458:
 2959              	.LBE273:
 2960              	.LBB274:
 2961 1156 B178     		ldrb	r1, [r6, #2]	@ zero_extendqisi2
 2962              	.LVL459:
 2963 1158 2B78     		ldrb	r3, [r5, #0]	@ zero_extendqisi2
 2964 115a 2278     		ldrb	r2, [r4, #0]	@ zero_extendqisi2
 2965 115c CB18     		adds	r3, r1, r3
 2966 115e DBB2     		uxtb	r3, r3
 2967              	.LVL460:
 2968 1160 2B70     		strb	r3, [r5, #0]
 2969 1162 9B18     		adds	r3, r3, r2
 2970              	.LVL461:
 2971 1164 2370     		strb	r3, [r4, #0]
 2972 1166 3348     		ldr	r0, .L247
 2973 1168 FFF7FEFF 		bl	uart_transmit
 2974              	.LVL462:
 2975              	.LBE274:
 2976              	.LBB275:
 2977 116c F178     		ldrb	r1, [r6, #3]	@ zero_extendqisi2
 2978              	.LVL463:
 2979 116e 2B78     		ldrb	r3, [r5, #0]	@ zero_extendqisi2
 2980 1170 2278     		ldrb	r2, [r4, #0]	@ zero_extendqisi2
 2981 1172 CB18     		adds	r3, r1, r3
 2982 1174 DBB2     		uxtb	r3, r3
 2983              	.LBE275:
 2984              	.LBB276:
 2985 1176 384E     		ldr	r6, .L247+36
 2986              	.LVL464:
 2987              	.LBE276:
 2988              	.LBB277:
 2989 1178 2B70     		strb	r3, [r5, #0]
 2990 117a 9B18     		adds	r3, r3, r2
 2991              	.LVL465:
 2992 117c 2370     		strb	r3, [r4, #0]
 2993 117e 2D48     		ldr	r0, .L247
 2994 1180 FFF7FEFF 		bl	uart_transmit
 2995              	.LVL466:
 2996              	.LBE277:
 2997              	.LBB278:
 2998 1184 3178     		ldrb	r1, [r6, #0]	@ zero_extendqisi2
 2999              	.LVL467:
 3000 1186 2B78     		ldrb	r3, [r5, #0]	@ zero_extendqisi2
 3001 1188 2278     		ldrb	r2, [r4, #0]	@ zero_extendqisi2
 3002 118a CB18     		adds	r3, r1, r3
 3003 118c DBB2     		uxtb	r3, r3
 3004              	.LVL468:
 3005 118e 2B70     		strb	r3, [r5, #0]
 3006 1190 9B18     		adds	r3, r3, r2
 3007              	.LVL469:
 3008 1192 2370     		strb	r3, [r4, #0]
 3009 1194 2748     		ldr	r0, .L247
 3010 1196 FFF7FEFF 		bl	uart_transmit
 3011              	.LVL470:
 3012              	.LBE278:
 3013              	.LBB279:
 3014 119a 7178     		ldrb	r1, [r6, #1]	@ zero_extendqisi2
 3015              	.LVL471:
 3016 119c 2B78     		ldrb	r3, [r5, #0]	@ zero_extendqisi2
 3017 119e 2278     		ldrb	r2, [r4, #0]	@ zero_extendqisi2
 3018 11a0 CB18     		adds	r3, r1, r3
 3019 11a2 DBB2     		uxtb	r3, r3
 3020              	.LVL472:
 3021 11a4 2B70     		strb	r3, [r5, #0]
 3022 11a6 9B18     		adds	r3, r3, r2
 3023              	.LVL473:
 3024 11a8 2370     		strb	r3, [r4, #0]
 3025 11aa 2248     		ldr	r0, .L247
 3026 11ac FFF7FEFF 		bl	uart_transmit
 3027              	.LVL474:
 3028              	.LBE279:
 3029              	.LBB280:
 3030 11b0 B178     		ldrb	r1, [r6, #2]	@ zero_extendqisi2
 3031              	.LVL475:
 3032 11b2 2B78     		ldrb	r3, [r5, #0]	@ zero_extendqisi2
 3033 11b4 2278     		ldrb	r2, [r4, #0]	@ zero_extendqisi2
 3034 11b6 CB18     		adds	r3, r1, r3
 3035 11b8 DBB2     		uxtb	r3, r3
 3036              	.LVL476:
 3037 11ba 2B70     		strb	r3, [r5, #0]
 3038 11bc 9B18     		adds	r3, r3, r2
 3039              	.LVL477:
 3040 11be 2370     		strb	r3, [r4, #0]
 3041 11c0 1C48     		ldr	r0, .L247
 3042 11c2 FFF7FEFF 		bl	uart_transmit
 3043              	.LVL478:
 3044              	.LBE280:
 3045              	.LBB281:
 3046 11c6 F178     		ldrb	r1, [r6, #3]	@ zero_extendqisi2
 3047              	.LVL479:
 3048 11c8 2B78     		ldrb	r3, [r5, #0]	@ zero_extendqisi2
 3049 11ca 2278     		ldrb	r2, [r4, #0]	@ zero_extendqisi2
 3050 11cc CB18     		adds	r3, r1, r3
 3051 11ce DBB2     		uxtb	r3, r3
 3052              	.LBE281:
 3053              	.LBB282:
 3054 11d0 224E     		ldr	r6, .L247+40
 3055              	.LVL480:
 3056              	.LBE282:
 3057              	.LBB283:
 3058 11d2 2B70     		strb	r3, [r5, #0]
 3059 11d4 9B18     		adds	r3, r3, r2
 3060              	.LVL481:
 3061 11d6 2370     		strb	r3, [r4, #0]
 3062 11d8 1648     		ldr	r0, .L247
 3063 11da FFF7FEFF 		bl	uart_transmit
 3064              	.LVL482:
 3065              	.LBE283:
 3066              	.LBB284:
 3067 11de 3178     		ldrb	r1, [r6, #0]	@ zero_extendqisi2
 3068              	.LVL483:
 3069 11e0 2B78     		ldrb	r3, [r5, #0]	@ zero_extendqisi2
 3070 11e2 2278     		ldrb	r2, [r4, #0]	@ zero_extendqisi2
 3071 11e4 CB18     		adds	r3, r1, r3
 3072 11e6 DBB2     		uxtb	r3, r3
 3073              	.LVL484:
 3074 11e8 2B70     		strb	r3, [r5, #0]
 3075 11ea 9B18     		adds	r3, r3, r2
 3076              	.LVL485:
 3077 11ec 2370     		strb	r3, [r4, #0]
 3078 11ee 1148     		ldr	r0, .L247
 3079 11f0 FFF7FEFF 		bl	uart_transmit
 3080              	.LVL486:
 3081              	.LBE284:
 3082              	.LBB285:
 3083 11f4 7178     		ldrb	r1, [r6, #1]	@ zero_extendqisi2
 3084              	.LVL487:
 3085 11f6 2B78     		ldrb	r3, [r5, #0]	@ zero_extendqisi2
 3086 11f8 2278     		ldrb	r2, [r4, #0]	@ zero_extendqisi2
 3087 11fa CB18     		adds	r3, r1, r3
 3088 11fc DBB2     		uxtb	r3, r3
 3089              	.LVL488:
 3090 11fe 2B70     		strb	r3, [r5, #0]
 3091 1200 9B18     		adds	r3, r3, r2
 3092              	.LVL489:
 3093 1202 2370     		strb	r3, [r4, #0]
 3094 1204 0B48     		ldr	r0, .L247
 3095 1206 FFF7FEFF 		bl	uart_transmit
 3096              	.LVL490:
 3097              	.LBE285:
 3098              	.LBB286:
 3099 120a B178     		ldrb	r1, [r6, #2]	@ zero_extendqisi2
 3100              	.LVL491:
 3101 120c 2B78     		ldrb	r3, [r5, #0]	@ zero_extendqisi2
 3102 120e 2278     		ldrb	r2, [r4, #0]	@ zero_extendqisi2
 3103 1210 CB18     		adds	r3, r1, r3
 3104 1212 DBB2     		uxtb	r3, r3
 3105              	.LVL492:
 3106 1214 2B70     		strb	r3, [r5, #0]
 3107 1216 9B18     		adds	r3, r3, r2
 3108              	.LVL493:
 3109 1218 2370     		strb	r3, [r4, #0]
 3110 121a 0648     		ldr	r0, .L247
 3111 121c FFF7FEFF 		bl	uart_transmit
 3112              	.LVL494:
 3113              	.LBE286:
 3114              	.LBB287:
 3115 1220 F178     		ldrb	r1, [r6, #3]	@ zero_extendqisi2
 3116              	.LVL495:
 3117 1222 2B78     		ldrb	r3, [r5, #0]	@ zero_extendqisi2
 3118 1224 2278     		ldrb	r2, [r4, #0]	@ zero_extendqisi2
 3119 1226 CB18     		adds	r3, r1, r3
 3120 1228 DBB2     		uxtb	r3, r3
 3121              	.LVL496:
 3122 122a 2B70     		strb	r3, [r5, #0]
 3123 122c 9B18     		adds	r3, r3, r2
 3124              	.LVL497:
 3125 122e 2370     		strb	r3, [r4, #0]
 3126 1230 16E0     		b	.L248
 3127              	.L249:
 3128 1232 00BF     		.align	2
 3129              	.L247:
 3130 1234 00000000 		.word	uart2
 3131 1238 00000000 		.word	downlink_nb_bytes
 3132 123c 00000000 		.word	downlink_nb_msgs
 3133 1240 00000000 		.word	ck_a
 3134 1244 00000000 		.word	ck_b
 3135 1248 00000000 		.word	h_ctl_roll_setpoint
 3136 124c 00000000 		.word	h_ctl_pitch_loop_setpoint
 3137 1250 00000000 		.word	h_ctl_course_setpoint
 3138 1254 00000000 		.word	desired_x
 3139 1258 00000000 		.word	desired_y
 3140 125c 00000000 		.word	v_ctl_altitude_setpoint
 3141              	.L248:
 3142 1260 8A48     		ldr	r0, .L250
 3143 1262 FFF7FEFF 		bl	uart_transmit
 3144              	.LVL498:
 3145              	.LBE287:
 3146              	.LBB288:
 3147 1266 8A4E     		ldr	r6, .L250+4
 3148              	.LVL499:
 3149              	.L213:
 3150 1268 3178     		ldrb	r1, [r6, #0]	@ zero_extendqisi2
 3151              	.LVL500:
 3152 126a 2B78     		ldrb	r3, [r5, #0]	@ zero_extendqisi2
 3153 126c 2278     		ldrb	r2, [r4, #0]	@ zero_extendqisi2
 3154 126e CB18     		adds	r3, r1, r3
 3155 1270 DBB2     		uxtb	r3, r3
 3156              	.LVL501:
 3157 1272 2B70     		strb	r3, [r5, #0]
 3158 1274 9B18     		adds	r3, r3, r2
 3159              	.LVL502:
 3160 1276 2370     		strb	r3, [r4, #0]
 3161 1278 8448     		ldr	r0, .L250
 3162 127a FFF7FEFF 		bl	uart_transmit
 3163              	.LVL503:
 3164              	.LBE288:
 3165              	.LBB289:
 3166 127e 7178     		ldrb	r1, [r6, #1]	@ zero_extendqisi2
 3167              	.LVL504:
 3168 1280 2B78     		ldrb	r3, [r5, #0]	@ zero_extendqisi2
 3169 1282 2278     		ldrb	r2, [r4, #0]	@ zero_extendqisi2
 3170 1284 CB18     		adds	r3, r1, r3
 3171 1286 DBB2     		uxtb	r3, r3
 3172              	.LVL505:
 3173 1288 2B70     		strb	r3, [r5, #0]
 3174 128a 9B18     		adds	r3, r3, r2
 3175              	.LVL506:
 3176 128c 2370     		strb	r3, [r4, #0]
 3177 128e 7F48     		ldr	r0, .L250
 3178 1290 FFF7FEFF 		bl	uart_transmit
 3179              	.LVL507:
 3180              	.LBE289:
 3181              	.LBB290:
 3182 1294 B178     		ldrb	r1, [r6, #2]	@ zero_extendqisi2
 3183              	.LVL508:
 3184 1296 2B78     		ldrb	r3, [r5, #0]	@ zero_extendqisi2
 3185 1298 2278     		ldrb	r2, [r4, #0]	@ zero_extendqisi2
 3186 129a CB18     		adds	r3, r1, r3
 3187 129c DBB2     		uxtb	r3, r3
 3188              	.LVL509:
 3189 129e 2B70     		strb	r3, [r5, #0]
 3190 12a0 9B18     		adds	r3, r3, r2
 3191              	.LVL510:
 3192 12a2 2370     		strb	r3, [r4, #0]
 3193 12a4 7948     		ldr	r0, .L250
 3194 12a6 FFF7FEFF 		bl	uart_transmit
 3195              	.LVL511:
 3196              	.LBE290:
 3197              	.LBB291:
 3198 12aa F178     		ldrb	r1, [r6, #3]	@ zero_extendqisi2
 3199              	.LVL512:
 3200 12ac 2B78     		ldrb	r3, [r5, #0]	@ zero_extendqisi2
 3201 12ae 2278     		ldrb	r2, [r4, #0]	@ zero_extendqisi2
 3202 12b0 CB18     		adds	r3, r1, r3
 3203 12b2 DBB2     		uxtb	r3, r3
 3204              	.LVL513:
 3205 12b4 2B70     		strb	r3, [r5, #0]
 3206 12b6 9B18     		adds	r3, r3, r2
 3207              	.LVL514:
 3208 12b8 2370     		strb	r3, [r4, #0]
 3209 12ba 7448     		ldr	r0, .L250
 3210 12bc FFF7FEFF 		bl	uart_transmit
 3211              	.LVL515:
 3212              	.LBE291:
 3213 12c0 2978     		ldrb	r1, [r5, #0]	@ zero_extendqisi2
 3214 12c2 7248     		ldr	r0, .L250
 3215 12c4 FFF7FEFF 		bl	uart_transmit
 3216 12c8 7048     		ldr	r0, .L250
 3217 12ca 2178     		ldrb	r1, [r4, #0]	@ zero_extendqisi2
 3218 12cc FFF7FEFF 		bl	uart_transmit
 3219 12d0 03E0     		b	.L40
 3220              	.L42:
 3221              		.loc 1 422 0 discriminator 41
 3222 12d2 704B     		ldr	r3, .L250+8
 3223 12d4 1A78     		ldrb	r2, [r3, #0]	@ zero_extendqisi2
 3224 12d6 0132     		adds	r2, r2, #1
 3225 12d8 1A70     		strb	r2, [r3, #0]
 3226              	.L40:
 3227              		.loc 1 422 0 discriminator 39
 3228 12da 6F4B     		ldr	r3, .L250+12
 3229 12dc 1B78     		ldrb	r3, [r3, #0]	@ zero_extendqisi2
 3230 12de 3C2B     		cmp	r3, #60
 3231 12e0 40F0F480 		bne	.L43
 3232              	.LBB292:
 3233              		.loc 1 422 0 discriminator 42
 3234 12e4 6D4B     		ldr	r3, .L250+16
 3235 12e6 1A68     		ldr	r2, [r3, #0]
 3236 12e8 0A23     		movs	r3, #10
 3237 12ea 92FBF3F3 		sdiv	r3, r2, r3
 3238 12ee ADF81E30 		strh	r3, [sp, #30]	@ movhi
 3239              	.LVL516:
 3240              	.LBB293:
 3241 12f2 6B4B     		ldr	r3, .L250+20
 3242 12f4 1868     		ldr	r0, [r3, #0]	@ float
 3243 12f6 FFF7FEFF 		bl	__aeabi_f2iz
 3244 12fa 1421     		movs	r1, #20
 3245 12fc ADF81C00 		strh	r0, [sp, #28]	@ movhi
 3246              	.LVL517:
 3247 1300 6248     		ldr	r0, .L250
 3248 1302 FFF7FEFF 		bl	uart_check_free_space
 3249 1306 0028     		cmp	r0, #0
 3250 1308 00F0CE81 		beq	.L46
 3251              		.loc 1 422 0 discriminator 44
 3252 130c 654B     		ldr	r3, .L250+24
 3253              	.LBB294:
 3254 130e 5F48     		ldr	r0, .L250
 3255              	.LBE294:
 3256 1310 1A88     		ldrh	r2, [r3, #0]
 3257              	.LBB295:
 3258 1312 9921     		movs	r1, #153
 3259              	.LBE295:
 3260 1314 1432     		adds	r2, r2, #20
 3261 1316 1A80     		strh	r2, [r3, #0]	@ movhi
 3262 1318 634B     		ldr	r3, .L250+28
 3263 131a 644D     		ldr	r5, .L250+32
 3264 131c 1A88     		ldrh	r2, [r3, #0]
 3265 131e 644C     		ldr	r4, .L250+36
 3266 1320 0132     		adds	r2, r2, #1
 3267 1322 1A80     		strh	r2, [r3, #0]	@ movhi
 3268              	.LBB296:
 3269 1324 FFF7FEFF 		bl	uart_transmit
 3270              	.LVL518:
 3271 1328 5848     		ldr	r0, .L250
 3272 132a 1421     		movs	r1, #20
 3273 132c FFF7FEFF 		bl	uart_transmit
 3274              	.LBE296:
 3275 1330 1523     		movs	r3, #21
 3276 1332 2B70     		strb	r3, [r5, #0]
 3277 1334 2923     		movs	r3, #41
 3278 1336 2370     		strb	r3, [r4, #0]
 3279 1338 5448     		ldr	r0, .L250
 3280 133a 0121     		movs	r1, #1
 3281 133c FFF7FEFF 		bl	uart_transmit
 3282 1340 2B78     		ldrb	r3, [r5, #0]	@ zero_extendqisi2
 3283 1342 2278     		ldrb	r2, [r4, #0]	@ zero_extendqisi2
 3284 1344 0C33     		adds	r3, r3, #12
 3285 1346 DBB2     		uxtb	r3, r3
 3286              	.LBB297:
 3287 1348 5A4E     		ldr	r6, .L250+40
 3288              	.LBE297:
 3289 134a 2B70     		strb	r3, [r5, #0]
 3290 134c 9B18     		adds	r3, r3, r2
 3291 134e 2370     		strb	r3, [r4, #0]
 3292 1350 4E48     		ldr	r0, .L250
 3293 1352 0C21     		movs	r1, #12
 3294 1354 FFF7FEFF 		bl	uart_transmit
 3295              	.LBB298:
 3296 1358 3178     		ldrb	r1, [r6, #0]	@ zero_extendqisi2
 3297              	.LVL519:
 3298 135a 2B78     		ldrb	r3, [r5, #0]	@ zero_extendqisi2
 3299 135c 2278     		ldrb	r2, [r4, #0]	@ zero_extendqisi2
 3300 135e CB18     		adds	r3, r1, r3
 3301 1360 DBB2     		uxtb	r3, r3
 3302              	.LVL520:
 3303 1362 2B70     		strb	r3, [r5, #0]
 3304 1364 9B18     		adds	r3, r3, r2
 3305              	.LVL521:
 3306 1366 2370     		strb	r3, [r4, #0]
 3307 1368 4848     		ldr	r0, .L250
 3308 136a FFF7FEFF 		bl	uart_transmit
 3309              	.LVL522:
 3310              	.LBE298:
 3311              	.LBB299:
 3312 136e 7178     		ldrb	r1, [r6, #1]	@ zero_extendqisi2
 3313              	.LVL523:
 3314 1370 2B78     		ldrb	r3, [r5, #0]	@ zero_extendqisi2
 3315 1372 2278     		ldrb	r2, [r4, #0]	@ zero_extendqisi2
 3316 1374 CB18     		adds	r3, r1, r3
 3317 1376 DBB2     		uxtb	r3, r3
 3318              	.LVL524:
 3319 1378 2B70     		strb	r3, [r5, #0]
 3320 137a 9B18     		adds	r3, r3, r2
 3321              	.LVL525:
 3322 137c 2370     		strb	r3, [r4, #0]
 3323 137e 4348     		ldr	r0, .L250
 3324 1380 FFF7FEFF 		bl	uart_transmit
 3325              	.LVL526:
 3326              	.LBE299:
 3327              	.LBB300:
 3328 1384 4C4B     		ldr	r3, .L250+44
 3329 1386 2278     		ldrb	r2, [r4, #0]	@ zero_extendqisi2
 3330 1388 1978     		ldrb	r1, [r3, #0]	@ zero_extendqisi2
 3331              	.LVL527:
 3332 138a 2B78     		ldrb	r3, [r5, #0]	@ zero_extendqisi2
 3333 138c 3F48     		ldr	r0, .L250
 3334 138e CB18     		adds	r3, r1, r3
 3335 1390 DBB2     		uxtb	r3, r3
 3336              	.LVL528:
 3337 1392 2B70     		strb	r3, [r5, #0]
 3338 1394 9B18     		adds	r3, r3, r2
 3339              	.LVL529:
 3340 1396 2370     		strb	r3, [r4, #0]
 3341 1398 FFF7FEFF 		bl	uart_transmit
 3342              	.LVL530:
 3343              	.LBE300:
 3344              	.LBB301:
 3345 139c 9DF81E10 		ldrb	r1, [sp, #30]	@ zero_extendqisi2
 3346              	.LVL531:
 3347 13a0 2B78     		ldrb	r3, [r5, #0]	@ zero_extendqisi2
 3348 13a2 2278     		ldrb	r2, [r4, #0]	@ zero_extendqisi2
 3349 13a4 CB18     		adds	r3, r1, r3
 3350 13a6 DBB2     		uxtb	r3, r3
 3351              	.LVL532:
 3352 13a8 2B70     		strb	r3, [r5, #0]
 3353 13aa 9B18     		adds	r3, r3, r2
 3354              	.LVL533:
 3355 13ac 2370     		strb	r3, [r4, #0]
 3356 13ae 3748     		ldr	r0, .L250
 3357 13b0 FFF7FEFF 		bl	uart_transmit
 3358              	.LVL534:
 3359              	.LBE301:
 3360              	.LBB302:
 3361 13b4 9DF81F10 		ldrb	r1, [sp, #31]	@ zero_extendqisi2
 3362              	.LVL535:
 3363 13b8 2B78     		ldrb	r3, [r5, #0]	@ zero_extendqisi2
 3364 13ba 2278     		ldrb	r2, [r4, #0]	@ zero_extendqisi2
 3365 13bc CB18     		adds	r3, r1, r3
 3366 13be DBB2     		uxtb	r3, r3
 3367              	.LBE302:
 3368              	.LBB303:
 3369 13c0 3E4E     		ldr	r6, .L250+48
 3370              	.LVL536:
 3371              	.LBE303:
 3372              	.LBB304:
 3373 13c2 2B70     		strb	r3, [r5, #0]
 3374 13c4 9B18     		adds	r3, r3, r2
 3375              	.LVL537:
 3376 13c6 2370     		strb	r3, [r4, #0]
 3377 13c8 3048     		ldr	r0, .L250
 3378 13ca FFF7FEFF 		bl	uart_transmit
 3379              	.LVL538:
 3380              	.LBE304:
 3381              	.LBB305:
 3382 13ce 3178     		ldrb	r1, [r6, #0]	@ zero_extendqisi2
 3383              	.LVL539:
 3384 13d0 2B78     		ldrb	r3, [r5, #0]	@ zero_extendqisi2
 3385 13d2 2278     		ldrb	r2, [r4, #0]	@ zero_extendqisi2
 3386 13d4 CB18     		adds	r3, r1, r3
 3387 13d6 DBB2     		uxtb	r3, r3
 3388              	.LVL540:
 3389 13d8 2B70     		strb	r3, [r5, #0]
 3390 13da 9B18     		adds	r3, r3, r2
 3391              	.LVL541:
 3392 13dc 2370     		strb	r3, [r4, #0]
 3393 13de 2B48     		ldr	r0, .L250
 3394 13e0 FFF7FEFF 		bl	uart_transmit
 3395              	.LVL542:
 3396              	.LBE305:
 3397              	.LBB306:
 3398 13e4 7178     		ldrb	r1, [r6, #1]	@ zero_extendqisi2
 3399              	.LVL543:
 3400 13e6 2B78     		ldrb	r3, [r5, #0]	@ zero_extendqisi2
 3401 13e8 2278     		ldrb	r2, [r4, #0]	@ zero_extendqisi2
 3402 13ea CB18     		adds	r3, r1, r3
 3403 13ec DBB2     		uxtb	r3, r3
 3404              	.LVL544:
 3405 13ee 2B70     		strb	r3, [r5, #0]
 3406 13f0 9B18     		adds	r3, r3, r2
 3407              	.LVL545:
 3408 13f2 2370     		strb	r3, [r4, #0]
 3409 13f4 2548     		ldr	r0, .L250
 3410 13f6 FFF7FEFF 		bl	uart_transmit
 3411              	.LVL546:
 3412              	.LBE306:
 3413              	.LBB307:
 3414 13fa 314B     		ldr	r3, .L250+52
 3415 13fc 2278     		ldrb	r2, [r4, #0]	@ zero_extendqisi2
 3416 13fe 1978     		ldrb	r1, [r3, #0]	@ zero_extendqisi2
 3417              	.LVL547:
 3418 1400 2B78     		ldrb	r3, [r5, #0]	@ zero_extendqisi2
 3419              	.LBE307:
 3420              	.LBB308:
 3421 1402 304E     		ldr	r6, .L250+56
 3422              	.LBE308:
 3423              	.LBB309:
 3424 1404 CB18     		adds	r3, r1, r3
 3425 1406 DBB2     		uxtb	r3, r3
 3426              	.LVL548:
 3427 1408 2B70     		strb	r3, [r5, #0]
 3428 140a 9B18     		adds	r3, r3, r2
 3429              	.LVL549:
 3430 140c 2370     		strb	r3, [r4, #0]
 3431 140e 1F48     		ldr	r0, .L250
 3432 1410 FFF7FEFF 		bl	uart_transmit
 3433              	.LVL550:
 3434              	.LBE309:
 3435              	.LBB310:
 3436 1414 3178     		ldrb	r1, [r6, #0]	@ zero_extendqisi2
 3437              	.LVL551:
 3438 1416 2B78     		ldrb	r3, [r5, #0]	@ zero_extendqisi2
 3439 1418 2278     		ldrb	r2, [r4, #0]	@ zero_extendqisi2
 3440 141a CB18     		adds	r3, r1, r3
 3441 141c DBB2     		uxtb	r3, r3
 3442              	.LVL552:
 3443 141e 2B70     		strb	r3, [r5, #0]
 3444 1420 9B18     		adds	r3, r3, r2
 3445              	.LVL553:
 3446 1422 2370     		strb	r3, [r4, #0]
 3447 1424 1948     		ldr	r0, .L250
 3448 1426 FFF7FEFF 		bl	uart_transmit
 3449              	.LVL554:
 3450              	.LBE310:
 3451              	.LBB311:
 3452 142a 7178     		ldrb	r1, [r6, #1]	@ zero_extendqisi2
 3453              	.LVL555:
 3454 142c 2B78     		ldrb	r3, [r5, #0]	@ zero_extendqisi2
 3455 142e 2278     		ldrb	r2, [r4, #0]	@ zero_extendqisi2
 3456 1430 CB18     		adds	r3, r1, r3
 3457 1432 DBB2     		uxtb	r3, r3
 3458              	.LVL556:
 3459 1434 2B70     		strb	r3, [r5, #0]
 3460              	.LBE311:
 3461              	.LBB312:
 3462 1436 244E     		ldr	r6, .L250+60
 3463              	.LBE312:
 3464              	.LBB313:
 3465 1438 9B18     		adds	r3, r3, r2
 3466              	.LVL557:
 3467 143a 2370     		strb	r3, [r4, #0]
 3468 143c 1348     		ldr	r0, .L250
 3469 143e FFF7FEFF 		bl	uart_transmit
 3470              	.LVL558:
 3471              	.LBE313:
 3472              	.LBB314:
 3473 1442 3178     		ldrb	r1, [r6, #0]	@ zero_extendqisi2
 3474              	.LVL559:
 3475 1444 2B78     		ldrb	r3, [r5, #0]	@ zero_extendqisi2
 3476 1446 2278     		ldrb	r2, [r4, #0]	@ zero_extendqisi2
 3477 1448 CB18     		adds	r3, r1, r3
 3478 144a DBB2     		uxtb	r3, r3
 3479              	.LVL560:
 3480 144c 2B70     		strb	r3, [r5, #0]
 3481 144e 9B18     		adds	r3, r3, r2
 3482              	.LVL561:
 3483 1450 2370     		strb	r3, [r4, #0]
 3484 1452 0E48     		ldr	r0, .L250
 3485 1454 FFF7FEFF 		bl	uart_transmit
 3486              	.LVL562:
 3487              	.LBE314:
 3488              	.LBB315:
 3489 1458 7178     		ldrb	r1, [r6, #1]	@ zero_extendqisi2
 3490              	.LVL563:
 3491 145a 2B78     		ldrb	r3, [r5, #0]	@ zero_extendqisi2
 3492 145c 2278     		ldrb	r2, [r4, #0]	@ zero_extendqisi2
 3493 145e CB18     		adds	r3, r1, r3
 3494 1460 DBB2     		uxtb	r3, r3
 3495              	.LVL564:
 3496 1462 2B70     		strb	r3, [r5, #0]
 3497 1464 9B18     		adds	r3, r3, r2
 3498              	.LVL565:
 3499 1466 2370     		strb	r3, [r4, #0]
 3500 1468 0848     		ldr	r0, .L250
 3501 146a FFF7FEFF 		bl	uart_transmit
 3502              	.LVL566:
 3503              	.LBE315:
 3504              	.LBB316:
 3505 146e 9DF81C10 		ldrb	r1, [sp, #28]	@ zero_extendqisi2
 3506              	.LVL567:
 3507 1472 2B78     		ldrb	r3, [r5, #0]	@ zero_extendqisi2
 3508 1474 2278     		ldrb	r2, [r4, #0]	@ zero_extendqisi2
 3509 1476 CB18     		adds	r3, r1, r3
 3510 1478 DBB2     		uxtb	r3, r3
 3511              	.LVL568:
 3512 147a 2B70     		strb	r3, [r5, #0]
 3513 147c 9B18     		adds	r3, r3, r2
 3514              	.LVL569:
 3515 147e 2370     		strb	r3, [r4, #0]
 3516 1480 0248     		ldr	r0, .L250
 3517 1482 FFF7FEFF 		bl	uart_transmit
 3518              	.LVL570:
 3519              	.LBE316:
 3520              	.LBB317:
 3521 1486 9DF81D10 		ldrb	r1, [sp, #29]	@ zero_extendqisi2
 3522              	.LVL571:
 3523 148a EDE0     		b	.L214
 3524              	.L251:
 3525              		.align	2
 3526              	.L250:
 3527 148c 00000000 		.word	uart2
 3528 1490 00000000 		.word	v_ctl_climb_setpoint
 3529 1494 00000000 		.word	downlink_nb_ovrn
 3530 1498 00000000 		.word	.LANCHOR14
 3531 149c 00000000 		.word	.LANCHOR25
 3532 14a0 00000000 		.word	.LANCHOR26
 3533 14a4 00000000 		.word	downlink_nb_bytes
 3534 14a8 00000000 		.word	downlink_nb_msgs
 3535 14ac 00000000 		.word	ck_a
 3536 14b0 00000000 		.word	ck_b
 3537 14b4 00000000 		.word	v_ctl_throttle_slewed
 3538 14b8 00000000 		.word	.LANCHOR27
 3539 14bc 00000000 		.word	estimator_flight_time
 3540 14c0 00000000 		.word	.LANCHOR28
 3541 14c4 00000000 		.word	block_time
 3542 14c8 00000000 		.word	stage_time
 3543              	.LVL572:
 3544              	.L43:
 3545              	.LBE317:
 3546              	.LBE293:
 3547              	.LBE292:
 3548              		.loc 1 422 0 discriminator 43
 3549 14cc 002B     		cmp	r3, #0
 3550 14ce 40F0EF80 		bne	.L45
 3551              	.LBB318:
 3552              		.loc 1 422 0 discriminator 46
 3553 14d2 6F4C     		ldr	r4, .L252
 3554 14d4 2068     		ldr	r0, [r4, #0]
 3555 14d6 FFF7FEFF 		bl	__aeabi_i2f
 3556 14da 4FF06651 		mov	r1, #964689920
 3557 14de FFF7FEFF 		bl	__aeabi_fmul
 3558 14e2 0190     		str	r0, [sp, #4]	@ float
 3559 14e4 6068     		ldr	r0, [r4, #4]
 3560 14e6 FFF7FEFF 		bl	__aeabi_i2f
 3561 14ea 4FF06651 		mov	r1, #964689920
 3562 14ee FFF7FEFF 		bl	__aeabi_fmul
 3563 14f2 0290     		str	r0, [sp, #8]	@ float
 3564 14f4 A068     		ldr	r0, [r4, #8]
 3565 14f6 FFF7FEFF 		bl	__aeabi_i2f
 3566 14fa 4FF06651 		mov	r1, #964689920
 3567 14fe FFF7FEFF 		bl	__aeabi_fmul
 3568 1502 1221     		movs	r1, #18
 3569 1504 0390     		str	r0, [sp, #12]	@ float
 3570 1506 6348     		ldr	r0, .L252+4
 3571 1508 FFF7FEFF 		bl	uart_check_free_space
 3572 150c 0028     		cmp	r0, #0
 3573 150e 00F0CB80 		beq	.L46
 3574              		.loc 1 422 0 discriminator 48
 3575 1512 614B     		ldr	r3, .L252+8
 3576              	.LBB319:
 3577 1514 5F48     		ldr	r0, .L252+4
 3578              	.LBE319:
 3579 1516 1A88     		ldrh	r2, [r3, #0]
 3580              	.LBB320:
 3581 1518 9921     		movs	r1, #153
 3582              	.LBE320:
 3583 151a 1232     		adds	r2, r2, #18
 3584 151c 1A80     		strh	r2, [r3, #0]	@ movhi
 3585 151e 5F4B     		ldr	r3, .L252+12
 3586 1520 5F4D     		ldr	r5, .L252+16
 3587 1522 1A88     		ldrh	r2, [r3, #0]
 3588 1524 5F4C     		ldr	r4, .L252+20
 3589 1526 0132     		adds	r2, r2, #1
 3590 1528 1A80     		strh	r2, [r3, #0]	@ movhi
 3591              	.LBB321:
 3592 152a FFF7FEFF 		bl	uart_transmit
 3593              	.LVL573:
 3594 152e 5948     		ldr	r0, .L252+4
 3595 1530 1221     		movs	r1, #18
 3596 1532 FFF7FEFF 		bl	uart_transmit
 3597              	.LBE321:
 3598 1536 1323     		movs	r3, #19
 3599 1538 2B70     		strb	r3, [r5, #0]
 3600 153a 2523     		movs	r3, #37
 3601 153c 2370     		strb	r3, [r4, #0]
 3602 153e 5548     		ldr	r0, .L252+4
 3603 1540 0121     		movs	r1, #1
 3604 1542 FFF7FEFF 		bl	uart_transmit
 3605 1546 2B78     		ldrb	r3, [r5, #0]	@ zero_extendqisi2
 3606 1548 2278     		ldrb	r2, [r4, #0]	@ zero_extendqisi2
 3607 154a 383B     		subs	r3, r3, #56
 3608 154c DBB2     		uxtb	r3, r3
 3609 154e 2B70     		strb	r3, [r5, #0]
 3610 1550 9B18     		adds	r3, r3, r2
 3611 1552 2370     		strb	r3, [r4, #0]
 3612 1554 4F48     		ldr	r0, .L252+4
 3613 1556 C821     		movs	r1, #200
 3614 1558 FFF7FEFF 		bl	uart_transmit
 3615              	.LBB322:
 3616 155c 9DF80410 		ldrb	r1, [sp, #4]	@ zero_extendqisi2
 3617              	.LVL574:
 3618 1560 2B78     		ldrb	r3, [r5, #0]	@ zero_extendqisi2
 3619 1562 2278     		ldrb	r2, [r4, #0]	@ zero_extendqisi2
 3620 1564 CB18     		adds	r3, r1, r3
 3621 1566 DBB2     		uxtb	r3, r3
 3622              	.LVL575:
 3623 1568 2B70     		strb	r3, [r5, #0]
 3624 156a 9B18     		adds	r3, r3, r2
 3625              	.LVL576:
 3626 156c 2370     		strb	r3, [r4, #0]
 3627 156e 4948     		ldr	r0, .L252+4
 3628 1570 FFF7FEFF 		bl	uart_transmit
 3629              	.LVL577:
 3630              	.LBE322:
 3631              	.LBB323:
 3632 1574 9DF80510 		ldrb	r1, [sp, #5]	@ zero_extendqisi2
 3633              	.LVL578:
 3634 1578 2B78     		ldrb	r3, [r5, #0]	@ zero_extendqisi2
 3635 157a 2278     		ldrb	r2, [r4, #0]	@ zero_extendqisi2
 3636 157c CB18     		adds	r3, r1, r3
 3637 157e DBB2     		uxtb	r3, r3
 3638              	.LVL579:
 3639 1580 2B70     		strb	r3, [r5, #0]
 3640 1582 9B18     		adds	r3, r3, r2
 3641              	.LVL580:
 3642 1584 2370     		strb	r3, [r4, #0]
 3643 1586 4348     		ldr	r0, .L252+4
 3644 1588 FFF7FEFF 		bl	uart_transmit
 3645              	.LVL581:
 3646              	.LBE323:
 3647              	.LBB324:
 3648 158c 9DF80610 		ldrb	r1, [sp, #6]	@ zero_extendqisi2
 3649              	.LVL582:
 3650 1590 2B78     		ldrb	r3, [r5, #0]	@ zero_extendqisi2
 3651 1592 2278     		ldrb	r2, [r4, #0]	@ zero_extendqisi2
 3652 1594 CB18     		adds	r3, r1, r3
 3653 1596 DBB2     		uxtb	r3, r3
 3654              	.LVL583:
 3655 1598 2B70     		strb	r3, [r5, #0]
 3656 159a 9B18     		adds	r3, r3, r2
 3657              	.LVL584:
 3658 159c 2370     		strb	r3, [r4, #0]
 3659 159e 3D48     		ldr	r0, .L252+4
 3660 15a0 FFF7FEFF 		bl	uart_transmit
 3661              	.LVL585:
 3662              	.LBE324:
 3663              	.LBB325:
 3664 15a4 9DF80710 		ldrb	r1, [sp, #7]	@ zero_extendqisi2
 3665              	.LVL586:
 3666 15a8 2B78     		ldrb	r3, [r5, #0]	@ zero_extendqisi2
 3667 15aa 2278     		ldrb	r2, [r4, #0]	@ zero_extendqisi2
 3668 15ac CB18     		adds	r3, r1, r3
 3669 15ae DBB2     		uxtb	r3, r3
 3670              	.LVL587:
 3671 15b0 2B70     		strb	r3, [r5, #0]
 3672 15b2 9B18     		adds	r3, r3, r2
 3673              	.LVL588:
 3674 15b4 2370     		strb	r3, [r4, #0]
 3675 15b6 3748     		ldr	r0, .L252+4
 3676 15b8 FFF7FEFF 		bl	uart_transmit
 3677              	.LVL589:
 3678              	.LBE325:
 3679              	.LBB326:
 3680 15bc 9DF80810 		ldrb	r1, [sp, #8]	@ zero_extendqisi2
 3681              	.LVL590:
 3682 15c0 2B78     		ldrb	r3, [r5, #0]	@ zero_extendqisi2
 3683 15c2 2278     		ldrb	r2, [r4, #0]	@ zero_extendqisi2
 3684 15c4 CB18     		adds	r3, r1, r3
 3685 15c6 DBB2     		uxtb	r3, r3
 3686              	.LVL591:
 3687 15c8 2B70     		strb	r3, [r5, #0]
 3688 15ca 9B18     		adds	r3, r3, r2
 3689              	.LVL592:
 3690 15cc 2370     		strb	r3, [r4, #0]
 3691 15ce 3148     		ldr	r0, .L252+4
 3692 15d0 FFF7FEFF 		bl	uart_transmit
 3693              	.LVL593:
 3694              	.LBE326:
 3695              	.LBB327:
 3696 15d4 9DF80910 		ldrb	r1, [sp, #9]	@ zero_extendqisi2
 3697              	.LVL594:
 3698 15d8 2B78     		ldrb	r3, [r5, #0]	@ zero_extendqisi2
 3699 15da 2278     		ldrb	r2, [r4, #0]	@ zero_extendqisi2
 3700 15dc CB18     		adds	r3, r1, r3
 3701 15de DBB2     		uxtb	r3, r3
 3702              	.LVL595:
 3703 15e0 2B70     		strb	r3, [r5, #0]
 3704 15e2 9B18     		adds	r3, r3, r2
 3705              	.LVL596:
 3706 15e4 2370     		strb	r3, [r4, #0]
 3707 15e6 2B48     		ldr	r0, .L252+4
 3708 15e8 FFF7FEFF 		bl	uart_transmit
 3709              	.LVL597:
 3710              	.LBE327:
 3711              	.LBB328:
 3712 15ec 9DF80A10 		ldrb	r1, [sp, #10]	@ zero_extendqisi2
 3713              	.LVL598:
 3714 15f0 2B78     		ldrb	r3, [r5, #0]	@ zero_extendqisi2
 3715 15f2 2278     		ldrb	r2, [r4, #0]	@ zero_extendqisi2
 3716 15f4 CB18     		adds	r3, r1, r3
 3717 15f6 DBB2     		uxtb	r3, r3
 3718              	.LVL599:
 3719 15f8 2B70     		strb	r3, [r5, #0]
 3720 15fa 9B18     		adds	r3, r3, r2
 3721              	.LVL600:
 3722 15fc 2370     		strb	r3, [r4, #0]
 3723 15fe 2548     		ldr	r0, .L252+4
 3724 1600 FFF7FEFF 		bl	uart_transmit
 3725              	.LVL601:
 3726              	.LBE328:
 3727              	.LBB329:
 3728 1604 9DF80B10 		ldrb	r1, [sp, #11]	@ zero_extendqisi2
 3729              	.LVL602:
 3730 1608 2B78     		ldrb	r3, [r5, #0]	@ zero_extendqisi2
 3731 160a 2278     		ldrb	r2, [r4, #0]	@ zero_extendqisi2
 3732 160c CB18     		adds	r3, r1, r3
 3733 160e DBB2     		uxtb	r3, r3
 3734              	.LVL603:
 3735 1610 2B70     		strb	r3, [r5, #0]
 3736 1612 9B18     		adds	r3, r3, r2
 3737              	.LVL604:
 3738 1614 2370     		strb	r3, [r4, #0]
 3739 1616 1F48     		ldr	r0, .L252+4
 3740 1618 FFF7FEFF 		bl	uart_transmit
 3741              	.LVL605:
 3742              	.LBE329:
 3743              	.LBB330:
 3744 161c 9DF80C10 		ldrb	r1, [sp, #12]	@ zero_extendqisi2
 3745              	.LVL606:
 3746 1620 2B78     		ldrb	r3, [r5, #0]	@ zero_extendqisi2
 3747 1622 2278     		ldrb	r2, [r4, #0]	@ zero_extendqisi2
 3748 1624 CB18     		adds	r3, r1, r3
 3749 1626 DBB2     		uxtb	r3, r3
 3750              	.LVL607:
 3751 1628 2B70     		strb	r3, [r5, #0]
 3752 162a 9B18     		adds	r3, r3, r2
 3753              	.LVL608:
 3754 162c 2370     		strb	r3, [r4, #0]
 3755 162e 1948     		ldr	r0, .L252+4
 3756 1630 FFF7FEFF 		bl	uart_transmit
 3757              	.LVL609:
 3758              	.LBE330:
 3759              	.LBB331:
 3760 1634 9DF80D10 		ldrb	r1, [sp, #13]	@ zero_extendqisi2
 3761              	.LVL610:
 3762 1638 2B78     		ldrb	r3, [r5, #0]	@ zero_extendqisi2
 3763 163a 2278     		ldrb	r2, [r4, #0]	@ zero_extendqisi2
 3764 163c CB18     		adds	r3, r1, r3
 3765 163e DBB2     		uxtb	r3, r3
 3766              	.LVL611:
 3767 1640 2B70     		strb	r3, [r5, #0]
 3768 1642 9B18     		adds	r3, r3, r2
 3769              	.LVL612:
 3770 1644 2370     		strb	r3, [r4, #0]
 3771 1646 1348     		ldr	r0, .L252+4
 3772 1648 FFF7FEFF 		bl	uart_transmit
 3773              	.LVL613:
 3774              	.LBE331:
 3775              	.LBB332:
 3776 164c 9DF80E10 		ldrb	r1, [sp, #14]	@ zero_extendqisi2
 3777              	.LVL614:
 3778 1650 2B78     		ldrb	r3, [r5, #0]	@ zero_extendqisi2
 3779 1652 2278     		ldrb	r2, [r4, #0]	@ zero_extendqisi2
 3780 1654 CB18     		adds	r3, r1, r3
 3781 1656 DBB2     		uxtb	r3, r3
 3782              	.LVL615:
 3783 1658 2B70     		strb	r3, [r5, #0]
 3784 165a 9B18     		adds	r3, r3, r2
 3785              	.LVL616:
 3786 165c 2370     		strb	r3, [r4, #0]
 3787 165e 0D48     		ldr	r0, .L252+4
 3788 1660 FFF7FEFF 		bl	uart_transmit
 3789              	.LVL617:
 3790              	.LBE332:
 3791              	.LBB333:
 3792 1664 9DF80F10 		ldrb	r1, [sp, #15]	@ zero_extendqisi2
 3793              	.LVL618:
 3794              	.L214:
 3795 1668 2B78     		ldrb	r3, [r5, #0]	@ zero_extendqisi2
 3796 166a 2278     		ldrb	r2, [r4, #0]	@ zero_extendqisi2
 3797 166c CB18     		adds	r3, r1, r3
 3798 166e DBB2     		uxtb	r3, r3
 3799              	.LVL619:
 3800 1670 2B70     		strb	r3, [r5, #0]
 3801 1672 9B18     		adds	r3, r3, r2
 3802              	.LVL620:
 3803 1674 2370     		strb	r3, [r4, #0]
 3804 1676 0748     		ldr	r0, .L252+4
 3805 1678 FFF7FEFF 		bl	uart_transmit
 3806              	.LVL621:
 3807              	.LBE333:
 3808 167c 2978     		ldrb	r1, [r5, #0]	@ zero_extendqisi2
 3809 167e 0548     		ldr	r0, .L252+4
 3810 1680 FFF7FEFF 		bl	uart_transmit
 3811 1684 0348     		ldr	r0, .L252+4
 3812 1686 2178     		ldrb	r1, [r4, #0]	@ zero_extendqisi2
 3813 1688 FFF7FEFF 		bl	uart_transmit
 3814 168c 10E0     		b	.L45
 3815              	.L253:
 3816 168e 00BF     		.align	2
 3817              	.L252:
 3818 1690 00000000 		.word	imu
 3819 1694 00000000 		.word	uart2
 3820 1698 00000000 		.word	downlink_nb_bytes
 3821 169c 00000000 		.word	downlink_nb_msgs
 3822 16a0 00000000 		.word	ck_a
 3823 16a4 00000000 		.word	ck_b
 3824              	.L46:
 3825              		.loc 1 422 0 discriminator 49
 3826 16a8 954B     		ldr	r3, .L254
 3827 16aa 1A78     		ldrb	r2, [r3, #0]	@ zero_extendqisi2
 3828 16ac 0132     		adds	r2, r2, #1
 3829 16ae 1A70     		strb	r2, [r3, #0]
 3830              	.L45:
 3831              	.LBE318:
 3832              		.loc 1 422 0 discriminator 47
 3833 16b0 944B     		ldr	r3, .L254+4
 3834 16b2 1B78     		ldrb	r3, [r3, #0]	@ zero_extendqisi2
 3835 16b4 062B     		cmp	r3, #6
 3836 16b6 40F0F280 		bne	.L47
 3837              		.loc 1 422 0 discriminator 50
 3838 16ba 934B     		ldr	r3, .L254+8
 3839 16bc 1B78     		ldrb	r3, [r3, #0]	@ zero_extendqisi2
 3840 16be 002B     		cmp	r3, #0
 3841 16c0 00F0ED80 		beq	.L47
 3842              		.loc 1 422 0 discriminator 52
 3843 16c4 9148     		ldr	r0, .L254+12
 3844 16c6 1621     		movs	r1, #22
 3845 16c8 FFF7FEFF 		bl	uart_check_free_space
 3846 16cc 0028     		cmp	r0, #0
 3847 16ce 00F0E280 		beq	.L48
 3848              		.loc 1 422 0 discriminator 53
 3849 16d2 8F4B     		ldr	r3, .L254+16
 3850              	.LBB334:
 3851 16d4 9921     		movs	r1, #153
 3852              	.LBE334:
 3853 16d6 1A88     		ldrh	r2, [r3, #0]
 3854              	.LBB335:
 3855 16d8 8C48     		ldr	r0, .L254+12
 3856              	.LBE335:
 3857 16da 1632     		adds	r2, r2, #22
 3858 16dc 1A80     		strh	r2, [r3, #0]	@ movhi
 3859 16de 8D4B     		ldr	r3, .L254+20
 3860 16e0 8D4D     		ldr	r5, .L254+24
 3861 16e2 1A88     		ldrh	r2, [r3, #0]
 3862 16e4 8D4C     		ldr	r4, .L254+28
 3863 16e6 0132     		adds	r2, r2, #1
 3864 16e8 1A80     		strh	r2, [r3, #0]	@ movhi
 3865              	.LBB336:
 3866 16ea FFF7FEFF 		bl	uart_transmit
 3867              	.LVL622:
 3868 16ee 1621     		movs	r1, #22
 3869 16f0 8648     		ldr	r0, .L254+12
 3870 16f2 FFF7FEFF 		bl	uart_transmit
 3871              	.LBE336:
 3872 16f6 1723     		movs	r3, #23
 3873 16f8 2B70     		strb	r3, [r5, #0]
 3874 16fa 2D23     		movs	r3, #45
 3875 16fc 2370     		strb	r3, [r4, #0]
 3876 16fe 0121     		movs	r1, #1
 3877 1700 8248     		ldr	r0, .L254+12
 3878 1702 FFF7FEFF 		bl	uart_transmit
 3879 1706 2B78     		ldrb	r3, [r5, #0]	@ zero_extendqisi2
 3880 1708 2278     		ldrb	r2, [r4, #0]	@ zero_extendqisi2
 3881 170a 1633     		adds	r3, r3, #22
 3882 170c DBB2     		uxtb	r3, r3
 3883              	.LBB337:
 3884 170e 844E     		ldr	r6, .L254+32
 3885              	.LBE337:
 3886 1710 2B70     		strb	r3, [r5, #0]
 3887 1712 9B18     		adds	r3, r3, r2
 3888 1714 2370     		strb	r3, [r4, #0]
 3889 1716 1621     		movs	r1, #22
 3890 1718 7C48     		ldr	r0, .L254+12
 3891 171a FFF7FEFF 		bl	uart_transmit
 3892              	.LBB338:
 3893 171e 3178     		ldrb	r1, [r6, #0]	@ zero_extendqisi2
 3894              	.LVL623:
 3895 1720 2B78     		ldrb	r3, [r5, #0]	@ zero_extendqisi2
 3896 1722 2278     		ldrb	r2, [r4, #0]	@ zero_extendqisi2
 3897 1724 CB18     		adds	r3, r1, r3
 3898 1726 DBB2     		uxtb	r3, r3
 3899              	.LVL624:
 3900 1728 2B70     		strb	r3, [r5, #0]
 3901 172a 9B18     		adds	r3, r3, r2
 3902              	.LVL625:
 3903 172c 2370     		strb	r3, [r4, #0]
 3904 172e 7748     		ldr	r0, .L254+12
 3905 1730 FFF7FEFF 		bl	uart_transmit
 3906              	.LVL626:
 3907              	.LBE338:
 3908              	.LBB339:
 3909 1734 7178     		ldrb	r1, [r6, #1]	@ zero_extendqisi2
 3910              	.LVL627:
 3911 1736 2B78     		ldrb	r3, [r5, #0]	@ zero_extendqisi2
 3912 1738 2278     		ldrb	r2, [r4, #0]	@ zero_extendqisi2
 3913 173a CB18     		adds	r3, r1, r3
 3914 173c DBB2     		uxtb	r3, r3
 3915              	.LVL628:
 3916 173e 2B70     		strb	r3, [r5, #0]
 3917 1740 9B18     		adds	r3, r3, r2
 3918              	.LVL629:
 3919 1742 2370     		strb	r3, [r4, #0]
 3920 1744 7148     		ldr	r0, .L254+12
 3921 1746 FFF7FEFF 		bl	uart_transmit
 3922              	.LVL630:
 3923              	.LBE339:
 3924              	.LBB340:
 3925 174a B178     		ldrb	r1, [r6, #2]	@ zero_extendqisi2
 3926              	.LVL631:
 3927 174c 2B78     		ldrb	r3, [r5, #0]	@ zero_extendqisi2
 3928 174e 2278     		ldrb	r2, [r4, #0]	@ zero_extendqisi2
 3929 1750 CB18     		adds	r3, r1, r3
 3930 1752 DBB2     		uxtb	r3, r3
 3931              	.LVL632:
 3932 1754 2B70     		strb	r3, [r5, #0]
 3933 1756 9B18     		adds	r3, r3, r2
 3934              	.LVL633:
 3935 1758 2370     		strb	r3, [r4, #0]
 3936 175a 6C48     		ldr	r0, .L254+12
 3937 175c FFF7FEFF 		bl	uart_transmit
 3938              	.LVL634:
 3939              	.LBE340:
 3940              	.LBB341:
 3941 1760 F178     		ldrb	r1, [r6, #3]	@ zero_extendqisi2
 3942              	.LVL635:
 3943 1762 2B78     		ldrb	r3, [r5, #0]	@ zero_extendqisi2
 3944 1764 2278     		ldrb	r2, [r4, #0]	@ zero_extendqisi2
 3945 1766 CB18     		adds	r3, r1, r3
 3946 1768 DBB2     		uxtb	r3, r3
 3947              	.LBE341:
 3948              	.LBB342:
 3949 176a 6E4E     		ldr	r6, .L254+36
 3950              	.LVL636:
 3951              	.LBE342:
 3952              	.LBB343:
 3953 176c 2B70     		strb	r3, [r5, #0]
 3954 176e 9B18     		adds	r3, r3, r2
 3955              	.LVL637:
 3956 1770 2370     		strb	r3, [r4, #0]
 3957 1772 6648     		ldr	r0, .L254+12
 3958 1774 FFF7FEFF 		bl	uart_transmit
 3959              	.LVL638:
 3960              	.LBE343:
 3961              	.LBB344:
 3962 1778 3178     		ldrb	r1, [r6, #0]	@ zero_extendqisi2
 3963              	.LVL639:
 3964 177a 2B78     		ldrb	r3, [r5, #0]	@ zero_extendqisi2
 3965 177c 2278     		ldrb	r2, [r4, #0]	@ zero_extendqisi2
 3966 177e CB18     		adds	r3, r1, r3
 3967 1780 DBB2     		uxtb	r3, r3
 3968              	.LVL640:
 3969 1782 2B70     		strb	r3, [r5, #0]
 3970 1784 9B18     		adds	r3, r3, r2
 3971              	.LVL641:
 3972 1786 2370     		strb	r3, [r4, #0]
 3973 1788 6048     		ldr	r0, .L254+12
 3974 178a FFF7FEFF 		bl	uart_transmit
 3975              	.LVL642:
 3976              	.LBE344:
 3977              	.LBB345:
 3978 178e 7178     		ldrb	r1, [r6, #1]	@ zero_extendqisi2
 3979              	.LVL643:
 3980 1790 2B78     		ldrb	r3, [r5, #0]	@ zero_extendqisi2
 3981 1792 2278     		ldrb	r2, [r4, #0]	@ zero_extendqisi2
 3982 1794 CB18     		adds	r3, r1, r3
 3983 1796 DBB2     		uxtb	r3, r3
 3984              	.LVL644:
 3985 1798 2B70     		strb	r3, [r5, #0]
 3986 179a 9B18     		adds	r3, r3, r2
 3987              	.LVL645:
 3988 179c 2370     		strb	r3, [r4, #0]
 3989 179e 5B48     		ldr	r0, .L254+12
 3990 17a0 FFF7FEFF 		bl	uart_transmit
 3991              	.LVL646:
 3992              	.LBE345:
 3993              	.LBB346:
 3994 17a4 B178     		ldrb	r1, [r6, #2]	@ zero_extendqisi2
 3995              	.LVL647:
 3996 17a6 2B78     		ldrb	r3, [r5, #0]	@ zero_extendqisi2
 3997 17a8 2278     		ldrb	r2, [r4, #0]	@ zero_extendqisi2
 3998 17aa CB18     		adds	r3, r1, r3
 3999 17ac DBB2     		uxtb	r3, r3
 4000              	.LVL648:
 4001 17ae 2B70     		strb	r3, [r5, #0]
 4002 17b0 9B18     		adds	r3, r3, r2
 4003              	.LVL649:
 4004 17b2 2370     		strb	r3, [r4, #0]
 4005 17b4 5548     		ldr	r0, .L254+12
 4006 17b6 FFF7FEFF 		bl	uart_transmit
 4007              	.LVL650:
 4008              	.LBE346:
 4009              	.LBB347:
 4010 17ba F178     		ldrb	r1, [r6, #3]	@ zero_extendqisi2
 4011              	.LVL651:
 4012 17bc 2B78     		ldrb	r3, [r5, #0]	@ zero_extendqisi2
 4013 17be 2278     		ldrb	r2, [r4, #0]	@ zero_extendqisi2
 4014 17c0 CB18     		adds	r3, r1, r3
 4015 17c2 DBB2     		uxtb	r3, r3
 4016              	.LBE347:
 4017              	.LBB348:
 4018 17c4 584E     		ldr	r6, .L254+40
 4019              	.LVL652:
 4020              	.LBE348:
 4021              	.LBB349:
 4022 17c6 2B70     		strb	r3, [r5, #0]
 4023 17c8 9B18     		adds	r3, r3, r2
 4024              	.LVL653:
 4025 17ca 2370     		strb	r3, [r4, #0]
 4026 17cc 4F48     		ldr	r0, .L254+12
 4027 17ce FFF7FEFF 		bl	uart_transmit
 4028              	.LVL654:
 4029              	.LBE349:
 4030              	.LBB350:
 4031 17d2 3178     		ldrb	r1, [r6, #0]	@ zero_extendqisi2
 4032              	.LVL655:
 4033 17d4 2B78     		ldrb	r3, [r5, #0]	@ zero_extendqisi2
 4034 17d6 2278     		ldrb	r2, [r4, #0]	@ zero_extendqisi2
 4035 17d8 CB18     		adds	r3, r1, r3
 4036 17da DBB2     		uxtb	r3, r3
 4037              	.LVL656:
 4038 17dc 2B70     		strb	r3, [r5, #0]
 4039 17de 9B18     		adds	r3, r3, r2
 4040              	.LVL657:
 4041 17e0 2370     		strb	r3, [r4, #0]
 4042 17e2 4A48     		ldr	r0, .L254+12
 4043 17e4 FFF7FEFF 		bl	uart_transmit
 4044              	.LVL658:
 4045              	.LBE350:
 4046              	.LBB351:
 4047 17e8 7178     		ldrb	r1, [r6, #1]	@ zero_extendqisi2
 4048              	.LVL659:
 4049 17ea 2B78     		ldrb	r3, [r5, #0]	@ zero_extendqisi2
 4050 17ec 2278     		ldrb	r2, [r4, #0]	@ zero_extendqisi2
 4051 17ee CB18     		adds	r3, r1, r3
 4052 17f0 DBB2     		uxtb	r3, r3
 4053              	.LVL660:
 4054 17f2 2B70     		strb	r3, [r5, #0]
 4055 17f4 9B18     		adds	r3, r3, r2
 4056              	.LVL661:
 4057 17f6 2370     		strb	r3, [r4, #0]
 4058 17f8 4448     		ldr	r0, .L254+12
 4059 17fa FFF7FEFF 		bl	uart_transmit
 4060              	.LVL662:
 4061              	.LBE351:
 4062              	.LBB352:
 4063 17fe B178     		ldrb	r1, [r6, #2]	@ zero_extendqisi2
 4064              	.LVL663:
 4065 1800 2B78     		ldrb	r3, [r5, #0]	@ zero_extendqisi2
 4066 1802 2278     		ldrb	r2, [r4, #0]	@ zero_extendqisi2
 4067 1804 CB18     		adds	r3, r1, r3
 4068 1806 DBB2     		uxtb	r3, r3
 4069              	.LVL664:
 4070 1808 2B70     		strb	r3, [r5, #0]
 4071 180a 9B18     		adds	r3, r3, r2
 4072              	.LVL665:
 4073 180c 2370     		strb	r3, [r4, #0]
 4074 180e 3F48     		ldr	r0, .L254+12
 4075 1810 FFF7FEFF 		bl	uart_transmit
 4076              	.LVL666:
 4077              	.LBE352:
 4078              	.LBB353:
 4079 1814 F178     		ldrb	r1, [r6, #3]	@ zero_extendqisi2
 4080              	.LVL667:
 4081 1816 2B78     		ldrb	r3, [r5, #0]	@ zero_extendqisi2
 4082 1818 2278     		ldrb	r2, [r4, #0]	@ zero_extendqisi2
 4083 181a CB18     		adds	r3, r1, r3
 4084 181c DBB2     		uxtb	r3, r3
 4085              	.LBE353:
 4086              	.LBB354:
 4087 181e 434E     		ldr	r6, .L254+44
 4088              	.LVL668:
 4089              	.LBE354:
 4090              	.LBB355:
 4091 1820 2B70     		strb	r3, [r5, #0]
 4092 1822 9B18     		adds	r3, r3, r2
 4093              	.LVL669:
 4094 1824 2370     		strb	r3, [r4, #0]
 4095 1826 3948     		ldr	r0, .L254+12
 4096 1828 FFF7FEFF 		bl	uart_transmit
 4097              	.LVL670:
 4098              	.LBE355:
 4099              	.LBB356:
 4100 182c 3178     		ldrb	r1, [r6, #0]	@ zero_extendqisi2
 4101              	.LVL671:
 4102 182e 2B78     		ldrb	r3, [r5, #0]	@ zero_extendqisi2
 4103 1830 2278     		ldrb	r2, [r4, #0]	@ zero_extendqisi2
 4104 1832 CB18     		adds	r3, r1, r3
 4105 1834 DBB2     		uxtb	r3, r3
 4106              	.LVL672:
 4107 1836 2B70     		strb	r3, [r5, #0]
 4108 1838 9B18     		adds	r3, r3, r2
 4109              	.LVL673:
 4110 183a 2370     		strb	r3, [r4, #0]
 4111 183c 3348     		ldr	r0, .L254+12
 4112 183e FFF7FEFF 		bl	uart_transmit
 4113              	.LVL674:
 4114              	.LBE356:
 4115              	.LBB357:
 4116 1842 7178     		ldrb	r1, [r6, #1]	@ zero_extendqisi2
 4117              	.LVL675:
 4118 1844 2B78     		ldrb	r3, [r5, #0]	@ zero_extendqisi2
 4119 1846 2278     		ldrb	r2, [r4, #0]	@ zero_extendqisi2
 4120 1848 CB18     		adds	r3, r1, r3
 4121 184a DBB2     		uxtb	r3, r3
 4122              	.LVL676:
 4123 184c 2B70     		strb	r3, [r5, #0]
 4124 184e 9B18     		adds	r3, r3, r2
 4125              	.LVL677:
 4126 1850 2370     		strb	r3, [r4, #0]
 4127 1852 2E48     		ldr	r0, .L254+12
 4128 1854 FFF7FEFF 		bl	uart_transmit
 4129              	.LVL678:
 4130              	.LBE357:
 4131              	.LBB358:
 4132 1858 B178     		ldrb	r1, [r6, #2]	@ zero_extendqisi2
 4133              	.LVL679:
 4134 185a 2B78     		ldrb	r3, [r5, #0]	@ zero_extendqisi2
 4135 185c 2278     		ldrb	r2, [r4, #0]	@ zero_extendqisi2
 4136 185e CB18     		adds	r3, r1, r3
 4137 1860 DBB2     		uxtb	r3, r3
 4138              	.LVL680:
 4139 1862 2B70     		strb	r3, [r5, #0]
 4140 1864 9B18     		adds	r3, r3, r2
 4141              	.LVL681:
 4142 1866 2370     		strb	r3, [r4, #0]
 4143 1868 2848     		ldr	r0, .L254+12
 4144 186a FFF7FEFF 		bl	uart_transmit
 4145              	.LVL682:
 4146              	.LBE358:
 4147              	.LBB359:
 4148 186e F178     		ldrb	r1, [r6, #3]	@ zero_extendqisi2
 4149              	.LVL683:
 4150 1870 2B78     		ldrb	r3, [r5, #0]	@ zero_extendqisi2
 4151 1872 2278     		ldrb	r2, [r4, #0]	@ zero_extendqisi2
 4152 1874 CB18     		adds	r3, r1, r3
 4153 1876 DBB2     		uxtb	r3, r3
 4154              	.LVL684:
 4155 1878 2B70     		strb	r3, [r5, #0]
 4156 187a 9B18     		adds	r3, r3, r2
 4157              	.LVL685:
 4158 187c 2370     		strb	r3, [r4, #0]
 4159 187e 2348     		ldr	r0, .L254+12
 4160 1880 FFF7FEFF 		bl	uart_transmit
 4161              	.LVL686:
 4162              	.LBE359:
 4163 1884 2978     		ldrb	r1, [r5, #0]	@ zero_extendqisi2
 4164 1886 2148     		ldr	r0, .L254+12
 4165 1888 FFF7FEFF 		bl	uart_transmit
 4166 188c 1F48     		ldr	r0, .L254+12
 4167 188e 2178     		ldrb	r1, [r4, #0]	@ zero_extendqisi2
 4168 1890 FFF7FEFF 		bl	uart_transmit
 4169 1894 03E0     		b	.L47
 4170              	.LVL687:
 4171              	.L48:
 4172              		.loc 1 422 0 discriminator 54
 4173 1896 1A4B     		ldr	r3, .L254
 4174 1898 1A78     		ldrb	r2, [r3, #0]	@ zero_extendqisi2
 4175 189a 0132     		adds	r2, r2, #1
 4176 189c 1A70     		strb	r2, [r3, #0]
 4177              	.L47:
 4178              		.loc 1 422 0 discriminator 55
 4179 189e 244B     		ldr	r3, .L254+48
 4180 18a0 1B78     		ldrb	r3, [r3, #0]	@ zero_extendqisi2
 4181 18a2 122B     		cmp	r3, #18
 4182 18a4 40F0DC80 		bne	.L49
 4183              	.LBB360:
 4184              		.loc 1 422 0 discriminator 56
 4185 18a8 224B     		ldr	r3, .L254+52
 4186 18aa 1A78     		ldrb	r2, [r3, #0]	@ zero_extendqisi2
 4187 18ac 0B2A     		cmp	r2, #11
 4188 18ae 01D9     		bls	.L50
 4189              		.loc 1 422 0 discriminator 58
 4190 18b0 0022     		movs	r2, #0
 4191 18b2 1A70     		strb	r2, [r3, #0]
 4192              	.L50:
 4193              		.loc 1 422 0 discriminator 59
 4194 18b4 1B78     		ldrb	r3, [r3, #0]	@ zero_extendqisi2
 4195 18b6 0B2B     		cmp	r3, #11
 4196 18b8 58D8     		bhi	.L51
 4197 18ba DFE803F0 		tbb	[pc, r3]
 4198              	.L64:
 4199 18be 06       		.byte	(.L52-.L64)/2
 4200 18bf 08       		.byte	(.L53-.L64)/2
 4201 18c0 0E       		.byte	(.L54-.L64)/2
 4202 18c1 10       		.byte	(.L55-.L64)/2
 4203 18c2 12       		.byte	(.L56-.L64)/2
 4204 18c3 14       		.byte	(.L57-.L64)/2
 4205 18c4 17       		.byte	(.L58-.L64)/2
 4206 18c5 1A       		.byte	(.L59-.L64)/2
 4207 18c6 1C       		.byte	(.L60-.L64)/2
 4208 18c7 1E       		.byte	(.L61-.L64)/2
 4209 18c8 51       		.byte	(.L62-.L64)/2
 4210 18c9 55       		.byte	(.L63-.L64)/2
 4211              		.align	1
 4212              	.L52:
 4213              		.loc 1 422 0 discriminator 61
 4214 18ca 1B4B     		ldr	r3, .L254+56
 4215 18cc 00E0     		b	.L215
 4216              	.L53:
 4217              		.loc 1 422 0 discriminator 62
 4218 18ce 1B4B     		ldr	r3, .L254+60
 4219              	.L215:
 4220 18d0 1878     		ldrb	r0, [r3, #0]	@ zero_extendqisi2
 4221              	.L216:
 4222 18d2 FFF7FEFF 		bl	__aeabi_ui2f
 4223 18d6 0590     		str	r0, [sp, #20]	@ float
 4224              	.LVL688:
 4225 18d8 4AE0     		b	.L65
 4226              	.LVL689:
 4227              	.L54:
 4228              		.loc 1 422 0 discriminator 63
 4229 18da 194B     		ldr	r3, .L254+64
 4230 18dc 07E0     		b	.L226
 4231              	.L55:
 4232              		.loc 1 422 0 discriminator 64
 4233 18de 194B     		ldr	r3, .L254+68
 4234 18e0 05E0     		b	.L226
 4235              	.L56:
 4236              		.loc 1 422 0 discriminator 65
 4237 18e2 194B     		ldr	r3, .L254+72
 4238 18e4 03E0     		b	.L226
 4239              	.L57:
 4240              		.loc 1 422 0 discriminator 66
 4241 18e6 194B     		ldr	r3, .L254+76
 4242 18e8 1888     		ldrh	r0, [r3, #0]
 4243 18ea F2E7     		b	.L216
 4244              	.L58:
 4245              		.loc 1 422 0 discriminator 67
 4246 18ec 184B     		ldr	r3, .L254+80
 4247              	.L226:
 4248 18ee 1B68     		ldr	r3, [r3, #0]	@ float
 4249 18f0 3DE0     		b	.L217
 4250              	.L59:
 4251              		.loc 1 422 0 discriminator 68
 4252 18f2 184B     		ldr	r3, .L254+84
 4253 18f4 ECE7     		b	.L215
 4254              	.L60:
 4255              		.loc 1 422 0 discriminator 69
 4256 18f6 184B     		ldr	r3, .L254+88
 4257 18f8 EAE7     		b	.L215
 4258              	.L61:
 4259              		.loc 1 422 0 discriminator 70
 4260 18fa 184B     		ldr	r3, .L254+92
 4261 18fc E8E7     		b	.L215
 4262              	.L255:
 4263 18fe 00BF     		.align	2
 4264              	.L254:
 4265 1900 00000000 		.word	downlink_nb_ovrn
 4266 1904 00000000 		.word	.LANCHOR15
 4267 1908 00000000 		.word	nav_in_segment
 4268 190c 00000000 		.word	uart2
 4269 1910 00000000 		.word	downlink_nb_bytes
 4270 1914 00000000 		.word	downlink_nb_msgs
 4271 1918 00000000 		.word	ck_a
 4272 191c 00000000 		.word	ck_b
 4273 1920 00000000 		.word	nav_segment_x_1
 4274 1924 00000000 		.word	nav_segment_y_1
 4275 1928 00000000 		.word	nav_segment_x_2
 4276 192c 00000000 		.word	nav_segment_y_2
 4277 1930 00000000 		.word	.LANCHOR16
 4278 1934 00000000 		.word	.LANCHOR29
 4279 1938 00000000 		.word	telemetry_mode_Ap
 4280 193c 00000000 		.word	telemetry_mode_Fbw
 4281 1940 00000000 		.word	flight_altitude
 4282 1944 00000000 		.word	nav_course
 4283 1948 00000000 		.word	nav_shift
 4284 194c 00000000 		.word	estimator_flight_time
 4285 1950 00000000 		.word	nav_radius
 4286 1954 00000000 		.word	.LANCHOR30
 4287 1958 00000000 		.word	.LANCHOR31
 4288 195c 00000000 		.word	.LANCHOR28
 4289              	.L62:
 4290              		.loc 1 422 0 discriminator 71
 4291 1960 9F4B     		ldr	r3, .L256
 4292 1962 B3F8F000 		ldrh	r0, [r3, #240]
 4293 1966 B4E7     		b	.L216
 4294              	.L63:
 4295              		.loc 1 422 0 discriminator 72
 4296 1968 9E4B     		ldr	r3, .L256+4
 4297 196a B1E7     		b	.L215
 4298              	.L51:
 4299              		.loc 1 422 0 discriminator 60
 4300 196c 0023     		movs	r3, #0
 4301              	.L217:
 4302 196e 0593     		str	r3, [sp, #20]	@ float
 4303              	.LVL690:
 4304              	.L65:
 4305              		.loc 1 422 0 discriminator 73
 4306 1970 9D48     		ldr	r0, .L256+8
 4307 1972 0B21     		movs	r1, #11
 4308 1974 FFF7FEFF 		bl	uart_check_free_space
 4309 1978 0028     		cmp	r0, #0
 4310 197a 69D0     		beq	.L66
 4311              		.loc 1 422 0 discriminator 74
 4312 197c 9B4B     		ldr	r3, .L256+12
 4313              	.LBB361:
 4314 197e 9921     		movs	r1, #153
 4315              	.LBE361:
 4316 1980 1A88     		ldrh	r2, [r3, #0]
 4317              	.LBB362:
 4318 1982 9948     		ldr	r0, .L256+8
 4319              	.LBE362:
 4320 1984 0B32     		adds	r2, r2, #11
 4321 1986 1A80     		strh	r2, [r3, #0]	@ movhi
 4322 1988 994B     		ldr	r3, .L256+16
 4323 198a 9A4D     		ldr	r5, .L256+20
 4324 198c 1A88     		ldrh	r2, [r3, #0]
 4325 198e 9A4C     		ldr	r4, .L256+24
 4326 1990 0132     		adds	r2, r2, #1
 4327 1992 1A80     		strh	r2, [r3, #0]	@ movhi
 4328              	.LBB363:
 4329 1994 FFF7FEFF 		bl	uart_transmit
 4330              	.LVL691:
 4331 1998 0B21     		movs	r1, #11
 4332 199a 9348     		ldr	r0, .L256+8
 4333 199c FFF7FEFF 		bl	uart_transmit
 4334              	.LBE363:
 4335 19a0 0C23     		movs	r3, #12
 4336 19a2 2B70     		strb	r3, [r5, #0]
 4337 19a4 1723     		movs	r3, #23
 4338 19a6 2370     		strb	r3, [r4, #0]
 4339 19a8 0121     		movs	r1, #1
 4340 19aa 8F48     		ldr	r0, .L256+8
 4341 19ac FFF7FEFF 		bl	uart_transmit
 4342 19b0 2B78     		ldrb	r3, [r5, #0]	@ zero_extendqisi2
 4343 19b2 2278     		ldrb	r2, [r4, #0]	@ zero_extendqisi2
 4344 19b4 1F33     		adds	r3, r3, #31
 4345 19b6 DBB2     		uxtb	r3, r3
 4346 19b8 2B70     		strb	r3, [r5, #0]
 4347 19ba 9B18     		adds	r3, r3, r2
 4348 19bc 2370     		strb	r3, [r4, #0]
 4349 19be 1F21     		movs	r1, #31
 4350 19c0 8948     		ldr	r0, .L256+8
 4351 19c2 FFF7FEFF 		bl	uart_transmit
 4352              	.LBB364:
 4353 19c6 8D4B     		ldr	r3, .L256+28
 4354 19c8 2278     		ldrb	r2, [r4, #0]	@ zero_extendqisi2
 4355 19ca 1978     		ldrb	r1, [r3, #0]	@ zero_extendqisi2
 4356              	.LVL692:
 4357 19cc 2B78     		ldrb	r3, [r5, #0]	@ zero_extendqisi2
 4358 19ce 8648     		ldr	r0, .L256+8
 4359 19d0 CB18     		adds	r3, r1, r3
 4360 19d2 DBB2     		uxtb	r3, r3
 4361              	.LVL693:
 4362 19d4 2B70     		strb	r3, [r5, #0]
 4363 19d6 9B18     		adds	r3, r3, r2
 4364              	.LVL694:
 4365 19d8 2370     		strb	r3, [r4, #0]
 4366 19da FFF7FEFF 		bl	uart_transmit
 4367              	.LVL695:
 4368              	.LBE364:
 4369              	.LBB365:
 4370 19de 9DF81410 		ldrb	r1, [sp, #20]	@ zero_extendqisi2
 4371              	.LVL696:
 4372 19e2 2B78     		ldrb	r3, [r5, #0]	@ zero_extendqisi2
 4373 19e4 2278     		ldrb	r2, [r4, #0]	@ zero_extendqisi2
 4374 19e6 CB18     		adds	r3, r1, r3
 4375 19e8 DBB2     		uxtb	r3, r3
 4376              	.LVL697:
 4377 19ea 2B70     		strb	r3, [r5, #0]
 4378 19ec 9B18     		adds	r3, r3, r2
 4379              	.LVL698:
 4380 19ee 2370     		strb	r3, [r4, #0]
 4381 19f0 7D48     		ldr	r0, .L256+8
 4382 19f2 FFF7FEFF 		bl	uart_transmit
 4383              	.LVL699:
 4384              	.LBE365:
 4385              	.LBB366:
 4386 19f6 9DF81510 		ldrb	r1, [sp, #21]	@ zero_extendqisi2
 4387              	.LVL700:
 4388 19fa 2B78     		ldrb	r3, [r5, #0]	@ zero_extendqisi2
 4389 19fc 2278     		ldrb	r2, [r4, #0]	@ zero_extendqisi2
 4390 19fe CB18     		adds	r3, r1, r3
 4391 1a00 DBB2     		uxtb	r3, r3
 4392              	.LVL701:
 4393 1a02 2B70     		strb	r3, [r5, #0]
 4394 1a04 9B18     		adds	r3, r3, r2
 4395              	.LVL702:
 4396 1a06 2370     		strb	r3, [r4, #0]
 4397 1a08 7748     		ldr	r0, .L256+8
 4398 1a0a FFF7FEFF 		bl	uart_transmit
 4399              	.LVL703:
 4400              	.LBE366:
 4401              	.LBB367:
 4402 1a0e 9DF81610 		ldrb	r1, [sp, #22]	@ zero_extendqisi2
 4403              	.LVL704:
 4404 1a12 2B78     		ldrb	r3, [r5, #0]	@ zero_extendqisi2
 4405 1a14 2278     		ldrb	r2, [r4, #0]	@ zero_extendqisi2
 4406 1a16 CB18     		adds	r3, r1, r3
 4407 1a18 DBB2     		uxtb	r3, r3
 4408              	.LVL705:
 4409 1a1a 2B70     		strb	r3, [r5, #0]
 4410 1a1c 9B18     		adds	r3, r3, r2
 4411              	.LVL706:
 4412 1a1e 2370     		strb	r3, [r4, #0]
 4413 1a20 7148     		ldr	r0, .L256+8
 4414 1a22 FFF7FEFF 		bl	uart_transmit
 4415              	.LVL707:
 4416              	.LBE367:
 4417              	.LBB368:
 4418 1a26 9DF81710 		ldrb	r1, [sp, #23]	@ zero_extendqisi2
 4419              	.LVL708:
 4420 1a2a 2B78     		ldrb	r3, [r5, #0]	@ zero_extendqisi2
 4421 1a2c 2278     		ldrb	r2, [r4, #0]	@ zero_extendqisi2
 4422 1a2e CB18     		adds	r3, r1, r3
 4423 1a30 DBB2     		uxtb	r3, r3
 4424              	.LVL709:
 4425 1a32 2B70     		strb	r3, [r5, #0]
 4426 1a34 9B18     		adds	r3, r3, r2
 4427              	.LVL710:
 4428 1a36 2370     		strb	r3, [r4, #0]
 4429 1a38 6B48     		ldr	r0, .L256+8
 4430 1a3a FFF7FEFF 		bl	uart_transmit
 4431              	.LVL711:
 4432              	.LBE368:
 4433 1a3e 2978     		ldrb	r1, [r5, #0]	@ zero_extendqisi2
 4434 1a40 6948     		ldr	r0, .L256+8
 4435 1a42 FFF7FEFF 		bl	uart_transmit
 4436 1a46 6848     		ldr	r0, .L256+8
 4437 1a48 2178     		ldrb	r1, [r4, #0]	@ zero_extendqisi2
 4438 1a4a FFF7FEFF 		bl	uart_transmit
 4439 1a4e 03E0     		b	.L67
 4440              	.LVL712:
 4441              	.L66:
 4442              		.loc 1 422 0 discriminator 75
 4443 1a50 6B4B     		ldr	r3, .L256+32
 4444 1a52 1A78     		ldrb	r2, [r3, #0]	@ zero_extendqisi2
 4445 1a54 0132     		adds	r2, r2, #1
 4446 1a56 1A70     		strb	r2, [r3, #0]
 4447              	.L67:
 4448              		.loc 1 422 0 discriminator 76
 4449 1a58 684B     		ldr	r3, .L256+28
 4450 1a5a 1A78     		ldrb	r2, [r3, #0]	@ zero_extendqisi2
 4451 1a5c 0132     		adds	r2, r2, #1
 4452 1a5e 1A70     		strb	r2, [r3, #0]
 4453              	.L49:
 4454              	.LBE360:
 4455              		.loc 1 422 0 discriminator 57
 4456 1a60 684B     		ldr	r3, .L256+36
 4457 1a62 1B78     		ldrb	r3, [r3, #0]	@ zero_extendqisi2
 4458 1a64 182B     		cmp	r3, #24
 4459 1a66 40F0D380 		bne	.L68
 4460              		.loc 1 422 0 discriminator 77
 4461 1a6a 5F48     		ldr	r0, .L256+8
 4462 1a6c 1121     		movs	r1, #17
 4463 1a6e FFF7FEFF 		bl	uart_check_free_space
 4464 1a72 0028     		cmp	r0, #0
 4465 1a74 00F0C880 		beq	.L69
 4466              		.loc 1 422 0 discriminator 79
 4467 1a78 5C4B     		ldr	r3, .L256+12
 4468              	.LBB369:
 4469 1a7a 9921     		movs	r1, #153
 4470              	.LBE369:
 4471 1a7c 1A88     		ldrh	r2, [r3, #0]
 4472              	.LBB370:
 4473 1a7e 5A48     		ldr	r0, .L256+8
 4474              	.LBE370:
 4475 1a80 1132     		adds	r2, r2, #17
 4476 1a82 1A80     		strh	r2, [r3, #0]	@ movhi
 4477 1a84 5A4B     		ldr	r3, .L256+16
 4478 1a86 5B4D     		ldr	r5, .L256+20
 4479 1a88 1A88     		ldrh	r2, [r3, #0]
 4480 1a8a 5B4C     		ldr	r4, .L256+24
 4481 1a8c 0132     		adds	r2, r2, #1
 4482 1a8e 1A80     		strh	r2, [r3, #0]	@ movhi
 4483              	.LBB371:
 4484 1a90 FFF7FEFF 		bl	uart_transmit
 4485              	.LVL713:
 4486 1a94 1121     		movs	r1, #17
 4487 1a96 5448     		ldr	r0, .L256+8
 4488 1a98 FFF7FEFF 		bl	uart_transmit
 4489              	.LBE371:
 4490 1a9c 1223     		movs	r3, #18
 4491 1a9e 2B70     		strb	r3, [r5, #0]
 4492 1aa0 2323     		movs	r3, #35
 4493 1aa2 2370     		strb	r3, [r4, #0]
 4494 1aa4 0121     		movs	r1, #1
 4495 1aa6 5048     		ldr	r0, .L256+8
 4496 1aa8 FFF7FEFF 		bl	uart_transmit
 4497 1aac 2B78     		ldrb	r3, [r5, #0]	@ zero_extendqisi2
 4498 1aae 2278     		ldrb	r2, [r4, #0]	@ zero_extendqisi2
 4499 1ab0 1133     		adds	r3, r3, #17
 4500 1ab2 DBB2     		uxtb	r3, r3
 4501              	.LBB372:
 4502 1ab4 4A4E     		ldr	r6, .L256
 4503              	.LBE372:
 4504 1ab6 2B70     		strb	r3, [r5, #0]
 4505 1ab8 9B18     		adds	r3, r3, r2
 4506 1aba 2370     		strb	r3, [r4, #0]
 4507 1abc 1121     		movs	r1, #17
 4508 1abe 4A48     		ldr	r0, .L256+8
 4509 1ac0 FFF7FEFF 		bl	uart_transmit
 4510              	.LBB373:
 4511 1ac4 96F84C10 		ldrb	r1, [r6, #76]	@ zero_extendqisi2
 4512              	.LVL714:
 4513 1ac8 2B78     		ldrb	r3, [r5, #0]	@ zero_extendqisi2
 4514 1aca 2278     		ldrb	r2, [r4, #0]	@ zero_extendqisi2
 4515 1acc CB18     		adds	r3, r1, r3
 4516 1ace DBB2     		uxtb	r3, r3
 4517              	.LVL715:
 4518 1ad0 2B70     		strb	r3, [r5, #0]
 4519 1ad2 9B18     		adds	r3, r3, r2
 4520              	.LVL716:
 4521 1ad4 2370     		strb	r3, [r4, #0]
 4522 1ad6 4448     		ldr	r0, .L256+8
 4523 1ad8 FFF7FEFF 		bl	uart_transmit
 4524              	.LVL717:
 4525              	.LBE373:
 4526              	.LBB374:
 4527 1adc 96F84D10 		ldrb	r1, [r6, #77]	@ zero_extendqisi2
 4528              	.LVL718:
 4529 1ae0 2B78     		ldrb	r3, [r5, #0]	@ zero_extendqisi2
 4530 1ae2 2278     		ldrb	r2, [r4, #0]	@ zero_extendqisi2
 4531 1ae4 CB18     		adds	r3, r1, r3
 4532 1ae6 DBB2     		uxtb	r3, r3
 4533              	.LVL719:
 4534 1ae8 2B70     		strb	r3, [r5, #0]
 4535 1aea 9B18     		adds	r3, r3, r2
 4536              	.LVL720:
 4537 1aec 2370     		strb	r3, [r4, #0]
 4538 1aee 3E48     		ldr	r0, .L256+8
 4539 1af0 FFF7FEFF 		bl	uart_transmit
 4540              	.LVL721:
 4541              	.LBE374:
 4542              	.LBB375:
 4543 1af4 96F84E10 		ldrb	r1, [r6, #78]	@ zero_extendqisi2
 4544              	.LVL722:
 4545 1af8 2B78     		ldrb	r3, [r5, #0]	@ zero_extendqisi2
 4546 1afa 2278     		ldrb	r2, [r4, #0]	@ zero_extendqisi2
 4547 1afc CB18     		adds	r3, r1, r3
 4548 1afe DBB2     		uxtb	r3, r3
 4549              	.LVL723:
 4550 1b00 2B70     		strb	r3, [r5, #0]
 4551 1b02 9B18     		adds	r3, r3, r2
 4552              	.LVL724:
 4553 1b04 2370     		strb	r3, [r4, #0]
 4554 1b06 3848     		ldr	r0, .L256+8
 4555 1b08 FFF7FEFF 		bl	uart_transmit
 4556              	.LVL725:
 4557              	.LBE375:
 4558              	.LBB376:
 4559 1b0c 96F84F10 		ldrb	r1, [r6, #79]	@ zero_extendqisi2
 4560              	.LVL726:
 4561 1b10 2B78     		ldrb	r3, [r5, #0]	@ zero_extendqisi2
 4562 1b12 2278     		ldrb	r2, [r4, #0]	@ zero_extendqisi2
 4563 1b14 CB18     		adds	r3, r1, r3
 4564 1b16 DBB2     		uxtb	r3, r3
 4565              	.LVL727:
 4566 1b18 2B70     		strb	r3, [r5, #0]
 4567 1b1a 9B18     		adds	r3, r3, r2
 4568              	.LVL728:
 4569 1b1c 2370     		strb	r3, [r4, #0]
 4570 1b1e 3248     		ldr	r0, .L256+8
 4571 1b20 FFF7FEFF 		bl	uart_transmit
 4572              	.LVL729:
 4573              	.LBE376:
 4574              	.LBB377:
 4575 1b24 96F85010 		ldrb	r1, [r6, #80]	@ zero_extendqisi2
 4576              	.LVL730:
 4577 1b28 2B78     		ldrb	r3, [r5, #0]	@ zero_extendqisi2
 4578 1b2a 2278     		ldrb	r2, [r4, #0]	@ zero_extendqisi2
 4579 1b2c CB18     		adds	r3, r1, r3
 4580 1b2e DBB2     		uxtb	r3, r3
 4581              	.LVL731:
 4582 1b30 2B70     		strb	r3, [r5, #0]
 4583 1b32 9B18     		adds	r3, r3, r2
 4584              	.LVL732:
 4585 1b34 2370     		strb	r3, [r4, #0]
 4586 1b36 2C48     		ldr	r0, .L256+8
 4587 1b38 FFF7FEFF 		bl	uart_transmit
 4588              	.LVL733:
 4589              	.LBE377:
 4590              	.LBB378:
 4591 1b3c 96F85110 		ldrb	r1, [r6, #81]	@ zero_extendqisi2
 4592              	.LVL734:
 4593 1b40 2B78     		ldrb	r3, [r5, #0]	@ zero_extendqisi2
 4594 1b42 2278     		ldrb	r2, [r4, #0]	@ zero_extendqisi2
 4595 1b44 CB18     		adds	r3, r1, r3
 4596 1b46 DBB2     		uxtb	r3, r3
 4597              	.LVL735:
 4598 1b48 2B70     		strb	r3, [r5, #0]
 4599 1b4a 9B18     		adds	r3, r3, r2
 4600              	.LVL736:
 4601 1b4c 2370     		strb	r3, [r4, #0]
 4602 1b4e 2648     		ldr	r0, .L256+8
 4603 1b50 FFF7FEFF 		bl	uart_transmit
 4604              	.LVL737:
 4605              	.LBE378:
 4606              	.LBB379:
 4607 1b54 96F85210 		ldrb	r1, [r6, #82]	@ zero_extendqisi2
 4608              	.LVL738:
 4609 1b58 2B78     		ldrb	r3, [r5, #0]	@ zero_extendqisi2
 4610 1b5a 2278     		ldrb	r2, [r4, #0]	@ zero_extendqisi2
 4611 1b5c CB18     		adds	r3, r1, r3
 4612 1b5e DBB2     		uxtb	r3, r3
 4613              	.LVL739:
 4614 1b60 2B70     		strb	r3, [r5, #0]
 4615 1b62 9B18     		adds	r3, r3, r2
 4616              	.LVL740:
 4617 1b64 2370     		strb	r3, [r4, #0]
 4618 1b66 2048     		ldr	r0, .L256+8
 4619 1b68 FFF7FEFF 		bl	uart_transmit
 4620              	.LVL741:
 4621              	.LBE379:
 4622              	.LBB380:
 4623 1b6c 96F85310 		ldrb	r1, [r6, #83]	@ zero_extendqisi2
 4624              	.LVL742:
 4625 1b70 2B78     		ldrb	r3, [r5, #0]	@ zero_extendqisi2
 4626 1b72 2278     		ldrb	r2, [r4, #0]	@ zero_extendqisi2
 4627 1b74 CB18     		adds	r3, r1, r3
 4628 1b76 DBB2     		uxtb	r3, r3
 4629              	.LVL743:
 4630 1b78 2B70     		strb	r3, [r5, #0]
 4631 1b7a 9B18     		adds	r3, r3, r2
 4632              	.LVL744:
 4633 1b7c 2370     		strb	r3, [r4, #0]
 4634 1b7e 1A48     		ldr	r0, .L256+8
 4635 1b80 FFF7FEFF 		bl	uart_transmit
 4636              	.LVL745:
 4637              	.LBE380:
 4638              	.LBB381:
 4639 1b84 96F85810 		ldrb	r1, [r6, #88]	@ zero_extendqisi2
 4640              	.LVL746:
 4641 1b88 2B78     		ldrb	r3, [r5, #0]	@ zero_extendqisi2
 4642 1b8a 2278     		ldrb	r2, [r4, #0]	@ zero_extendqisi2
 4643 1b8c CB18     		adds	r3, r1, r3
 4644 1b8e DBB2     		uxtb	r3, r3
 4645              	.LVL747:
 4646 1b90 2B70     		strb	r3, [r5, #0]
 4647 1b92 9B18     		adds	r3, r3, r2
 4648              	.LVL748:
 4649 1b94 2370     		strb	r3, [r4, #0]
 4650 1b96 1448     		ldr	r0, .L256+8
 4651 1b98 FFF7FEFF 		bl	uart_transmit
 4652              	.LVL749:
 4653              	.LBE381:
 4654              	.LBB382:
 4655 1b9c 96F85910 		ldrb	r1, [r6, #89]	@ zero_extendqisi2
 4656              	.LVL750:
 4657 1ba0 2B78     		ldrb	r3, [r5, #0]	@ zero_extendqisi2
 4658 1ba2 2278     		ldrb	r2, [r4, #0]	@ zero_extendqisi2
 4659 1ba4 CB18     		adds	r3, r1, r3
 4660 1ba6 DBB2     		uxtb	r3, r3
 4661              	.LVL751:
 4662 1ba8 2B70     		strb	r3, [r5, #0]
 4663 1baa 9B18     		adds	r3, r3, r2
 4664              	.LVL752:
 4665 1bac 2370     		strb	r3, [r4, #0]
 4666 1bae 0E48     		ldr	r0, .L256+8
 4667 1bb0 FFF7FEFF 		bl	uart_transmit
 4668              	.LVL753:
 4669              	.LBE382:
 4670              	.LBB383:
 4671 1bb4 96F85A10 		ldrb	r1, [r6, #90]	@ zero_extendqisi2
 4672              	.LVL754:
 4673 1bb8 2B78     		ldrb	r3, [r5, #0]	@ zero_extendqisi2
 4674 1bba 2278     		ldrb	r2, [r4, #0]	@ zero_extendqisi2
 4675 1bbc CB18     		adds	r3, r1, r3
 4676 1bbe DBB2     		uxtb	r3, r3
 4677              	.LVL755:
 4678 1bc0 2B70     		strb	r3, [r5, #0]
 4679 1bc2 9B18     		adds	r3, r3, r2
 4680              	.LVL756:
 4681 1bc4 2370     		strb	r3, [r4, #0]
 4682 1bc6 0848     		ldr	r0, .L256+8
 4683 1bc8 FFF7FEFF 		bl	uart_transmit
 4684              	.LVL757:
 4685              	.LBE383:
 4686 1bcc 2978     		ldrb	r1, [r5, #0]	@ zero_extendqisi2
 4687 1bce 0648     		ldr	r0, .L256+8
 4688 1bd0 FFF7FEFF 		bl	uart_transmit
 4689 1bd4 0448     		ldr	r0, .L256+8
 4690 1bd6 2178     		ldrb	r1, [r4, #0]	@ zero_extendqisi2
 4691 1bd8 FFF7FEFF 		bl	uart_transmit
 4692 1bdc 18E0     		b	.L68
 4693              	.L257:
 4694 1bde 00BF     		.align	2
 4695              	.L256:
 4696 1be0 00000000 		.word	gps
 4697 1be4 00000000 		.word	.LANCHOR0
 4698 1be8 00000000 		.word	uart2
 4699 1bec 00000000 		.word	downlink_nb_bytes
 4700 1bf0 00000000 		.word	downlink_nb_msgs
 4701 1bf4 00000000 		.word	ck_a
 4702 1bf8 00000000 		.word	ck_b
 4703 1bfc 00000000 		.word	.LANCHOR29
 4704 1c00 00000000 		.word	downlink_nb_ovrn
 4705 1c04 00000000 		.word	.LANCHOR17
 4706              	.LVL758:
 4707              	.L69:
 4708              		.loc 1 422 0 discriminator 80
 4709 1c08 314B     		ldr	r3, .L258
 4710 1c0a 1A78     		ldrb	r2, [r3, #0]	@ zero_extendqisi2
 4711 1c0c 0132     		adds	r2, r2, #1
 4712 1c0e 1A70     		strb	r2, [r3, #0]
 4713              	.L68:
 4714              		.loc 1 422 0 discriminator 78
 4715 1c10 304B     		ldr	r3, .L258+4
 4716 1c12 1B78     		ldrb	r3, [r3, #0]	@ zero_extendqisi2
 4717 1c14 1E2B     		cmp	r3, #30
 4718 1c16 6DD1     		bne	.L70
 4719              		.loc 1 422 0 discriminator 81
 4720 1c18 2F48     		ldr	r0, .L258+8
 4721 1c1a 0B21     		movs	r1, #11
 4722 1c1c FFF7FEFF 		bl	uart_check_free_space
 4723 1c20 0028     		cmp	r0, #0
 4724 1c22 00F06D81 		beq	.L73
 4725              		.loc 1 422 0 discriminator 83
 4726 1c26 2D4B     		ldr	r3, .L258+12
 4727              	.LBB384:
 4728 1c28 2B48     		ldr	r0, .L258+8
 4729              	.LBE384:
 4730 1c2a 1A88     		ldrh	r2, [r3, #0]
 4731              	.LBB385:
 4732 1c2c 9921     		movs	r1, #153
 4733              	.LBE385:
 4734 1c2e 0B32     		adds	r2, r2, #11
 4735 1c30 1A80     		strh	r2, [r3, #0]	@ movhi
 4736 1c32 2B4B     		ldr	r3, .L258+16
 4737 1c34 2B4D     		ldr	r5, .L258+20
 4738 1c36 1A88     		ldrh	r2, [r3, #0]
 4739 1c38 2B4C     		ldr	r4, .L258+24
 4740 1c3a 0132     		adds	r2, r2, #1
 4741 1c3c 1A80     		strh	r2, [r3, #0]	@ movhi
 4742              	.LBB386:
 4743 1c3e FFF7FEFF 		bl	uart_transmit
 4744              	.LVL759:
 4745 1c42 2548     		ldr	r0, .L258+8
 4746 1c44 0B21     		movs	r1, #11
 4747 1c46 FFF7FEFF 		bl	uart_transmit
 4748              	.LBE386:
 4749 1c4a 0C23     		movs	r3, #12
 4750 1c4c 2B70     		strb	r3, [r5, #0]
 4751 1c4e 1723     		movs	r3, #23
 4752 1c50 2370     		strb	r3, [r4, #0]
 4753 1c52 2148     		ldr	r0, .L258+8
 4754 1c54 0121     		movs	r1, #1
 4755 1c56 FFF7FEFF 		bl	uart_transmit
 4756 1c5a 2B78     		ldrb	r3, [r5, #0]	@ zero_extendqisi2
 4757 1c5c 2278     		ldrb	r2, [r4, #0]	@ zero_extendqisi2
 4758 1c5e 0E33     		adds	r3, r3, #14
 4759 1c60 DBB2     		uxtb	r3, r3
 4760              	.LBB387:
 4761 1c62 224E     		ldr	r6, .L258+28
 4762              	.LBE387:
 4763 1c64 2B70     		strb	r3, [r5, #0]
 4764 1c66 9B18     		adds	r3, r3, r2
 4765 1c68 2370     		strb	r3, [r4, #0]
 4766 1c6a 1B48     		ldr	r0, .L258+8
 4767 1c6c 0E21     		movs	r1, #14
 4768 1c6e FFF7FEFF 		bl	uart_transmit
 4769              	.LBB388:
 4770 1c72 3178     		ldrb	r1, [r6, #0]	@ zero_extendqisi2
 4771              	.LVL760:
 4772 1c74 2B78     		ldrb	r3, [r5, #0]	@ zero_extendqisi2
 4773 1c76 2278     		ldrb	r2, [r4, #0]	@ zero_extendqisi2
 4774 1c78 CB18     		adds	r3, r1, r3
 4775 1c7a DBB2     		uxtb	r3, r3
 4776              	.LVL761:
 4777 1c7c 2B70     		strb	r3, [r5, #0]
 4778 1c7e 9B18     		adds	r3, r3, r2
 4779              	.LVL762:
 4780 1c80 2370     		strb	r3, [r4, #0]
 4781 1c82 1548     		ldr	r0, .L258+8
 4782 1c84 FFF7FEFF 		bl	uart_transmit
 4783              	.LVL763:
 4784              	.LBE388:
 4785              	.LBB389:
 4786 1c88 7178     		ldrb	r1, [r6, #1]	@ zero_extendqisi2
 4787              	.LVL764:
 4788 1c8a 2B78     		ldrb	r3, [r5, #0]	@ zero_extendqisi2
 4789 1c8c 2278     		ldrb	r2, [r4, #0]	@ zero_extendqisi2
 4790 1c8e CB18     		adds	r3, r1, r3
 4791 1c90 DBB2     		uxtb	r3, r3
 4792              	.LVL765:
 4793 1c92 2B70     		strb	r3, [r5, #0]
 4794 1c94 9B18     		adds	r3, r3, r2
 4795              	.LVL766:
 4796 1c96 2370     		strb	r3, [r4, #0]
 4797 1c98 0F48     		ldr	r0, .L258+8
 4798 1c9a FFF7FEFF 		bl	uart_transmit
 4799              	.LVL767:
 4800              	.LBE389:
 4801              	.LBB390:
 4802 1c9e B178     		ldrb	r1, [r6, #2]	@ zero_extendqisi2
 4803              	.LVL768:
 4804 1ca0 2B78     		ldrb	r3, [r5, #0]	@ zero_extendqisi2
 4805 1ca2 2278     		ldrb	r2, [r4, #0]	@ zero_extendqisi2
 4806 1ca4 CB18     		adds	r3, r1, r3
 4807 1ca6 DBB2     		uxtb	r3, r3
 4808              	.LVL769:
 4809 1ca8 2B70     		strb	r3, [r5, #0]
 4810 1caa 9B18     		adds	r3, r3, r2
 4811              	.LVL770:
 4812 1cac 2370     		strb	r3, [r4, #0]
 4813 1cae 0A48     		ldr	r0, .L258+8
 4814 1cb0 FFF7FEFF 		bl	uart_transmit
 4815              	.LVL771:
 4816              	.LBE390:
 4817              	.LBB391:
 4818 1cb4 F178     		ldrb	r1, [r6, #3]	@ zero_extendqisi2
 4819              	.LVL772:
 4820 1cb6 2B78     		ldrb	r3, [r5, #0]	@ zero_extendqisi2
 4821 1cb8 2278     		ldrb	r2, [r4, #0]	@ zero_extendqisi2
 4822 1cba CB18     		adds	r3, r1, r3
 4823 1cbc DBB2     		uxtb	r3, r3
 4824              	.LVL773:
 4825 1cbe 2B70     		strb	r3, [r5, #0]
 4826 1cc0 9B18     		adds	r3, r3, r2
 4827              	.LVL774:
 4828 1cc2 2370     		strb	r3, [r4, #0]
 4829 1cc4 0448     		ldr	r0, .L258+8
 4830 1cc6 FFF7FEFF 		bl	uart_transmit
 4831              	.LVL775:
 4832              	.LBE391:
 4833              	.LBB392:
 4834 1cca 094B     		ldr	r3, .L258+32
 4835 1ccc 1978     		ldrb	r1, [r3, #0]	@ zero_extendqisi2
 4836              	.LVL776:
 4837 1cce EFE0     		b	.L218
 4838              	.L259:
 4839              		.align	2
 4840              	.L258:
 4841 1cd0 00000000 		.word	downlink_nb_ovrn
 4842 1cd4 00000000 		.word	.LANCHOR18
 4843 1cd8 00000000 		.word	uart2
 4844 1cdc 00000000 		.word	downlink_nb_bytes
 4845 1ce0 00000000 		.word	downlink_nb_msgs
 4846 1ce4 00000000 		.word	ck_a
 4847 1ce8 00000000 		.word	ck_b
 4848 1cec 00000000 		.word	v_ctl_auto_throttle_sum_err
 4849 1cf0 00000000 		.word	v_ctl_auto_throttle_submode
 4850              	.LVL777:
 4851              	.L70:
 4852              	.LBE392:
 4853              		.loc 1 422 0 discriminator 82
 4854 1cf4 242B     		cmp	r3, #36
 4855 1cf6 40F00781 		bne	.L72
 4856              		.loc 1 422 0 discriminator 85
 4857 1cfa 774B     		ldr	r3, .L260
 4858 1cfc 1B78     		ldrb	r3, [r3, #0]	@ zero_extendqisi2
 4859 1cfe 002B     		cmp	r3, #0
 4860 1d00 00F00281 		beq	.L72
 4861              		.loc 1 422 0 discriminator 87
 4862 1d04 7548     		ldr	r0, .L260+4
 4863 1d06 1621     		movs	r1, #22
 4864 1d08 FFF7FEFF 		bl	uart_check_free_space
 4865 1d0c 0028     		cmp	r0, #0
 4866 1d0e 00F0F780 		beq	.L73
 4867              		.loc 1 422 0 discriminator 88
 4868 1d12 734B     		ldr	r3, .L260+8
 4869              	.LBB393:
 4870 1d14 7148     		ldr	r0, .L260+4
 4871              	.LBE393:
 4872 1d16 1A88     		ldrh	r2, [r3, #0]
 4873              	.LBB394:
 4874 1d18 9921     		movs	r1, #153
 4875              	.LBE394:
 4876 1d1a 1632     		adds	r2, r2, #22
 4877 1d1c 1A80     		strh	r2, [r3, #0]	@ movhi
 4878 1d1e 714B     		ldr	r3, .L260+12
 4879 1d20 714D     		ldr	r5, .L260+16
 4880 1d22 1A88     		ldrh	r2, [r3, #0]
 4881 1d24 714C     		ldr	r4, .L260+20
 4882 1d26 0132     		adds	r2, r2, #1
 4883 1d28 1A80     		strh	r2, [r3, #0]	@ movhi
 4884              	.LBB395:
 4885 1d2a FFF7FEFF 		bl	uart_transmit
 4886              	.LVL778:
 4887 1d2e 6B48     		ldr	r0, .L260+4
 4888 1d30 1621     		movs	r1, #22
 4889 1d32 FFF7FEFF 		bl	uart_transmit
 4890              	.LBE395:
 4891 1d36 1723     		movs	r3, #23
 4892 1d38 2B70     		strb	r3, [r5, #0]
 4893 1d3a 2D23     		movs	r3, #45
 4894 1d3c 2370     		strb	r3, [r4, #0]
 4895 1d3e 6748     		ldr	r0, .L260+4
 4896 1d40 0121     		movs	r1, #1
 4897 1d42 FFF7FEFF 		bl	uart_transmit
 4898 1d46 2B78     		ldrb	r3, [r5, #0]	@ zero_extendqisi2
 4899 1d48 2278     		ldrb	r2, [r4, #0]	@ zero_extendqisi2
 4900 1d4a 1B33     		adds	r3, r3, #27
 4901 1d4c DBB2     		uxtb	r3, r3
 4902              	.LBB396:
 4903 1d4e 684E     		ldr	r6, .L260+24
 4904              	.LBE396:
 4905 1d50 2B70     		strb	r3, [r5, #0]
 4906 1d52 9B18     		adds	r3, r3, r2
 4907 1d54 2370     		strb	r3, [r4, #0]
 4908 1d56 6148     		ldr	r0, .L260+4
 4909 1d58 1B21     		movs	r1, #27
 4910 1d5a FFF7FEFF 		bl	uart_transmit
 4911              	.LBB397:
 4912 1d5e 3178     		ldrb	r1, [r6, #0]	@ zero_extendqisi2
 4913              	.LVL779:
 4914 1d60 2B78     		ldrb	r3, [r5, #0]	@ zero_extendqisi2
 4915 1d62 2278     		ldrb	r2, [r4, #0]	@ zero_extendqisi2
 4916 1d64 CB18     		adds	r3, r1, r3
 4917 1d66 DBB2     		uxtb	r3, r3
 4918              	.LVL780:
 4919 1d68 2B70     		strb	r3, [r5, #0]
 4920 1d6a 9B18     		adds	r3, r3, r2
 4921              	.LVL781:
 4922 1d6c 2370     		strb	r3, [r4, #0]
 4923 1d6e 5B48     		ldr	r0, .L260+4
 4924 1d70 FFF7FEFF 		bl	uart_transmit
 4925              	.LVL782:
 4926              	.LBE397:
 4927              	.LBB398:
 4928 1d74 7178     		ldrb	r1, [r6, #1]	@ zero_extendqisi2
 4929              	.LVL783:
 4930 1d76 2B78     		ldrb	r3, [r5, #0]	@ zero_extendqisi2
 4931 1d78 2278     		ldrb	r2, [r4, #0]	@ zero_extendqisi2
 4932 1d7a CB18     		adds	r3, r1, r3
 4933 1d7c DBB2     		uxtb	r3, r3
 4934              	.LVL784:
 4935 1d7e 2B70     		strb	r3, [r5, #0]
 4936 1d80 9B18     		adds	r3, r3, r2
 4937              	.LVL785:
 4938 1d82 2370     		strb	r3, [r4, #0]
 4939 1d84 5548     		ldr	r0, .L260+4
 4940 1d86 FFF7FEFF 		bl	uart_transmit
 4941              	.LVL786:
 4942              	.LBE398:
 4943              	.LBB399:
 4944 1d8a B178     		ldrb	r1, [r6, #2]	@ zero_extendqisi2
 4945              	.LVL787:
 4946 1d8c 2B78     		ldrb	r3, [r5, #0]	@ zero_extendqisi2
 4947 1d8e 2278     		ldrb	r2, [r4, #0]	@ zero_extendqisi2
 4948 1d90 CB18     		adds	r3, r1, r3
 4949 1d92 DBB2     		uxtb	r3, r3
 4950              	.LVL788:
 4951 1d94 2B70     		strb	r3, [r5, #0]
 4952 1d96 9B18     		adds	r3, r3, r2
 4953              	.LVL789:
 4954 1d98 2370     		strb	r3, [r4, #0]
 4955 1d9a 5048     		ldr	r0, .L260+4
 4956 1d9c FFF7FEFF 		bl	uart_transmit
 4957              	.LVL790:
 4958              	.LBE399:
 4959              	.LBB400:
 4960 1da0 F178     		ldrb	r1, [r6, #3]	@ zero_extendqisi2
 4961              	.LVL791:
 4962 1da2 2B78     		ldrb	r3, [r5, #0]	@ zero_extendqisi2
 4963 1da4 2278     		ldrb	r2, [r4, #0]	@ zero_extendqisi2
 4964 1da6 CB18     		adds	r3, r1, r3
 4965 1da8 DBB2     		uxtb	r3, r3
 4966              	.LBE400:
 4967              	.LBB401:
 4968 1daa 524E     		ldr	r6, .L260+28
 4969              	.LVL792:
 4970              	.LBE401:
 4971              	.LBB402:
 4972 1dac 2B70     		strb	r3, [r5, #0]
 4973 1dae 9B18     		adds	r3, r3, r2
 4974              	.LVL793:
 4975 1db0 2370     		strb	r3, [r4, #0]
 4976 1db2 4A48     		ldr	r0, .L260+4
 4977 1db4 FFF7FEFF 		bl	uart_transmit
 4978              	.LVL794:
 4979              	.LBE402:
 4980              	.LBB403:
 4981 1db8 3178     		ldrb	r1, [r6, #0]	@ zero_extendqisi2
 4982              	.LVL795:
 4983 1dba 2B78     		ldrb	r3, [r5, #0]	@ zero_extendqisi2
 4984 1dbc 2278     		ldrb	r2, [r4, #0]	@ zero_extendqisi2
 4985 1dbe CB18     		adds	r3, r1, r3
 4986 1dc0 DBB2     		uxtb	r3, r3
 4987              	.LVL796:
 4988 1dc2 2B70     		strb	r3, [r5, #0]
 4989 1dc4 9B18     		adds	r3, r3, r2
 4990              	.LVL797:
 4991 1dc6 2370     		strb	r3, [r4, #0]
 4992 1dc8 4448     		ldr	r0, .L260+4
 4993 1dca FFF7FEFF 		bl	uart_transmit
 4994              	.LVL798:
 4995              	.LBE403:
 4996              	.LBB404:
 4997 1dce 7178     		ldrb	r1, [r6, #1]	@ zero_extendqisi2
 4998              	.LVL799:
 4999 1dd0 2B78     		ldrb	r3, [r5, #0]	@ zero_extendqisi2
 5000 1dd2 2278     		ldrb	r2, [r4, #0]	@ zero_extendqisi2
 5001 1dd4 CB18     		adds	r3, r1, r3
 5002 1dd6 DBB2     		uxtb	r3, r3
 5003              	.LVL800:
 5004 1dd8 2B70     		strb	r3, [r5, #0]
 5005 1dda 9B18     		adds	r3, r3, r2
 5006              	.LVL801:
 5007 1ddc 2370     		strb	r3, [r4, #0]
 5008 1dde 3F48     		ldr	r0, .L260+4
 5009 1de0 FFF7FEFF 		bl	uart_transmit
 5010              	.LVL802:
 5011              	.LBE404:
 5012              	.LBB405:
 5013 1de4 B178     		ldrb	r1, [r6, #2]	@ zero_extendqisi2
 5014              	.LVL803:
 5015 1de6 2B78     		ldrb	r3, [r5, #0]	@ zero_extendqisi2
 5016 1de8 2278     		ldrb	r2, [r4, #0]	@ zero_extendqisi2
 5017 1dea CB18     		adds	r3, r1, r3
 5018 1dec DBB2     		uxtb	r3, r3
 5019              	.LVL804:
 5020 1dee 2B70     		strb	r3, [r5, #0]
 5021 1df0 9B18     		adds	r3, r3, r2
 5022              	.LVL805:
 5023 1df2 2370     		strb	r3, [r4, #0]
 5024 1df4 3948     		ldr	r0, .L260+4
 5025 1df6 FFF7FEFF 		bl	uart_transmit
 5026              	.LVL806:
 5027              	.LBE405:
 5028              	.LBB406:
 5029 1dfa F178     		ldrb	r1, [r6, #3]	@ zero_extendqisi2
 5030              	.LVL807:
 5031 1dfc 2B78     		ldrb	r3, [r5, #0]	@ zero_extendqisi2
 5032 1dfe 2278     		ldrb	r2, [r4, #0]	@ zero_extendqisi2
 5033 1e00 CB18     		adds	r3, r1, r3
 5034 1e02 DBB2     		uxtb	r3, r3
 5035              	.LBE406:
 5036              	.LBB407:
 5037 1e04 3C4E     		ldr	r6, .L260+32
 5038              	.LVL808:
 5039              	.LBE407:
 5040              	.LBB408:
 5041 1e06 2B70     		strb	r3, [r5, #0]
 5042 1e08 9B18     		adds	r3, r3, r2
 5043              	.LVL809:
 5044 1e0a 2370     		strb	r3, [r4, #0]
 5045 1e0c 3348     		ldr	r0, .L260+4
 5046 1e0e FFF7FEFF 		bl	uart_transmit
 5047              	.LVL810:
 5048              	.LBE408:
 5049              	.LBB409:
 5050 1e12 3178     		ldrb	r1, [r6, #0]	@ zero_extendqisi2
 5051              	.LVL811:
 5052 1e14 2B78     		ldrb	r3, [r5, #0]	@ zero_extendqisi2
 5053 1e16 2278     		ldrb	r2, [r4, #0]	@ zero_extendqisi2
 5054 1e18 CB18     		adds	r3, r1, r3
 5055 1e1a DBB2     		uxtb	r3, r3
 5056              	.LVL812:
 5057 1e1c 2B70     		strb	r3, [r5, #0]
 5058 1e1e 9B18     		adds	r3, r3, r2
 5059              	.LVL813:
 5060 1e20 2370     		strb	r3, [r4, #0]
 5061 1e22 2E48     		ldr	r0, .L260+4
 5062 1e24 FFF7FEFF 		bl	uart_transmit
 5063              	.LVL814:
 5064              	.LBE409:
 5065              	.LBB410:
 5066 1e28 7178     		ldrb	r1, [r6, #1]	@ zero_extendqisi2
 5067              	.LVL815:
 5068 1e2a 2B78     		ldrb	r3, [r5, #0]	@ zero_extendqisi2
 5069 1e2c 2278     		ldrb	r2, [r4, #0]	@ zero_extendqisi2
 5070 1e2e CB18     		adds	r3, r1, r3
 5071 1e30 DBB2     		uxtb	r3, r3
 5072              	.LVL816:
 5073 1e32 2B70     		strb	r3, [r5, #0]
 5074 1e34 9B18     		adds	r3, r3, r2
 5075              	.LVL817:
 5076 1e36 2370     		strb	r3, [r4, #0]
 5077 1e38 2848     		ldr	r0, .L260+4
 5078 1e3a FFF7FEFF 		bl	uart_transmit
 5079              	.LVL818:
 5080              	.LBE410:
 5081              	.LBB411:
 5082 1e3e B178     		ldrb	r1, [r6, #2]	@ zero_extendqisi2
 5083              	.LVL819:
 5084 1e40 2B78     		ldrb	r3, [r5, #0]	@ zero_extendqisi2
 5085 1e42 2278     		ldrb	r2, [r4, #0]	@ zero_extendqisi2
 5086 1e44 CB18     		adds	r3, r1, r3
 5087 1e46 DBB2     		uxtb	r3, r3
 5088              	.LVL820:
 5089 1e48 2B70     		strb	r3, [r5, #0]
 5090 1e4a 9B18     		adds	r3, r3, r2
 5091              	.LVL821:
 5092 1e4c 2370     		strb	r3, [r4, #0]
 5093 1e4e 2348     		ldr	r0, .L260+4
 5094 1e50 FFF7FEFF 		bl	uart_transmit
 5095              	.LVL822:
 5096              	.LBE411:
 5097              	.LBB412:
 5098 1e54 F178     		ldrb	r1, [r6, #3]	@ zero_extendqisi2
 5099              	.LVL823:
 5100 1e56 2B78     		ldrb	r3, [r5, #0]	@ zero_extendqisi2
 5101 1e58 2278     		ldrb	r2, [r4, #0]	@ zero_extendqisi2
 5102 1e5a CB18     		adds	r3, r1, r3
 5103 1e5c DBB2     		uxtb	r3, r3
 5104              	.LBE412:
 5105              	.LBB413:
 5106 1e5e 274E     		ldr	r6, .L260+36
 5107              	.LVL824:
 5108              	.LBE413:
 5109              	.LBB414:
 5110 1e60 2B70     		strb	r3, [r5, #0]
 5111 1e62 9B18     		adds	r3, r3, r2
 5112              	.LVL825:
 5113 1e64 2370     		strb	r3, [r4, #0]
 5114 1e66 1D48     		ldr	r0, .L260+4
 5115 1e68 FFF7FEFF 		bl	uart_transmit
 5116              	.LVL826:
 5117              	.LBE414:
 5118              	.LBB415:
 5119 1e6c 3178     		ldrb	r1, [r6, #0]	@ zero_extendqisi2
 5120              	.LVL827:
 5121 1e6e 2B78     		ldrb	r3, [r5, #0]	@ zero_extendqisi2
 5122 1e70 2278     		ldrb	r2, [r4, #0]	@ zero_extendqisi2
 5123 1e72 CB18     		adds	r3, r1, r3
 5124 1e74 DBB2     		uxtb	r3, r3
 5125              	.LVL828:
 5126 1e76 2B70     		strb	r3, [r5, #0]
 5127 1e78 9B18     		adds	r3, r3, r2
 5128              	.LVL829:
 5129 1e7a 2370     		strb	r3, [r4, #0]
 5130 1e7c 1748     		ldr	r0, .L260+4
 5131 1e7e FFF7FEFF 		bl	uart_transmit
 5132              	.LVL830:
 5133              	.LBE415:
 5134              	.LBB416:
 5135 1e82 7178     		ldrb	r1, [r6, #1]	@ zero_extendqisi2
 5136              	.LVL831:
 5137 1e84 2B78     		ldrb	r3, [r5, #0]	@ zero_extendqisi2
 5138 1e86 2278     		ldrb	r2, [r4, #0]	@ zero_extendqisi2
 5139 1e88 CB18     		adds	r3, r1, r3
 5140 1e8a DBB2     		uxtb	r3, r3
 5141              	.LVL832:
 5142 1e8c 2B70     		strb	r3, [r5, #0]
 5143 1e8e 9B18     		adds	r3, r3, r2
 5144              	.LVL833:
 5145 1e90 2370     		strb	r3, [r4, #0]
 5146 1e92 1248     		ldr	r0, .L260+4
 5147 1e94 FFF7FEFF 		bl	uart_transmit
 5148              	.LVL834:
 5149              	.LBE416:
 5150              	.LBB417:
 5151 1e98 B178     		ldrb	r1, [r6, #2]	@ zero_extendqisi2
 5152              	.LVL835:
 5153 1e9a 2B78     		ldrb	r3, [r5, #0]	@ zero_extendqisi2
 5154 1e9c 2278     		ldrb	r2, [r4, #0]	@ zero_extendqisi2
 5155 1e9e CB18     		adds	r3, r1, r3
 5156 1ea0 DBB2     		uxtb	r3, r3
 5157              	.LVL836:
 5158 1ea2 2B70     		strb	r3, [r5, #0]
 5159 1ea4 9B18     		adds	r3, r3, r2
 5160              	.LVL837:
 5161 1ea6 2370     		strb	r3, [r4, #0]
 5162 1ea8 0C48     		ldr	r0, .L260+4
 5163 1eaa FFF7FEFF 		bl	uart_transmit
 5164              	.LVL838:
 5165              	.LBE417:
 5166              	.LBB418:
 5167 1eae F178     		ldrb	r1, [r6, #3]	@ zero_extendqisi2
 5168              	.LVL839:
 5169              	.L218:
 5170 1eb0 2B78     		ldrb	r3, [r5, #0]	@ zero_extendqisi2
 5171 1eb2 2278     		ldrb	r2, [r4, #0]	@ zero_extendqisi2
 5172 1eb4 CB18     		adds	r3, r1, r3
 5173 1eb6 DBB2     		uxtb	r3, r3
 5174              	.LVL840:
 5175 1eb8 2B70     		strb	r3, [r5, #0]
 5176 1eba 9B18     		adds	r3, r3, r2
 5177              	.LVL841:
 5178 1ebc 2370     		strb	r3, [r4, #0]
 5179 1ebe 0748     		ldr	r0, .L260+4
 5180 1ec0 FFF7FEFF 		bl	uart_transmit
 5181              	.LVL842:
 5182              	.LBE418:
 5183 1ec4 2978     		ldrb	r1, [r5, #0]	@ zero_extendqisi2
 5184 1ec6 0548     		ldr	r0, .L260+4
 5185 1ec8 FFF7FEFF 		bl	uart_transmit
 5186 1ecc 0348     		ldr	r0, .L260+4
 5187 1ece 2178     		ldrb	r1, [r4, #0]	@ zero_extendqisi2
 5188 1ed0 FFF7FEFF 		bl	uart_transmit
 5189 1ed4 18E0     		b	.L72
 5190              	.L261:
 5191 1ed6 00BF     		.align	2
 5192              	.L260:
 5193 1ed8 00000000 		.word	nav_survey_active
 5194 1edc 00000000 		.word	uart2
 5195 1ee0 00000000 		.word	downlink_nb_bytes
 5196 1ee4 00000000 		.word	downlink_nb_msgs
 5197 1ee8 00000000 		.word	ck_a
 5198 1eec 00000000 		.word	ck_b
 5199 1ef0 00000000 		.word	nav_survey_east
 5200 1ef4 00000000 		.word	nav_survey_north
 5201 1ef8 00000000 		.word	nav_survey_west
 5202 1efc 00000000 		.word	nav_survey_south
 5203              	.L73:
 5204              		.loc 1 422 0 discriminator 89
 5205 1f00 804B     		ldr	r3, .L262
 5206 1f02 1A78     		ldrb	r2, [r3, #0]	@ zero_extendqisi2
 5207 1f04 0132     		adds	r2, r2, #1
 5208 1f06 1A70     		strb	r2, [r3, #0]
 5209              	.L72:
 5210              		.loc 1 422 0 discriminator 86
 5211 1f08 7F4B     		ldr	r3, .L262+4
 5212 1f0a 1B78     		ldrb	r3, [r3, #0]	@ zero_extendqisi2
 5213 1f0c 2A2B     		cmp	r3, #42
 5214 1f0e 40F01581 		bne	.L74
 5215              	.LBB419:
 5216              		.loc 1 422 0 discriminator 90
 5217 1f12 7E4B     		ldr	r3, .L262+8
 5218 1f14 1868     		ldr	r0, [r3, #0]	@ float
 5219 1f16 FFF7FEFF 		bl	__aeabi_f2iz
 5220 1f1a 7D4B     		ldr	r3, .L262+12
 5221 1f1c ADF81C00 		strh	r0, [sp, #28]	@ movhi
 5222              	.LVL843:
 5223 1f20 1878     		ldrb	r0, [r3, #0]	@ zero_extendqisi2
 5224 1f22 FFF7FEFF 		bl	__aeabi_ui2f
 5225 1f26 7B49     		ldr	r1, .L262+16
 5226 1f28 FFF7FEFF 		bl	__aeabi_fdiv
 5227 1f2c 7A4B     		ldr	r3, .L262+20
 5228 1f2e 0446     		mov	r4, r0
 5229 1f30 0590     		str	r0, [sp, #20]	@ float
 5230              	.LVL844:
 5231 1f32 1868     		ldr	r0, [r3, #0]
 5232 1f34 FFF7FEFF 		bl	__aeabi_i2f
 5233 1f38 7849     		ldr	r1, .L262+24
 5234 1f3a FFF7FEFF 		bl	__aeabi_fdiv
 5235 1f3e 0146     		mov	r1, r0
 5236 1f40 0490     		str	r0, [sp, #16]	@ float
 5237              	.LVL845:
 5238 1f42 2046     		mov	r0, r4
 5239 1f44 FFF7FEFF 		bl	__aeabi_fmul
 5240 1f48 1421     		movs	r1, #20
 5241 1f4a 0690     		str	r0, [sp, #24]	@ float
 5242              	.LVL846:
 5243 1f4c 7448     		ldr	r0, .L262+28
 5244 1f4e FFF7FEFF 		bl	uart_check_free_space
 5245 1f52 0028     		cmp	r0, #0
 5246 1f54 00F0EE80 		beq	.L75
 5247              		.loc 1 422 0 discriminator 92
 5248 1f58 724B     		ldr	r3, .L262+32
 5249              	.LBB420:
 5250 1f5a 9921     		movs	r1, #153
 5251              	.LBE420:
 5252 1f5c 1A88     		ldrh	r2, [r3, #0]
 5253              	.LBB421:
 5254 1f5e 7048     		ldr	r0, .L262+28
 5255              	.LBE421:
 5256 1f60 1432     		adds	r2, r2, #20
 5257 1f62 1A80     		strh	r2, [r3, #0]	@ movhi
 5258 1f64 704B     		ldr	r3, .L262+36
 5259 1f66 714D     		ldr	r5, .L262+40
 5260 1f68 1A88     		ldrh	r2, [r3, #0]
 5261 1f6a 714C     		ldr	r4, .L262+44
 5262 1f6c 0132     		adds	r2, r2, #1
 5263 1f6e 1A80     		strh	r2, [r3, #0]	@ movhi
 5264              	.LBB422:
 5265 1f70 FFF7FEFF 		bl	uart_transmit
 5266              	.LVL847:
 5267 1f74 1421     		movs	r1, #20
 5268 1f76 6A48     		ldr	r0, .L262+28
 5269 1f78 FFF7FEFF 		bl	uart_transmit
 5270              	.LBE422:
 5271 1f7c 1523     		movs	r3, #21
 5272 1f7e 2B70     		strb	r3, [r5, #0]
 5273 1f80 2923     		movs	r3, #41
 5274 1f82 2370     		strb	r3, [r4, #0]
 5275 1f84 0121     		movs	r1, #1
 5276 1f86 6648     		ldr	r0, .L262+28
 5277 1f88 FFF7FEFF 		bl	uart_transmit
 5278 1f8c 2B78     		ldrb	r3, [r5, #0]	@ zero_extendqisi2
 5279 1f8e 2278     		ldrb	r2, [r4, #0]	@ zero_extendqisi2
 5280 1f90 2533     		adds	r3, r3, #37
 5281 1f92 DBB2     		uxtb	r3, r3
 5282              	.LVL848:
 5283 1f94 2B70     		strb	r3, [r5, #0]
 5284 1f96 9B18     		adds	r3, r3, r2
 5285              	.LVL849:
 5286 1f98 2370     		strb	r3, [r4, #0]
 5287 1f9a 2521     		movs	r1, #37
 5288 1f9c 6048     		ldr	r0, .L262+28
 5289 1f9e FFF7FEFF 		bl	uart_transmit
 5290              	.LBB423:
 5291 1fa2 9DF81410 		ldrb	r1, [sp, #20]	@ zero_extendqisi2
 5292              	.LVL850:
 5293 1fa6 2B78     		ldrb	r3, [r5, #0]	@ zero_extendqisi2
 5294 1fa8 2278     		ldrb	r2, [r4, #0]	@ zero_extendqisi2
 5295 1faa CB18     		adds	r3, r1, r3
 5296 1fac DBB2     		uxtb	r3, r3
 5297              	.LVL851:
 5298 1fae 2B70     		strb	r3, [r5, #0]
 5299 1fb0 9B18     		adds	r3, r3, r2
 5300              	.LVL852:
 5301 1fb2 2370     		strb	r3, [r4, #0]
 5302 1fb4 5A48     		ldr	r0, .L262+28
 5303 1fb6 FFF7FEFF 		bl	uart_transmit
 5304              	.LVL853:
 5305              	.LBE423:
 5306              	.LBB424:
 5307 1fba 9DF81510 		ldrb	r1, [sp, #21]	@ zero_extendqisi2
 5308              	.LVL854:
 5309 1fbe 2B78     		ldrb	r3, [r5, #0]	@ zero_extendqisi2
 5310 1fc0 2278     		ldrb	r2, [r4, #0]	@ zero_extendqisi2
 5311 1fc2 CB18     		adds	r3, r1, r3
 5312 1fc4 DBB2     		uxtb	r3, r3
 5313              	.LVL855:
 5314 1fc6 2B70     		strb	r3, [r5, #0]
 5315 1fc8 9B18     		adds	r3, r3, r2
 5316              	.LVL856:
 5317 1fca 2370     		strb	r3, [r4, #0]
 5318 1fcc 5448     		ldr	r0, .L262+28
 5319 1fce FFF7FEFF 		bl	uart_transmit
 5320              	.LVL857:
 5321              	.LBE424:
 5322              	.LBB425:
 5323 1fd2 9DF81610 		ldrb	r1, [sp, #22]	@ zero_extendqisi2
 5324              	.LVL858:
 5325 1fd6 2B78     		ldrb	r3, [r5, #0]	@ zero_extendqisi2
 5326 1fd8 2278     		ldrb	r2, [r4, #0]	@ zero_extendqisi2
 5327 1fda CB18     		adds	r3, r1, r3
 5328 1fdc DBB2     		uxtb	r3, r3
 5329              	.LVL859:
 5330 1fde 2B70     		strb	r3, [r5, #0]
 5331 1fe0 9B18     		adds	r3, r3, r2
 5332              	.LVL860:
 5333 1fe2 2370     		strb	r3, [r4, #0]
 5334 1fe4 4E48     		ldr	r0, .L262+28
 5335 1fe6 FFF7FEFF 		bl	uart_transmit
 5336              	.LVL861:
 5337              	.LBE425:
 5338              	.LBB426:
 5339 1fea 9DF81710 		ldrb	r1, [sp, #23]	@ zero_extendqisi2
 5340              	.LVL862:
 5341 1fee 2B78     		ldrb	r3, [r5, #0]	@ zero_extendqisi2
 5342 1ff0 2278     		ldrb	r2, [r4, #0]	@ zero_extendqisi2
 5343 1ff2 CB18     		adds	r3, r1, r3
 5344 1ff4 DBB2     		uxtb	r3, r3
 5345              	.LVL863:
 5346 1ff6 2B70     		strb	r3, [r5, #0]
 5347 1ff8 9B18     		adds	r3, r3, r2
 5348              	.LVL864:
 5349 1ffa 2370     		strb	r3, [r4, #0]
 5350 1ffc 4848     		ldr	r0, .L262+28
 5351 1ffe FFF7FEFF 		bl	uart_transmit
 5352              	.LVL865:
 5353              	.LBE426:
 5354              	.LBB427:
 5355 2002 9DF81010 		ldrb	r1, [sp, #16]	@ zero_extendqisi2
 5356              	.LVL866:
 5357 2006 2B78     		ldrb	r3, [r5, #0]	@ zero_extendqisi2
 5358 2008 2278     		ldrb	r2, [r4, #0]	@ zero_extendqisi2
 5359 200a CB18     		adds	r3, r1, r3
 5360 200c DBB2     		uxtb	r3, r3
 5361              	.LVL867:
 5362 200e 2B70     		strb	r3, [r5, #0]
 5363 2010 9B18     		adds	r3, r3, r2
 5364              	.LVL868:
 5365 2012 2370     		strb	r3, [r4, #0]
 5366 2014 4248     		ldr	r0, .L262+28
 5367 2016 FFF7FEFF 		bl	uart_transmit
 5368              	.LVL869:
 5369              	.LBE427:
 5370              	.LBB428:
 5371 201a 9DF81110 		ldrb	r1, [sp, #17]	@ zero_extendqisi2
 5372              	.LVL870:
 5373 201e 2B78     		ldrb	r3, [r5, #0]	@ zero_extendqisi2
 5374 2020 2278     		ldrb	r2, [r4, #0]	@ zero_extendqisi2
 5375 2022 CB18     		adds	r3, r1, r3
 5376 2024 DBB2     		uxtb	r3, r3
 5377              	.LVL871:
 5378 2026 2B70     		strb	r3, [r5, #0]
 5379 2028 9B18     		adds	r3, r3, r2
 5380              	.LVL872:
 5381 202a 2370     		strb	r3, [r4, #0]
 5382 202c 3C48     		ldr	r0, .L262+28
 5383 202e FFF7FEFF 		bl	uart_transmit
 5384              	.LVL873:
 5385              	.LBE428:
 5386              	.LBB429:
 5387 2032 9DF81210 		ldrb	r1, [sp, #18]	@ zero_extendqisi2
 5388              	.LVL874:
 5389 2036 2B78     		ldrb	r3, [r5, #0]	@ zero_extendqisi2
 5390 2038 2278     		ldrb	r2, [r4, #0]	@ zero_extendqisi2
 5391 203a CB18     		adds	r3, r1, r3
 5392 203c DBB2     		uxtb	r3, r3
 5393              	.LVL875:
 5394 203e 2B70     		strb	r3, [r5, #0]
 5395 2040 9B18     		adds	r3, r3, r2
 5396              	.LVL876:
 5397 2042 2370     		strb	r3, [r4, #0]
 5398 2044 3648     		ldr	r0, .L262+28
 5399 2046 FFF7FEFF 		bl	uart_transmit
 5400              	.LVL877:
 5401              	.LBE429:
 5402              	.LBB430:
 5403 204a 9DF81310 		ldrb	r1, [sp, #19]	@ zero_extendqisi2
 5404              	.LVL878:
 5405 204e 2B78     		ldrb	r3, [r5, #0]	@ zero_extendqisi2
 5406 2050 2278     		ldrb	r2, [r4, #0]	@ zero_extendqisi2
 5407 2052 CB18     		adds	r3, r1, r3
 5408 2054 DBB2     		uxtb	r3, r3
 5409              	.LVL879:
 5410 2056 2B70     		strb	r3, [r5, #0]
 5411 2058 9B18     		adds	r3, r3, r2
 5412              	.LVL880:
 5413 205a 2370     		strb	r3, [r4, #0]
 5414 205c 3048     		ldr	r0, .L262+28
 5415 205e FFF7FEFF 		bl	uart_transmit
 5416              	.LVL881:
 5417              	.LBE430:
 5418              	.LBB431:
 5419 2062 9DF81C10 		ldrb	r1, [sp, #28]	@ zero_extendqisi2
 5420              	.LVL882:
 5421 2066 2B78     		ldrb	r3, [r5, #0]	@ zero_extendqisi2
 5422 2068 2278     		ldrb	r2, [r4, #0]	@ zero_extendqisi2
 5423 206a CB18     		adds	r3, r1, r3
 5424 206c DBB2     		uxtb	r3, r3
 5425              	.LVL883:
 5426 206e 2B70     		strb	r3, [r5, #0]
 5427 2070 9B18     		adds	r3, r3, r2
 5428              	.LVL884:
 5429 2072 2370     		strb	r3, [r4, #0]
 5430 2074 2A48     		ldr	r0, .L262+28
 5431 2076 FFF7FEFF 		bl	uart_transmit
 5432              	.LVL885:
 5433              	.LBE431:
 5434              	.LBB432:
 5435 207a 9DF81D10 		ldrb	r1, [sp, #29]	@ zero_extendqisi2
 5436              	.LVL886:
 5437 207e 2B78     		ldrb	r3, [r5, #0]	@ zero_extendqisi2
 5438 2080 2278     		ldrb	r2, [r4, #0]	@ zero_extendqisi2
 5439 2082 CB18     		adds	r3, r1, r3
 5440 2084 DBB2     		uxtb	r3, r3
 5441              	.LVL887:
 5442 2086 2B70     		strb	r3, [r5, #0]
 5443 2088 9B18     		adds	r3, r3, r2
 5444              	.LVL888:
 5445 208a 2370     		strb	r3, [r4, #0]
 5446 208c 2448     		ldr	r0, .L262+28
 5447 208e FFF7FEFF 		bl	uart_transmit
 5448              	.LVL889:
 5449              	.LBE432:
 5450              	.LBB433:
 5451 2092 9DF81810 		ldrb	r1, [sp, #24]	@ zero_extendqisi2
 5452              	.LVL890:
 5453 2096 2B78     		ldrb	r3, [r5, #0]	@ zero_extendqisi2
 5454 2098 2278     		ldrb	r2, [r4, #0]	@ zero_extendqisi2
 5455 209a CB18     		adds	r3, r1, r3
 5456 209c DBB2     		uxtb	r3, r3
 5457              	.LVL891:
 5458 209e 2B70     		strb	r3, [r5, #0]
 5459 20a0 9B18     		adds	r3, r3, r2
 5460              	.LVL892:
 5461 20a2 2370     		strb	r3, [r4, #0]
 5462 20a4 1E48     		ldr	r0, .L262+28
 5463 20a6 FFF7FEFF 		bl	uart_transmit
 5464              	.LVL893:
 5465              	.LBE433:
 5466              	.LBB434:
 5467 20aa 9DF81910 		ldrb	r1, [sp, #25]	@ zero_extendqisi2
 5468              	.LVL894:
 5469 20ae 2B78     		ldrb	r3, [r5, #0]	@ zero_extendqisi2
 5470 20b0 2278     		ldrb	r2, [r4, #0]	@ zero_extendqisi2
 5471 20b2 CB18     		adds	r3, r1, r3
 5472 20b4 DBB2     		uxtb	r3, r3
 5473              	.LVL895:
 5474 20b6 2B70     		strb	r3, [r5, #0]
 5475 20b8 9B18     		adds	r3, r3, r2
 5476              	.LVL896:
 5477 20ba 2370     		strb	r3, [r4, #0]
 5478 20bc 1848     		ldr	r0, .L262+28
 5479 20be FFF7FEFF 		bl	uart_transmit
 5480              	.LVL897:
 5481              	.LBE434:
 5482              	.LBB435:
 5483 20c2 9DF81A10 		ldrb	r1, [sp, #26]	@ zero_extendqisi2
 5484              	.LVL898:
 5485 20c6 2B78     		ldrb	r3, [r5, #0]	@ zero_extendqisi2
 5486 20c8 2278     		ldrb	r2, [r4, #0]	@ zero_extendqisi2
 5487 20ca CB18     		adds	r3, r1, r3
 5488 20cc DBB2     		uxtb	r3, r3
 5489              	.LVL899:
 5490 20ce 2B70     		strb	r3, [r5, #0]
 5491 20d0 9B18     		adds	r3, r3, r2
 5492              	.LVL900:
 5493 20d2 2370     		strb	r3, [r4, #0]
 5494 20d4 1248     		ldr	r0, .L262+28
 5495 20d6 FFF7FEFF 		bl	uart_transmit
 5496              	.LVL901:
 5497              	.LBE435:
 5498              	.LBB436:
 5499 20da 9DF81B10 		ldrb	r1, [sp, #27]	@ zero_extendqisi2
 5500              	.LVL902:
 5501 20de 2B78     		ldrb	r3, [r5, #0]	@ zero_extendqisi2
 5502 20e0 2278     		ldrb	r2, [r4, #0]	@ zero_extendqisi2
 5503 20e2 CB18     		adds	r3, r1, r3
 5504 20e4 DBB2     		uxtb	r3, r3
 5505              	.LVL903:
 5506 20e6 2B70     		strb	r3, [r5, #0]
 5507 20e8 9B18     		adds	r3, r3, r2
 5508              	.LVL904:
 5509 20ea 2370     		strb	r3, [r4, #0]
 5510 20ec 0C48     		ldr	r0, .L262+28
 5511 20ee FFF7FEFF 		bl	uart_transmit
 5512              	.LVL905:
 5513              	.LBE436:
 5514 20f2 2978     		ldrb	r1, [r5, #0]	@ zero_extendqisi2
 5515 20f4 0A48     		ldr	r0, .L262+28
 5516 20f6 FFF7FEFF 		bl	uart_transmit
 5517 20fa 0948     		ldr	r0, .L262+28
 5518 20fc 2178     		ldrb	r1, [r4, #0]	@ zero_extendqisi2
 5519 20fe FFF7FEFF 		bl	uart_transmit
 5520 2102 1BE0     		b	.L74
 5521              	.L263:
 5522              		.align	2
 5523              	.L262:
 5524 2104 00000000 		.word	downlink_nb_ovrn
 5525 2108 00000000 		.word	.LANCHOR19
 5526 210c 00000000 		.word	.LANCHOR26
 5527 2110 00000000 		.word	.LANCHOR27
 5528 2114 00002041 		.word	1092616192
 5529 2118 00000000 		.word	.LANCHOR25
 5530 211c 00007A44 		.word	1148846080
 5531 2120 00000000 		.word	uart2
 5532 2124 00000000 		.word	downlink_nb_bytes
 5533 2128 00000000 		.word	downlink_nb_msgs
 5534 212c 00000000 		.word	ck_a
 5535 2130 00000000 		.word	ck_b
 5536              	.LVL906:
 5537              	.L75:
 5538              		.loc 1 422 0 discriminator 93
 5539 2134 954B     		ldr	r3, .L264
 5540 2136 1A78     		ldrb	r2, [r3, #0]	@ zero_extendqisi2
 5541 2138 0132     		adds	r2, r2, #1
 5542 213a 1A70     		strb	r2, [r3, #0]
 5543              	.L74:
 5544              	.LBE419:
 5545              		.loc 1 422 0 discriminator 91
 5546 213c 944B     		ldr	r3, .L264+4
 5547 213e 1B88     		ldrh	r3, [r3, #0]
 5548 2140 302B     		cmp	r3, #48
 5549 2142 4FD1     		bne	.L76
 5550              		.loc 1 422 0 discriminator 94
 5551 2144 9348     		ldr	r0, .L264+8
 5552 2146 1721     		movs	r1, #23
 5553 2148 FFF7FEFF 		bl	uart_check_free_space
 5554 214c 0028     		cmp	r0, #0
 5555 214e 00F03B81 		beq	.L84
 5556              		.loc 1 422 0 discriminator 96
 5557 2152 914B     		ldr	r3, .L264+12
 5558              	.LBB437:
 5559 2154 8F48     		ldr	r0, .L264+8
 5560              	.LBE437:
 5561 2156 1A88     		ldrh	r2, [r3, #0]
 5562              	.LBB438:
 5563 2158 9921     		movs	r1, #153
 5564              	.LBE438:
 5565 215a 1732     		adds	r2, r2, #23
 5566 215c 1A80     		strh	r2, [r3, #0]	@ movhi
 5567 215e 8F4B     		ldr	r3, .L264+16
 5568 2160 8F4D     		ldr	r5, .L264+20
 5569 2162 1A88     		ldrh	r2, [r3, #0]
 5570 2164 8F4C     		ldr	r4, .L264+24
 5571 2166 0132     		adds	r2, r2, #1
 5572 2168 1A80     		strh	r2, [r3, #0]	@ movhi
 5573              	.LBB439:
 5574 216a FFF7FEFF 		bl	uart_transmit
 5575              	.LVL907:
 5576 216e 8948     		ldr	r0, .L264+8
 5577 2170 1721     		movs	r1, #23
 5578 2172 FFF7FEFF 		bl	uart_transmit
 5579              	.LBE439:
 5580 2176 1823     		movs	r3, #24
 5581 2178 2B70     		strb	r3, [r5, #0]
 5582 217a 2F23     		movs	r3, #47
 5583 217c 2370     		strb	r3, [r4, #0]
 5584 217e 8548     		ldr	r0, .L264+8
 5585 2180 0121     		movs	r1, #1
 5586 2182 FFF7FEFF 		bl	uart_transmit
 5587 2186 2B78     		ldrb	r3, [r5, #0]	@ zero_extendqisi2
 5588 2188 2278     		ldrb	r2, [r4, #0]	@ zero_extendqisi2
 5589 218a 0233     		adds	r3, r3, #2
 5590 218c DBB2     		uxtb	r3, r3
 5591 218e 2B70     		strb	r3, [r5, #0]
 5592 2190 9B18     		adds	r3, r3, r2
 5593 2192 2370     		strb	r3, [r4, #0]
 5594 2194 7F48     		ldr	r0, .L264+8
 5595 2196 0221     		movs	r1, #2
 5596 2198 FFF7FEFF 		bl	uart_transmit
 5597              	.LBB440:
 5598 219c 2B78     		ldrb	r3, [r5, #0]	@ zero_extendqisi2
 5599 219e 2278     		ldrb	r2, [r4, #0]	@ zero_extendqisi2
 5600 21a0 1033     		adds	r3, r3, #16
 5601 21a2 DBB2     		uxtb	r3, r3
 5602 21a4 2B70     		strb	r3, [r5, #0]
 5603 21a6 9B18     		adds	r3, r3, r2
 5604 21a8 2370     		strb	r3, [r4, #0]
 5605 21aa 7A48     		ldr	r0, .L264+8
 5606 21ac 1021     		movs	r1, #16
 5607 21ae FFF7FEFF 		bl	uart_transmit
 5608              	.LVL908:
 5609              	.LBB441:
 5610 21b2 7D4F     		ldr	r7, .L264+28
 5611              	.LBE441:
 5612 21b4 0026     		movs	r6, #0
 5613              	.LVL909:
 5614              	.L78:
 5615              	.LBB442:
 5616              		.loc 1 422 0 discriminator 99
 5617 21b6 F15D     		ldrb	r1, [r6, r7]	@ zero_extendqisi2
 5618              	.LVL910:
 5619 21b8 2B78     		ldrb	r3, [r5, #0]	@ zero_extendqisi2
 5620 21ba 2278     		ldrb	r2, [r4, #0]	@ zero_extendqisi2
 5621 21bc CB18     		adds	r3, r1, r3
 5622 21be DBB2     		uxtb	r3, r3
 5623              	.LVL911:
 5624 21c0 2B70     		strb	r3, [r5, #0]
 5625 21c2 9B18     		adds	r3, r3, r2
 5626              	.LVL912:
 5627 21c4 2370     		strb	r3, [r4, #0]
 5628 21c6 7348     		ldr	r0, .L264+8
 5629 21c8 0136     		adds	r6, r6, #1
 5630 21ca FFF7FEFF 		bl	uart_transmit
 5631              	.LVL913:
 5632              	.LBE442:
 5633 21ce 102E     		cmp	r6, #16
 5634 21d0 F1D1     		bne	.L78
 5635              	.LBE440:
 5636              		.loc 1 422 0 discriminator 100
 5637 21d2 734B     		ldr	r3, .L264+20
 5638 21d4 6F48     		ldr	r0, .L264+8
 5639 21d6 1978     		ldrb	r1, [r3, #0]	@ zero_extendqisi2
 5640 21d8 FFF7FEFF 		bl	uart_transmit
 5641 21dc 714B     		ldr	r3, .L264+24
 5642 21de 6D48     		ldr	r0, .L264+8
 5643 21e0 1978     		ldrb	r1, [r3, #0]	@ zero_extendqisi2
 5644 21e2 77E0     		b	.L219
 5645              	.LVL914:
 5646              	.L76:
 5647              		.loc 1 422 0 discriminator 95
 5648 21e4 362B     		cmp	r3, #54
 5649 21e6 78D1     		bne	.L80
 5650              	.LVL915:
 5651              	.LBB443:
 5652              		.loc 1 422 0 discriminator 101
 5653 21e8 6A48     		ldr	r0, .L264+8
 5654 21ea 0C21     		movs	r1, #12
 5655 21ec FFF7FEFF 		bl	uart_check_free_space
 5656 21f0 0028     		cmp	r0, #0
 5657 21f2 00F0E980 		beq	.L84
 5658              		.loc 1 422 0 discriminator 103
 5659 21f6 684B     		ldr	r3, .L264+12
 5660              	.LBB444:
 5661 21f8 6648     		ldr	r0, .L264+8
 5662              	.LBE444:
 5663 21fa 1A88     		ldrh	r2, [r3, #0]
 5664              	.LBB445:
 5665 21fc 9921     		movs	r1, #153
 5666              	.LBE445:
 5667 21fe 0C32     		adds	r2, r2, #12
 5668 2200 1A80     		strh	r2, [r3, #0]	@ movhi
 5669 2202 664B     		ldr	r3, .L264+16
 5670 2204 664D     		ldr	r5, .L264+20
 5671 2206 1A88     		ldrh	r2, [r3, #0]
 5672 2208 664C     		ldr	r4, .L264+24
 5673 220a 0132     		adds	r2, r2, #1
 5674 220c 1A80     		strh	r2, [r3, #0]	@ movhi
 5675              	.LBB446:
 5676 220e FFF7FEFF 		bl	uart_transmit
 5677              	.LVL916:
 5678 2212 6048     		ldr	r0, .L264+8
 5679 2214 0C21     		movs	r1, #12
 5680 2216 FFF7FEFF 		bl	uart_transmit
 5681              	.LBE446:
 5682 221a 0D23     		movs	r3, #13
 5683 221c 2B70     		strb	r3, [r5, #0]
 5684 221e 1923     		movs	r3, #25
 5685 2220 2370     		strb	r3, [r4, #0]
