   1              		.syntax unified
   2              		.cpu cortex-m3
   3              		.fpu softvfp
   4              		.eabi_attribute 20, 1
   5              		.eabi_attribute 21, 1
   6              		.eabi_attribute 23, 3
   7              		.eabi_attribute 24, 1
   8              		.eabi_attribute 25, 1
   9              		.eabi_attribute 26, 1
  10              		.eabi_attribute 30, 4
  11              		.eabi_attribute 18, 4
  12              		.thumb
  13              		.file	"main_ap.c"
  14              		.text
  15              	.Ltext0:
  16              		.cfi_sections	.debug_frame
  17              		.section	.text.init_ap,"ax",%progbits
  18              		.align	1
  19              		.global	init_ap
  20              		.thumb
  21              		.thumb_func
  23              	init_ap:
  24              	.LFB48:
  25              		.file 1 "firmwares/fixedwing/main_ap.c"
   1:firmwares/fixedwing/main_ap.c **** /*
   2:firmwares/fixedwing/main_ap.c ****  * $Id$
   3:firmwares/fixedwing/main_ap.c ****  *
   4:firmwares/fixedwing/main_ap.c ****  * Copyright (C) 2003-2010  The Paparazzi Team
   5:firmwares/fixedwing/main_ap.c ****  *
   6:firmwares/fixedwing/main_ap.c ****  * This file is part of paparazzi.
   7:firmwares/fixedwing/main_ap.c ****  *
   8:firmwares/fixedwing/main_ap.c ****  * paparazzi is free software; you can redistribute it and/or modify
   9:firmwares/fixedwing/main_ap.c ****  * it under the terms of the GNU General Public License as published by
  10:firmwares/fixedwing/main_ap.c ****  * the Free Software Foundation; either version 2, or (at your option)
  11:firmwares/fixedwing/main_ap.c ****  * any later version.
  12:firmwares/fixedwing/main_ap.c ****  *
  13:firmwares/fixedwing/main_ap.c ****  * paparazzi is distributed in the hope that it will be useful,
  14:firmwares/fixedwing/main_ap.c ****  * but WITHOUT ANY WARRANTY; without even the implied warranty of
  15:firmwares/fixedwing/main_ap.c ****  * MERCHANTABILITY or FITNESS FOR A PARTICULAR PURPOSE.  See the
  16:firmwares/fixedwing/main_ap.c ****  * GNU General Public License for more details.
  17:firmwares/fixedwing/main_ap.c ****  *
  18:firmwares/fixedwing/main_ap.c ****  * You should have received a copy of the GNU General Public License
  19:firmwares/fixedwing/main_ap.c ****  * along with paparazzi; see the file COPYING.  If not, write to
  20:firmwares/fixedwing/main_ap.c ****  * the Free Software Foundation, 59 Temple Place - Suite 330,
  21:firmwares/fixedwing/main_ap.c ****  * Boston, MA 02111-1307, USA.
  22:firmwares/fixedwing/main_ap.c ****  *
  23:firmwares/fixedwing/main_ap.c ****  */
  24:firmwares/fixedwing/main_ap.c **** 
  25:firmwares/fixedwing/main_ap.c **** /**
  26:firmwares/fixedwing/main_ap.c ****  * @file main_ap.c
  27:firmwares/fixedwing/main_ap.c ****  * AP ( AutoPilot ) tasks
  28:firmwares/fixedwing/main_ap.c ****  *
  29:firmwares/fixedwing/main_ap.c ****  * This process is reponsible for the collecting the different sensors data, fusing them to obtain
  30:firmwares/fixedwing/main_ap.c ****  * aircraft attitude and running the different control loops
  31:firmwares/fixedwing/main_ap.c ****  */
  32:firmwares/fixedwing/main_ap.c **** 
  33:firmwares/fixedwing/main_ap.c **** #define MODULES_C
  34:firmwares/fixedwing/main_ap.c **** 
  35:firmwares/fixedwing/main_ap.c **** #include <math.h>
  36:firmwares/fixedwing/main_ap.c **** 
  37:firmwares/fixedwing/main_ap.c **** #include "firmwares/fixedwing/main_ap.h"
  38:firmwares/fixedwing/main_ap.c **** #include "mcu.h"
  39:firmwares/fixedwing/main_ap.c **** #include "mcu_periph/sys_time.h"
  40:firmwares/fixedwing/main_ap.c **** 
  41:firmwares/fixedwing/main_ap.c **** #include "link_mcu.h"
  42:firmwares/fixedwing/main_ap.c **** 
  43:firmwares/fixedwing/main_ap.c **** // Sensors
  44:firmwares/fixedwing/main_ap.c **** #if USE_GPS
  45:firmwares/fixedwing/main_ap.c **** #include "subsystems/gps.h"
  46:firmwares/fixedwing/main_ap.c **** #endif
  47:firmwares/fixedwing/main_ap.c **** #if USE_IMU
  48:firmwares/fixedwing/main_ap.c **** #include "subsystems/imu.h"
  49:firmwares/fixedwing/main_ap.c **** #endif
  50:firmwares/fixedwing/main_ap.c **** #if USE_AHRS
  51:firmwares/fixedwing/main_ap.c **** #include "subsystems/ahrs.h"
  52:firmwares/fixedwing/main_ap.c **** #endif
  53:firmwares/fixedwing/main_ap.c **** #if USE_AHRS_ALIGNER
  54:firmwares/fixedwing/main_ap.c **** #include "subsystems/ahrs/ahrs_aligner.h"
  55:firmwares/fixedwing/main_ap.c **** #endif
  56:firmwares/fixedwing/main_ap.c **** 
  57:firmwares/fixedwing/main_ap.c **** // autopilot & control
  58:firmwares/fixedwing/main_ap.c **** #include "firmwares/fixedwing/autopilot.h"
  59:firmwares/fixedwing/main_ap.c **** #include "estimator.h"
  60:firmwares/fixedwing/main_ap.c **** #include "firmwares/fixedwing/stabilization/stabilization_attitude.h"
  61:firmwares/fixedwing/main_ap.c **** #include "firmwares/fixedwing/guidance/guidance_v.h"
  62:firmwares/fixedwing/main_ap.c **** #include "subsystems/nav.h"
  63:firmwares/fixedwing/main_ap.c **** #include "generated/flight_plan.h"
  64:firmwares/fixedwing/main_ap.c **** #ifdef TRAFFIC_INFO
  65:firmwares/fixedwing/main_ap.c **** #include "subsystems/navigation/traffic_info.h"
  66:firmwares/fixedwing/main_ap.c **** #endif
  67:firmwares/fixedwing/main_ap.c **** 
  68:firmwares/fixedwing/main_ap.c **** // datalink & telemetry
  69:firmwares/fixedwing/main_ap.c **** #include "subsystems/datalink/datalink.h"
  70:firmwares/fixedwing/main_ap.c **** #include "subsystems/settings.h"
  71:firmwares/fixedwing/main_ap.c **** #include "subsystems/datalink/xbee.h"
  72:firmwares/fixedwing/main_ap.c **** #include "firmwares/fixedwing/ap_downlink.h"
  73:firmwares/fixedwing/main_ap.c **** 
  74:firmwares/fixedwing/main_ap.c **** // modules & settings
  75:firmwares/fixedwing/main_ap.c **** #include "generated/modules.h"
  76:firmwares/fixedwing/main_ap.c **** #include "generated/settings.h"
  77:firmwares/fixedwing/main_ap.c **** #if defined RADIO_CONTROL || defined RADIO_CONTROL_AUTO1
  78:firmwares/fixedwing/main_ap.c **** #include "rc_settings.h"
  79:firmwares/fixedwing/main_ap.c **** #endif
  80:firmwares/fixedwing/main_ap.c **** 
  81:firmwares/fixedwing/main_ap.c **** #include "gpio.h"
  82:firmwares/fixedwing/main_ap.c **** #include "led.h"
  83:firmwares/fixedwing/main_ap.c **** 
  84:firmwares/fixedwing/main_ap.c **** #if defined RADIO_CONTROL
  85:firmwares/fixedwing/main_ap.c **** #pragma message "CAUTION! radio control roll channel input has been changed to follow aerospace sig
  86:firmwares/fixedwing/main_ap.c **** #endif
  87:firmwares/fixedwing/main_ap.c **** 
  88:firmwares/fixedwing/main_ap.c **** 
  89:firmwares/fixedwing/main_ap.c **** 
  90:firmwares/fixedwing/main_ap.c **** #if USE_AHRS
  91:firmwares/fixedwing/main_ap.c **** #if USE_IMU
  92:firmwares/fixedwing/main_ap.c **** static inline void on_gyro_event( void );
  93:firmwares/fixedwing/main_ap.c **** static inline void on_accel_event( void );
  94:firmwares/fixedwing/main_ap.c **** static inline void on_mag_event( void );
  95:firmwares/fixedwing/main_ap.c **** volatile uint8_t ahrs_timeout_counter = 0;
  96:firmwares/fixedwing/main_ap.c **** #else
  97:firmwares/fixedwing/main_ap.c **** static inline void on_ahrs_event(void);
  98:firmwares/fixedwing/main_ap.c **** #endif // USE_IMU
  99:firmwares/fixedwing/main_ap.c **** #endif // USE_AHRS
 100:firmwares/fixedwing/main_ap.c **** 
 101:firmwares/fixedwing/main_ap.c **** #if USE_GPS
 102:firmwares/fixedwing/main_ap.c **** static inline void on_gps_solution( void );
 103:firmwares/fixedwing/main_ap.c **** #endif
 104:firmwares/fixedwing/main_ap.c **** 
 105:firmwares/fixedwing/main_ap.c **** 
 106:firmwares/fixedwing/main_ap.c **** bool_t power_switch;
 107:firmwares/fixedwing/main_ap.c **** 
 108:firmwares/fixedwing/main_ap.c **** // what version is this ????
 109:firmwares/fixedwing/main_ap.c **** static const uint16_t version = 1;
 110:firmwares/fixedwing/main_ap.c **** 
 111:firmwares/fixedwing/main_ap.c **** uint8_t pprz_mode = PPRZ_MODE_AUTO2;
 112:firmwares/fixedwing/main_ap.c **** uint8_t lateral_mode = LATERAL_MODE_MANUAL;
 113:firmwares/fixedwing/main_ap.c **** 
 114:firmwares/fixedwing/main_ap.c **** static uint8_t  mcu1_status;
 115:firmwares/fixedwing/main_ap.c **** 
 116:firmwares/fixedwing/main_ap.c **** #if defined RADIO_CONTROL || defined RADIO_CONTROL_AUTO1
 117:firmwares/fixedwing/main_ap.c **** static uint8_t  mcu1_ppm_cpt;
 118:firmwares/fixedwing/main_ap.c **** #endif
 119:firmwares/fixedwing/main_ap.c **** 
 120:firmwares/fixedwing/main_ap.c **** bool_t kill_throttle = FALSE;
 121:firmwares/fixedwing/main_ap.c **** 
 122:firmwares/fixedwing/main_ap.c **** bool_t launch = FALSE;
 123:firmwares/fixedwing/main_ap.c **** 
 124:firmwares/fixedwing/main_ap.c **** 
 125:firmwares/fixedwing/main_ap.c **** /** Supply voltage in deciVolt.
 126:firmwares/fixedwing/main_ap.c ****  * This the ap copy of the measurement from fbw
 127:firmwares/fixedwing/main_ap.c ****  */
 128:firmwares/fixedwing/main_ap.c **** uint8_t vsupply;
 129:firmwares/fixedwing/main_ap.c **** 
 130:firmwares/fixedwing/main_ap.c **** /** Supply current in milliAmpere.
 131:firmwares/fixedwing/main_ap.c ****  * This the ap copy of the measurement from fbw
 132:firmwares/fixedwing/main_ap.c ****  */
 133:firmwares/fixedwing/main_ap.c **** static int32_t current;	// milliAmpere
 134:firmwares/fixedwing/main_ap.c **** 
 135:firmwares/fixedwing/main_ap.c **** /** Fuel consumption (mAh)
 136:firmwares/fixedwing/main_ap.c ****  * TODO: move to electrical subsystem
 137:firmwares/fixedwing/main_ap.c ****  */
 138:firmwares/fixedwing/main_ap.c **** float energy;
 139:firmwares/fixedwing/main_ap.c **** 
 140:firmwares/fixedwing/main_ap.c **** bool_t gps_lost = FALSE;
 141:firmwares/fixedwing/main_ap.c **** 
 142:firmwares/fixedwing/main_ap.c **** 
 143:firmwares/fixedwing/main_ap.c **** tid_t modules_tid;     ///< id for modules_periodic_task() timer
 144:firmwares/fixedwing/main_ap.c **** tid_t telemetry_tid;   ///< id for telemetry_periodic() timer
 145:firmwares/fixedwing/main_ap.c **** tid_t sensors_tid;     ///< id for sensors_task() timer
 146:firmwares/fixedwing/main_ap.c **** tid_t attitude_tid;    ///< id for attitude_loop() timer
 147:firmwares/fixedwing/main_ap.c **** tid_t navigation_tid;  ///< id for navigation_task() timer
 148:firmwares/fixedwing/main_ap.c **** tid_t monitor_tid;     ///< id for monitor_task() timer
 149:firmwares/fixedwing/main_ap.c **** 
 150:firmwares/fixedwing/main_ap.c **** #ifndef CONTROL_FREQUENCY
 151:firmwares/fixedwing/main_ap.c **** #ifdef  CONTROL_RATE
 152:firmwares/fixedwing/main_ap.c **** #define CONTROL_FREQUENCY CONTROL_RATE
 153:firmwares/fixedwing/main_ap.c **** //#warning "CONTROL_RATE deprecated. Renamed into CONTROL_FREQUENCY (in airframe file)"
 154:firmwares/fixedwing/main_ap.c **** #else
 155:firmwares/fixedwing/main_ap.c **** #define CONTROL_FREQUENCY 20
 156:firmwares/fixedwing/main_ap.c **** #endif
 157:firmwares/fixedwing/main_ap.c **** #endif
 158:firmwares/fixedwing/main_ap.c **** 
 159:firmwares/fixedwing/main_ap.c **** #ifndef NAVIGATION_FREQUENCY
 160:firmwares/fixedwing/main_ap.c **** #define NAVIGATION_FREQUENCY 4
 161:firmwares/fixedwing/main_ap.c **** #endif
 162:firmwares/fixedwing/main_ap.c **** 
 163:firmwares/fixedwing/main_ap.c **** #ifndef MODULES_FREQUENCY
 164:firmwares/fixedwing/main_ap.c **** #define MODULES_FREQUENCY 60
 165:firmwares/fixedwing/main_ap.c **** #endif
 166:firmwares/fixedwing/main_ap.c **** 
 167:firmwares/fixedwing/main_ap.c **** void init_ap( void ) {
  26              		.loc 1 167 0
  27              		.cfi_startproc
  28              		@ args = 0, pretend = 0, frame = 0
  29              		@ frame_needed = 0, uses_anonymous_args = 0
  30 0000 10B5     		push	{r4, lr}
  31              	.LCFI0:
  32              		.cfi_def_cfa_offset 8
  33              		.cfi_offset 14, -4
  34              		.cfi_offset 4, -8
 168:firmwares/fixedwing/main_ap.c **** #ifndef SINGLE_MCU /** init done in main_fbw in single MCU */
 169:firmwares/fixedwing/main_ap.c ****   mcu_init();
 170:firmwares/fixedwing/main_ap.c **** #endif /* SINGLE_MCU */
 171:firmwares/fixedwing/main_ap.c **** 
 172:firmwares/fixedwing/main_ap.c ****   /************* Sensors initialization ***************/
 173:firmwares/fixedwing/main_ap.c **** #if USE_GPS
 174:firmwares/fixedwing/main_ap.c ****   gps_init();
  35              		.loc 1 174 0
  36 0002 FFF7FEFF 		bl	gps_init
 175:firmwares/fixedwing/main_ap.c **** #endif
 176:firmwares/fixedwing/main_ap.c **** 
 177:firmwares/fixedwing/main_ap.c **** #ifdef USE_GPIO
 178:firmwares/fixedwing/main_ap.c ****   GpioInit();
 179:firmwares/fixedwing/main_ap.c **** #endif
 180:firmwares/fixedwing/main_ap.c **** 
 181:firmwares/fixedwing/main_ap.c **** #if USE_IMU
 182:firmwares/fixedwing/main_ap.c ****   imu_init();
  37              		.loc 1 182 0
  38 0006 FFF7FEFF 		bl	imu_init
 183:firmwares/fixedwing/main_ap.c **** #endif
 184:firmwares/fixedwing/main_ap.c **** 
 185:firmwares/fixedwing/main_ap.c **** #if USE_AHRS_ALIGNER
 186:firmwares/fixedwing/main_ap.c ****   ahrs_aligner_init();
  39              		.loc 1 186 0
  40 000a FFF7FEFF 		bl	ahrs_aligner_init
 187:firmwares/fixedwing/main_ap.c **** #endif
 188:firmwares/fixedwing/main_ap.c **** 
 189:firmwares/fixedwing/main_ap.c **** #if USE_AHRS
 190:firmwares/fixedwing/main_ap.c ****   ahrs_init();
  41              		.loc 1 190 0
  42 000e FFF7FEFF 		bl	ahrs_init
 191:firmwares/fixedwing/main_ap.c **** #endif
 192:firmwares/fixedwing/main_ap.c **** 
 193:firmwares/fixedwing/main_ap.c ****   /************* Links initialization ***************/
 194:firmwares/fixedwing/main_ap.c **** #if defined MCU_SPI_LINK
 195:firmwares/fixedwing/main_ap.c ****   link_mcu_init();
 196:firmwares/fixedwing/main_ap.c **** #endif
 197:firmwares/fixedwing/main_ap.c **** #if USE_AUDIO_TELEMETRY
 198:firmwares/fixedwing/main_ap.c ****   audio_telemetry_init();
 199:firmwares/fixedwing/main_ap.c **** #endif
 200:firmwares/fixedwing/main_ap.c **** 
 201:firmwares/fixedwing/main_ap.c ****   /************ Internal status ***************/
 202:firmwares/fixedwing/main_ap.c ****   h_ctl_init();
  43              		.loc 1 202 0
  44 0012 FFF7FEFF 		bl	h_ctl_init
 203:firmwares/fixedwing/main_ap.c ****   v_ctl_init();
  45              		.loc 1 203 0
  46 0016 FFF7FEFF 		bl	v_ctl_init
 204:firmwares/fixedwing/main_ap.c ****   estimator_init();
  47              		.loc 1 204 0
  48 001a FFF7FEFF 		bl	estimator_init
 205:firmwares/fixedwing/main_ap.c **** #ifdef ALT_KALMAN
 206:firmwares/fixedwing/main_ap.c ****   alt_kalman_init();
  49              		.loc 1 206 0
  50 001e FFF7FEFF 		bl	alt_kalman_init
 207:firmwares/fixedwing/main_ap.c **** #endif
 208:firmwares/fixedwing/main_ap.c ****   nav_init();
  51              		.loc 1 208 0
  52 0022 FFF7FEFF 		bl	nav_init
 209:firmwares/fixedwing/main_ap.c **** 
 210:firmwares/fixedwing/main_ap.c ****   modules_init();
 211:firmwares/fixedwing/main_ap.c **** 
 212:firmwares/fixedwing/main_ap.c ****   settings_init();
  53              		.loc 1 212 0
  54 0026 FFF7FEFF 		bl	settings_init
 213:firmwares/fixedwing/main_ap.c **** 
 214:firmwares/fixedwing/main_ap.c ****   /**** start timers for periodic functions *****/
 215:firmwares/fixedwing/main_ap.c ****   sensors_tid = sys_time_register_timer(1./PERIODIC_FREQUENCY, NULL);
  55              		.loc 1 215 0
  56 002a 0021     		movs	r1, #0
  57 002c 1648     		ldr	r0, .L2
  58 002e FFF7FEFF 		bl	sys_time_register_timer
  59 0032 164B     		ldr	r3, .L2+4
 216:firmwares/fixedwing/main_ap.c ****   navigation_tid = sys_time_register_timer(1./NAVIGATION_FREQUENCY, NULL);
  60              		.loc 1 216 0
  61 0034 0021     		movs	r1, #0
 215:firmwares/fixedwing/main_ap.c ****   sensors_tid = sys_time_register_timer(1./PERIODIC_FREQUENCY, NULL);
  62              		.loc 1 215 0
  63 0036 1870     		strb	r0, [r3, #0]
  64              		.loc 1 216 0
  65 0038 4FF07A50 		mov	r0, #1048576000
  66 003c FFF7FEFF 		bl	sys_time_register_timer
 217:firmwares/fixedwing/main_ap.c ****   attitude_tid = sys_time_register_timer(1./CONTROL_FREQUENCY, NULL);
  67              		.loc 1 217 0
  68 0040 134C     		ldr	r4, .L2+8
 216:firmwares/fixedwing/main_ap.c ****   navigation_tid = sys_time_register_timer(1./NAVIGATION_FREQUENCY, NULL);
  69              		.loc 1 216 0
  70 0042 144B     		ldr	r3, .L2+12
  71              		.loc 1 217 0
  72 0044 0021     		movs	r1, #0
 216:firmwares/fixedwing/main_ap.c ****   navigation_tid = sys_time_register_timer(1./NAVIGATION_FREQUENCY, NULL);
  73              		.loc 1 216 0
  74 0046 1870     		strb	r0, [r3, #0]
  75              		.loc 1 217 0
  76 0048 2046     		mov	r0, r4
  77 004a FFF7FEFF 		bl	sys_time_register_timer
  78 004e 124B     		ldr	r3, .L2+16
 218:firmwares/fixedwing/main_ap.c ****   modules_tid = sys_time_register_timer(1./MODULES_FREQUENCY, NULL);
  79              		.loc 1 218 0
  80 0050 0021     		movs	r1, #0
 217:firmwares/fixedwing/main_ap.c ****   attitude_tid = sys_time_register_timer(1./CONTROL_FREQUENCY, NULL);
  81              		.loc 1 217 0
  82 0052 1870     		strb	r0, [r3, #0]
  83              		.loc 1 218 0
  84 0054 2046     		mov	r0, r4
  85 0056 FFF7FEFF 		bl	sys_time_register_timer
  86 005a 104B     		ldr	r3, .L2+20
 219:firmwares/fixedwing/main_ap.c ****   telemetry_tid = sys_time_register_timer(1./60, NULL);
  87              		.loc 1 219 0
  88 005c 0021     		movs	r1, #0
 218:firmwares/fixedwing/main_ap.c ****   modules_tid = sys_time_register_timer(1./MODULES_FREQUENCY, NULL);
  89              		.loc 1 218 0
  90 005e 1870     		strb	r0, [r3, #0]
  91              		.loc 1 219 0
  92 0060 2046     		mov	r0, r4
  93 0062 FFF7FEFF 		bl	sys_time_register_timer
  94 0066 0E4B     		ldr	r3, .L2+24
 220:firmwares/fixedwing/main_ap.c ****   monitor_tid = sys_time_register_timer(1.0, NULL);
  95              		.loc 1 220 0
  96 0068 0021     		movs	r1, #0
 219:firmwares/fixedwing/main_ap.c ****   telemetry_tid = sys_time_register_timer(1./60, NULL);
  97              		.loc 1 219 0
  98 006a 1870     		strb	r0, [r3, #0]
  99              		.loc 1 220 0
 100 006c 4FF07E50 		mov	r0, #1065353216
 101 0070 FFF7FEFF 		bl	sys_time_register_timer
 102 0074 0B4B     		ldr	r3, .L2+28
 221:firmwares/fixedwing/main_ap.c **** 
 222:firmwares/fixedwing/main_ap.c ****   /** - start interrupt task */
 223:firmwares/fixedwing/main_ap.c ****   mcu_int_enable();
 224:firmwares/fixedwing/main_ap.c **** 
 225:firmwares/fixedwing/main_ap.c **** #if defined DATALINK
 226:firmwares/fixedwing/main_ap.c **** #if DATALINK == XBEE
 227:firmwares/fixedwing/main_ap.c ****   xbee_init();
 228:firmwares/fixedwing/main_ap.c **** #endif
 229:firmwares/fixedwing/main_ap.c **** #endif /* DATALINK */
 230:firmwares/fixedwing/main_ap.c **** 
 231:firmwares/fixedwing/main_ap.c **** #if defined AEROCOMM_DATA_PIN
 232:firmwares/fixedwing/main_ap.c ****   IO0DIR |= _BV(AEROCOMM_DATA_PIN);
 233:firmwares/fixedwing/main_ap.c ****   IO0SET = _BV(AEROCOMM_DATA_PIN);
 234:firmwares/fixedwing/main_ap.c **** #endif
 235:firmwares/fixedwing/main_ap.c **** 
 236:firmwares/fixedwing/main_ap.c ****   power_switch = FALSE;
 103              		.loc 1 236 0
 104 0076 0022     		movs	r2, #0
 220:firmwares/fixedwing/main_ap.c ****   monitor_tid = sys_time_register_timer(1.0, NULL);
 105              		.loc 1 220 0
 106 0078 1870     		strb	r0, [r3, #0]
 107              		.loc 1 236 0
 108 007a 0B4B     		ldr	r3, .L2+32
 109 007c 1A70     		strb	r2, [r3, #0]
 237:firmwares/fixedwing/main_ap.c **** 
 238:firmwares/fixedwing/main_ap.c ****   /************ Multi-uavs status ***************/
 239:firmwares/fixedwing/main_ap.c **** 
 240:firmwares/fixedwing/main_ap.c **** #ifdef TRAFFIC_INFO
 241:firmwares/fixedwing/main_ap.c ****   traffic_info_init();
 242:firmwares/fixedwing/main_ap.c **** #endif
 243:firmwares/fixedwing/main_ap.c **** }
 110              		.loc 1 243 0
 111 007e BDE81040 		pop	{r4, lr}
 241:firmwares/fixedwing/main_ap.c ****   traffic_info_init();
 112              		.loc 1 241 0
 113 0082 FFF7FEBF 		b	traffic_info_init
 114              	.L3:
 115 0086 00BF     		.align	2
 116              	.L2:
 117 0088 8988083C 		.word	1007192201
 118 008c 00000000 		.word	.LANCHOR0
 119 0090 8988883C 		.word	1015580809
 120 0094 00000000 		.word	.LANCHOR1
 121 0098 00000000 		.word	.LANCHOR2
 122 009c 00000000 		.word	.LANCHOR3
 123 00a0 00000000 		.word	.LANCHOR4
 124 00a4 00000000 		.word	.LANCHOR5
 125 00a8 00000000 		.word	.LANCHOR6
 126              		.cfi_endproc
 127              	.LFE48:
 129              		.global	__aeabi_i2d
 130              		.global	__aeabi_dmul
 131              		.global	__aeabi_ddiv
 132              		.global	__aeabi_d2iz
 133              		.global	__aeabi_i2f
 134              		.global	__aeabi_fadd
 135              		.global	__aeabi_f2d
 136              		.global	__aeabi_d2uiz
 137              		.global	__aeabi_f2iz
 138              		.global	__aeabi_fmul
 139              		.global	__aeabi_ui2f
 140              		.global	__aeabi_fdiv
 141              		.section	.text.reporting_task,"ax",%progbits
 142              		.align	1
 143              		.global	reporting_task
 144              		.thumb
 145              		.thumb_func
 147              	reporting_task:
 148              	.LFB54:
 244:firmwares/fixedwing/main_ap.c **** 
 245:firmwares/fixedwing/main_ap.c **** 
 246:firmwares/fixedwing/main_ap.c **** void handle_periodic_tasks_ap(void) {
 247:firmwares/fixedwing/main_ap.c **** 
 248:firmwares/fixedwing/main_ap.c ****   if (sys_time_check_and_ack_timer(sensors_tid))
 249:firmwares/fixedwing/main_ap.c ****     sensors_task();
 250:firmwares/fixedwing/main_ap.c **** 
 251:firmwares/fixedwing/main_ap.c ****   if (sys_time_check_and_ack_timer(navigation_tid))
 252:firmwares/fixedwing/main_ap.c ****     navigation_task();
 253:firmwares/fixedwing/main_ap.c **** 
 254:firmwares/fixedwing/main_ap.c **** #ifndef AHRS_TRIGGERED_ATTITUDE_LOOP
 255:firmwares/fixedwing/main_ap.c ****   if (sys_time_check_and_ack_timer(attitude_tid))
 256:firmwares/fixedwing/main_ap.c ****     attitude_loop();
 257:firmwares/fixedwing/main_ap.c **** #endif
 258:firmwares/fixedwing/main_ap.c **** 
 259:firmwares/fixedwing/main_ap.c ****   if (sys_time_check_and_ack_timer(modules_tid))
 260:firmwares/fixedwing/main_ap.c ****     modules_periodic_task();
 261:firmwares/fixedwing/main_ap.c **** 
 262:firmwares/fixedwing/main_ap.c ****   if (sys_time_check_and_ack_timer(monitor_tid))
 263:firmwares/fixedwing/main_ap.c ****     monitor_task();
 264:firmwares/fixedwing/main_ap.c **** 
 265:firmwares/fixedwing/main_ap.c ****   if (sys_time_check_and_ack_timer(telemetry_tid)) {
 266:firmwares/fixedwing/main_ap.c ****     reporting_task();
 267:firmwares/fixedwing/main_ap.c ****     LED_PERIODIC();
 268:firmwares/fixedwing/main_ap.c ****   }
 269:firmwares/fixedwing/main_ap.c **** 
 270:firmwares/fixedwing/main_ap.c **** }
 271:firmwares/fixedwing/main_ap.c **** 
 272:firmwares/fixedwing/main_ap.c **** 
 273:firmwares/fixedwing/main_ap.c **** /******************** Interaction with FBW *****************************/
 274:firmwares/fixedwing/main_ap.c **** 
 275:firmwares/fixedwing/main_ap.c **** /** Update paparazzi mode.
 276:firmwares/fixedwing/main_ap.c ****  */
 277:firmwares/fixedwing/main_ap.c **** #if defined RADIO_CONTROL || defined RADIO_CONTROL_AUTO1
 278:firmwares/fixedwing/main_ap.c **** static inline uint8_t pprz_mode_update( void ) {
 279:firmwares/fixedwing/main_ap.c ****   if ((pprz_mode != PPRZ_MODE_HOME &&
 280:firmwares/fixedwing/main_ap.c ****        pprz_mode != PPRZ_MODE_GPS_OUT_OF_ORDER)
 281:firmwares/fixedwing/main_ap.c **** #ifdef UNLOCKED_HOME_MODE
 282:firmwares/fixedwing/main_ap.c ****       || TRUE
 283:firmwares/fixedwing/main_ap.c **** #endif
 284:firmwares/fixedwing/main_ap.c ****       ) {
 285:firmwares/fixedwing/main_ap.c **** #ifndef RADIO_AUTO_MODE
 286:firmwares/fixedwing/main_ap.c ****     return ModeUpdate(pprz_mode, PPRZ_MODE_OF_PULSE(fbw_state->channels[RADIO_MODE]));
 287:firmwares/fixedwing/main_ap.c **** #else
 288:firmwares/fixedwing/main_ap.c **** #pragma message "Using RADIO_AUTO_MODE to switch between AUTO1 and AUTO2."
 289:firmwares/fixedwing/main_ap.c ****     /* If RADIO_AUTO_MODE is enabled mode swithing will be seperated between two switches/channels
 290:firmwares/fixedwing/main_ap.c ****      * RADIO_MODE will switch between PPRZ_MODE_MANUAL and any PPRZ_MODE_AUTO mode selected by RADI
 291:firmwares/fixedwing/main_ap.c ****      *
 292:firmwares/fixedwing/main_ap.c ****      * This is mainly a cludge for entry level radios with no three-way switch but two available tw
 293:firmwares/fixedwing/main_ap.c ****      */
 294:firmwares/fixedwing/main_ap.c ****     if(PPRZ_MODE_OF_PULSE(fbw_state->channels[RADIO_MODE]) == PPRZ_MODE_MANUAL) {
 295:firmwares/fixedwing/main_ap.c ****       /* RADIO_MODE in MANUAL position */
 296:firmwares/fixedwing/main_ap.c ****       return ModeUpdate(pprz_mode, PPRZ_MODE_MANUAL);
 297:firmwares/fixedwing/main_ap.c ****     } else {
 298:firmwares/fixedwing/main_ap.c ****       /* RADIO_MODE not in MANUAL position.
 299:firmwares/fixedwing/main_ap.c ****        * Select AUTO mode bassed on RADIO_AUTO_MODE channel
 300:firmwares/fixedwing/main_ap.c ****        */
 301:firmwares/fixedwing/main_ap.c ****       return ModeUpdate(pprz_mode, (fbw_state->channels[RADIO_AUTO_MODE] > THRESHOLD2) ? PPRZ_MODE_
 302:firmwares/fixedwing/main_ap.c ****     }
 303:firmwares/fixedwing/main_ap.c **** #endif // RADIO_AUTO_MODE
 304:firmwares/fixedwing/main_ap.c ****   } else
 305:firmwares/fixedwing/main_ap.c ****     return FALSE;
 306:firmwares/fixedwing/main_ap.c **** }
 307:firmwares/fixedwing/main_ap.c **** #else // not RADIO_CONTROL
 308:firmwares/fixedwing/main_ap.c **** static inline uint8_t pprz_mode_update( void ) {
 309:firmwares/fixedwing/main_ap.c ****   return FALSE;
 310:firmwares/fixedwing/main_ap.c **** }
 311:firmwares/fixedwing/main_ap.c **** #endif
 312:firmwares/fixedwing/main_ap.c **** 
 313:firmwares/fixedwing/main_ap.c **** static inline uint8_t mcu1_status_update( void ) {
 314:firmwares/fixedwing/main_ap.c ****   uint8_t new_status = fbw_state->status;
 315:firmwares/fixedwing/main_ap.c ****   if (mcu1_status != new_status) {
 316:firmwares/fixedwing/main_ap.c ****     bool_t changed = ((mcu1_status&MASK_FBW_CHANGED) != (new_status&MASK_FBW_CHANGED));
 317:firmwares/fixedwing/main_ap.c ****     mcu1_status = new_status;
 318:firmwares/fixedwing/main_ap.c ****     return changed;
 319:firmwares/fixedwing/main_ap.c ****   }
 320:firmwares/fixedwing/main_ap.c ****   return FALSE;
 321:firmwares/fixedwing/main_ap.c **** }
 322:firmwares/fixedwing/main_ap.c **** 
 323:firmwares/fixedwing/main_ap.c **** 
 324:firmwares/fixedwing/main_ap.c **** /** Send back uncontrolled channels.
 325:firmwares/fixedwing/main_ap.c ****  */
 326:firmwares/fixedwing/main_ap.c **** static inline void copy_from_to_fbw ( void ) {
 327:firmwares/fixedwing/main_ap.c **** #ifdef SetAutoCommandsFromRC
 328:firmwares/fixedwing/main_ap.c ****   SetAutoCommandsFromRC(ap_state->commands, fbw_state->channels);
 329:firmwares/fixedwing/main_ap.c **** #elif defined RADIO_YAW && defined COMMAND_YAW
 330:firmwares/fixedwing/main_ap.c ****   ap_state->commands[COMMAND_YAW] = fbw_state->channels[RADIO_YAW];
 331:firmwares/fixedwing/main_ap.c **** #endif
 332:firmwares/fixedwing/main_ap.c **** }
 333:firmwares/fixedwing/main_ap.c **** 
 334:firmwares/fixedwing/main_ap.c **** /** mode to enter when RC is lost in PPRZ_MODE_MANUAL or PPRZ_MODE_AUTO1 */
 335:firmwares/fixedwing/main_ap.c **** #ifndef RC_LOST_MODE
 336:firmwares/fixedwing/main_ap.c **** #define RC_LOST_MODE PPRZ_MODE_HOME
 337:firmwares/fixedwing/main_ap.c **** #endif
 338:firmwares/fixedwing/main_ap.c **** 
 339:firmwares/fixedwing/main_ap.c **** /**
 340:firmwares/fixedwing/main_ap.c ****  * Function to be called when a message from FBW is available
 341:firmwares/fixedwing/main_ap.c ****  */
 342:firmwares/fixedwing/main_ap.c **** static inline void telecommand_task( void ) {
 343:firmwares/fixedwing/main_ap.c ****   uint8_t mode_changed = FALSE;
 344:firmwares/fixedwing/main_ap.c ****   copy_from_to_fbw();
 345:firmwares/fixedwing/main_ap.c **** 
 346:firmwares/fixedwing/main_ap.c ****   uint8_t really_lost = bit_is_set(fbw_state->status, STATUS_RADIO_REALLY_LOST) && (pprz_mode == PP
 347:firmwares/fixedwing/main_ap.c ****   if (pprz_mode != PPRZ_MODE_HOME && pprz_mode != PPRZ_MODE_GPS_OUT_OF_ORDER && launch) {
 348:firmwares/fixedwing/main_ap.c ****     if  (too_far_from_home) {
 349:firmwares/fixedwing/main_ap.c ****       pprz_mode = PPRZ_MODE_HOME;
 350:firmwares/fixedwing/main_ap.c ****       mode_changed = TRUE;
 351:firmwares/fixedwing/main_ap.c ****     }
 352:firmwares/fixedwing/main_ap.c ****     if  (really_lost) {
 353:firmwares/fixedwing/main_ap.c ****       pprz_mode = RC_LOST_MODE;
 354:firmwares/fixedwing/main_ap.c ****       mode_changed = TRUE;
 355:firmwares/fixedwing/main_ap.c ****     }
 356:firmwares/fixedwing/main_ap.c ****   }
 357:firmwares/fixedwing/main_ap.c ****   if (bit_is_set(fbw_state->status, AVERAGED_CHANNELS_SENT)) {
 358:firmwares/fixedwing/main_ap.c ****     bool_t pprz_mode_changed = pprz_mode_update();
 359:firmwares/fixedwing/main_ap.c ****     mode_changed |= pprz_mode_changed;
 360:firmwares/fixedwing/main_ap.c **** #if defined RADIO_CALIB && defined RADIO_CONTROL_SETTINGS
 361:firmwares/fixedwing/main_ap.c ****     bool_t calib_mode_changed = RcSettingsModeUpdate(fbw_state->channels);
 362:firmwares/fixedwing/main_ap.c ****     rc_settings(calib_mode_changed || pprz_mode_changed);
 363:firmwares/fixedwing/main_ap.c ****     mode_changed |= calib_mode_changed;
 364:firmwares/fixedwing/main_ap.c **** #endif
 365:firmwares/fixedwing/main_ap.c ****   }
 366:firmwares/fixedwing/main_ap.c ****   mode_changed |= mcu1_status_update();
 367:firmwares/fixedwing/main_ap.c ****   if ( mode_changed )
 368:firmwares/fixedwing/main_ap.c ****     PERIODIC_SEND_PPRZ_MODE(DefaultChannel, DefaultDevice);
 369:firmwares/fixedwing/main_ap.c **** 
 370:firmwares/fixedwing/main_ap.c **** #if defined RADIO_CONTROL || defined RADIO_CONTROL_AUTO1
 371:firmwares/fixedwing/main_ap.c ****   /** In AUTO1 mode, compute roll setpoint and pitch setpoint from
 372:firmwares/fixedwing/main_ap.c ****    * \a RADIO_ROLL and \a RADIO_PITCH \n
 373:firmwares/fixedwing/main_ap.c ****    */
 374:firmwares/fixedwing/main_ap.c ****   if (pprz_mode == PPRZ_MODE_AUTO1) {
 375:firmwares/fixedwing/main_ap.c ****     /** Roll is bounded between [-AUTO1_MAX_ROLL;AUTO1_MAX_ROLL] */
 376:firmwares/fixedwing/main_ap.c ****     h_ctl_roll_setpoint = FLOAT_OF_PPRZ(fbw_state->channels[RADIO_ROLL], 0., AUTO1_MAX_ROLL);
 377:firmwares/fixedwing/main_ap.c **** 
 378:firmwares/fixedwing/main_ap.c ****     /** Pitch is bounded between [-AUTO1_MAX_PITCH;AUTO1_MAX_PITCH] */
 379:firmwares/fixedwing/main_ap.c ****     h_ctl_pitch_setpoint = FLOAT_OF_PPRZ(fbw_state->channels[RADIO_PITCH], 0., AUTO1_MAX_PITCH);
 380:firmwares/fixedwing/main_ap.c ****   } /** Else asynchronously set by \a h_ctl_course_loop() */
 381:firmwares/fixedwing/main_ap.c **** 
 382:firmwares/fixedwing/main_ap.c ****   /** In AUTO1, throttle comes from RADIO_THROTTLE
 383:firmwares/fixedwing/main_ap.c ****       In MANUAL, the value is copied to get it in the telemetry */
 384:firmwares/fixedwing/main_ap.c ****   if (pprz_mode == PPRZ_MODE_MANUAL || pprz_mode == PPRZ_MODE_AUTO1) {
 385:firmwares/fixedwing/main_ap.c ****     v_ctl_throttle_setpoint = fbw_state->channels[RADIO_THROTTLE];
 386:firmwares/fixedwing/main_ap.c ****   }
 387:firmwares/fixedwing/main_ap.c ****   /** else asynchronously set by v_ctl_climb_loop(); */
 388:firmwares/fixedwing/main_ap.c **** 
 389:firmwares/fixedwing/main_ap.c ****   mcu1_ppm_cpt = fbw_state->ppm_cpt;
 390:firmwares/fixedwing/main_ap.c **** #endif // RADIO_CONTROL
 391:firmwares/fixedwing/main_ap.c **** 
 392:firmwares/fixedwing/main_ap.c **** 
 393:firmwares/fixedwing/main_ap.c ****   vsupply = fbw_state->vsupply;
 394:firmwares/fixedwing/main_ap.c ****   current = fbw_state->current;
 395:firmwares/fixedwing/main_ap.c **** 
 396:firmwares/fixedwing/main_ap.c **** #ifdef RADIO_CONTROL
 397:firmwares/fixedwing/main_ap.c ****   if (!estimator_flight_time) {
 398:firmwares/fixedwing/main_ap.c ****     if (pprz_mode == PPRZ_MODE_AUTO2 && fbw_state->channels[RADIO_THROTTLE] > THROTTLE_THRESHOLD_TA
 399:firmwares/fixedwing/main_ap.c ****       launch = TRUE;
 400:firmwares/fixedwing/main_ap.c ****     }
 401:firmwares/fixedwing/main_ap.c ****   }
 402:firmwares/fixedwing/main_ap.c **** #endif
 403:firmwares/fixedwing/main_ap.c **** }
 404:firmwares/fixedwing/main_ap.c **** 
 405:firmwares/fixedwing/main_ap.c **** 
 406:firmwares/fixedwing/main_ap.c **** /**************************** Periodic tasks ***********************************/
 407:firmwares/fixedwing/main_ap.c **** 
 408:firmwares/fixedwing/main_ap.c **** /**
 409:firmwares/fixedwing/main_ap.c ****  * Send a series of initialisation messages followed by a stream of periodic ones.
 410:firmwares/fixedwing/main_ap.c ****  * Called at 60Hz.
 411:firmwares/fixedwing/main_ap.c ****  */
 412:firmwares/fixedwing/main_ap.c **** void reporting_task( void ) {
 149              		.loc 1 412 0
 150              		.cfi_startproc
 151              		@ args = 0, pretend = 0, frame = 32
 152              		@ frame_needed = 0, uses_anonymous_args = 0
 153 0000 2DE9F041 		push	{r4, r5, r6, r7, r8, lr}
 154              	.LCFI1:
 155              		.cfi_def_cfa_offset 24
 156              		.cfi_offset 14, -4
 157              		.cfi_offset 8, -8
 158              		.cfi_offset 7, -12
 159              		.cfi_offset 6, -16
 160              		.cfi_offset 5, -20
 161              		.cfi_offset 4, -24
 413:firmwares/fixedwing/main_ap.c ****   static uint8_t boot = TRUE;
 414:firmwares/fixedwing/main_ap.c **** 
 415:firmwares/fixedwing/main_ap.c ****   /** initialisation phase during boot */
 416:firmwares/fixedwing/main_ap.c ****   if (boot) {
 162              		.loc 1 416 0
 163 0004 2B4B     		ldr	r3, .L228
 412:firmwares/fixedwing/main_ap.c **** void reporting_task( void ) {
 164              		.loc 1 412 0
 165 0006 88B0     		sub	sp, sp, #32
 166              	.LCFI2:
 167              		.cfi_def_cfa_offset 56
 168              		.loc 1 416 0
 169 0008 1B78     		ldrb	r3, [r3, #0]	@ zero_extendqisi2
 170 000a 002B     		cmp	r3, #0
 171 000c 62D0     		beq	.L5
 417:firmwares/fixedwing/main_ap.c ****     DOWNLINK_SEND_BOOT(DefaultChannel, DefaultDevice, &version);
 172              		.loc 1 417 0
 173 000e 2A48     		ldr	r0, .L228+4
 174 0010 0821     		movs	r1, #8
 175 0012 FFF7FEFF 		bl	uart_check_free_space
 176 0016 0028     		cmp	r0, #0
 177 0018 44D0     		beq	.L6
 178              		.loc 1 417 0 is_stmt 0 discriminator 1
 179 001a 284B     		ldr	r3, .L228+8
 180              	.LBB105:
 181 001c 9921     		movs	r1, #153
 182              	.LBE105:
 183 001e 1A88     		ldrh	r2, [r3, #0]
 184              	.LBB106:
 185 0020 2548     		ldr	r0, .L228+4
 186              	.LBE106:
 187 0022 0832     		adds	r2, r2, #8
 188 0024 1A80     		strh	r2, [r3, #0]	@ movhi
 189 0026 264B     		ldr	r3, .L228+12
 190 0028 264D     		ldr	r5, .L228+16
 191 002a 1A88     		ldrh	r2, [r3, #0]
 192 002c 264C     		ldr	r4, .L228+20
 193 002e 0132     		adds	r2, r2, #1
 194 0030 1A80     		strh	r2, [r3, #0]	@ movhi
 195              	.LBB107:
 196 0032 FFF7FEFF 		bl	uart_transmit
 197              	.LVL0:
 198 0036 0821     		movs	r1, #8
 199 0038 1F48     		ldr	r0, .L228+4
 200 003a FFF7FEFF 		bl	uart_transmit
 201              	.LBE107:
 202 003e 0923     		movs	r3, #9
 203 0040 2B70     		strb	r3, [r5, #0]
 204 0042 1123     		movs	r3, #17
 205 0044 2370     		strb	r3, [r4, #0]
 206 0046 0121     		movs	r1, #1
 207 0048 1B48     		ldr	r0, .L228+4
 208 004a FFF7FEFF 		bl	uart_transmit
 209 004e 2B78     		ldrb	r3, [r5, #0]	@ zero_extendqisi2
 210 0050 2278     		ldrb	r2, [r4, #0]	@ zero_extendqisi2
 211 0052 0133     		adds	r3, r3, #1
 212 0054 DBB2     		uxtb	r3, r3
 213              	.LVL1:
 214 0056 2B70     		strb	r3, [r5, #0]
 215              	.LBB108:
 216 0058 1C4E     		ldr	r6, .L228+24
 217              	.LBE108:
 218 005a 9B18     		adds	r3, r3, r2
 219              	.LVL2:
 220 005c 2370     		strb	r3, [r4, #0]
 221 005e 0121     		movs	r1, #1
 222 0060 1548     		ldr	r0, .L228+4
 223 0062 FFF7FEFF 		bl	uart_transmit
 224              	.LBB109:
 225 0066 3178     		ldrb	r1, [r6, #0]	@ zero_extendqisi2
 226              	.LVL3:
 227 0068 2B78     		ldrb	r3, [r5, #0]	@ zero_extendqisi2
 228 006a 2278     		ldrb	r2, [r4, #0]	@ zero_extendqisi2
 229 006c CB18     		adds	r3, r1, r3
 230 006e DBB2     		uxtb	r3, r3
 231              	.LVL4:
 232 0070 2B70     		strb	r3, [r5, #0]
 233 0072 9B18     		adds	r3, r3, r2
 234              	.LVL5:
 235 0074 2370     		strb	r3, [r4, #0]
 236 0076 1048     		ldr	r0, .L228+4
 237 0078 FFF7FEFF 		bl	uart_transmit
 238              	.LVL6:
 239              	.LBE109:
 240              	.LBB110:
 241 007c 7178     		ldrb	r1, [r6, #1]	@ zero_extendqisi2
 242              	.LVL7:
 243 007e 2B78     		ldrb	r3, [r5, #0]	@ zero_extendqisi2
 244 0080 2278     		ldrb	r2, [r4, #0]	@ zero_extendqisi2
 245 0082 CB18     		adds	r3, r1, r3
 246 0084 DBB2     		uxtb	r3, r3
 247              	.LVL8:
 248 0086 2B70     		strb	r3, [r5, #0]
 249 0088 9B18     		adds	r3, r3, r2
 250              	.LVL9:
 251 008a 2370     		strb	r3, [r4, #0]
 252 008c 0A48     		ldr	r0, .L228+4
 253 008e FFF7FEFF 		bl	uart_transmit
 254              	.LVL10:
 255              	.LBE110:
 256 0092 2978     		ldrb	r1, [r5, #0]	@ zero_extendqisi2
 257 0094 0848     		ldr	r0, .L228+4
 258 0096 FFF7FEFF 		bl	uart_transmit
 259 009a 0748     		ldr	r0, .L228+4
 260 009c 2178     		ldrb	r1, [r4, #0]	@ zero_extendqisi2
 261 009e FFF7FEFF 		bl	uart_transmit
 262 00a2 03E0     		b	.L7
 263              	.LVL11:
 264              	.L6:
 265              		.loc 1 417 0 discriminator 2
 266 00a4 0A4B     		ldr	r3, .L228+28
 267 00a6 1A78     		ldrb	r2, [r3, #0]	@ zero_extendqisi2
 268 00a8 0132     		adds	r2, r2, #1
 269 00aa 1A70     		strb	r2, [r3, #0]
 270              	.L7:
 418:firmwares/fixedwing/main_ap.c ****     boot = FALSE;
 271              		.loc 1 418 0 is_stmt 1
 272 00ac 0022     		movs	r2, #0
 273 00ae 014B     		ldr	r3, .L228
 274 00b0 05F001BF 		b	.L223
 275              	.L229:
 276              		.align	2
 277              	.L228:
 278 00b4 00000000 		.word	.LANCHOR7
 279 00b8 00000000 		.word	uart2
 280 00bc 00000000 		.word	downlink_nb_bytes
 281 00c0 00000000 		.word	downlink_nb_msgs
 282 00c4 00000000 		.word	ck_a
 283 00c8 00000000 		.word	ck_b
 284 00cc 00000000 		.word	.LANCHOR8
 285 00d0 00000000 		.word	downlink_nb_ovrn
 286              	.L5:
 419:firmwares/fixedwing/main_ap.c ****   }
 420:firmwares/fixedwing/main_ap.c ****   /** then report periodicly */
 421:firmwares/fixedwing/main_ap.c ****   else {
 422:firmwares/fixedwing/main_ap.c ****     PeriodicSendAp(DefaultChannel, DefaultDevice);
 287              		.loc 1 422 0
 288 00d4 A24B     		ldr	r3, .L230+16
 289 00d6 1A78     		ldrb	r2, [r3, #0]	@ zero_extendqisi2
 290 00d8 002A     		cmp	r2, #0
 291 00da 42F0BD82 		bne	.L9
 292              	.LBB111:
 293              		.loc 1 422 0 is_stmt 0 discriminator 1
 294 00de A14B     		ldr	r3, .L230+20
 295 00e0 1978     		ldrb	r1, [r3, #0]	@ zero_extendqisi2
 296 00e2 0131     		adds	r1, r1, #1
 297 00e4 C9B2     		uxtb	r1, r1
 298 00e6 0E29     		cmp	r1, #14
 299 00e8 1970     		strb	r1, [r3, #0]
 300 00ea 88BF     		it	hi
 301 00ec 1A70     		strbhi	r2, [r3, #0]
 302 00ee 9E4B     		ldr	r3, .L230+24
 303 00f0 1A78     		ldrb	r2, [r3, #0]	@ zero_extendqisi2
 304 00f2 0132     		adds	r2, r2, #1
 305 00f4 D2B2     		uxtb	r2, r2
 306 00f6 1D2A     		cmp	r2, #29
 307 00f8 1A70     		strb	r2, [r3, #0]
 308 00fa 01D9     		bls	.L11
 309              		.loc 1 422 0 discriminator 5
 310 00fc 0022     		movs	r2, #0
 311 00fe 1A70     		strb	r2, [r3, #0]
 312              	.L11:
 313              		.loc 1 422 0 discriminator 6
 314 0100 9A4B     		ldr	r3, .L230+28
 315 0102 1A78     		ldrb	r2, [r3, #0]	@ zero_extendqisi2
 316 0104 0132     		adds	r2, r2, #1
 317 0106 D2B2     		uxtb	r2, r2
 318 0108 3B2A     		cmp	r2, #59
 319 010a 1A70     		strb	r2, [r3, #0]
 320 010c 01D9     		bls	.L12
 321              		.loc 1 422 0 discriminator 7
 322 010e 0022     		movs	r2, #0
 323 0110 1A70     		strb	r2, [r3, #0]
 324              	.L12:
 325              		.loc 1 422 0 discriminator 8
 326 0112 974B     		ldr	r3, .L230+32
 327 0114 1A78     		ldrb	r2, [r3, #0]	@ zero_extendqisi2
 328 0116 0132     		adds	r2, r2, #1
 329 0118 D2B2     		uxtb	r2, r2
 330 011a 3E2A     		cmp	r2, #62
 331 011c 1A70     		strb	r2, [r3, #0]
 332 011e 01D9     		bls	.L13
 333              		.loc 1 422 0 discriminator 9
 334 0120 0022     		movs	r2, #0
 335 0122 1A70     		strb	r2, [r3, #0]
 336              	.L13:
 337              		.loc 1 422 0 discriminator 10
 338 0124 934B     		ldr	r3, .L230+36
 339 0126 1A78     		ldrb	r2, [r3, #0]	@ zero_extendqisi2
 340 0128 0132     		adds	r2, r2, #1
 341 012a D2B2     		uxtb	r2, r2
 342 012c 412A     		cmp	r2, #65
 343 012e 1A70     		strb	r2, [r3, #0]
 344 0130 01D9     		bls	.L14
 345              		.loc 1 422 0 discriminator 11
 346 0132 0022     		movs	r2, #0
 347 0134 1A70     		strb	r2, [r3, #0]
 348              	.L14:
 349              		.loc 1 422 0 discriminator 12
 350 0136 904B     		ldr	r3, .L230+40
 351 0138 1A78     		ldrb	r2, [r3, #0]	@ zero_extendqisi2
 352 013a 0132     		adds	r2, r2, #1
 353 013c D2B2     		uxtb	r2, r2
 354 013e 472A     		cmp	r2, #71
 355 0140 1A70     		strb	r2, [r3, #0]
 356 0142 01D9     		bls	.L15
 357              		.loc 1 422 0 discriminator 13
 358 0144 0022     		movs	r2, #0
 359 0146 1A70     		strb	r2, [r3, #0]
 360              	.L15:
 361              		.loc 1 422 0 discriminator 14
 362 0148 8C4B     		ldr	r3, .L230+44
 363 014a 1A78     		ldrb	r2, [r3, #0]	@ zero_extendqisi2
 364 014c 0132     		adds	r2, r2, #1
 365 014e D2B2     		uxtb	r2, r2
 366 0150 592A     		cmp	r2, #89
 367 0152 1A70     		strb	r2, [r3, #0]
 368 0154 01D9     		bls	.L16
 369              		.loc 1 422 0 discriminator 15
 370 0156 0022     		movs	r2, #0
 371 0158 1A70     		strb	r2, [r3, #0]
 372              	.L16:
 373              		.loc 1 422 0 discriminator 16
 374 015a 894B     		ldr	r3, .L230+48
 375 015c 1A78     		ldrb	r2, [r3, #0]	@ zero_extendqisi2
 376 015e 0132     		adds	r2, r2, #1
 377 0160 D2B2     		uxtb	r2, r2
 378 0162 772A     		cmp	r2, #119
 379 0164 1A70     		strb	r2, [r3, #0]
 380 0166 01D9     		bls	.L17
 381              		.loc 1 422 0 discriminator 17
 382 0168 0022     		movs	r2, #0
 383 016a 1A70     		strb	r2, [r3, #0]
 384              	.L17:
 385              		.loc 1 422 0 discriminator 18
 386 016c 854B     		ldr	r3, .L230+52
 387 016e 1A78     		ldrb	r2, [r3, #0]	@ zero_extendqisi2
 388 0170 0132     		adds	r2, r2, #1
 389 0172 D2B2     		uxtb	r2, r2
 390 0174 7D2A     		cmp	r2, #125
 391 0176 1A70     		strb	r2, [r3, #0]
 392 0178 01D9     		bls	.L18
 393              		.loc 1 422 0 discriminator 19
 394 017a 0022     		movs	r2, #0
 395 017c 1A70     		strb	r2, [r3, #0]
 396              	.L18:
 397              		.loc 1 422 0 discriminator 20
 398 017e 824B     		ldr	r3, .L230+56
 399 0180 1A78     		ldrb	r2, [r3, #0]	@ zero_extendqisi2
 400 0182 0132     		adds	r2, r2, #1
 401 0184 D2B2     		uxtb	r2, r2
 402 0186 952A     		cmp	r2, #149
 403 0188 1A70     		strb	r2, [r3, #0]
 404 018a 01D9     		bls	.L19
 405              		.loc 1 422 0 discriminator 21
 406 018c 0022     		movs	r2, #0
 407 018e 1A70     		strb	r2, [r3, #0]
 408              	.L19:
 409              		.loc 1 422 0 discriminator 22
 410 0190 7E4B     		ldr	r3, .L230+60
 411 0192 1A88     		ldrh	r2, [r3, #0]
 412 0194 0132     		adds	r2, r2, #1
 413 0196 92B2     		uxth	r2, r2
 414 0198 B2F5967F 		cmp	r2, #300
 415 019c 1A80     		strh	r2, [r3, #0]	@ movhi
 416 019e 01D3     		bcc	.L20
 417              		.loc 1 422 0 discriminator 23
 418 01a0 0022     		movs	r2, #0
 419 01a2 1A80     		strh	r2, [r3, #0]	@ movhi
 420              	.L20:
 421              		.loc 1 422 0 discriminator 24
 422 01a4 7A4B     		ldr	r3, .L230+64
 423 01a6 1A88     		ldrh	r2, [r3, #0]
 424 01a8 0132     		adds	r2, r2, #1
 425 01aa 92B2     		uxth	r2, r2
 426 01ac B2F5997F 		cmp	r2, #306
 427 01b0 1A80     		strh	r2, [r3, #0]	@ movhi
 428 01b2 01D3     		bcc	.L21
 429              		.loc 1 422 0 discriminator 25
 430 01b4 0022     		movs	r2, #0
 431 01b6 1A80     		strh	r2, [r3, #0]	@ movhi
 432              	.L21:
 433              		.loc 1 422 0 discriminator 26
 434 01b8 764B     		ldr	r3, .L230+68
 435 01ba 1A88     		ldrh	r2, [r3, #0]
 436 01bc 0132     		adds	r2, r2, #1
 437 01be 92B2     		uxth	r2, r2
 438 01c0 B2F5077F 		cmp	r2, #540
 439 01c4 1A80     		strh	r2, [r3, #0]	@ movhi
 440 01c6 01D3     		bcc	.L22
 441              		.loc 1 422 0 discriminator 27
 442 01c8 0022     		movs	r2, #0
 443 01ca 1A80     		strh	r2, [r3, #0]	@ movhi
 444              	.L22:
 445              		.loc 1 422 0 discriminator 28
 446 01cc 654B     		ldr	r3, .L230+20
 447 01ce 1B78     		ldrb	r3, [r3, #0]	@ zero_extendqisi2
 448 01d0 002B     		cmp	r3, #0
 449 01d2 40F0A582 		bne	.L23
 450              	.LBB112:
 451              		.loc 1 422 0 discriminator 29
 452 01d6 704C     		ldr	r4, .L230+72
 453 01d8 236C     		ldr	r3, [r4, #64]
 454 01da A06C     		ldr	r0, [r4, #72]
 455 01dc 5B42     		negs	r3, r3
 456 01de ADF81C30 		strh	r3, [sp, #28]	@ movhi
 457              	.LVL12:
 458 01e2 FFF7FEFF 		bl	__aeabi_i2d
 459 01e6 5AA3     		adr	r3, .L230
 460 01e8 D3E90023 		ldrd	r2, [r3]
 461 01ec FFF7FEFF 		bl	__aeabi_dmul
 462 01f0 59A3     		adr	r3, .L230+8
 463 01f2 D3E90023 		ldrd	r2, [r3]
 464 01f6 FFF7FEFF 		bl	__aeabi_ddiv
 465 01fa FFF7FEFF 		bl	__aeabi_d2iz
 466 01fe 2121     		movs	r1, #33
 467 0200 ADF81E00 		strh	r0, [sp, #30]	@ movhi
 468              	.LVL13:
 469 0204 6548     		ldr	r0, .L230+76
 470 0206 FFF7FEFF 		bl	uart_check_free_space
 471 020a 0028     		cmp	r0, #0
 472 020c 00F0A081 		beq	.L24
 473              		.loc 1 422 0 discriminator 31
 474 0210 634B     		ldr	r3, .L230+80
 475              	.LBB113:
 476 0212 9921     		movs	r1, #153
 477              	.LBE113:
 478 0214 1A88     		ldrh	r2, [r3, #0]
 479              	.LBB114:
 480 0216 6148     		ldr	r0, .L230+76
 481              	.LBE114:
 482 0218 2132     		adds	r2, r2, #33
 483 021a 1A80     		strh	r2, [r3, #0]	@ movhi
 484 021c 614B     		ldr	r3, .L230+84
 485 021e 624E     		ldr	r6, .L230+88
 486 0220 1A88     		ldrh	r2, [r3, #0]
 487 0222 624D     		ldr	r5, .L230+92
 488 0224 0132     		adds	r2, r2, #1
 489 0226 1A80     		strh	r2, [r3, #0]	@ movhi
 490              	.LBB115:
 491 0228 FFF7FEFF 		bl	uart_transmit
 492              	.LVL14:
 493 022c 2121     		movs	r1, #33
 494 022e 5B48     		ldr	r0, .L230+76
 495 0230 FFF7FEFF 		bl	uart_transmit
 496              	.LBE115:
 497 0234 2223     		movs	r3, #34
 498 0236 3370     		strb	r3, [r6, #0]
 499 0238 4323     		movs	r3, #67
 500 023a 2B70     		strb	r3, [r5, #0]
 501 023c 0121     		movs	r1, #1
 502 023e 5748     		ldr	r0, .L230+76
 503 0240 FFF7FEFF 		bl	uart_transmit
 504 0244 3378     		ldrb	r3, [r6, #0]	@ zero_extendqisi2
 505 0246 2A78     		ldrb	r2, [r5, #0]	@ zero_extendqisi2
 506 0248 0833     		adds	r3, r3, #8
 507 024a DBB2     		uxtb	r3, r3
 508 024c 3370     		strb	r3, [r6, #0]
 509 024e 9B18     		adds	r3, r3, r2
 510 0250 2B70     		strb	r3, [r5, #0]
 511 0252 0821     		movs	r1, #8
 512 0254 5148     		ldr	r0, .L230+76
 513 0256 FFF7FEFF 		bl	uart_transmit
 514              	.LBB116:
 515 025a 94F85B10 		ldrb	r1, [r4, #91]	@ zero_extendqisi2
 516              	.LVL15:
 517 025e 3378     		ldrb	r3, [r6, #0]	@ zero_extendqisi2
 518 0260 2A78     		ldrb	r2, [r5, #0]	@ zero_extendqisi2
 519 0262 CB18     		adds	r3, r1, r3
 520 0264 DBB2     		uxtb	r3, r3
 521              	.LVL16:
 522 0266 3370     		strb	r3, [r6, #0]
 523 0268 9B18     		adds	r3, r3, r2
 524              	.LVL17:
 525 026a 2B70     		strb	r3, [r5, #0]
 526 026c 4B48     		ldr	r0, .L230+76
 527 026e FFF7FEFF 		bl	uart_transmit
 528              	.LVL18:
 529              	.LBE116:
 530              	.LBB117:
 531 0272 217F     		ldrb	r1, [r4, #28]	@ zero_extendqisi2
 532              	.LVL19:
 533 0274 3378     		ldrb	r3, [r6, #0]	@ zero_extendqisi2
 534 0276 2A78     		ldrb	r2, [r5, #0]	@ zero_extendqisi2
 535 0278 CB18     		adds	r3, r1, r3
 536 027a DBB2     		uxtb	r3, r3
 537              	.LVL20:
 538 027c 3370     		strb	r3, [r6, #0]
 539 027e 9B18     		adds	r3, r3, r2
 540              	.LVL21:
 541 0280 2B70     		strb	r3, [r5, #0]
 542 0282 4648     		ldr	r0, .L230+76
 543 0284 FFF7FEFF 		bl	uart_transmit
 544              	.LVL22:
 545              	.LBE117:
 546              	.LBB118:
 547 0288 617F     		ldrb	r1, [r4, #29]	@ zero_extendqisi2
 548              	.LVL23:
 549 028a 3378     		ldrb	r3, [r6, #0]	@ zero_extendqisi2
 550 028c 2A78     		ldrb	r2, [r5, #0]	@ zero_extendqisi2
 551 028e CB18     		adds	r3, r1, r3
 552 0290 DBB2     		uxtb	r3, r3
 553              	.LVL24:
 554 0292 3370     		strb	r3, [r6, #0]
 555 0294 9B18     		adds	r3, r3, r2
 556              	.LVL25:
 557 0296 2B70     		strb	r3, [r5, #0]
 558 0298 4048     		ldr	r0, .L230+76
 559 029a FFF7FEFF 		bl	uart_transmit
 560              	.LVL26:
 561              	.LBE118:
 562              	.LBB119:
 563 029e A17F     		ldrb	r1, [r4, #30]	@ zero_extendqisi2
 564              	.LVL27:
 565 02a0 3378     		ldrb	r3, [r6, #0]	@ zero_extendqisi2
 566 02a2 2A78     		ldrb	r2, [r5, #0]	@ zero_extendqisi2
 567 02a4 CB18     		adds	r3, r1, r3
 568 02a6 DBB2     		uxtb	r3, r3
 569              	.LVL28:
 570 02a8 3370     		strb	r3, [r6, #0]
 571 02aa 9B18     		adds	r3, r3, r2
 572              	.LVL29:
 573 02ac 2B70     		strb	r3, [r5, #0]
 574 02ae 3B48     		ldr	r0, .L230+76
 575 02b0 FFF7FEFF 		bl	uart_transmit
 576              	.LVL30:
 577              	.LBE119:
 578              	.LBB120:
 579 02b4 E17F     		ldrb	r1, [r4, #31]	@ zero_extendqisi2
 580              	.LVL31:
 581 02b6 3378     		ldrb	r3, [r6, #0]	@ zero_extendqisi2
 582 02b8 2A78     		ldrb	r2, [r5, #0]	@ zero_extendqisi2
 583 02ba CB18     		adds	r3, r1, r3
 584 02bc DBB2     		uxtb	r3, r3
 585              	.LVL32:
 586 02be 3370     		strb	r3, [r6, #0]
 587 02c0 9B18     		adds	r3, r3, r2
 588              	.LVL33:
 589 02c2 2B70     		strb	r3, [r5, #0]
 590 02c4 3548     		ldr	r0, .L230+76
 591 02c6 FFF7FEFF 		bl	uart_transmit
 592              	.LVL34:
 593              	.LBE120:
 594              	.LBB121:
 595 02ca 217E     		ldrb	r1, [r4, #24]	@ zero_extendqisi2
 596              	.LVL35:
 597 02cc 3378     		ldrb	r3, [r6, #0]	@ zero_extendqisi2
 598 02ce 2A78     		ldrb	r2, [r5, #0]	@ zero_extendqisi2
 599 02d0 CB18     		adds	r3, r1, r3
 600 02d2 DBB2     		uxtb	r3, r3
 601              	.LVL36:
 602 02d4 3370     		strb	r3, [r6, #0]
 603 02d6 9B18     		adds	r3, r3, r2
 604              	.LVL37:
 605 02d8 2B70     		strb	r3, [r5, #0]
 606 02da 3048     		ldr	r0, .L230+76
 607 02dc FFF7FEFF 		bl	uart_transmit
 608              	.LVL38:
 609              	.LBE121:
 610              	.LBB122:
 611 02e0 617E     		ldrb	r1, [r4, #25]	@ zero_extendqisi2
 612              	.LVL39:
 613 02e2 3378     		ldrb	r3, [r6, #0]	@ zero_extendqisi2
 614 02e4 2A78     		ldrb	r2, [r5, #0]	@ zero_extendqisi2
 615 02e6 CB18     		adds	r3, r1, r3
 616 02e8 DBB2     		uxtb	r3, r3
 617              	.LVL40:
 618 02ea 3370     		strb	r3, [r6, #0]
 619 02ec 9B18     		adds	r3, r3, r2
 620              	.LVL41:
 621 02ee 2B70     		strb	r3, [r5, #0]
 622 02f0 2A48     		ldr	r0, .L230+76
 623 02f2 FFF7FEFF 		bl	uart_transmit
 624              	.LVL42:
 625              	.LBE122:
 626              	.LBB123:
 627 02f6 A17E     		ldrb	r1, [r4, #26]	@ zero_extendqisi2
 628              	.LVL43:
 629 02f8 3378     		ldrb	r3, [r6, #0]	@ zero_extendqisi2
 630 02fa 2A78     		ldrb	r2, [r5, #0]	@ zero_extendqisi2
 631 02fc CB18     		adds	r3, r1, r3
 632 02fe DBB2     		uxtb	r3, r3
 633              	.LVL44:
 634 0300 3370     		strb	r3, [r6, #0]
 635 0302 9B18     		adds	r3, r3, r2
 636              	.LVL45:
 637 0304 2B70     		strb	r3, [r5, #0]
 638 0306 2548     		ldr	r0, .L230+76
 639 0308 FFF7FEFF 		bl	uart_transmit
 640              	.LVL46:
 641              	.LBE123:
 642              	.LBB124:
 643 030c E17E     		ldrb	r1, [r4, #27]	@ zero_extendqisi2
 644              	.LVL47:
 645 030e 3378     		ldrb	r3, [r6, #0]	@ zero_extendqisi2
 646 0310 2A78     		ldrb	r2, [r5, #0]	@ zero_extendqisi2
 647 0312 CB18     		adds	r3, r1, r3
 648 0314 DBB2     		uxtb	r3, r3
 649              	.LVL48:
 650 0316 3370     		strb	r3, [r6, #0]
 651 0318 9B18     		adds	r3, r3, r2
 652              	.LVL49:
 653 031a 2B70     		strb	r3, [r5, #0]
 654 031c 1F48     		ldr	r0, .L230+76
 655 031e FFF7FEFF 		bl	uart_transmit
 656              	.LVL50:
 657              	.LBE124:
 658              	.LBB125:
 659 0322 9DF81E10 		ldrb	r1, [sp, #30]	@ zero_extendqisi2
 660              	.LVL51:
 661 0326 3378     		ldrb	r3, [r6, #0]	@ zero_extendqisi2
 662 0328 2A78     		ldrb	r2, [r5, #0]	@ zero_extendqisi2
 663 032a CB18     		adds	r3, r1, r3
 664 032c DBB2     		uxtb	r3, r3
 665              	.LVL52:
 666 032e 3370     		strb	r3, [r6, #0]
 667 0330 9B18     		adds	r3, r3, r2
 668              	.LVL53:
 669 0332 2B70     		strb	r3, [r5, #0]
 670 0334 1948     		ldr	r0, .L230+76
 671 0336 FFF7FEFF 		bl	uart_transmit
 672              	.LVL54:
 673              	.LBE125:
 674              	.LBB126:
 675 033a 9DF81F10 		ldrb	r1, [sp, #31]	@ zero_extendqisi2
 676              	.LVL55:
 677 033e 3378     		ldrb	r3, [r6, #0]	@ zero_extendqisi2
 678 0340 2A78     		ldrb	r2, [r5, #0]	@ zero_extendqisi2
 679 0342 CB18     		adds	r3, r1, r3
 680 0344 DBB2     		uxtb	r3, r3
 681              	.LVL56:
 682 0346 3370     		strb	r3, [r6, #0]
 683 0348 9B18     		adds	r3, r3, r2
 684              	.LVL57:
 685 034a 2B70     		strb	r3, [r5, #0]
 686 034c 30E0     		b	.L231
 687              	.L232:
 688 034e 00BF     		.align	3
 689              	.L230:
 690 0350 F8C1631A 		.word	442745336
 691 0354 DCA54C40 		.word	1078765020
 692 0358 00000000 		.word	0
 693 035c 80842E41 		.word	1093567616
 694 0360 00000000 		.word	telemetry_mode_Ap
 695 0364 00000000 		.word	.LANCHOR9
 696 0368 00000000 		.word	.LANCHOR10
 697 036c 00000000 		.word	.LANCHOR11
 698 0370 00000000 		.word	.LANCHOR12
 699 0374 00000000 		.word	.LANCHOR13
 700 0378 00000000 		.word	.LANCHOR14
 701 037c 00000000 		.word	.LANCHOR15
 702 0380 00000000 		.word	.LANCHOR16
 703 0384 00000000 		.word	.LANCHOR17
 704 0388 00000000 		.word	.LANCHOR18
 705 038c 00000000 		.word	.LANCHOR19
 706 0390 00000000 		.word	.LANCHOR20
 707 0394 00000000 		.word	.LANCHOR21
 708 0398 00000000 		.word	gps
 709 039c 00000000 		.word	uart2
 710 03a0 00000000 		.word	downlink_nb_bytes
 711 03a4 00000000 		.word	downlink_nb_msgs
 712 03a8 00000000 		.word	ck_a
 713 03ac 00000000 		.word	ck_b
 714              	.L231:
 715 03b0 6548     		ldr	r0, .L233
 716 03b2 FFF7FEFF 		bl	uart_transmit
 717              	.LVL58:
 718              	.LBE126:
 719              	.LBB127:
 720 03b6 94F82810 		ldrb	r1, [r4, #40]	@ zero_extendqisi2
 721              	.LVL59:
 722 03ba 3378     		ldrb	r3, [r6, #0]	@ zero_extendqisi2
 723 03bc 2A78     		ldrb	r2, [r5, #0]	@ zero_extendqisi2
 724 03be CB18     		adds	r3, r1, r3
 725 03c0 DBB2     		uxtb	r3, r3
 726              	.LVL60:
 727 03c2 3370     		strb	r3, [r6, #0]
 728 03c4 9B18     		adds	r3, r3, r2
 729              	.LVL61:
 730 03c6 2B70     		strb	r3, [r5, #0]
 731 03c8 5F48     		ldr	r0, .L233
 732 03ca FFF7FEFF 		bl	uart_transmit
 733              	.LVL62:
 734              	.LBE127:
 735              	.LBB128:
 736 03ce 94F82910 		ldrb	r1, [r4, #41]	@ zero_extendqisi2
 737              	.LVL63:
 738 03d2 3378     		ldrb	r3, [r6, #0]	@ zero_extendqisi2
 739 03d4 2A78     		ldrb	r2, [r5, #0]	@ zero_extendqisi2
 740 03d6 CB18     		adds	r3, r1, r3
 741 03d8 DBB2     		uxtb	r3, r3
 742              	.LVL64:
 743 03da 3370     		strb	r3, [r6, #0]
 744 03dc 9B18     		adds	r3, r3, r2
 745              	.LVL65:
 746 03de 2B70     		strb	r3, [r5, #0]
 747 03e0 5948     		ldr	r0, .L233
 748 03e2 FFF7FEFF 		bl	uart_transmit
 749              	.LVL66:
 750              	.LBE128:
 751              	.LBB129:
 752 03e6 94F82A10 		ldrb	r1, [r4, #42]	@ zero_extendqisi2
 753              	.LVL67:
 754 03ea 3378     		ldrb	r3, [r6, #0]	@ zero_extendqisi2
 755 03ec 2A78     		ldrb	r2, [r5, #0]	@ zero_extendqisi2
 756 03ee CB18     		adds	r3, r1, r3
 757 03f0 DBB2     		uxtb	r3, r3
 758              	.LVL68:
 759 03f2 3370     		strb	r3, [r6, #0]
 760 03f4 9B18     		adds	r3, r3, r2
 761              	.LVL69:
 762 03f6 2B70     		strb	r3, [r5, #0]
 763 03f8 5348     		ldr	r0, .L233
 764 03fa FFF7FEFF 		bl	uart_transmit
 765              	.LVL70:
 766              	.LBE129:
 767              	.LBB130:
 768 03fe 94F82B10 		ldrb	r1, [r4, #43]	@ zero_extendqisi2
 769              	.LVL71:
 770 0402 3378     		ldrb	r3, [r6, #0]	@ zero_extendqisi2
 771 0404 2A78     		ldrb	r2, [r5, #0]	@ zero_extendqisi2
 772 0406 CB18     		adds	r3, r1, r3
 773 0408 DBB2     		uxtb	r3, r3
 774              	.LVL72:
 775 040a 3370     		strb	r3, [r6, #0]
 776 040c 9B18     		adds	r3, r3, r2
 777              	.LVL73:
 778 040e 2B70     		strb	r3, [r5, #0]
 779 0410 4D48     		ldr	r0, .L233
 780 0412 FFF7FEFF 		bl	uart_transmit
 781              	.LVL74:
 782              	.LBE130:
 783              	.LBB131:
 784 0416 94F84410 		ldrb	r1, [r4, #68]	@ zero_extendqisi2
 785              	.LVL75:
 786 041a 3378     		ldrb	r3, [r6, #0]	@ zero_extendqisi2
 787 041c 2A78     		ldrb	r2, [r5, #0]	@ zero_extendqisi2
 788 041e CB18     		adds	r3, r1, r3
 789 0420 DBB2     		uxtb	r3, r3
 790              	.LVL76:
 791 0422 3370     		strb	r3, [r6, #0]
 792 0424 9B18     		adds	r3, r3, r2
 793              	.LVL77:
 794 0426 2B70     		strb	r3, [r5, #0]
 795 0428 4748     		ldr	r0, .L233
 796 042a FFF7FEFF 		bl	uart_transmit
 797              	.LVL78:
 798              	.LBE131:
 799              	.LBB132:
 800 042e 94F84510 		ldrb	r1, [r4, #69]	@ zero_extendqisi2
 801              	.LVL79:
 802 0432 3378     		ldrb	r3, [r6, #0]	@ zero_extendqisi2
 803 0434 2A78     		ldrb	r2, [r5, #0]	@ zero_extendqisi2
 804 0436 CB18     		adds	r3, r1, r3
 805 0438 DBB2     		uxtb	r3, r3
 806              	.LVL80:
 807 043a 3370     		strb	r3, [r6, #0]
 808 043c 9B18     		adds	r3, r3, r2
 809              	.LVL81:
 810 043e 2B70     		strb	r3, [r5, #0]
 811 0440 4148     		ldr	r0, .L233
 812 0442 FFF7FEFF 		bl	uart_transmit
 813              	.LVL82:
 814              	.LBE132:
 815              	.LBB133:
 816 0446 9DF81C10 		ldrb	r1, [sp, #28]	@ zero_extendqisi2
 817              	.LVL83:
 818 044a 3378     		ldrb	r3, [r6, #0]	@ zero_extendqisi2
 819 044c 2A78     		ldrb	r2, [r5, #0]	@ zero_extendqisi2
 820 044e CB18     		adds	r3, r1, r3
 821 0450 DBB2     		uxtb	r3, r3
 822              	.LVL84:
 823 0452 3370     		strb	r3, [r6, #0]
 824 0454 9B18     		adds	r3, r3, r2
 825              	.LVL85:
 826 0456 2B70     		strb	r3, [r5, #0]
 827 0458 3B48     		ldr	r0, .L233
 828 045a FFF7FEFF 		bl	uart_transmit
 829              	.LVL86:
 830              	.LBE133:
 831              	.LBB134:
 832 045e 9DF81D10 		ldrb	r1, [sp, #29]	@ zero_extendqisi2
 833              	.LVL87:
 834 0462 3378     		ldrb	r3, [r6, #0]	@ zero_extendqisi2
 835 0464 2A78     		ldrb	r2, [r5, #0]	@ zero_extendqisi2
 836 0466 CB18     		adds	r3, r1, r3
 837 0468 DBB2     		uxtb	r3, r3
 838              	.LVL88:
 839 046a 3370     		strb	r3, [r6, #0]
 840 046c 9B18     		adds	r3, r3, r2
 841              	.LVL89:
 842 046e 2B70     		strb	r3, [r5, #0]
 843 0470 3548     		ldr	r0, .L233
 844 0472 FFF7FEFF 		bl	uart_transmit
 845              	.LVL90:
 846              	.LBE134:
 847              	.LBB135:
 848 0476 94F85C10 		ldrb	r1, [r4, #92]	@ zero_extendqisi2
 849              	.LVL91:
 850 047a 3378     		ldrb	r3, [r6, #0]	@ zero_extendqisi2
 851 047c 2A78     		ldrb	r2, [r5, #0]	@ zero_extendqisi2
 852 047e CB18     		adds	r3, r1, r3
 853 0480 DBB2     		uxtb	r3, r3
 854              	.LVL92:
 855 0482 3370     		strb	r3, [r6, #0]
 856 0484 9B18     		adds	r3, r3, r2
 857              	.LVL93:
 858 0486 2B70     		strb	r3, [r5, #0]
 859 0488 2F48     		ldr	r0, .L233
 860 048a FFF7FEFF 		bl	uart_transmit
 861              	.LVL94:
 862              	.LBE135:
 863              	.LBB136:
 864 048e 94F85D10 		ldrb	r1, [r4, #93]	@ zero_extendqisi2
 865              	.LVL95:
 866 0492 3378     		ldrb	r3, [r6, #0]	@ zero_extendqisi2
 867 0494 2A78     		ldrb	r2, [r5, #0]	@ zero_extendqisi2
 868 0496 CB18     		adds	r3, r1, r3
 869 0498 DBB2     		uxtb	r3, r3
 870              	.LVL96:
 871 049a 3370     		strb	r3, [r6, #0]
 872 049c 9B18     		adds	r3, r3, r2
 873              	.LVL97:
 874 049e 2B70     		strb	r3, [r5, #0]
 875 04a0 2948     		ldr	r0, .L233
 876 04a2 FFF7FEFF 		bl	uart_transmit
 877              	.LVL98:
 878              	.LBE136:
 879              	.LBB137:
 880 04a6 94F86010 		ldrb	r1, [r4, #96]	@ zero_extendqisi2
 881              	.LVL99:
 882 04aa 3378     		ldrb	r3, [r6, #0]	@ zero_extendqisi2
 883 04ac 2A78     		ldrb	r2, [r5, #0]	@ zero_extendqisi2
 884 04ae CB18     		adds	r3, r1, r3
 885 04b0 DBB2     		uxtb	r3, r3
 886              	.LVL100:
 887 04b2 3370     		strb	r3, [r6, #0]
 888 04b4 9B18     		adds	r3, r3, r2
 889              	.LVL101:
 890 04b6 2B70     		strb	r3, [r5, #0]
 891 04b8 2348     		ldr	r0, .L233
 892 04ba FFF7FEFF 		bl	uart_transmit
 893              	.LVL102:
 894              	.LBE137:
 895              	.LBB138:
 896 04be 94F86110 		ldrb	r1, [r4, #97]	@ zero_extendqisi2
 897              	.LVL103:
 898 04c2 3378     		ldrb	r3, [r6, #0]	@ zero_extendqisi2
 899 04c4 2A78     		ldrb	r2, [r5, #0]	@ zero_extendqisi2
 900 04c6 CB18     		adds	r3, r1, r3
 901 04c8 DBB2     		uxtb	r3, r3
 902              	.LVL104:
 903 04ca 3370     		strb	r3, [r6, #0]
 904 04cc 9B18     		adds	r3, r3, r2
 905              	.LVL105:
 906 04ce 2B70     		strb	r3, [r5, #0]
 907 04d0 1D48     		ldr	r0, .L233
 908 04d2 FFF7FEFF 		bl	uart_transmit
 909              	.LVL106:
 910              	.LBE138:
 911              	.LBB139:
 912 04d6 94F86210 		ldrb	r1, [r4, #98]	@ zero_extendqisi2
 913              	.LVL107:
 914 04da 3378     		ldrb	r3, [r6, #0]	@ zero_extendqisi2
 915 04dc 2A78     		ldrb	r2, [r5, #0]	@ zero_extendqisi2
 916 04de CB18     		adds	r3, r1, r3
 917 04e0 DBB2     		uxtb	r3, r3
 918              	.LVL108:
 919 04e2 3370     		strb	r3, [r6, #0]
 920 04e4 9B18     		adds	r3, r3, r2
 921              	.LVL109:
 922 04e6 2B70     		strb	r3, [r5, #0]
 923 04e8 1748     		ldr	r0, .L233
 924 04ea FFF7FEFF 		bl	uart_transmit
 925              	.LVL110:
 926              	.LBE139:
 927              	.LBB140:
 928 04ee 94F86310 		ldrb	r1, [r4, #99]	@ zero_extendqisi2
 929              	.LVL111:
 930 04f2 3378     		ldrb	r3, [r6, #0]	@ zero_extendqisi2
 931 04f4 2A78     		ldrb	r2, [r5, #0]	@ zero_extendqisi2
 932 04f6 CB18     		adds	r3, r1, r3
 933 04f8 DBB2     		uxtb	r3, r3
 934              	.LVL112:
 935 04fa 3370     		strb	r3, [r6, #0]
 936 04fc 9B18     		adds	r3, r3, r2
 937              	.LVL113:
 938 04fe 2B70     		strb	r3, [r5, #0]
 939 0500 1148     		ldr	r0, .L233
 940 0502 FFF7FEFF 		bl	uart_transmit
 941              	.LVL114:
 942              	.LBE140:
 943              	.LBB141:
 944 0506 94F82410 		ldrb	r1, [r4, #36]	@ zero_extendqisi2
 945              	.LVL115:
 946 050a 3378     		ldrb	r3, [r6, #0]	@ zero_extendqisi2
 947 050c 2A78     		ldrb	r2, [r5, #0]	@ zero_extendqisi2
 948 050e CB18     		adds	r3, r1, r3
 949 0510 DBB2     		uxtb	r3, r3
 950              	.LVL116:
 951 0512 3370     		strb	r3, [r6, #0]
 952 0514 9B18     		adds	r3, r3, r2
 953              	.LVL117:
 954 0516 2B70     		strb	r3, [r5, #0]
 955 0518 0B48     		ldr	r0, .L233
 956 051a FFF7FEFF 		bl	uart_transmit
 957              	.LVL118:
 958              	.LBE141:
 959              	.LBB142:
 960 051e 0B4B     		ldr	r3, .L233+4
 961 0520 2A78     		ldrb	r2, [r5, #0]	@ zero_extendqisi2
 962 0522 1978     		ldrb	r1, [r3, #0]	@ zero_extendqisi2
 963              	.LVL119:
 964 0524 3378     		ldrb	r3, [r6, #0]	@ zero_extendqisi2
 965 0526 0848     		ldr	r0, .L233
 966 0528 CB18     		adds	r3, r1, r3
 967 052a DBB2     		uxtb	r3, r3
 968              	.LVL120:
 969 052c 3370     		strb	r3, [r6, #0]
 970 052e 9B18     		adds	r3, r3, r2
 971              	.LVL121:
 972 0530 2B70     		strb	r3, [r5, #0]
 973 0532 FFF7FEFF 		bl	uart_transmit
 974              	.LVL122:
 975              	.LBE142:
 976 0536 3178     		ldrb	r1, [r6, #0]	@ zero_extendqisi2
 977 0538 0348     		ldr	r0, .L233
 978 053a FFF7FEFF 		bl	uart_transmit
 979 053e 0248     		ldr	r0, .L233
 980 0540 2978     		ldrb	r1, [r5, #0]	@ zero_extendqisi2
 981 0542 FFF7FEFF 		bl	uart_transmit
 982 0546 07E0     		b	.L25
 983              	.L234:
 984              		.align	2
 985              	.L233:
 986 0548 00000000 		.word	uart2
 987 054c 00000000 		.word	.LANCHOR22
 988              	.LVL123:
 989              	.L24:
 990              		.loc 1 422 0 discriminator 32
 991 0550 674B     		ldr	r3, .L235
 992 0552 1A78     		ldrb	r2, [r3, #0]	@ zero_extendqisi2
 993 0554 0132     		adds	r2, r2, #1
 994 0556 1A70     		strb	r2, [r3, #0]
 995              	.L25:
 996              		.loc 1 422 0 discriminator 1
 997 0558 664A     		ldr	r2, .L235+4
 998 055a 92F85B30 		ldrb	r3, [r2, #91]	@ zero_extendqisi2
 999 055e 032B     		cmp	r3, #3
 1000 0560 654B     		ldr	r3, .L235+8
 1001 0562 06D0     		beq	.L26
 1002              		.loc 1 422 0 discriminator 2
 1003 0564 1878     		ldrb	r0, [r3, #0]	@ zero_extendqisi2
 1004 0566 92F86410 		ldrb	r1, [r2, #100]	@ zero_extendqisi2
 1005 056a 8842     		cmp	r0, r1
 1006 056c 01D3     		bcc	.L26
 1007              		.loc 1 422 0 discriminator 4
 1008 056e 0021     		movs	r1, #0
 1009 0570 1970     		strb	r1, [r3, #0]
 1010              	.L26:
 1011              		.loc 1 422 0 discriminator 3
 1012 0572 92F86420 		ldrb	r2, [r2, #100]	@ zero_extendqisi2
 1013 0576 1B78     		ldrb	r3, [r3, #0]	@ zero_extendqisi2
 1014 0578 B3EB420F 		cmp	r3, r2, lsl #1
 1015 057c 02DB     		blt	.L27
 1016              		.loc 1 422 0 discriminator 5
 1017 057e 5E4B     		ldr	r3, .L235+8
 1018 0580 0021     		movs	r1, #0
 1019 0582 1970     		strb	r1, [r3, #0]
 1020              	.L27:
 1021              		.loc 1 422 0 discriminator 6
 1022 0584 5C4E     		ldr	r6, .L235+8
 1023 0586 3378     		ldrb	r3, [r6, #0]	@ zero_extendqisi2
 1024 0588 9342     		cmp	r3, r2
 1025 058a 80F0C580 		bcs	.L28
 1026              		.loc 1 422 0 discriminator 7
 1027 058e 594F     		ldr	r7, .L235+4
 1028 0590 07EBC303 		add	r3, r7, r3, lsl #3
 1029 0594 93F86930 		ldrb	r3, [r3, #105]	@ zero_extendqisi2
 1030 0598 002B     		cmp	r3, #0
 1031 059a 00F0BD80 		beq	.L28
 1032              		.loc 1 422 0 discriminator 9
 1033 059e 5748     		ldr	r0, .L235+12
 1034 05a0 0E21     		movs	r1, #14
 1035 05a2 FFF7FEFF 		bl	uart_check_free_space
 1036 05a6 0028     		cmp	r0, #0
 1037 05a8 00F0B280 		beq	.L29
 1038              		.loc 1 422 0 discriminator 10
 1039 05ac 544B     		ldr	r3, .L235+16
 1040              	.LBB143:
 1041 05ae 9921     		movs	r1, #153
 1042              	.LBE143:
 1043 05b0 1A88     		ldrh	r2, [r3, #0]
 1044              	.LBB144:
 1045 05b2 5248     		ldr	r0, .L235+12
 1046              	.LBE144:
 1047 05b4 0E32     		adds	r2, r2, #14
 1048 05b6 1A80     		strh	r2, [r3, #0]	@ movhi
 1049 05b8 524B     		ldr	r3, .L235+20
 1050 05ba 534D     		ldr	r5, .L235+24
 1051 05bc 1A88     		ldrh	r2, [r3, #0]
 1052 05be 534C     		ldr	r4, .L235+28
 1053 05c0 0132     		adds	r2, r2, #1
 1054 05c2 1A80     		strh	r2, [r3, #0]	@ movhi
 1055              	.LBB145:
 1056 05c4 FFF7FEFF 		bl	uart_transmit
 1057              	.LVL124:
 1058 05c8 0E21     		movs	r1, #14
 1059 05ca 4C48     		ldr	r0, .L235+12
 1060 05cc FFF7FEFF 		bl	uart_transmit
 1061              	.LBE145:
 1062 05d0 0F23     		movs	r3, #15
 1063 05d2 2B70     		strb	r3, [r5, #0]
 1064 05d4 1D23     		movs	r3, #29
 1065 05d6 2370     		strb	r3, [r4, #0]
 1066 05d8 0121     		movs	r1, #1
 1067 05da 4848     		ldr	r0, .L235+12
 1068 05dc FFF7FEFF 		bl	uart_transmit
 1069 05e0 2B78     		ldrb	r3, [r5, #0]	@ zero_extendqisi2
 1070 05e2 2278     		ldrb	r2, [r4, #0]	@ zero_extendqisi2
 1071 05e4 1933     		adds	r3, r3, #25
 1072 05e6 DBB2     		uxtb	r3, r3
 1073 05e8 2B70     		strb	r3, [r5, #0]
 1074 05ea 9B18     		adds	r3, r3, r2
 1075 05ec 2370     		strb	r3, [r4, #0]
 1076 05ee 1921     		movs	r1, #25
 1077 05f0 4248     		ldr	r0, .L235+12
 1078 05f2 FFF7FEFF 		bl	uart_transmit
 1079              	.LBB146:
 1080 05f6 3178     		ldrb	r1, [r6, #0]	@ zero_extendqisi2
 1081              	.LVL125:
 1082 05f8 2B78     		ldrb	r3, [r5, #0]	@ zero_extendqisi2
 1083 05fa 2278     		ldrb	r2, [r4, #0]	@ zero_extendqisi2
 1084 05fc CB18     		adds	r3, r1, r3
 1085 05fe DBB2     		uxtb	r3, r3
 1086              	.LVL126:
 1087 0600 2B70     		strb	r3, [r5, #0]
 1088 0602 9B18     		adds	r3, r3, r2
 1089              	.LVL127:
 1090 0604 2370     		strb	r3, [r4, #0]
 1091 0606 3D48     		ldr	r0, .L235+12
 1092 0608 FFF7FEFF 		bl	uart_transmit
 1093              	.LVL128:
 1094              	.LBE146:
 1095              	.LBB147:
 1096 060c 3378     		ldrb	r3, [r6, #0]	@ zero_extendqisi2
 1097 060e 2278     		ldrb	r2, [r4, #0]	@ zero_extendqisi2
 1098 0610 07EBC303 		add	r3, r7, r3, lsl #3
 1099 0614 93F86610 		ldrb	r1, [r3, #102]	@ zero_extendqisi2
 1100              	.LVL129:
 1101 0618 2B78     		ldrb	r3, [r5, #0]	@ zero_extendqisi2
 1102 061a 3848     		ldr	r0, .L235+12
 1103 061c CB18     		adds	r3, r1, r3
 1104 061e DBB2     		uxtb	r3, r3
 1105              	.LVL130:
 1106 0620 2B70     		strb	r3, [r5, #0]
 1107 0622 9B18     		adds	r3, r3, r2
 1108              	.LVL131:
 1109 0624 2370     		strb	r3, [r4, #0]
 1110 0626 FFF7FEFF 		bl	uart_transmit
 1111              	.LVL132:
 1112              	.LBE147:
 1113              	.LBB148:
 1114 062a 3378     		ldrb	r3, [r6, #0]	@ zero_extendqisi2
 1115 062c 2278     		ldrb	r2, [r4, #0]	@ zero_extendqisi2
 1116 062e 07EBC303 		add	r3, r7, r3, lsl #3
 1117 0632 93F86710 		ldrb	r1, [r3, #103]	@ zero_extendqisi2
 1118              	.LVL133:
 1119 0636 2B78     		ldrb	r3, [r5, #0]	@ zero_extendqisi2
 1120 0638 3048     		ldr	r0, .L235+12
 1121 063a CB18     		adds	r3, r1, r3
 1122 063c DBB2     		uxtb	r3, r3
 1123              	.LVL134:
 1124 063e 2B70     		strb	r3, [r5, #0]
 1125 0640 9B18     		adds	r3, r3, r2
 1126              	.LVL135:
 1127 0642 2370     		strb	r3, [r4, #0]
 1128 0644 FFF7FEFF 		bl	uart_transmit
 1129              	.LVL136:
 1130              	.LBE148:
 1131              	.LBB149:
 1132 0648 3378     		ldrb	r3, [r6, #0]	@ zero_extendqisi2
 1133 064a 2278     		ldrb	r2, [r4, #0]	@ zero_extendqisi2
 1134 064c 07EBC303 		add	r3, r7, r3, lsl #3
 1135 0650 93F86810 		ldrb	r1, [r3, #104]	@ zero_extendqisi2
 1136              	.LVL137:
 1137 0654 2B78     		ldrb	r3, [r5, #0]	@ zero_extendqisi2
 1138 0656 2948     		ldr	r0, .L235+12
 1139 0658 CB18     		adds	r3, r1, r3
 1140 065a DBB2     		uxtb	r3, r3
 1141              	.LVL138:
 1142 065c 2B70     		strb	r3, [r5, #0]
 1143 065e 9B18     		adds	r3, r3, r2
 1144              	.LVL139:
 1145 0660 2370     		strb	r3, [r4, #0]
 1146 0662 FFF7FEFF 		bl	uart_transmit
 1147              	.LVL140:
 1148              	.LBE149:
 1149              	.LBB150:
 1150 0666 3378     		ldrb	r3, [r6, #0]	@ zero_extendqisi2
 1151 0668 2278     		ldrb	r2, [r4, #0]	@ zero_extendqisi2
 1152 066a 07EBC303 		add	r3, r7, r3, lsl #3
 1153 066e 93F86910 		ldrb	r1, [r3, #105]	@ zero_extendqisi2
 1154              	.LVL141:
 1155 0672 2B78     		ldrb	r3, [r5, #0]	@ zero_extendqisi2
 1156 0674 2148     		ldr	r0, .L235+12
 1157 0676 CB18     		adds	r3, r1, r3
 1158 0678 DBB2     		uxtb	r3, r3
 1159              	.LVL142:
 1160 067a 2B70     		strb	r3, [r5, #0]
 1161 067c 9B18     		adds	r3, r3, r2
 1162              	.LVL143:
 1163 067e 2370     		strb	r3, [r4, #0]
 1164 0680 FFF7FEFF 		bl	uart_transmit
 1165              	.LVL144:
 1166              	.LBE150:
 1167              	.LBB151:
 1168 0684 3378     		ldrb	r3, [r6, #0]	@ zero_extendqisi2
 1169 0686 2278     		ldrb	r2, [r4, #0]	@ zero_extendqisi2
 1170 0688 07EBC303 		add	r3, r7, r3, lsl #3
 1171 068c 93F86A10 		ldrb	r1, [r3, #106]	@ zero_extendqisi2
 1172              	.LVL145:
 1173 0690 2B78     		ldrb	r3, [r5, #0]	@ zero_extendqisi2
 1174 0692 1A48     		ldr	r0, .L235+12
 1175 0694 CB18     		adds	r3, r1, r3
 1176 0696 DBB2     		uxtb	r3, r3
 1177              	.LVL146:
 1178 0698 2B70     		strb	r3, [r5, #0]
 1179 069a 9B18     		adds	r3, r3, r2
 1180              	.LVL147:
 1181 069c 2370     		strb	r3, [r4, #0]
 1182 069e FFF7FEFF 		bl	uart_transmit
 1183              	.LVL148:
 1184              	.LBE151:
 1185              	.LBB152:
 1186 06a2 3378     		ldrb	r3, [r6, #0]	@ zero_extendqisi2
 1187 06a4 0C37     		adds	r7, r7, #12
 1188 06a6 0C33     		adds	r3, r3, #12
 1189 06a8 17F83310 		ldrb	r1, [r7, r3, lsl #3]	@ zero_extendqisi2
 1190              	.LVL149:
 1191 06ac 2B78     		ldrb	r3, [r5, #0]	@ zero_extendqisi2
 1192 06ae 2278     		ldrb	r2, [r4, #0]	@ zero_extendqisi2
 1193 06b0 CB18     		adds	r3, r1, r3
 1194 06b2 DBB2     		uxtb	r3, r3
 1195              	.LVL150:
 1196 06b4 2B70     		strb	r3, [r5, #0]
 1197 06b6 9B18     		adds	r3, r3, r2
 1198              	.LVL151:
 1199 06b8 2370     		strb	r3, [r4, #0]
 1200 06ba 1048     		ldr	r0, .L235+12
 1201 06bc FFF7FEFF 		bl	uart_transmit
 1202              	.LVL152:
 1203              	.LBE152:
 1204              	.LBB153:
 1205 06c0 3378     		ldrb	r3, [r6, #0]	@ zero_extendqisi2
 1206 06c2 2278     		ldrb	r2, [r4, #0]	@ zero_extendqisi2
 1207 06c4 07EBC307 		add	r7, r7, r3, lsl #3
 1208 06c8 97F86110 		ldrb	r1, [r7, #97]	@ zero_extendqisi2
 1209              	.LVL153:
 1210 06cc 2B78     		ldrb	r3, [r5, #0]	@ zero_extendqisi2
 1211 06ce 0B48     		ldr	r0, .L235+12
 1212 06d0 CB18     		adds	r3, r1, r3
 1213 06d2 DBB2     		uxtb	r3, r3
 1214              	.LVL154:
 1215 06d4 2B70     		strb	r3, [r5, #0]
 1216 06d6 9B18     		adds	r3, r3, r2
 1217              	.LVL155:
 1218 06d8 2370     		strb	r3, [r4, #0]
 1219 06da FFF7FEFF 		bl	uart_transmit
 1220              	.LVL156:
 1221              	.LBE153:
 1222 06de 2978     		ldrb	r1, [r5, #0]	@ zero_extendqisi2
 1223 06e0 0648     		ldr	r0, .L235+12
 1224 06e2 FFF7FEFF 		bl	uart_transmit
 1225 06e6 0548     		ldr	r0, .L235+12
 1226 06e8 2178     		ldrb	r1, [r4, #0]	@ zero_extendqisi2
 1227 06ea FFF7FEFF 		bl	uart_transmit
 1228 06ee 13E0     		b	.L28
 1229              	.L236:
 1230              		.align	2
 1231              	.L235:
 1232 06f0 00000000 		.word	downlink_nb_ovrn
 1233 06f4 00000000 		.word	gps
 1234 06f8 00000000 		.word	.LANCHOR22
 1235 06fc 00000000 		.word	uart2
 1236 0700 00000000 		.word	downlink_nb_bytes
 1237 0704 00000000 		.word	downlink_nb_msgs
 1238 0708 00000000 		.word	ck_a
 1239 070c 00000000 		.word	ck_b
 1240              	.LVL157:
 1241              	.L29:
 1242              		.loc 1 422 0 discriminator 11
 1243 0710 934B     		ldr	r3, .L237
 1244 0712 1A78     		ldrb	r2, [r3, #0]	@ zero_extendqisi2
 1245 0714 0132     		adds	r2, r2, #1
 1246 0716 1A70     		strb	r2, [r3, #0]
 1247              	.L28:
 1248              		.loc 1 422 0 discriminator 8
 1249 0718 924B     		ldr	r3, .L237+4
 1250 071a 1A78     		ldrb	r2, [r3, #0]	@ zero_extendqisi2
 1251 071c 0132     		adds	r2, r2, #1
 1252 071e 1A70     		strb	r2, [r3, #0]
 1253              	.L23:
 1254              	.LBE112:
 1255              		.loc 1 422 0 discriminator 30
 1256 0720 914B     		ldr	r3, .L237+8
 1257 0722 1E78     		ldrb	r6, [r3, #0]	@ zero_extendqisi2
 1258 0724 062E     		cmp	r6, #6
 1259 0726 40F08880 		bne	.L30
 1260              		.loc 1 422 0 discriminator 12
 1261 072a 9048     		ldr	r0, .L237+12
 1262 072c 1221     		movs	r1, #18
 1263 072e FFF7FEFF 		bl	uart_check_free_space
 1264 0732 0028     		cmp	r0, #0
 1265 0734 00F04282 		beq	.L36
 1266              		.loc 1 422 0 discriminator 14
 1267 0738 8D4B     		ldr	r3, .L237+16
 1268              	.LBB154:
 1269 073a 8C48     		ldr	r0, .L237+12
 1270              	.LBE154:
 1271 073c 1A88     		ldrh	r2, [r3, #0]
 1272              	.LBB155:
 1273 073e 9921     		movs	r1, #153
 1274              	.LBE155:
 1275 0740 1232     		adds	r2, r2, #18
 1276 0742 1A80     		strh	r2, [r3, #0]	@ movhi
 1277 0744 8B4B     		ldr	r3, .L237+20
 1278 0746 8C4D     		ldr	r5, .L237+24
 1279 0748 1A88     		ldrh	r2, [r3, #0]
 1280 074a 8C4C     		ldr	r4, .L237+28
 1281 074c 0132     		adds	r2, r2, #1
 1282 074e 1A80     		strh	r2, [r3, #0]	@ movhi
 1283              	.LBB156:
 1284 0750 FFF7FEFF 		bl	uart_transmit
 1285              	.LVL158:
 1286 0754 8548     		ldr	r0, .L237+12
 1287 0756 1221     		movs	r1, #18
 1288 0758 FFF7FEFF 		bl	uart_transmit
 1289              	.LBE156:
 1290 075c 1323     		movs	r3, #19
 1291 075e 2B70     		strb	r3, [r5, #0]
 1292 0760 2523     		movs	r3, #37
 1293 0762 2370     		strb	r3, [r4, #0]
 1294 0764 8148     		ldr	r0, .L237+12
 1295 0766 0121     		movs	r1, #1
 1296 0768 FFF7FEFF 		bl	uart_transmit
 1297 076c 2B78     		ldrb	r3, [r5, #0]	@ zero_extendqisi2
 1298 076e 2278     		ldrb	r2, [r4, #0]	@ zero_extendqisi2
 1299 0770 0633     		adds	r3, r3, #6
 1300 0772 DBB2     		uxtb	r3, r3
 1301 0774 3146     		mov	r1, r6
 1302 0776 2B70     		strb	r3, [r5, #0]
 1303              	.LBB157:
 1304 0778 814E     		ldr	r6, .L237+32
 1305              	.LBE157:
 1306 077a 9B18     		adds	r3, r3, r2
 1307 077c 2370     		strb	r3, [r4, #0]
 1308 077e 7B48     		ldr	r0, .L237+12
 1309 0780 FFF7FEFF 		bl	uart_transmit
 1310              	.LBB158:
 1311 0784 3178     		ldrb	r1, [r6, #0]	@ zero_extendqisi2
 1312              	.LVL159:
 1313 0786 2B78     		ldrb	r3, [r5, #0]	@ zero_extendqisi2
 1314 0788 2278     		ldrb	r2, [r4, #0]	@ zero_extendqisi2
 1315 078a CB18     		adds	r3, r1, r3
 1316 078c DBB2     		uxtb	r3, r3
 1317              	.LVL160:
 1318 078e 2B70     		strb	r3, [r5, #0]
 1319 0790 9B18     		adds	r3, r3, r2
 1320              	.LVL161:
 1321 0792 2370     		strb	r3, [r4, #0]
 1322 0794 7548     		ldr	r0, .L237+12
 1323 0796 FFF7FEFF 		bl	uart_transmit
 1324              	.LVL162:
 1325              	.LBE158:
 1326              	.LBB159:
 1327 079a 7178     		ldrb	r1, [r6, #1]	@ zero_extendqisi2
 1328              	.LVL163:
 1329 079c 2B78     		ldrb	r3, [r5, #0]	@ zero_extendqisi2
 1330 079e 2278     		ldrb	r2, [r4, #0]	@ zero_extendqisi2
 1331 07a0 CB18     		adds	r3, r1, r3
 1332 07a2 DBB2     		uxtb	r3, r3
 1333              	.LVL164:
 1334 07a4 2B70     		strb	r3, [r5, #0]
 1335 07a6 9B18     		adds	r3, r3, r2
 1336              	.LVL165:
 1337 07a8 2370     		strb	r3, [r4, #0]
 1338 07aa 7048     		ldr	r0, .L237+12
 1339 07ac FFF7FEFF 		bl	uart_transmit
 1340              	.LVL166:
 1341              	.LBE159:
 1342              	.LBB160:
 1343 07b0 B178     		ldrb	r1, [r6, #2]	@ zero_extendqisi2
 1344              	.LVL167:
 1345 07b2 2B78     		ldrb	r3, [r5, #0]	@ zero_extendqisi2
 1346 07b4 2278     		ldrb	r2, [r4, #0]	@ zero_extendqisi2
 1347 07b6 CB18     		adds	r3, r1, r3
 1348 07b8 DBB2     		uxtb	r3, r3
 1349              	.LVL168:
 1350 07ba 2B70     		strb	r3, [r5, #0]
 1351 07bc 9B18     		adds	r3, r3, r2
 1352              	.LVL169:
 1353 07be 2370     		strb	r3, [r4, #0]
 1354 07c0 6A48     		ldr	r0, .L237+12
 1355 07c2 FFF7FEFF 		bl	uart_transmit
 1356              	.LVL170:
 1357              	.LBE160:
 1358              	.LBB161:
 1359 07c6 F178     		ldrb	r1, [r6, #3]	@ zero_extendqisi2
 1360              	.LVL171:
 1361 07c8 2B78     		ldrb	r3, [r5, #0]	@ zero_extendqisi2
 1362 07ca 2278     		ldrb	r2, [r4, #0]	@ zero_extendqisi2
 1363 07cc CB18     		adds	r3, r1, r3
 1364 07ce DBB2     		uxtb	r3, r3
 1365              	.LBE161:
 1366              	.LBB162:
 1367 07d0 6C4E     		ldr	r6, .L237+36
 1368              	.LVL172:
 1369              	.LBE162:
 1370              	.LBB163:
 1371 07d2 2B70     		strb	r3, [r5, #0]
 1372 07d4 9B18     		adds	r3, r3, r2
 1373              	.LVL173:
 1374 07d6 2370     		strb	r3, [r4, #0]
 1375 07d8 6448     		ldr	r0, .L237+12
 1376 07da FFF7FEFF 		bl	uart_transmit
 1377              	.LVL174:
 1378              	.LBE163:
 1379              	.LBB164:
 1380 07de 3178     		ldrb	r1, [r6, #0]	@ zero_extendqisi2
 1381              	.LVL175:
 1382 07e0 2B78     		ldrb	r3, [r5, #0]	@ zero_extendqisi2
 1383 07e2 2278     		ldrb	r2, [r4, #0]	@ zero_extendqisi2
 1384 07e4 CB18     		adds	r3, r1, r3
 1385 07e6 DBB2     		uxtb	r3, r3
 1386              	.LVL176:
 1387 07e8 2B70     		strb	r3, [r5, #0]
 1388 07ea 9B18     		adds	r3, r3, r2
 1389              	.LVL177:
 1390 07ec 2370     		strb	r3, [r4, #0]
 1391 07ee 5F48     		ldr	r0, .L237+12
 1392 07f0 FFF7FEFF 		bl	uart_transmit
 1393              	.LVL178:
 1394              	.LBE164:
 1395              	.LBB165:
 1396 07f4 7178     		ldrb	r1, [r6, #1]	@ zero_extendqisi2
 1397              	.LVL179:
 1398 07f6 2B78     		ldrb	r3, [r5, #0]	@ zero_extendqisi2
 1399 07f8 2278     		ldrb	r2, [r4, #0]	@ zero_extendqisi2
 1400 07fa CB18     		adds	r3, r1, r3
 1401 07fc DBB2     		uxtb	r3, r3
 1402              	.LVL180:
 1403 07fe 2B70     		strb	r3, [r5, #0]
 1404 0800 9B18     		adds	r3, r3, r2
 1405              	.LVL181:
 1406 0802 2370     		strb	r3, [r4, #0]
 1407 0804 5948     		ldr	r0, .L237+12
 1408 0806 FFF7FEFF 		bl	uart_transmit
 1409              	.LVL182:
 1410              	.LBE165:
 1411              	.LBB166:
 1412 080a B178     		ldrb	r1, [r6, #2]	@ zero_extendqisi2
 1413              	.LVL183:
 1414 080c 2B78     		ldrb	r3, [r5, #0]	@ zero_extendqisi2
 1415 080e 2278     		ldrb	r2, [r4, #0]	@ zero_extendqisi2
 1416 0810 CB18     		adds	r3, r1, r3
 1417 0812 DBB2     		uxtb	r3, r3
 1418              	.LVL184:
 1419 0814 2B70     		strb	r3, [r5, #0]
 1420 0816 9B18     		adds	r3, r3, r2
 1421              	.LVL185:
 1422 0818 2370     		strb	r3, [r4, #0]
 1423 081a 5448     		ldr	r0, .L237+12
 1424 081c FFF7FEFF 		bl	uart_transmit
 1425              	.LVL186:
 1426              	.LBE166:
 1427              	.LBB167:
 1428 0820 F178     		ldrb	r1, [r6, #3]	@ zero_extendqisi2
 1429              	.LVL187:
 1430 0822 2B78     		ldrb	r3, [r5, #0]	@ zero_extendqisi2
 1431 0824 2278     		ldrb	r2, [r4, #0]	@ zero_extendqisi2
 1432 0826 CB18     		adds	r3, r1, r3
 1433 0828 DBB2     		uxtb	r3, r3
 1434              	.LVL188:
 1435 082a 2B70     		strb	r3, [r5, #0]
 1436 082c 9B18     		adds	r3, r3, r2
 1437              	.LVL189:
 1438 082e 2370     		strb	r3, [r4, #0]
 1439 0830 4E48     		ldr	r0, .L237+12
 1440 0832 FFF7FEFF 		bl	uart_transmit
 1441              	.LVL190:
 1442              	.LBE167:
 1443              	.LBB168:
 1444 0836 544E     		ldr	r6, .L237+40
 1445 0838 5CE0     		b	.L209
 1446              	.LVL191:
 1447              	.L30:
 1448              	.LBE168:
 1449              		.loc 1 422 0 discriminator 13
 1450 083a 0C2E     		cmp	r6, #12
 1451 083c 40F0AA80 		bne	.L33
 1452              		.loc 1 422 0 discriminator 16
 1453 0840 4A48     		ldr	r0, .L237+12
 1454 0842 0E21     		movs	r1, #14
 1455 0844 FFF7FEFF 		bl	uart_check_free_space
 1456 0848 0028     		cmp	r0, #0
 1457 084a 00F0B781 		beq	.L36
 1458              		.loc 1 422 0 discriminator 18
 1459 084e 484B     		ldr	r3, .L237+16
 1460              	.LBB169:
 1461 0850 4648     		ldr	r0, .L237+12
 1462              	.LBE169:
 1463 0852 1A88     		ldrh	r2, [r3, #0]
 1464              	.LBB170:
 1465 0854 9921     		movs	r1, #153
 1466              	.LBE170:
 1467 0856 0E32     		adds	r2, r2, #14
 1468 0858 1A80     		strh	r2, [r3, #0]	@ movhi
 1469 085a 464B     		ldr	r3, .L237+20
 1470 085c 464D     		ldr	r5, .L237+24
 1471 085e 1A88     		ldrh	r2, [r3, #0]
 1472 0860 464C     		ldr	r4, .L237+28
 1473 0862 0132     		adds	r2, r2, #1
 1474 0864 1A80     		strh	r2, [r3, #0]	@ movhi
 1475              	.LBB171:
 1476 0866 FFF7FEFF 		bl	uart_transmit
 1477              	.LVL192:
 1478 086a 4048     		ldr	r0, .L237+12
 1479 086c 0E21     		movs	r1, #14
 1480 086e FFF7FEFF 		bl	uart_transmit
 1481              	.LBE171:
 1482 0872 0F23     		movs	r3, #15
 1483 0874 2B70     		strb	r3, [r5, #0]
 1484 0876 1D23     		movs	r3, #29
 1485 0878 2370     		strb	r3, [r4, #0]
 1486 087a 3C48     		ldr	r0, .L237+12
 1487 087c 0121     		movs	r1, #1
 1488 087e FFF7FEFF 		bl	uart_transmit
 1489 0882 2B78     		ldrb	r3, [r5, #0]	@ zero_extendqisi2
 1490 0884 2278     		ldrb	r2, [r4, #0]	@ zero_extendqisi2
 1491 0886 2A33     		adds	r3, r3, #42
 1492 0888 DBB2     		uxtb	r3, r3
 1493              	.LBB172:
 1494 088a 404E     		ldr	r6, .L237+44
 1495              	.LBE172:
 1496 088c 2B70     		strb	r3, [r5, #0]
 1497 088e 9B18     		adds	r3, r3, r2
 1498 0890 2370     		strb	r3, [r4, #0]
 1499 0892 3648     		ldr	r0, .L237+12
 1500 0894 2A21     		movs	r1, #42
 1501 0896 FFF7FEFF 		bl	uart_transmit
 1502              	.LBB173:
 1503 089a 3178     		ldrb	r1, [r6, #0]	@ zero_extendqisi2
 1504              	.LVL193:
 1505 089c 2B78     		ldrb	r3, [r5, #0]	@ zero_extendqisi2
 1506 089e 2278     		ldrb	r2, [r4, #0]	@ zero_extendqisi2
 1507 08a0 CB18     		adds	r3, r1, r3
 1508 08a2 DBB2     		uxtb	r3, r3
 1509              	.LVL194:
 1510 08a4 2B70     		strb	r3, [r5, #0]
 1511 08a6 9B18     		adds	r3, r3, r2
 1512              	.LVL195:
 1513 08a8 2370     		strb	r3, [r4, #0]
 1514 08aa 3048     		ldr	r0, .L237+12
 1515 08ac FFF7FEFF 		bl	uart_transmit
 1516              	.LVL196:
 1517              	.LBE173:
 1518              	.LBB174:
 1519 08b0 7178     		ldrb	r1, [r6, #1]	@ zero_extendqisi2
 1520              	.LVL197:
 1521 08b2 2B78     		ldrb	r3, [r5, #0]	@ zero_extendqisi2
 1522 08b4 2278     		ldrb	r2, [r4, #0]	@ zero_extendqisi2
 1523 08b6 CB18     		adds	r3, r1, r3
 1524 08b8 DBB2     		uxtb	r3, r3
 1525              	.LVL198:
 1526 08ba 2B70     		strb	r3, [r5, #0]
 1527 08bc 9B18     		adds	r3, r3, r2
 1528              	.LVL199:
 1529 08be 2370     		strb	r3, [r4, #0]
 1530 08c0 2A48     		ldr	r0, .L237+12
 1531 08c2 FFF7FEFF 		bl	uart_transmit
 1532              	.LVL200:
 1533              	.LBE174:
 1534              	.LBB175:
 1535 08c6 B178     		ldrb	r1, [r6, #2]	@ zero_extendqisi2
 1536              	.LVL201:
 1537 08c8 2B78     		ldrb	r3, [r5, #0]	@ zero_extendqisi2
 1538 08ca 2278     		ldrb	r2, [r4, #0]	@ zero_extendqisi2
 1539 08cc CB18     		adds	r3, r1, r3
 1540 08ce DBB2     		uxtb	r3, r3
 1541              	.LVL202:
 1542 08d0 2B70     		strb	r3, [r5, #0]
 1543 08d2 9B18     		adds	r3, r3, r2
 1544              	.LVL203:
 1545 08d4 2370     		strb	r3, [r4, #0]
 1546 08d6 2548     		ldr	r0, .L237+12
 1547 08d8 FFF7FEFF 		bl	uart_transmit
 1548              	.LVL204:
 1549              	.LBE175:
 1550              	.LBB176:
 1551 08dc F178     		ldrb	r1, [r6, #3]	@ zero_extendqisi2
 1552              	.LVL205:
 1553 08de 2B78     		ldrb	r3, [r5, #0]	@ zero_extendqisi2
 1554 08e0 2278     		ldrb	r2, [r4, #0]	@ zero_extendqisi2
 1555 08e2 CB18     		adds	r3, r1, r3
 1556 08e4 DBB2     		uxtb	r3, r3
 1557              	.LVL206:
 1558 08e6 2B70     		strb	r3, [r5, #0]
 1559 08e8 9B18     		adds	r3, r3, r2
 1560              	.LVL207:
 1561 08ea 2370     		strb	r3, [r4, #0]
 1562 08ec 1F48     		ldr	r0, .L237+12
 1563 08ee FFF7FEFF 		bl	uart_transmit
 1564              	.LVL208:
 1565              	.LBE176:
 1566              	.LBB177:
 1567 08f2 274E     		ldr	r6, .L237+48
 1568              	.LVL209:
 1569              	.L209:
 1570 08f4 3178     		ldrb	r1, [r6, #0]	@ zero_extendqisi2
 1571              	.LVL210:
 1572 08f6 2B78     		ldrb	r3, [r5, #0]	@ zero_extendqisi2
 1573 08f8 2278     		ldrb	r2, [r4, #0]	@ zero_extendqisi2
 1574 08fa CB18     		adds	r3, r1, r3
 1575 08fc DBB2     		uxtb	r3, r3
 1576              	.LVL211:
 1577 08fe 2B70     		strb	r3, [r5, #0]
 1578 0900 9B18     		adds	r3, r3, r2
 1579              	.LVL212:
 1580 0902 2370     		strb	r3, [r4, #0]
 1581 0904 1948     		ldr	r0, .L237+12
 1582 0906 FFF7FEFF 		bl	uart_transmit
 1583              	.LVL213:
 1584              	.LBE177:
 1585              	.LBB178:
 1586 090a 7178     		ldrb	r1, [r6, #1]	@ zero_extendqisi2
 1587              	.LVL214:
 1588 090c 2B78     		ldrb	r3, [r5, #0]	@ zero_extendqisi2
 1589 090e 2278     		ldrb	r2, [r4, #0]	@ zero_extendqisi2
 1590 0910 CB18     		adds	r3, r1, r3
 1591 0912 DBB2     		uxtb	r3, r3
 1592              	.LVL215:
 1593 0914 2B70     		strb	r3, [r5, #0]
 1594 0916 9B18     		adds	r3, r3, r2
 1595              	.LVL216:
 1596 0918 2370     		strb	r3, [r4, #0]
 1597 091a 1448     		ldr	r0, .L237+12
 1598 091c FFF7FEFF 		bl	uart_transmit
 1599              	.LVL217:
 1600              	.LBE178:
 1601              	.LBB179:
 1602 0920 B178     		ldrb	r1, [r6, #2]	@ zero_extendqisi2
 1603              	.LVL218:
 1604 0922 2B78     		ldrb	r3, [r5, #0]	@ zero_extendqisi2
 1605 0924 2278     		ldrb	r2, [r4, #0]	@ zero_extendqisi2
 1606 0926 CB18     		adds	r3, r1, r3
 1607 0928 DBB2     		uxtb	r3, r3
 1608              	.LVL219:
 1609 092a 2B70     		strb	r3, [r5, #0]
 1610 092c 9B18     		adds	r3, r3, r2
 1611              	.LVL220:
 1612 092e 2370     		strb	r3, [r4, #0]
 1613 0930 0E48     		ldr	r0, .L237+12
 1614 0932 FFF7FEFF 		bl	uart_transmit
 1615              	.LVL221:
 1616              	.LBE179:
 1617              	.LBB180:
 1618 0936 F178     		ldrb	r1, [r6, #3]	@ zero_extendqisi2
 1619              	.LVL222:
 1620              	.L210:
 1621 0938 2B78     		ldrb	r3, [r5, #0]	@ zero_extendqisi2
 1622 093a 2278     		ldrb	r2, [r4, #0]	@ zero_extendqisi2
 1623 093c CB18     		adds	r3, r1, r3
 1624 093e DBB2     		uxtb	r3, r3
 1625              	.LVL223:
 1626 0940 2B70     		strb	r3, [r5, #0]
 1627 0942 9B18     		adds	r3, r3, r2
 1628              	.LVL224:
 1629 0944 2370     		strb	r3, [r4, #0]
 1630 0946 0948     		ldr	r0, .L237+12
 1631 0948 FFF7FEFF 		bl	uart_transmit
 1632              	.LVL225:
 1633              	.LBE180:
 1634 094c 2978     		ldrb	r1, [r5, #0]	@ zero_extendqisi2
 1635 094e 0748     		ldr	r0, .L237+12
 1636 0950 FFF7FEFF 		bl	uart_transmit
 1637 0954 0548     		ldr	r0, .L237+12
 1638 0956 2178     		ldrb	r1, [r4, #0]	@ zero_extendqisi2
 1639 0958 FFF7FEFF 		bl	uart_transmit
 1640 095c 32E1     		b	.L32
 1641              	.L238:
 1642 095e 00BF     		.align	2
 1643              	.L237:
 1644 0960 00000000 		.word	downlink_nb_ovrn
 1645 0964 00000000 		.word	.LANCHOR22
 1646 0968 00000000 		.word	.LANCHOR10
 1647 096c 00000000 		.word	uart2
 1648 0970 00000000 		.word	downlink_nb_bytes
 1649 0974 00000000 		.word	downlink_nb_msgs
 1650 0978 00000000 		.word	ck_a
 1651 097c 00000000 		.word	ck_b
 1652 0980 00000000 		.word	estimator_phi
 1653 0984 00000000 		.word	estimator_psi
 1654 0988 00000000 		.word	estimator_theta
 1655 098c 00000000 		.word	estimator_z
 1656 0990 00000000 		.word	estimator_z_dot
 1657              	.LVL226:
 1658              	.L33:
 1659              		.loc 1 422 0 discriminator 17
 1660 0994 122E     		cmp	r6, #18
 1661 0996 40F01581 		bne	.L32
 1662              	.LBB181:
 1663              		.loc 1 422 0 discriminator 20
 1664 099a 7D4B     		ldr	r3, .L239
 1665 099c 7D49     		ldr	r1, .L239+4
 1666 099e 1A78     		ldrb	r2, [r3, #0]	@ zero_extendqisi2
 1667 09a0 0978     		ldrb	r1, [r1, #0]	@ zero_extendqisi2
 1668 09a2 0132     		adds	r2, r2, #1
 1669 09a4 D2B2     		uxtb	r2, r2
 1670 09a6 9142     		cmp	r1, r2
 1671 09a8 1A70     		strb	r2, [r3, #0]
 1672 09aa 01D8     		bhi	.L35
 1673              		.loc 1 422 0 discriminator 22
 1674 09ac 0022     		movs	r2, #0
 1675 09ae 1A70     		strb	r2, [r3, #0]
 1676              	.L35:
 1677              	.LBB182:
 1678              		.loc 1 422 0 discriminator 23
 1679 09b0 1C78     		ldrb	r4, [r3, #0]	@ zero_extendqisi2
 1680 09b2 794B     		ldr	r3, .L239+8
 1681 09b4 0C27     		movs	r7, #12
 1682 09b6 1868     		ldr	r0, [r3, #0]
 1683 09b8 FFF7FEFF 		bl	__aeabi_i2f
 1684 09bc 07FB04F3 		mul	r3, r7, r4
 1685 09c0 764E     		ldr	r6, .L239+12
 1686 09c2 DFF8CC81 		ldr	r8, .L239
 1687 09c6 F158     		ldr	r1, [r6, r3]	@ float
 1688 09c8 F418     		adds	r4, r6, r3
 1689 09ca FFF7FEFF 		bl	__aeabi_fadd
 1690 09ce 744B     		ldr	r3, .L239+16
 1691 09d0 0490     		str	r0, [sp, #16]	@ float
 1692              	.LVL227:
 1693 09d2 1868     		ldr	r0, [r3, #0]
 1694 09d4 FFF7FEFF 		bl	__aeabi_i2f
 1695 09d8 6168     		ldr	r1, [r4, #4]	@ float
 1696 09da FFF7FEFF 		bl	__aeabi_fadd
 1697 09de 1421     		movs	r1, #20
 1698 09e0 0590     		str	r0, [sp, #20]	@ float
 1699              	.LVL228:
 1700 09e2 7048     		ldr	r0, .L239+20
 1701 09e4 FFF7FEFF 		bl	uart_check_free_space
 1702 09e8 0028     		cmp	r0, #0
 1703 09ea 00F0E780 		beq	.L36
 1704              		.loc 1 422 0 discriminator 24
 1705 09ee 6E4B     		ldr	r3, .L239+24
 1706              	.LBB183:
 1707 09f0 6C48     		ldr	r0, .L239+20
 1708              	.LBE183:
 1709 09f2 1A88     		ldrh	r2, [r3, #0]
 1710              	.LBB184:
 1711 09f4 9921     		movs	r1, #153
 1712              	.LBE184:
 1713 09f6 1432     		adds	r2, r2, #20
 1714 09f8 1A80     		strh	r2, [r3, #0]	@ movhi
 1715 09fa 6C4B     		ldr	r3, .L239+28
 1716 09fc 6C4D     		ldr	r5, .L239+32
 1717 09fe 1A88     		ldrh	r2, [r3, #0]
 1718 0a00 6C4C     		ldr	r4, .L239+36
 1719 0a02 0132     		adds	r2, r2, #1
 1720 0a04 1A80     		strh	r2, [r3, #0]	@ movhi
 1721              	.LBB185:
 1722 0a06 FFF7FEFF 		bl	uart_transmit
 1723              	.LVL229:
 1724 0a0a 6648     		ldr	r0, .L239+20
 1725 0a0c 1421     		movs	r1, #20
 1726 0a0e FFF7FEFF 		bl	uart_transmit
 1727              	.LBE185:
 1728 0a12 1523     		movs	r3, #21
 1729 0a14 2B70     		strb	r3, [r5, #0]
 1730 0a16 2923     		movs	r3, #41
 1731 0a18 2370     		strb	r3, [r4, #0]
 1732 0a1a 6248     		ldr	r0, .L239+20
 1733 0a1c 0121     		movs	r1, #1
 1734 0a1e FFF7FEFF 		bl	uart_transmit
 1735 0a22 2B78     		ldrb	r3, [r5, #0]	@ zero_extendqisi2
 1736 0a24 2278     		ldrb	r2, [r4, #0]	@ zero_extendqisi2
 1737 0a26 2333     		adds	r3, r3, #35
 1738 0a28 DBB2     		uxtb	r3, r3
 1739 0a2a 2B70     		strb	r3, [r5, #0]
 1740 0a2c 9B18     		adds	r3, r3, r2
 1741 0a2e 2370     		strb	r3, [r4, #0]
 1742 0a30 5C48     		ldr	r0, .L239+20
 1743 0a32 2321     		movs	r1, #35
 1744 0a34 FFF7FEFF 		bl	uart_transmit
 1745              	.LBB186:
 1746 0a38 98F80010 		ldrb	r1, [r8, #0]	@ zero_extendqisi2
 1747              	.LVL230:
 1748 0a3c 2B78     		ldrb	r3, [r5, #0]	@ zero_extendqisi2
 1749 0a3e 2278     		ldrb	r2, [r4, #0]	@ zero_extendqisi2
 1750 0a40 CB18     		adds	r3, r1, r3
 1751 0a42 DBB2     		uxtb	r3, r3
 1752              	.LVL231:
 1753 0a44 2B70     		strb	r3, [r5, #0]
 1754 0a46 9B18     		adds	r3, r3, r2
 1755              	.LVL232:
 1756 0a48 2370     		strb	r3, [r4, #0]
 1757 0a4a 5648     		ldr	r0, .L239+20
 1758 0a4c FFF7FEFF 		bl	uart_transmit
 1759              	.LVL233:
 1760              	.LBE186:
 1761              	.LBB187:
 1762 0a50 9DF81010 		ldrb	r1, [sp, #16]	@ zero_extendqisi2
 1763              	.LVL234:
 1764 0a54 2B78     		ldrb	r3, [r5, #0]	@ zero_extendqisi2
 1765 0a56 2278     		ldrb	r2, [r4, #0]	@ zero_extendqisi2
 1766 0a58 CB18     		adds	r3, r1, r3
 1767 0a5a DBB2     		uxtb	r3, r3
 1768              	.LVL235:
 1769 0a5c 2B70     		strb	r3, [r5, #0]
 1770 0a5e 9B18     		adds	r3, r3, r2
 1771              	.LVL236:
 1772 0a60 2370     		strb	r3, [r4, #0]
 1773 0a62 5048     		ldr	r0, .L239+20
 1774 0a64 FFF7FEFF 		bl	uart_transmit
 1775              	.LVL237:
 1776              	.LBE187:
 1777              	.LBB188:
 1778 0a68 9DF81110 		ldrb	r1, [sp, #17]	@ zero_extendqisi2
 1779              	.LVL238:
 1780 0a6c 2B78     		ldrb	r3, [r5, #0]	@ zero_extendqisi2
 1781 0a6e 2278     		ldrb	r2, [r4, #0]	@ zero_extendqisi2
 1782 0a70 CB18     		adds	r3, r1, r3
 1783 0a72 DBB2     		uxtb	r3, r3
 1784              	.LVL239:
 1785 0a74 2B70     		strb	r3, [r5, #0]
 1786 0a76 9B18     		adds	r3, r3, r2
 1787              	.LVL240:
 1788 0a78 2370     		strb	r3, [r4, #0]
 1789 0a7a 4A48     		ldr	r0, .L239+20
 1790 0a7c FFF7FEFF 		bl	uart_transmit
 1791              	.LVL241:
 1792              	.LBE188:
 1793              	.LBB189:
 1794 0a80 9DF81210 		ldrb	r1, [sp, #18]	@ zero_extendqisi2
 1795              	.LVL242:
 1796 0a84 2B78     		ldrb	r3, [r5, #0]	@ zero_extendqisi2
 1797 0a86 2278     		ldrb	r2, [r4, #0]	@ zero_extendqisi2
 1798 0a88 CB18     		adds	r3, r1, r3
 1799 0a8a DBB2     		uxtb	r3, r3
 1800              	.LVL243:
 1801 0a8c 2B70     		strb	r3, [r5, #0]
 1802 0a8e 9B18     		adds	r3, r3, r2
 1803              	.LVL244:
 1804 0a90 2370     		strb	r3, [r4, #0]
 1805 0a92 4448     		ldr	r0, .L239+20
 1806 0a94 FFF7FEFF 		bl	uart_transmit
 1807              	.LVL245:
 1808              	.LBE189:
 1809              	.LBB190:
 1810 0a98 9DF81310 		ldrb	r1, [sp, #19]	@ zero_extendqisi2
 1811              	.LVL246:
 1812 0a9c 2B78     		ldrb	r3, [r5, #0]	@ zero_extendqisi2
 1813 0a9e 2278     		ldrb	r2, [r4, #0]	@ zero_extendqisi2
 1814 0aa0 CB18     		adds	r3, r1, r3
 1815 0aa2 DBB2     		uxtb	r3, r3
 1816              	.LVL247:
 1817 0aa4 2B70     		strb	r3, [r5, #0]
 1818 0aa6 9B18     		adds	r3, r3, r2
 1819              	.LVL248:
 1820 0aa8 2370     		strb	r3, [r4, #0]
 1821 0aaa 3E48     		ldr	r0, .L239+20
 1822 0aac FFF7FEFF 		bl	uart_transmit
 1823              	.LVL249:
 1824              	.LBE190:
 1825              	.LBB191:
 1826 0ab0 9DF81410 		ldrb	r1, [sp, #20]	@ zero_extendqisi2
 1827              	.LVL250:
 1828 0ab4 2B78     		ldrb	r3, [r5, #0]	@ zero_extendqisi2
 1829 0ab6 2278     		ldrb	r2, [r4, #0]	@ zero_extendqisi2
 1830 0ab8 CB18     		adds	r3, r1, r3
 1831 0aba DBB2     		uxtb	r3, r3
 1832              	.LVL251:
 1833 0abc 2B70     		strb	r3, [r5, #0]
 1834 0abe 9B18     		adds	r3, r3, r2
 1835              	.LVL252:
 1836 0ac0 2370     		strb	r3, [r4, #0]
 1837 0ac2 3848     		ldr	r0, .L239+20
 1838 0ac4 FFF7FEFF 		bl	uart_transmit
 1839              	.LVL253:
 1840              	.LBE191:
 1841              	.LBB192:
 1842 0ac8 9DF81510 		ldrb	r1, [sp, #21]	@ zero_extendqisi2
 1843              	.LVL254:
 1844 0acc 2B78     		ldrb	r3, [r5, #0]	@ zero_extendqisi2
 1845 0ace 2278     		ldrb	r2, [r4, #0]	@ zero_extendqisi2
 1846 0ad0 CB18     		adds	r3, r1, r3
 1847 0ad2 DBB2     		uxtb	r3, r3
 1848              	.LVL255:
 1849 0ad4 2B70     		strb	r3, [r5, #0]
 1850 0ad6 9B18     		adds	r3, r3, r2
 1851              	.LVL256:
 1852 0ad8 2370     		strb	r3, [r4, #0]
 1853 0ada 3248     		ldr	r0, .L239+20
 1854 0adc FFF7FEFF 		bl	uart_transmit
 1855              	.LVL257:
 1856              	.LBE192:
 1857              	.LBB193:
 1858 0ae0 9DF81610 		ldrb	r1, [sp, #22]	@ zero_extendqisi2
 1859              	.LVL258:
 1860 0ae4 2B78     		ldrb	r3, [r5, #0]	@ zero_extendqisi2
 1861 0ae6 2278     		ldrb	r2, [r4, #0]	@ zero_extendqisi2
 1862 0ae8 CB18     		adds	r3, r1, r3
 1863 0aea DBB2     		uxtb	r3, r3
 1864              	.LVL259:
 1865 0aec 2B70     		strb	r3, [r5, #0]
 1866 0aee 9B18     		adds	r3, r3, r2
 1867              	.LVL260:
 1868 0af0 2370     		strb	r3, [r4, #0]
 1869 0af2 2C48     		ldr	r0, .L239+20
 1870 0af4 FFF7FEFF 		bl	uart_transmit
 1871              	.LVL261:
 1872              	.LBE193:
 1873              	.LBB194:
 1874 0af8 9DF81710 		ldrb	r1, [sp, #23]	@ zero_extendqisi2
 1875              	.LVL262:
 1876 0afc 2B78     		ldrb	r3, [r5, #0]	@ zero_extendqisi2
 1877 0afe 2278     		ldrb	r2, [r4, #0]	@ zero_extendqisi2
 1878 0b00 CB18     		adds	r3, r1, r3
 1879 0b02 DBB2     		uxtb	r3, r3
 1880              	.LVL263:
 1881 0b04 2B70     		strb	r3, [r5, #0]
 1882 0b06 9B18     		adds	r3, r3, r2
 1883              	.LVL264:
 1884 0b08 2370     		strb	r3, [r4, #0]
 1885 0b0a 2648     		ldr	r0, .L239+20
 1886 0b0c FFF7FEFF 		bl	uart_transmit
 1887              	.LVL265:
 1888              	.LBE194:
 1889              	.LBB195:
 1890 0b10 98F80030 		ldrb	r3, [r8, #0]	@ zero_extendqisi2
 1891 0b14 2278     		ldrb	r2, [r4, #0]	@ zero_extendqisi2
 1892 0b16 07FB0363 		mla	r3, r7, r3, r6
 1893 0b1a 197A     		ldrb	r1, [r3, #8]	@ zero_extendqisi2
 1894              	.LVL266:
 1895 0b1c 2B78     		ldrb	r3, [r5, #0]	@ zero_extendqisi2
 1896 0b1e 2148     		ldr	r0, .L239+20
 1897 0b20 CB18     		adds	r3, r1, r3
 1898 0b22 DBB2     		uxtb	r3, r3
 1899              	.LVL267:
 1900 0b24 2B70     		strb	r3, [r5, #0]
 1901 0b26 9B18     		adds	r3, r3, r2
 1902              	.LVL268:
 1903 0b28 2370     		strb	r3, [r4, #0]
 1904 0b2a FFF7FEFF 		bl	uart_transmit
 1905              	.LVL269:
 1906              	.LBE195:
 1907              	.LBB196:
 1908 0b2e 98F80030 		ldrb	r3, [r8, #0]	@ zero_extendqisi2
 1909 0b32 2278     		ldrb	r2, [r4, #0]	@ zero_extendqisi2
 1910 0b34 07FB0363 		mla	r3, r7, r3, r6
 1911 0b38 597A     		ldrb	r1, [r3, #9]	@ zero_extendqisi2
 1912              	.LVL270:
 1913 0b3a 2B78     		ldrb	r3, [r5, #0]	@ zero_extendqisi2
 1914 0b3c 1948     		ldr	r0, .L239+20
 1915 0b3e CB18     		adds	r3, r1, r3
 1916 0b40 DBB2     		uxtb	r3, r3
 1917              	.LVL271:
 1918 0b42 2B70     		strb	r3, [r5, #0]
 1919 0b44 9B18     		adds	r3, r3, r2
 1920              	.LVL272:
 1921 0b46 2370     		strb	r3, [r4, #0]
 1922 0b48 FFF7FEFF 		bl	uart_transmit
 1923              	.LVL273:
 1924              	.LBE196:
 1925              	.LBB197:
 1926 0b4c 98F80030 		ldrb	r3, [r8, #0]	@ zero_extendqisi2
 1927 0b50 2278     		ldrb	r2, [r4, #0]	@ zero_extendqisi2
 1928 0b52 07FB0363 		mla	r3, r7, r3, r6
 1929 0b56 997A     		ldrb	r1, [r3, #10]	@ zero_extendqisi2
 1930              	.LVL274:
 1931 0b58 2B78     		ldrb	r3, [r5, #0]	@ zero_extendqisi2
 1932 0b5a 1248     		ldr	r0, .L239+20
 1933 0b5c CB18     		adds	r3, r1, r3
 1934 0b5e DBB2     		uxtb	r3, r3
 1935              	.LVL275:
 1936 0b60 2B70     		strb	r3, [r5, #0]
 1937 0b62 9B18     		adds	r3, r3, r2
 1938              	.LVL276:
 1939 0b64 2370     		strb	r3, [r4, #0]
 1940 0b66 FFF7FEFF 		bl	uart_transmit
 1941              	.LVL277:
 1942              	.LBE197:
 1943              	.LBB198:
 1944 0b6a 98F80030 		ldrb	r3, [r8, #0]	@ zero_extendqisi2
 1945 0b6e 2278     		ldrb	r2, [r4, #0]	@ zero_extendqisi2
 1946 0b70 07FB0366 		mla	r6, r7, r3, r6
 1947 0b74 2B78     		ldrb	r3, [r5, #0]	@ zero_extendqisi2
 1948 0b76 F17A     		ldrb	r1, [r6, #11]	@ zero_extendqisi2
 1949              	.LVL278:
 1950 0b78 0A48     		ldr	r0, .L239+20
 1951 0b7a CB18     		adds	r3, r1, r3
 1952 0b7c DBB2     		uxtb	r3, r3
 1953              	.LVL279:
 1954 0b7e 2B70     		strb	r3, [r5, #0]
 1955 0b80 9B18     		adds	r3, r3, r2
 1956              	.LVL280:
 1957 0b82 2370     		strb	r3, [r4, #0]
 1958 0b84 FFF7FEFF 		bl	uart_transmit
 1959              	.LVL281:
 1960              	.LBE198:
 1961              	.LBB199:
 1962 0b88 0B4B     		ldr	r3, .L239+40
 1963 0b8a 1978     		ldrb	r1, [r3, #0]	@ zero_extendqisi2
 1964              	.LVL282:
 1965 0b8c D4E6     		b	.L210
 1966              	.L240:
 1967 0b8e 00BF     		.align	2
 1968              	.L239:
 1969 0b90 00000000 		.word	.LANCHOR23
 1970 0b94 00000000 		.word	nb_waypoint
 1971 0b98 00000000 		.word	nav_utm_east0
 1972 0b9c 00000000 		.word	waypoints
 1973 0ba0 00000000 		.word	nav_utm_north0
 1974 0ba4 00000000 		.word	uart2
 1975 0ba8 00000000 		.word	downlink_nb_bytes
 1976 0bac 00000000 		.word	downlink_nb_msgs
 1977 0bb0 00000000 		.word	ck_a
 1978 0bb4 00000000 		.word	ck_b
 1979 0bb8 00000000 		.word	nav_utm_zone0
 1980              	.LVL283:
 1981              	.L36:
 1982              	.LBE199:
 1983              		.loc 1 422 0 discriminator 25
 1984 0bbc 9A4B     		ldr	r3, .L241+8
 1985 0bbe 1A78     		ldrb	r2, [r3, #0]	@ zero_extendqisi2
 1986 0bc0 0132     		adds	r2, r2, #1
 1987 0bc2 1A70     		strb	r2, [r3, #0]
 1988              	.L32:
 1989              	.LBE182:
 1990              	.LBE181:
 1991              		.loc 1 422 0 discriminator 21
 1992 0bc4 994B     		ldr	r3, .L241+12
 1993 0bc6 1B78     		ldrb	r3, [r3, #0]	@ zero_extendqisi2
 1994 0bc8 182B     		cmp	r3, #24
 1995 0bca 00F04F81 		beq	.L37
 1996              		.loc 1 422 0 discriminator 26
 1997 0bce 1E2B     		cmp	r3, #30
 1998 0bd0 40F04C81 		bne	.L37
 1999              	.LBB200:
 2000              		.loc 1 422 0 discriminator 27
 2001 0bd4 964B     		ldr	r3, .L241+16
 2002 0bd6 9748     		ldr	r0, .L241+20
 2003 0bd8 1A21     		movs	r1, #26
 2004 0bda 1C68     		ldr	r4, [r3, #0]	@ float
 2005              	.LVL284:
 2006 0bdc FFF7FEFF 		bl	uart_check_free_space
 2007              	.LVL285:
 2008 0be0 0028     		cmp	r0, #0
 2009 0be2 00F03F81 		beq	.L38
 2010              		.loc 1 422 0 discriminator 29
 2011 0be6 24F00040 		bic	r0, r4, #-2147483648
 2012 0bea FFF7FEFF 		bl	__aeabi_f2d
 2013 0bee 8CA3     		adr	r3, .L241
 2014 0bf0 D3E90023 		ldrd	r2, [r3]
 2015 0bf4 FFF7FEFF 		bl	__aeabi_ddiv
 2016 0bf8 FFF7FEFF 		bl	__aeabi_d2uiz
 2017 0bfc 8E4B     		ldr	r3, .L241+24
 2018 0bfe C7B2     		uxtb	r7, r0
 2019 0c00 1A88     		ldrh	r2, [r3, #0]
 2020              	.LBB201:
 2021 0c02 9921     		movs	r1, #153
 2022              	.LBE201:
 2023 0c04 1A32     		adds	r2, r2, #26
 2024 0c06 1A80     		strh	r2, [r3, #0]	@ movhi
 2025 0c08 8C4B     		ldr	r3, .L241+28
 2026              	.LBB202:
 2027 0c0a 8A48     		ldr	r0, .L241+20
 2028              	.LBE202:
 2029 0c0c 1A88     		ldrh	r2, [r3, #0]
 2030 0c0e 8C4D     		ldr	r5, .L241+32
 2031 0c10 0132     		adds	r2, r2, #1
 2032 0c12 1A80     		strh	r2, [r3, #0]	@ movhi
 2033              	.LBB203:
 2034 0c14 FFF7FEFF 		bl	uart_transmit
 2035              	.LVL286:
 2036 0c18 1A21     		movs	r1, #26
 2037 0c1a 8648     		ldr	r0, .L241+20
 2038              	.LBE203:
 2039 0c1c 894C     		ldr	r4, .L241+36
 2040              	.LVL287:
 2041              	.LBB204:
 2042 0c1e FFF7FEFF 		bl	uart_transmit
 2043              	.LBE204:
 2044 0c22 1B23     		movs	r3, #27
 2045 0c24 2B70     		strb	r3, [r5, #0]
 2046 0c26 3523     		movs	r3, #53
 2047 0c28 2370     		strb	r3, [r4, #0]
 2048 0c2a 0121     		movs	r1, #1
 2049 0c2c 8148     		ldr	r0, .L241+20
 2050 0c2e FFF7FEFF 		bl	uart_transmit
 2051 0c32 2B78     		ldrb	r3, [r5, #0]	@ zero_extendqisi2
 2052 0c34 2278     		ldrb	r2, [r4, #0]	@ zero_extendqisi2
 2053 0c36 0A33     		adds	r3, r3, #10
 2054 0c38 DBB2     		uxtb	r3, r3
 2055 0c3a 2B70     		strb	r3, [r5, #0]
 2056 0c3c 9B18     		adds	r3, r3, r2
 2057 0c3e 2370     		strb	r3, [r4, #0]
 2058 0c40 0A21     		movs	r1, #10
 2059 0c42 7C48     		ldr	r0, .L241+20
 2060 0c44 FFF7FEFF 		bl	uart_transmit
 2061              	.LBB205:
 2062 0c48 7F4B     		ldr	r3, .L241+40
 2063 0c4a 2278     		ldrb	r2, [r4, #0]	@ zero_extendqisi2
 2064 0c4c 1978     		ldrb	r1, [r3, #0]	@ zero_extendqisi2
 2065              	.LVL288:
 2066 0c4e 2B78     		ldrb	r3, [r5, #0]	@ zero_extendqisi2
 2067 0c50 7848     		ldr	r0, .L241+20
 2068 0c52 CB18     		adds	r3, r1, r3
 2069 0c54 DBB2     		uxtb	r3, r3
 2070              	.LVL289:
 2071 0c56 2B70     		strb	r3, [r5, #0]
 2072 0c58 9B18     		adds	r3, r3, r2
 2073              	.LVL290:
 2074 0c5a 2370     		strb	r3, [r4, #0]
 2075 0c5c FFF7FEFF 		bl	uart_transmit
 2076              	.LVL291:
 2077              	.LBE205:
 2078              	.LBB206:
 2079 0c60 7A4B     		ldr	r3, .L241+44
 2080 0c62 2278     		ldrb	r2, [r4, #0]	@ zero_extendqisi2
 2081 0c64 1978     		ldrb	r1, [r3, #0]	@ zero_extendqisi2
 2082              	.LVL292:
 2083 0c66 2B78     		ldrb	r3, [r5, #0]	@ zero_extendqisi2
 2084              	.LBE206:
 2085              	.LBB207:
 2086 0c68 794E     		ldr	r6, .L241+48
 2087              	.LBE207:
 2088              	.LBB208:
 2089 0c6a CB18     		adds	r3, r1, r3
 2090 0c6c DBB2     		uxtb	r3, r3
 2091              	.LVL293:
 2092 0c6e 2B70     		strb	r3, [r5, #0]
 2093 0c70 9B18     		adds	r3, r3, r2
 2094              	.LVL294:
 2095 0c72 2370     		strb	r3, [r4, #0]
 2096 0c74 6F48     		ldr	r0, .L241+20
 2097 0c76 FFF7FEFF 		bl	uart_transmit
 2098              	.LVL295:
 2099              	.LBE208:
 2100              	.LBB209:
 2101 0c7a 3178     		ldrb	r1, [r6, #0]	@ zero_extendqisi2
 2102              	.LVL296:
 2103 0c7c 2B78     		ldrb	r3, [r5, #0]	@ zero_extendqisi2
 2104 0c7e 2278     		ldrb	r2, [r4, #0]	@ zero_extendqisi2
 2105 0c80 CB18     		adds	r3, r1, r3
 2106 0c82 DBB2     		uxtb	r3, r3
 2107              	.LVL297:
 2108 0c84 2B70     		strb	r3, [r5, #0]
 2109 0c86 9B18     		adds	r3, r3, r2
 2110              	.LVL298:
 2111 0c88 2370     		strb	r3, [r4, #0]
 2112 0c8a 6A48     		ldr	r0, .L241+20
 2113 0c8c FFF7FEFF 		bl	uart_transmit
 2114              	.LVL299:
 2115              	.LBE209:
 2116              	.LBB210:
 2117 0c90 7178     		ldrb	r1, [r6, #1]	@ zero_extendqisi2
 2118              	.LVL300:
 2119 0c92 2B78     		ldrb	r3, [r5, #0]	@ zero_extendqisi2
 2120 0c94 2278     		ldrb	r2, [r4, #0]	@ zero_extendqisi2
 2121 0c96 CB18     		adds	r3, r1, r3
 2122 0c98 DBB2     		uxtb	r3, r3
 2123              	.LVL301:
 2124 0c9a 2B70     		strb	r3, [r5, #0]
 2125 0c9c 9B18     		adds	r3, r3, r2
 2126              	.LVL302:
 2127 0c9e 2370     		strb	r3, [r4, #0]
 2128 0ca0 6448     		ldr	r0, .L241+20
 2129 0ca2 FFF7FEFF 		bl	uart_transmit
 2130              	.LVL303:
 2131              	.LBE210:
 2132              	.LBB211:
 2133 0ca6 B178     		ldrb	r1, [r6, #2]	@ zero_extendqisi2
 2134              	.LVL304:
 2135 0ca8 2B78     		ldrb	r3, [r5, #0]	@ zero_extendqisi2
 2136 0caa 2278     		ldrb	r2, [r4, #0]	@ zero_extendqisi2
 2137 0cac CB18     		adds	r3, r1, r3
 2138 0cae DBB2     		uxtb	r3, r3
 2139              	.LVL305:
 2140 0cb0 2B70     		strb	r3, [r5, #0]
 2141 0cb2 9B18     		adds	r3, r3, r2
 2142              	.LVL306:
 2143 0cb4 2370     		strb	r3, [r4, #0]
 2144 0cb6 5F48     		ldr	r0, .L241+20
 2145 0cb8 FFF7FEFF 		bl	uart_transmit
 2146              	.LVL307:
 2147              	.LBE211:
 2148              	.LBB212:
 2149 0cbc F178     		ldrb	r1, [r6, #3]	@ zero_extendqisi2
 2150              	.LVL308:
 2151 0cbe 2B78     		ldrb	r3, [r5, #0]	@ zero_extendqisi2
 2152 0cc0 2278     		ldrb	r2, [r4, #0]	@ zero_extendqisi2
 2153 0cc2 CB18     		adds	r3, r1, r3
 2154 0cc4 DBB2     		uxtb	r3, r3
 2155              	.LBE212:
 2156              	.LBB213:
 2157 0cc6 634E     		ldr	r6, .L241+52
 2158              	.LVL309:
 2159              	.LBE213:
 2160              	.LBB214:
 2161 0cc8 2B70     		strb	r3, [r5, #0]
 2162 0cca 9B18     		adds	r3, r3, r2
 2163              	.LVL310:
 2164 0ccc 2370     		strb	r3, [r4, #0]
 2165 0cce 5948     		ldr	r0, .L241+20
 2166 0cd0 FFF7FEFF 		bl	uart_transmit
 2167              	.LVL311:
 2168              	.LBE214:
 2169              	.LBB215:
 2170 0cd4 3178     		ldrb	r1, [r6, #0]	@ zero_extendqisi2
 2171              	.LVL312:
 2172 0cd6 2B78     		ldrb	r3, [r5, #0]	@ zero_extendqisi2
 2173 0cd8 2278     		ldrb	r2, [r4, #0]	@ zero_extendqisi2
 2174 0cda CB18     		adds	r3, r1, r3
 2175 0cdc DBB2     		uxtb	r3, r3
 2176              	.LVL313:
 2177 0cde 2B70     		strb	r3, [r5, #0]
 2178 0ce0 9B18     		adds	r3, r3, r2
 2179              	.LVL314:
 2180 0ce2 2370     		strb	r3, [r4, #0]
 2181 0ce4 5348     		ldr	r0, .L241+20
 2182 0ce6 FFF7FEFF 		bl	uart_transmit
 2183              	.LVL315:
 2184              	.LBE215:
 2185              	.LBB216:
 2186 0cea 7178     		ldrb	r1, [r6, #1]	@ zero_extendqisi2
 2187              	.LVL316:
 2188 0cec 2B78     		ldrb	r3, [r5, #0]	@ zero_extendqisi2
 2189 0cee 2278     		ldrb	r2, [r4, #0]	@ zero_extendqisi2
 2190 0cf0 CB18     		adds	r3, r1, r3
 2191 0cf2 DBB2     		uxtb	r3, r3
 2192              	.LVL317:
 2193 0cf4 2B70     		strb	r3, [r5, #0]
 2194 0cf6 9B18     		adds	r3, r3, r2
 2195              	.LVL318:
 2196 0cf8 2370     		strb	r3, [r4, #0]
 2197 0cfa 4E48     		ldr	r0, .L241+20
 2198 0cfc FFF7FEFF 		bl	uart_transmit
 2199              	.LVL319:
 2200              	.LBE216:
 2201              	.LBB217:
 2202 0d00 B178     		ldrb	r1, [r6, #2]	@ zero_extendqisi2
 2203              	.LVL320:
 2204 0d02 2B78     		ldrb	r3, [r5, #0]	@ zero_extendqisi2
 2205 0d04 2278     		ldrb	r2, [r4, #0]	@ zero_extendqisi2
 2206 0d06 CB18     		adds	r3, r1, r3
 2207 0d08 DBB2     		uxtb	r3, r3
 2208              	.LVL321:
 2209 0d0a 2B70     		strb	r3, [r5, #0]
 2210 0d0c 9B18     		adds	r3, r3, r2
 2211              	.LVL322:
 2212 0d0e 2370     		strb	r3, [r4, #0]
 2213 0d10 4848     		ldr	r0, .L241+20
 2214 0d12 FFF7FEFF 		bl	uart_transmit
 2215              	.LVL323:
 2216              	.LBE217:
 2217              	.LBB218:
 2218 0d16 F178     		ldrb	r1, [r6, #3]	@ zero_extendqisi2
 2219              	.LVL324:
 2220 0d18 2B78     		ldrb	r3, [r5, #0]	@ zero_extendqisi2
 2221 0d1a 2278     		ldrb	r2, [r4, #0]	@ zero_extendqisi2
 2222 0d1c CB18     		adds	r3, r1, r3
 2223 0d1e DBB2     		uxtb	r3, r3
 2224              	.LBE218:
 2225              	.LBB219:
 2226 0d20 4D4E     		ldr	r6, .L241+56
 2227              	.LVL325:
 2228              	.LBE219:
 2229              	.LBB220:
 2230 0d22 2B70     		strb	r3, [r5, #0]
 2231 0d24 9B18     		adds	r3, r3, r2
 2232              	.LVL326:
 2233 0d26 2370     		strb	r3, [r4, #0]
 2234 0d28 4248     		ldr	r0, .L241+20
 2235 0d2a FFF7FEFF 		bl	uart_transmit
 2236              	.LVL327:
 2237              	.LBE220:
 2238              	.LBB221:
 2239 0d2e 3178     		ldrb	r1, [r6, #0]	@ zero_extendqisi2
 2240              	.LVL328:
 2241 0d30 2B78     		ldrb	r3, [r5, #0]	@ zero_extendqisi2
 2242 0d32 2278     		ldrb	r2, [r4, #0]	@ zero_extendqisi2
 2243 0d34 CB18     		adds	r3, r1, r3
 2244 0d36 DBB2     		uxtb	r3, r3
 2245              	.LVL329:
 2246 0d38 2B70     		strb	r3, [r5, #0]
 2247 0d3a 9B18     		adds	r3, r3, r2
 2248              	.LVL330:
 2249 0d3c 2370     		strb	r3, [r4, #0]
 2250 0d3e 3D48     		ldr	r0, .L241+20
 2251 0d40 FFF7FEFF 		bl	uart_transmit
 2252              	.LVL331:
 2253              	.LBE221:
 2254              	.LBB222:
 2255 0d44 7178     		ldrb	r1, [r6, #1]	@ zero_extendqisi2
 2256              	.LVL332:
 2257 0d46 2B78     		ldrb	r3, [r5, #0]	@ zero_extendqisi2
 2258 0d48 2278     		ldrb	r2, [r4, #0]	@ zero_extendqisi2
 2259 0d4a CB18     		adds	r3, r1, r3
 2260 0d4c DBB2     		uxtb	r3, r3
 2261              	.LVL333:
 2262 0d4e 2B70     		strb	r3, [r5, #0]
 2263 0d50 9B18     		adds	r3, r3, r2
 2264              	.LVL334:
 2265 0d52 2370     		strb	r3, [r4, #0]
 2266 0d54 3748     		ldr	r0, .L241+20
 2267 0d56 FFF7FEFF 		bl	uart_transmit
 2268              	.LVL335:
 2269              	.LBE222:
 2270              	.LBB223:
 2271 0d5a B178     		ldrb	r1, [r6, #2]	@ zero_extendqisi2
 2272              	.LVL336:
 2273 0d5c 2B78     		ldrb	r3, [r5, #0]	@ zero_extendqisi2
 2274 0d5e 2278     		ldrb	r2, [r4, #0]	@ zero_extendqisi2
 2275 0d60 CB18     		adds	r3, r1, r3
 2276 0d62 DBB2     		uxtb	r3, r3
 2277              	.LVL337:
 2278 0d64 2B70     		strb	r3, [r5, #0]
 2279 0d66 9B18     		adds	r3, r3, r2
 2280              	.LVL338:
 2281 0d68 2370     		strb	r3, [r4, #0]
 2282 0d6a 3248     		ldr	r0, .L241+20
 2283 0d6c FFF7FEFF 		bl	uart_transmit
 2284              	.LVL339:
 2285              	.LBE223:
 2286              	.LBB224:
 2287 0d70 F178     		ldrb	r1, [r6, #3]	@ zero_extendqisi2
 2288              	.LVL340:
 2289 0d72 2B78     		ldrb	r3, [r5, #0]	@ zero_extendqisi2
 2290 0d74 2278     		ldrb	r2, [r4, #0]	@ zero_extendqisi2
 2291 0d76 CB18     		adds	r3, r1, r3
 2292 0d78 DBB2     		uxtb	r3, r3
 2293              	.LBE224:
 2294              	.LBB225:
 2295 0d7a 384E     		ldr	r6, .L241+60
 2296              	.LVL341:
 2297              	.LBE225:
 2298              	.LBB226:
 2299 0d7c 2B70     		strb	r3, [r5, #0]
 2300 0d7e 9B18     		adds	r3, r3, r2
 2301              	.LVL342:
 2302 0d80 2370     		strb	r3, [r4, #0]
 2303 0d82 2C48     		ldr	r0, .L241+20
 2304 0d84 FFF7FEFF 		bl	uart_transmit
 2305              	.LVL343:
 2306              	.LBE226:
 2307              	.LBB227:
 2308 0d88 3178     		ldrb	r1, [r6, #0]	@ zero_extendqisi2
 2309              	.LVL344:
 2310 0d8a 2B78     		ldrb	r3, [r5, #0]	@ zero_extendqisi2
 2311 0d8c 2278     		ldrb	r2, [r4, #0]	@ zero_extendqisi2
 2312 0d8e CB18     		adds	r3, r1, r3
 2313 0d90 DBB2     		uxtb	r3, r3
 2314              	.LVL345:
 2315 0d92 2B70     		strb	r3, [r5, #0]
 2316 0d94 9B18     		adds	r3, r3, r2
 2317              	.LVL346:
 2318 0d96 2370     		strb	r3, [r4, #0]
 2319 0d98 2648     		ldr	r0, .L241+20
 2320 0d9a FFF7FEFF 		bl	uart_transmit
 2321              	.LVL347:
 2322              	.LBE227:
 2323              	.LBB228:
 2324 0d9e 7178     		ldrb	r1, [r6, #1]	@ zero_extendqisi2
 2325              	.LVL348:
 2326 0da0 2B78     		ldrb	r3, [r5, #0]	@ zero_extendqisi2
 2327 0da2 2278     		ldrb	r2, [r4, #0]	@ zero_extendqisi2
 2328 0da4 CB18     		adds	r3, r1, r3
 2329 0da6 DBB2     		uxtb	r3, r3
 2330              	.LVL349:
 2331 0da8 2B70     		strb	r3, [r5, #0]
 2332 0daa 9B18     		adds	r3, r3, r2
 2333              	.LVL350:
 2334 0dac 2370     		strb	r3, [r4, #0]
 2335 0dae 2148     		ldr	r0, .L241+20
 2336 0db0 FFF7FEFF 		bl	uart_transmit
 2337              	.LVL351:
 2338              	.LBE228:
 2339              	.LBB229:
 2340 0db4 B178     		ldrb	r1, [r6, #2]	@ zero_extendqisi2
 2341              	.LVL352:
 2342 0db6 2B78     		ldrb	r3, [r5, #0]	@ zero_extendqisi2
 2343 0db8 2278     		ldrb	r2, [r4, #0]	@ zero_extendqisi2
 2344 0dba CB18     		adds	r3, r1, r3
 2345 0dbc DBB2     		uxtb	r3, r3
 2346              	.LVL353:
 2347 0dbe 2B70     		strb	r3, [r5, #0]
 2348 0dc0 9B18     		adds	r3, r3, r2
 2349              	.LVL354:
 2350 0dc2 2370     		strb	r3, [r4, #0]
 2351 0dc4 1B48     		ldr	r0, .L241+20
 2352 0dc6 FFF7FEFF 		bl	uart_transmit
 2353              	.LVL355:
 2354              	.LBE229:
 2355              	.LBB230:
 2356 0dca F178     		ldrb	r1, [r6, #3]	@ zero_extendqisi2
 2357              	.LVL356:
 2358 0dcc 2B78     		ldrb	r3, [r5, #0]	@ zero_extendqisi2
 2359 0dce 2278     		ldrb	r2, [r4, #0]	@ zero_extendqisi2
 2360 0dd0 CB18     		adds	r3, r1, r3
 2361 0dd2 DBB2     		uxtb	r3, r3
 2362              	.LVL357:
 2363 0dd4 2B70     		strb	r3, [r5, #0]
 2364 0dd6 9B18     		adds	r3, r3, r2
 2365              	.LVL358:
 2366 0dd8 2370     		strb	r3, [r4, #0]
 2367 0dda 1648     		ldr	r0, .L241+20
 2368 0ddc FFF7FEFF 		bl	uart_transmit
 2369              	.LVL359:
 2370              	.LBE230:
 2371              	.LBB231:
 2372 0de0 2B78     		ldrb	r3, [r5, #0]	@ zero_extendqisi2
 2373 0de2 2278     		ldrb	r2, [r4, #0]	@ zero_extendqisi2
 2374 0de4 FB18     		adds	r3, r7, r3
 2375 0de6 DBB2     		uxtb	r3, r3
 2376              	.LVL360:
 2377 0de8 2B70     		strb	r3, [r5, #0]
 2378 0dea 9B18     		adds	r3, r3, r2
 2379              	.LVL361:
 2380 0dec 2370     		strb	r3, [r4, #0]
 2381 0dee 3946     		mov	r1, r7
 2382 0df0 1048     		ldr	r0, .L241+20
 2383 0df2 FFF7FEFF 		bl	uart_transmit
 2384              	.LBE231:
 2385              	.LBB232:
 2386 0df6 1A4B     		ldr	r3, .L241+64
 2387 0df8 2278     		ldrb	r2, [r4, #0]	@ zero_extendqisi2
 2388 0dfa 1978     		ldrb	r1, [r3, #0]	@ zero_extendqisi2
 2389              	.LVL362:
 2390 0dfc 2B78     		ldrb	r3, [r5, #0]	@ zero_extendqisi2
 2391 0dfe 0D48     		ldr	r0, .L241+20
 2392 0e00 CB18     		adds	r3, r1, r3
 2393 0e02 DBB2     		uxtb	r3, r3
 2394              	.LVL363:
 2395 0e04 2B70     		strb	r3, [r5, #0]
 2396 0e06 9B18     		adds	r3, r3, r2
 2397              	.LVL364:
 2398 0e08 2370     		strb	r3, [r4, #0]
 2399 0e0a FFF7FEFF 		bl	uart_transmit
 2400              	.LVL365:
 2401              	.LBE232:
 2402 0e0e 2978     		ldrb	r1, [r5, #0]	@ zero_extendqisi2
 2403 0e10 0848     		ldr	r0, .L241+20
 2404 0e12 FFF7FEFF 		bl	uart_transmit
 2405 0e16 0748     		ldr	r0, .L241+20
 2406 0e18 2178     		ldrb	r1, [r4, #0]	@ zero_extendqisi2
 2407 0e1a FFF7FEFF 		bl	uart_transmit
 2408 0e1e 25E0     		b	.L37
 2409              	.L242:
 2410              		.align	3
 2411              	.L241:
 2412 0e20 182D4454 		.word	1413754136
 2413 0e24 FB211940 		.word	1075388923
 2414 0e28 00000000 		.word	downlink_nb_ovrn
 2415 0e2c 00000000 		.word	.LANCHOR11
 2416 0e30 00000000 		.word	nav_circle_radians
 2417 0e34 00000000 		.word	uart2
 2418 0e38 00000000 		.word	downlink_nb_bytes
 2419 0e3c 00000000 		.word	downlink_nb_msgs
 2420 0e40 00000000 		.word	ck_a
 2421 0e44 00000000 		.word	ck_b
 2422 0e48 00000000 		.word	nav_block
 2423 0e4c 00000000 		.word	nav_stage
 2424 0e50 00000000 		.word	estimator_x
 2425 0e54 00000000 		.word	estimator_y
 2426 0e58 00000000 		.word	dist2_to_wp
 2427 0e5c 00000000 		.word	dist2_to_home
 2428 0e60 00000000 		.word	nav_oval_count
 2429              	.LVL366:
 2430              	.L38:
 2431              		.loc 1 422 0 discriminator 30
 2432 0e64 4A4B     		ldr	r3, .L243
 2433 0e66 1A78     		ldrb	r2, [r3, #0]	@ zero_extendqisi2
 2434 0e68 0132     		adds	r2, r2, #1
 2435 0e6a 1A70     		strb	r2, [r3, #0]
 2436              	.LVL367:
 2437              	.L37:
 2438              	.LBE200:
 2439              		.loc 1 422 0 discriminator 32
 2440 0e6c 494B     		ldr	r3, .L243+4
 2441 0e6e 1B78     		ldrb	r3, [r3, #0]	@ zero_extendqisi2
 2442 0e70 302B     		cmp	r3, #48
 2443 0e72 40F0A380 		bne	.L39
 2444              		.loc 1 422 0 discriminator 33
 2445 0e76 484B     		ldr	r3, .L243+8
 2446 0e78 1B78     		ldrb	r3, [r3, #0]	@ zero_extendqisi2
 2447 0e7a 002B     		cmp	r3, #0
 2448 0e7c 00F02D82 		beq	.L40
 2449              		.loc 1 422 0 discriminator 35
 2450 0e80 4648     		ldr	r0, .L243+12
 2451 0e82 1221     		movs	r1, #18
 2452 0e84 FFF7FEFF 		bl	uart_check_free_space
 2453 0e88 0028     		cmp	r0, #0
 2454 0e8a 00F02282 		beq	.L42
 2455              		.loc 1 422 0 discriminator 36
 2456 0e8e 444B     		ldr	r3, .L243+16
 2457              	.LBB233:
 2458 0e90 4248     		ldr	r0, .L243+12
 2459              	.LBE233:
 2460 0e92 1A88     		ldrh	r2, [r3, #0]
 2461              	.LBB234:
 2462 0e94 9921     		movs	r1, #153
 2463              	.LBE234:
 2464 0e96 1232     		adds	r2, r2, #18
 2465 0e98 1A80     		strh	r2, [r3, #0]	@ movhi
 2466 0e9a 424B     		ldr	r3, .L243+20
 2467 0e9c 424D     		ldr	r5, .L243+24
 2468 0e9e 1A88     		ldrh	r2, [r3, #0]
 2469 0ea0 424C     		ldr	r4, .L243+28
 2470 0ea2 0132     		adds	r2, r2, #1
 2471 0ea4 1A80     		strh	r2, [r3, #0]	@ movhi
 2472              	.LBB235:
 2473 0ea6 FFF7FEFF 		bl	uart_transmit
 2474              	.LVL368:
 2475 0eaa 3C48     		ldr	r0, .L243+12
 2476 0eac 1221     		movs	r1, #18
 2477 0eae FFF7FEFF 		bl	uart_transmit
 2478              	.LBE235:
 2479 0eb2 1323     		movs	r3, #19
 2480 0eb4 2B70     		strb	r3, [r5, #0]
 2481 0eb6 2523     		movs	r3, #37
 2482 0eb8 2370     		strb	r3, [r4, #0]
 2483 0eba 3848     		ldr	r0, .L243+12
 2484 0ebc 0121     		movs	r1, #1
 2485 0ebe FFF7FEFF 		bl	uart_transmit
 2486 0ec2 2B78     		ldrb	r3, [r5, #0]	@ zero_extendqisi2
 2487 0ec4 2278     		ldrb	r2, [r4, #0]	@ zero_extendqisi2
 2488 0ec6 1533     		adds	r3, r3, #21
 2489 0ec8 DBB2     		uxtb	r3, r3
 2490              	.LBB236:
 2491 0eca 394E     		ldr	r6, .L243+32
 2492              	.LBE236:
 2493 0ecc 2B70     		strb	r3, [r5, #0]
 2494 0ece 9B18     		adds	r3, r3, r2
 2495 0ed0 2370     		strb	r3, [r4, #0]
 2496 0ed2 3248     		ldr	r0, .L243+12
 2497 0ed4 1521     		movs	r1, #21
 2498 0ed6 FFF7FEFF 		bl	uart_transmit
 2499              	.LBB237:
 2500 0eda 3178     		ldrb	r1, [r6, #0]	@ zero_extendqisi2
 2501              	.LVL369:
 2502 0edc 2B78     		ldrb	r3, [r5, #0]	@ zero_extendqisi2
 2503 0ede 2278     		ldrb	r2, [r4, #0]	@ zero_extendqisi2
 2504 0ee0 CB18     		adds	r3, r1, r3
 2505 0ee2 DBB2     		uxtb	r3, r3
 2506              	.LVL370:
 2507 0ee4 2B70     		strb	r3, [r5, #0]
 2508 0ee6 9B18     		adds	r3, r3, r2
 2509              	.LVL371:
 2510 0ee8 2370     		strb	r3, [r4, #0]
 2511 0eea 2C48     		ldr	r0, .L243+12
 2512 0eec FFF7FEFF 		bl	uart_transmit
 2513              	.LVL372:
 2514              	.LBE237:
 2515              	.LBB238:
 2516 0ef0 7178     		ldrb	r1, [r6, #1]	@ zero_extendqisi2
 2517              	.LVL373:
 2518 0ef2 2B78     		ldrb	r3, [r5, #0]	@ zero_extendqisi2
 2519 0ef4 2278     		ldrb	r2, [r4, #0]	@ zero_extendqisi2
 2520 0ef6 CB18     		adds	r3, r1, r3
 2521 0ef8 DBB2     		uxtb	r3, r3
 2522              	.LVL374:
 2523 0efa 2B70     		strb	r3, [r5, #0]
 2524 0efc 9B18     		adds	r3, r3, r2
 2525              	.LVL375:
 2526 0efe 2370     		strb	r3, [r4, #0]
 2527 0f00 2648     		ldr	r0, .L243+12
 2528 0f02 FFF7FEFF 		bl	uart_transmit
 2529              	.LVL376:
 2530              	.LBE238:
 2531              	.LBB239:
 2532 0f06 B178     		ldrb	r1, [r6, #2]	@ zero_extendqisi2
 2533              	.LVL377:
 2534 0f08 2B78     		ldrb	r3, [r5, #0]	@ zero_extendqisi2
 2535 0f0a 2278     		ldrb	r2, [r4, #0]	@ zero_extendqisi2
 2536 0f0c CB18     		adds	r3, r1, r3
 2537 0f0e DBB2     		uxtb	r3, r3
 2538              	.LVL378:
 2539 0f10 2B70     		strb	r3, [r5, #0]
 2540 0f12 9B18     		adds	r3, r3, r2
 2541              	.LVL379:
 2542 0f14 2370     		strb	r3, [r4, #0]
 2543 0f16 2148     		ldr	r0, .L243+12
 2544 0f18 FFF7FEFF 		bl	uart_transmit
 2545              	.LVL380:
 2546              	.LBE239:
 2547              	.LBB240:
 2548 0f1c F178     		ldrb	r1, [r6, #3]	@ zero_extendqisi2
 2549              	.LVL381:
 2550 0f1e 2B78     		ldrb	r3, [r5, #0]	@ zero_extendqisi2
 2551 0f20 2278     		ldrb	r2, [r4, #0]	@ zero_extendqisi2
 2552 0f22 CB18     		adds	r3, r1, r3
 2553 0f24 DBB2     		uxtb	r3, r3
 2554              	.LBE240:
 2555              	.LBB241:
 2556 0f26 234E     		ldr	r6, .L243+36
 2557              	.LVL382:
 2558              	.LBE241:
 2559              	.LBB242:
 2560 0f28 2B70     		strb	r3, [r5, #0]
 2561 0f2a 9B18     		adds	r3, r3, r2
 2562              	.LVL383:
 2563 0f2c 2370     		strb	r3, [r4, #0]
 2564 0f2e 1B48     		ldr	r0, .L243+12
 2565 0f30 FFF7FEFF 		bl	uart_transmit
 2566              	.LVL384:
 2567              	.LBE242:
 2568              	.LBB243:
 2569 0f34 3178     		ldrb	r1, [r6, #0]	@ zero_extendqisi2
 2570              	.LVL385:
 2571 0f36 2B78     		ldrb	r3, [r5, #0]	@ zero_extendqisi2
 2572 0f38 2278     		ldrb	r2, [r4, #0]	@ zero_extendqisi2
 2573 0f3a CB18     		adds	r3, r1, r3
 2574 0f3c DBB2     		uxtb	r3, r3
 2575              	.LVL386:
 2576 0f3e 2B70     		strb	r3, [r5, #0]
 2577 0f40 9B18     		adds	r3, r3, r2
 2578              	.LVL387:
 2579 0f42 2370     		strb	r3, [r4, #0]
 2580 0f44 1548     		ldr	r0, .L243+12
 2581 0f46 FFF7FEFF 		bl	uart_transmit
 2582              	.LVL388:
 2583              	.LBE243:
 2584              	.LBB244:
 2585 0f4a 7178     		ldrb	r1, [r6, #1]	@ zero_extendqisi2
 2586              	.LVL389:
 2587 0f4c 2B78     		ldrb	r3, [r5, #0]	@ zero_extendqisi2
 2588 0f4e 2278     		ldrb	r2, [r4, #0]	@ zero_extendqisi2
 2589 0f50 CB18     		adds	r3, r1, r3
 2590 0f52 DBB2     		uxtb	r3, r3
 2591              	.LVL390:
 2592 0f54 2B70     		strb	r3, [r5, #0]
 2593 0f56 9B18     		adds	r3, r3, r2
 2594              	.LVL391:
 2595 0f58 2370     		strb	r3, [r4, #0]
 2596 0f5a 1048     		ldr	r0, .L243+12
 2597 0f5c FFF7FEFF 		bl	uart_transmit
 2598              	.LVL392:
 2599              	.LBE244:
 2600              	.LBB245:
 2601 0f60 B178     		ldrb	r1, [r6, #2]	@ zero_extendqisi2
 2602              	.LVL393:
 2603 0f62 2B78     		ldrb	r3, [r5, #0]	@ zero_extendqisi2
 2604 0f64 2278     		ldrb	r2, [r4, #0]	@ zero_extendqisi2
 2605 0f66 CB18     		adds	r3, r1, r3
 2606 0f68 DBB2     		uxtb	r3, r3
 2607              	.LVL394:
 2608 0f6a 2B70     		strb	r3, [r5, #0]
 2609 0f6c 9B18     		adds	r3, r3, r2
 2610              	.LVL395:
 2611 0f6e 2370     		strb	r3, [r4, #0]
 2612 0f70 0A48     		ldr	r0, .L243+12
 2613 0f72 FFF7FEFF 		bl	uart_transmit
 2614              	.LVL396:
 2615              	.LBE245:
 2616              	.LBB246:
 2617 0f76 F178     		ldrb	r1, [r6, #3]	@ zero_extendqisi2
 2618              	.LVL397:
 2619 0f78 2B78     		ldrb	r3, [r5, #0]	@ zero_extendqisi2
 2620 0f7a 2278     		ldrb	r2, [r4, #0]	@ zero_extendqisi2
 2621 0f7c CB18     		adds	r3, r1, r3
 2622 0f7e DBB2     		uxtb	r3, r3
 2623              	.LVL398:
 2624 0f80 2B70     		strb	r3, [r5, #0]
 2625 0f82 9B18     		adds	r3, r3, r2
 2626              	.LVL399:
 2627 0f84 2370     		strb	r3, [r4, #0]
 2628 0f86 0548     		ldr	r0, .L243+12
 2629 0f88 FFF7FEFF 		bl	uart_transmit
 2630              	.LVL400:
 2631              	.LBE246:
 2632              	.LBB247:
 2633 0f8c 0A4E     		ldr	r6, .L243+40
 2634 0f8e 6BE1     		b	.L211
 2635              	.L244:
 2636              		.align	2
 2637              	.L243:
 2638 0f90 00000000 		.word	downlink_nb_ovrn
 2639 0f94 00000000 		.word	.LANCHOR12
 2640 0f98 00000000 		.word	nav_in_circle
 2641 0f9c 00000000 		.word	uart2
 2642 0fa0 00000000 		.word	downlink_nb_bytes
 2643 0fa4 00000000 		.word	downlink_nb_msgs
 2644 0fa8 00000000 		.word	ck_a
 2645 0fac 00000000 		.word	ck_b
 2646 0fb0 00000000 		.word	nav_circle_x
 2647 0fb4 00000000 		.word	nav_circle_y
 2648 0fb8 00000000 		.word	nav_circle_radius
 2649              	.LVL401:
 2650              	.L39:
 2651              	.LBE247:
 2652              		.loc 1 422 0 discriminator 34
 2653 0fbc 362B     		cmp	r3, #54
 2654 0fbe 40F08C81 		bne	.L40
 2655              		.loc 1 422 0 discriminator 38
 2656 0fc2 9C48     		ldr	r0, .L245
 2657 0fc4 2221     		movs	r1, #34
 2658 0fc6 FFF7FEFF 		bl	uart_check_free_space
 2659 0fca 0028     		cmp	r0, #0
 2660 0fcc 00F08181 		beq	.L42
 2661              		.loc 1 422 0 discriminator 40
 2662 0fd0 994B     		ldr	r3, .L245+4
 2663              	.LBB248:
 2664 0fd2 9921     		movs	r1, #153
 2665              	.LBE248:
 2666 0fd4 1A88     		ldrh	r2, [r3, #0]
 2667              	.LBB249:
 2668 0fd6 9748     		ldr	r0, .L245
 2669              	.LBE249:
 2670 0fd8 2232     		adds	r2, r2, #34
 2671 0fda 1A80     		strh	r2, [r3, #0]	@ movhi
 2672 0fdc 974B     		ldr	r3, .L245+8
 2673 0fde 984D     		ldr	r5, .L245+12
 2674 0fe0 1A88     		ldrh	r2, [r3, #0]
 2675 0fe2 984C     		ldr	r4, .L245+16
 2676 0fe4 0132     		adds	r2, r2, #1
 2677 0fe6 1A80     		strh	r2, [r3, #0]	@ movhi
 2678              	.LBB250:
 2679 0fe8 FFF7FEFF 		bl	uart_transmit
 2680              	.LVL402:
 2681 0fec 2221     		movs	r1, #34
 2682 0fee 9148     		ldr	r0, .L245
 2683 0ff0 FFF7FEFF 		bl	uart_transmit
 2684              	.LBE250:
 2685 0ff4 2323     		movs	r3, #35
 2686 0ff6 2B70     		strb	r3, [r5, #0]
 2687 0ff8 4523     		movs	r3, #69
 2688 0ffa 0121     		movs	r1, #1
 2689 0ffc 2370     		strb	r3, [r4, #0]
 2690 0ffe 8D48     		ldr	r0, .L245
 2691 1000 FFF7FEFF 		bl	uart_transmit
 2692 1004 2B78     		ldrb	r3, [r5, #0]	@ zero_extendqisi2
 2693 1006 2278     		ldrb	r2, [r4, #0]	@ zero_extendqisi2
 2694 1008 1033     		adds	r3, r3, #16
 2695 100a DBB2     		uxtb	r3, r3
 2696              	.LBB251:
 2697 100c 8E4E     		ldr	r6, .L245+20
 2698              	.LBE251:
 2699 100e 2B70     		strb	r3, [r5, #0]
 2700 1010 9B18     		adds	r3, r3, r2
 2701 1012 1021     		movs	r1, #16
 2702 1014 2370     		strb	r3, [r4, #0]
 2703 1016 8748     		ldr	r0, .L245
 2704 1018 FFF7FEFF 		bl	uart_transmit
 2705              	.LBB252:
 2706 101c 3178     		ldrb	r1, [r6, #0]	@ zero_extendqisi2
 2707              	.LVL403:
 2708 101e 2B78     		ldrb	r3, [r5, #0]	@ zero_extendqisi2
 2709 1020 2278     		ldrb	r2, [r4, #0]	@ zero_extendqisi2
 2710 1022 CB18     		adds	r3, r1, r3
 2711 1024 DBB2     		uxtb	r3, r3
 2712              	.LVL404:
 2713 1026 2B70     		strb	r3, [r5, #0]
 2714 1028 9B18     		adds	r3, r3, r2
 2715              	.LVL405:
 2716 102a 2370     		strb	r3, [r4, #0]
 2717 102c 8148     		ldr	r0, .L245
 2718 102e FFF7FEFF 		bl	uart_transmit
 2719              	.LVL406:
 2720              	.LBE252:
 2721              	.LBB253:
 2722 1032 7178     		ldrb	r1, [r6, #1]	@ zero_extendqisi2
 2723              	.LVL407:
 2724 1034 2B78     		ldrb	r3, [r5, #0]	@ zero_extendqisi2
 2725 1036 2278     		ldrb	r2, [r4, #0]	@ zero_extendqisi2
 2726 1038 CB18     		adds	r3, r1, r3
 2727 103a DBB2     		uxtb	r3, r3
 2728              	.LVL408:
 2729 103c 2B70     		strb	r3, [r5, #0]
 2730 103e 9B18     		adds	r3, r3, r2
 2731              	.LVL409:
 2732 1040 2370     		strb	r3, [r4, #0]
 2733 1042 7C48     		ldr	r0, .L245
 2734 1044 FFF7FEFF 		bl	uart_transmit
 2735              	.LVL410:
 2736              	.LBE253:
 2737              	.LBB254:
 2738 1048 B178     		ldrb	r1, [r6, #2]	@ zero_extendqisi2
 2739              	.LVL411:
 2740 104a 2B78     		ldrb	r3, [r5, #0]	@ zero_extendqisi2
 2741 104c 2278     		ldrb	r2, [r4, #0]	@ zero_extendqisi2
 2742 104e CB18     		adds	r3, r1, r3
 2743 1050 DBB2     		uxtb	r3, r3
 2744              	.LVL412:
 2745 1052 2B70     		strb	r3, [r5, #0]
 2746 1054 9B18     		adds	r3, r3, r2
 2747              	.LVL413:
 2748 1056 2370     		strb	r3, [r4, #0]
 2749 1058 7648     		ldr	r0, .L245
 2750 105a FFF7FEFF 		bl	uart_transmit
 2751              	.LVL414:
 2752              	.LBE254:
 2753              	.LBB255:
 2754 105e F178     		ldrb	r1, [r6, #3]	@ zero_extendqisi2
 2755              	.LVL415:
 2756 1060 2B78     		ldrb	r3, [r5, #0]	@ zero_extendqisi2
 2757 1062 2278     		ldrb	r2, [r4, #0]	@ zero_extendqisi2
 2758 1064 CB18     		adds	r3, r1, r3
 2759 1066 DBB2     		uxtb	r3, r3
 2760              	.LBE255:
 2761              	.LBB256:
 2762 1068 784E     		ldr	r6, .L245+24
 2763              	.LVL416:
 2764              	.LBE256:
 2765              	.LBB257:
 2766 106a 2B70     		strb	r3, [r5, #0]
 2767 106c 9B18     		adds	r3, r3, r2
 2768              	.LVL417:
 2769 106e 2370     		strb	r3, [r4, #0]
 2770 1070 7048     		ldr	r0, .L245
 2771 1072 FFF7FEFF 		bl	uart_transmit
 2772              	.LVL418:
 2773              	.LBE257:
 2774              	.LBB258:
 2775 1076 3178     		ldrb	r1, [r6, #0]	@ zero_extendqisi2
 2776              	.LVL419:
 2777 1078 2B78     		ldrb	r3, [r5, #0]	@ zero_extendqisi2
 2778 107a 2278     		ldrb	r2, [r4, #0]	@ zero_extendqisi2
 2779 107c CB18     		adds	r3, r1, r3
 2780 107e DBB2     		uxtb	r3, r3
 2781              	.LVL420:
 2782 1080 2B70     		strb	r3, [r5, #0]
 2783 1082 9B18     		adds	r3, r3, r2
 2784              	.LVL421:
 2785 1084 2370     		strb	r3, [r4, #0]
 2786 1086 6B48     		ldr	r0, .L245
 2787 1088 FFF7FEFF 		bl	uart_transmit
 2788              	.LVL422:
 2789              	.LBE258:
 2790              	.LBB259:
 2791 108c 7178     		ldrb	r1, [r6, #1]	@ zero_extendqisi2
 2792              	.LVL423:
 2793 108e 2B78     		ldrb	r3, [r5, #0]	@ zero_extendqisi2
 2794 1090 2278     		ldrb	r2, [r4, #0]	@ zero_extendqisi2
 2795 1092 CB18     		adds	r3, r1, r3
 2796 1094 DBB2     		uxtb	r3, r3
 2797              	.LVL424:
 2798 1096 2B70     		strb	r3, [r5, #0]
 2799 1098 9B18     		adds	r3, r3, r2
 2800              	.LVL425:
 2801 109a 2370     		strb	r3, [r4, #0]
 2802 109c 6548     		ldr	r0, .L245
 2803 109e FFF7FEFF 		bl	uart_transmit
 2804              	.LVL426:
 2805              	.LBE259:
 2806              	.LBB260:
 2807 10a2 B178     		ldrb	r1, [r6, #2]	@ zero_extendqisi2
 2808              	.LVL427:
 2809 10a4 2B78     		ldrb	r3, [r5, #0]	@ zero_extendqisi2
 2810 10a6 2278     		ldrb	r2, [r4, #0]	@ zero_extendqisi2
 2811 10a8 CB18     		adds	r3, r1, r3
 2812 10aa DBB2     		uxtb	r3, r3
 2813              	.LVL428:
 2814 10ac 2B70     		strb	r3, [r5, #0]
 2815 10ae 9B18     		adds	r3, r3, r2
 2816              	.LVL429:
 2817 10b0 2370     		strb	r3, [r4, #0]
 2818 10b2 6048     		ldr	r0, .L245
 2819 10b4 FFF7FEFF 		bl	uart_transmit
 2820              	.LVL430:
 2821              	.LBE260:
 2822              	.LBB261:
 2823 10b8 F178     		ldrb	r1, [r6, #3]	@ zero_extendqisi2
 2824              	.LVL431:
 2825 10ba 2B78     		ldrb	r3, [r5, #0]	@ zero_extendqisi2
 2826 10bc 2278     		ldrb	r2, [r4, #0]	@ zero_extendqisi2
 2827 10be CB18     		adds	r3, r1, r3
 2828 10c0 DBB2     		uxtb	r3, r3
 2829              	.LBE261:
 2830              	.LBB262:
 2831 10c2 634E     		ldr	r6, .L245+28
 2832              	.LVL432:
 2833              	.LBE262:
 2834              	.LBB263:
 2835 10c4 2B70     		strb	r3, [r5, #0]
 2836 10c6 9B18     		adds	r3, r3, r2
 2837              	.LVL433:
 2838 10c8 2370     		strb	r3, [r4, #0]
 2839 10ca 5A48     		ldr	r0, .L245
 2840 10cc FFF7FEFF 		bl	uart_transmit
 2841              	.LVL434:
 2842              	.LBE263:
 2843              	.LBB264:
 2844 10d0 3178     		ldrb	r1, [r6, #0]	@ zero_extendqisi2
 2845              	.LVL435:
 2846 10d2 2B78     		ldrb	r3, [r5, #0]	@ zero_extendqisi2
 2847 10d4 2278     		ldrb	r2, [r4, #0]	@ zero_extendqisi2
 2848 10d6 CB18     		adds	r3, r1, r3
 2849 10d8 DBB2     		uxtb	r3, r3
 2850              	.LVL436:
 2851 10da 2B70     		strb	r3, [r5, #0]
 2852 10dc 9B18     		adds	r3, r3, r2
 2853              	.LVL437:
 2854 10de 2370     		strb	r3, [r4, #0]
 2855 10e0 5448     		ldr	r0, .L245
 2856 10e2 FFF7FEFF 		bl	uart_transmit
 2857              	.LVL438:
 2858              	.LBE264:
 2859              	.LBB265:
 2860 10e6 7178     		ldrb	r1, [r6, #1]	@ zero_extendqisi2
 2861              	.LVL439:
 2862 10e8 2B78     		ldrb	r3, [r5, #0]	@ zero_extendqisi2
 2863 10ea 2278     		ldrb	r2, [r4, #0]	@ zero_extendqisi2
 2864 10ec CB18     		adds	r3, r1, r3
 2865 10ee DBB2     		uxtb	r3, r3
 2866              	.LVL440:
 2867 10f0 2B70     		strb	r3, [r5, #0]
 2868 10f2 9B18     		adds	r3, r3, r2
 2869              	.LVL441:
 2870 10f4 2370     		strb	r3, [r4, #0]
 2871 10f6 4F48     		ldr	r0, .L245
 2872 10f8 FFF7FEFF 		bl	uart_transmit
 2873              	.LVL442:
 2874              	.LBE265:
 2875              	.LBB266:
 2876 10fc B178     		ldrb	r1, [r6, #2]	@ zero_extendqisi2
 2877              	.LVL443:
 2878 10fe 2B78     		ldrb	r3, [r5, #0]	@ zero_extendqisi2
 2879 1100 2278     		ldrb	r2, [r4, #0]	@ zero_extendqisi2
 2880 1102 CB18     		adds	r3, r1, r3
 2881 1104 DBB2     		uxtb	r3, r3
 2882              	.LVL444:
 2883 1106 2B70     		strb	r3, [r5, #0]
 2884 1108 9B18     		adds	r3, r3, r2
 2885              	.LVL445:
 2886 110a 2370     		strb	r3, [r4, #0]
 2887 110c 4948     		ldr	r0, .L245
 2888 110e FFF7FEFF 		bl	uart_transmit
 2889              	.LVL446:
 2890              	.LBE266:
 2891              	.LBB267:
 2892 1112 F178     		ldrb	r1, [r6, #3]	@ zero_extendqisi2
 2893              	.LVL447:
 2894 1114 2B78     		ldrb	r3, [r5, #0]	@ zero_extendqisi2
 2895 1116 2278     		ldrb	r2, [r4, #0]	@ zero_extendqisi2
 2896 1118 CB18     		adds	r3, r1, r3
 2897 111a DBB2     		uxtb	r3, r3
 2898              	.LBE267:
 2899              	.LBB268:
 2900 111c 4D4E     		ldr	r6, .L245+32
 2901              	.LVL448:
 2902              	.LBE268:
 2903              	.LBB269:
 2904 111e 2B70     		strb	r3, [r5, #0]
 2905 1120 9B18     		adds	r3, r3, r2
 2906              	.LVL449:
 2907 1122 2370     		strb	r3, [r4, #0]
 2908 1124 4348     		ldr	r0, .L245
 2909 1126 FFF7FEFF 		bl	uart_transmit
 2910              	.LVL450:
 2911              	.LBE269:
 2912              	.LBB270:
 2913 112a 3178     		ldrb	r1, [r6, #0]	@ zero_extendqisi2
 2914              	.LVL451:
 2915 112c 2B78     		ldrb	r3, [r5, #0]	@ zero_extendqisi2
 2916 112e 2278     		ldrb	r2, [r4, #0]	@ zero_extendqisi2
 2917 1130 CB18     		adds	r3, r1, r3
 2918 1132 DBB2     		uxtb	r3, r3
 2919              	.LVL452:
 2920 1134 2B70     		strb	r3, [r5, #0]
 2921 1136 9B18     		adds	r3, r3, r2
 2922              	.LVL453:
 2923 1138 2370     		strb	r3, [r4, #0]
 2924 113a 3E48     		ldr	r0, .L245
 2925 113c FFF7FEFF 		bl	uart_transmit
 2926              	.LVL454:
 2927              	.LBE270:
 2928              	.LBB271:
 2929 1140 7178     		ldrb	r1, [r6, #1]	@ zero_extendqisi2
 2930              	.LVL455:
 2931 1142 2B78     		ldrb	r3, [r5, #0]	@ zero_extendqisi2
 2932 1144 2278     		ldrb	r2, [r4, #0]	@ zero_extendqisi2
 2933 1146 CB18     		adds	r3, r1, r3
 2934 1148 DBB2     		uxtb	r3, r3
 2935              	.LVL456:
 2936 114a 2B70     		strb	r3, [r5, #0]
 2937 114c 9B18     		adds	r3, r3, r2
 2938              	.LVL457:
 2939 114e 2370     		strb	r3, [r4, #0]
 2940 1150 3848     		ldr	r0, .L245
 2941 1152 FFF7FEFF 		bl	uart_transmit
 2942              	.LVL458:
 2943              	.LBE271:
 2944              	.LBB272:
 2945 1156 B178     		ldrb	r1, [r6, #2]	@ zero_extendqisi2
 2946              	.LVL459:
 2947 1158 2B78     		ldrb	r3, [r5, #0]	@ zero_extendqisi2
 2948 115a 2278     		ldrb	r2, [r4, #0]	@ zero_extendqisi2
 2949 115c CB18     		adds	r3, r1, r3
 2950 115e DBB2     		uxtb	r3, r3
 2951              	.LVL460:
 2952 1160 2B70     		strb	r3, [r5, #0]
 2953 1162 9B18     		adds	r3, r3, r2
 2954              	.LVL461:
 2955 1164 2370     		strb	r3, [r4, #0]
 2956 1166 3348     		ldr	r0, .L245
 2957 1168 FFF7FEFF 		bl	uart_transmit
 2958              	.LVL462:
 2959              	.LBE272:
 2960              	.LBB273:
 2961 116c F178     		ldrb	r1, [r6, #3]	@ zero_extendqisi2
 2962              	.LVL463:
 2963 116e 2B78     		ldrb	r3, [r5, #0]	@ zero_extendqisi2
 2964 1170 2278     		ldrb	r2, [r4, #0]	@ zero_extendqisi2
 2965 1172 CB18     		adds	r3, r1, r3
 2966 1174 DBB2     		uxtb	r3, r3
 2967              	.LBE273:
 2968              	.LBB274:
 2969 1176 384E     		ldr	r6, .L245+36
 2970              	.LVL464:
 2971              	.LBE274:
 2972              	.LBB275:
 2973 1178 2B70     		strb	r3, [r5, #0]
 2974 117a 9B18     		adds	r3, r3, r2
 2975              	.LVL465:
 2976 117c 2370     		strb	r3, [r4, #0]
 2977 117e 2D48     		ldr	r0, .L245
 2978 1180 FFF7FEFF 		bl	uart_transmit
 2979              	.LVL466:
 2980              	.LBE275:
 2981              	.LBB276:
 2982 1184 3178     		ldrb	r1, [r6, #0]	@ zero_extendqisi2
 2983              	.LVL467:
 2984 1186 2B78     		ldrb	r3, [r5, #0]	@ zero_extendqisi2
 2985 1188 2278     		ldrb	r2, [r4, #0]	@ zero_extendqisi2
 2986 118a CB18     		adds	r3, r1, r3
 2987 118c DBB2     		uxtb	r3, r3
 2988              	.LVL468:
 2989 118e 2B70     		strb	r3, [r5, #0]
 2990 1190 9B18     		adds	r3, r3, r2
 2991              	.LVL469:
 2992 1192 2370     		strb	r3, [r4, #0]
 2993 1194 2748     		ldr	r0, .L245
 2994 1196 FFF7FEFF 		bl	uart_transmit
 2995              	.LVL470:
 2996              	.LBE276:
 2997              	.LBB277:
 2998 119a 7178     		ldrb	r1, [r6, #1]	@ zero_extendqisi2
 2999              	.LVL471:
 3000 119c 2B78     		ldrb	r3, [r5, #0]	@ zero_extendqisi2
 3001 119e 2278     		ldrb	r2, [r4, #0]	@ zero_extendqisi2
 3002 11a0 CB18     		adds	r3, r1, r3
 3003 11a2 DBB2     		uxtb	r3, r3
 3004              	.LVL472:
 3005 11a4 2B70     		strb	r3, [r5, #0]
 3006 11a6 9B18     		adds	r3, r3, r2
 3007              	.LVL473:
 3008 11a8 2370     		strb	r3, [r4, #0]
 3009 11aa 2248     		ldr	r0, .L245
 3010 11ac FFF7FEFF 		bl	uart_transmit
 3011              	.LVL474:
 3012              	.LBE277:
 3013              	.LBB278:
 3014 11b0 B178     		ldrb	r1, [r6, #2]	@ zero_extendqisi2
 3015              	.LVL475:
 3016 11b2 2B78     		ldrb	r3, [r5, #0]	@ zero_extendqisi2
 3017 11b4 2278     		ldrb	r2, [r4, #0]	@ zero_extendqisi2
 3018 11b6 CB18     		adds	r3, r1, r3
 3019 11b8 DBB2     		uxtb	r3, r3
 3020              	.LVL476:
 3021 11ba 2B70     		strb	r3, [r5, #0]
 3022 11bc 9B18     		adds	r3, r3, r2
 3023              	.LVL477:
 3024 11be 2370     		strb	r3, [r4, #0]
 3025 11c0 1C48     		ldr	r0, .L245
 3026 11c2 FFF7FEFF 		bl	uart_transmit
 3027              	.LVL478:
 3028              	.LBE278:
 3029              	.LBB279:
 3030 11c6 F178     		ldrb	r1, [r6, #3]	@ zero_extendqisi2
 3031              	.LVL479:
 3032 11c8 2B78     		ldrb	r3, [r5, #0]	@ zero_extendqisi2
 3033 11ca 2278     		ldrb	r2, [r4, #0]	@ zero_extendqisi2
 3034 11cc CB18     		adds	r3, r1, r3
 3035 11ce DBB2     		uxtb	r3, r3
 3036              	.LBE279:
 3037              	.LBB280:
 3038 11d0 224E     		ldr	r6, .L245+40
 3039              	.LVL480:
 3040              	.LBE280:
 3041              	.LBB281:
 3042 11d2 2B70     		strb	r3, [r5, #0]
 3043 11d4 9B18     		adds	r3, r3, r2
 3044              	.LVL481:
 3045 11d6 2370     		strb	r3, [r4, #0]
 3046 11d8 1648     		ldr	r0, .L245
 3047 11da FFF7FEFF 		bl	uart_transmit
 3048              	.LVL482:
 3049              	.LBE281:
 3050              	.LBB282:
 3051 11de 3178     		ldrb	r1, [r6, #0]	@ zero_extendqisi2
 3052              	.LVL483:
 3053 11e0 2B78     		ldrb	r3, [r5, #0]	@ zero_extendqisi2
 3054 11e2 2278     		ldrb	r2, [r4, #0]	@ zero_extendqisi2
 3055 11e4 CB18     		adds	r3, r1, r3
 3056 11e6 DBB2     		uxtb	r3, r3
 3057              	.LVL484:
 3058 11e8 2B70     		strb	r3, [r5, #0]
 3059 11ea 9B18     		adds	r3, r3, r2
 3060              	.LVL485:
 3061 11ec 2370     		strb	r3, [r4, #0]
 3062 11ee 1148     		ldr	r0, .L245
 3063 11f0 FFF7FEFF 		bl	uart_transmit
 3064              	.LVL486:
 3065              	.LBE282:
 3066              	.LBB283:
 3067 11f4 7178     		ldrb	r1, [r6, #1]	@ zero_extendqisi2
 3068              	.LVL487:
 3069 11f6 2B78     		ldrb	r3, [r5, #0]	@ zero_extendqisi2
 3070 11f8 2278     		ldrb	r2, [r4, #0]	@ zero_extendqisi2
 3071 11fa CB18     		adds	r3, r1, r3
 3072 11fc DBB2     		uxtb	r3, r3
 3073              	.LVL488:
 3074 11fe 2B70     		strb	r3, [r5, #0]
 3075 1200 9B18     		adds	r3, r3, r2
 3076              	.LVL489:
 3077 1202 2370     		strb	r3, [r4, #0]
 3078 1204 0B48     		ldr	r0, .L245
 3079 1206 FFF7FEFF 		bl	uart_transmit
 3080              	.LVL490:
 3081              	.LBE283:
 3082              	.LBB284:
 3083 120a B178     		ldrb	r1, [r6, #2]	@ zero_extendqisi2
 3084              	.LVL491:
 3085 120c 2B78     		ldrb	r3, [r5, #0]	@ zero_extendqisi2
 3086 120e 2278     		ldrb	r2, [r4, #0]	@ zero_extendqisi2
 3087 1210 CB18     		adds	r3, r1, r3
 3088 1212 DBB2     		uxtb	r3, r3
 3089              	.LVL492:
 3090 1214 2B70     		strb	r3, [r5, #0]
 3091 1216 9B18     		adds	r3, r3, r2
 3092              	.LVL493:
 3093 1218 2370     		strb	r3, [r4, #0]
 3094 121a 0648     		ldr	r0, .L245
 3095 121c FFF7FEFF 		bl	uart_transmit
 3096              	.LVL494:
 3097              	.LBE284:
 3098              	.LBB285:
 3099 1220 F178     		ldrb	r1, [r6, #3]	@ zero_extendqisi2
 3100              	.LVL495:
 3101 1222 2B78     		ldrb	r3, [r5, #0]	@ zero_extendqisi2
 3102 1224 2278     		ldrb	r2, [r4, #0]	@ zero_extendqisi2
 3103 1226 CB18     		adds	r3, r1, r3
 3104 1228 DBB2     		uxtb	r3, r3
 3105              	.LVL496:
 3106 122a 2B70     		strb	r3, [r5, #0]
 3107 122c 9B18     		adds	r3, r3, r2
 3108              	.LVL497:
 3109 122e 2370     		strb	r3, [r4, #0]
 3110 1230 16E0     		b	.L246
 3111              	.L247:
 3112 1232 00BF     		.align	2
 3113              	.L245:
 3114 1234 00000000 		.word	uart2
 3115 1238 00000000 		.word	downlink_nb_bytes
 3116 123c 00000000 		.word	downlink_nb_msgs
 3117 1240 00000000 		.word	ck_a
 3118 1244 00000000 		.word	ck_b
 3119 1248 00000000 		.word	h_ctl_roll_setpoint
 3120 124c 00000000 		.word	h_ctl_pitch_loop_setpoint
 3121 1250 00000000 		.word	h_ctl_course_setpoint
 3122 1254 00000000 		.word	desired_x
 3123 1258 00000000 		.word	desired_y
 3124 125c 00000000 		.word	v_ctl_altitude_setpoint
 3125              	.L246:
 3126 1260 8A48     		ldr	r0, .L248
 3127 1262 FFF7FEFF 		bl	uart_transmit
 3128              	.LVL498:
 3129              	.LBE285:
 3130              	.LBB286:
 3131 1266 8A4E     		ldr	r6, .L248+4
 3132              	.LVL499:
 3133              	.L211:
 3134 1268 3178     		ldrb	r1, [r6, #0]	@ zero_extendqisi2
 3135              	.LVL500:
 3136 126a 2B78     		ldrb	r3, [r5, #0]	@ zero_extendqisi2
 3137 126c 2278     		ldrb	r2, [r4, #0]	@ zero_extendqisi2
 3138 126e CB18     		adds	r3, r1, r3
 3139 1270 DBB2     		uxtb	r3, r3
 3140              	.LVL501:
 3141 1272 2B70     		strb	r3, [r5, #0]
 3142 1274 9B18     		adds	r3, r3, r2
 3143              	.LVL502:
 3144 1276 2370     		strb	r3, [r4, #0]
 3145 1278 8448     		ldr	r0, .L248
 3146 127a FFF7FEFF 		bl	uart_transmit
 3147              	.LVL503:
 3148              	.LBE286:
 3149              	.LBB287:
 3150 127e 7178     		ldrb	r1, [r6, #1]	@ zero_extendqisi2
 3151              	.LVL504:
 3152 1280 2B78     		ldrb	r3, [r5, #0]	@ zero_extendqisi2
 3153 1282 2278     		ldrb	r2, [r4, #0]	@ zero_extendqisi2
 3154 1284 CB18     		adds	r3, r1, r3
 3155 1286 DBB2     		uxtb	r3, r3
 3156              	.LVL505:
 3157 1288 2B70     		strb	r3, [r5, #0]
 3158 128a 9B18     		adds	r3, r3, r2
 3159              	.LVL506:
 3160 128c 2370     		strb	r3, [r4, #0]
 3161 128e 7F48     		ldr	r0, .L248
 3162 1290 FFF7FEFF 		bl	uart_transmit
 3163              	.LVL507:
 3164              	.LBE287:
 3165              	.LBB288:
 3166 1294 B178     		ldrb	r1, [r6, #2]	@ zero_extendqisi2
 3167              	.LVL508:
 3168 1296 2B78     		ldrb	r3, [r5, #0]	@ zero_extendqisi2
 3169 1298 2278     		ldrb	r2, [r4, #0]	@ zero_extendqisi2
 3170 129a CB18     		adds	r3, r1, r3
 3171 129c DBB2     		uxtb	r3, r3
 3172              	.LVL509:
 3173 129e 2B70     		strb	r3, [r5, #0]
 3174 12a0 9B18     		adds	r3, r3, r2
 3175              	.LVL510:
 3176 12a2 2370     		strb	r3, [r4, #0]
 3177 12a4 7948     		ldr	r0, .L248
 3178 12a6 FFF7FEFF 		bl	uart_transmit
 3179              	.LVL511:
 3180              	.LBE288:
 3181              	.LBB289:
 3182 12aa F178     		ldrb	r1, [r6, #3]	@ zero_extendqisi2
 3183              	.LVL512:
 3184 12ac 2B78     		ldrb	r3, [r5, #0]	@ zero_extendqisi2
 3185 12ae 2278     		ldrb	r2, [r4, #0]	@ zero_extendqisi2
 3186 12b0 CB18     		adds	r3, r1, r3
 3187 12b2 DBB2     		uxtb	r3, r3
 3188              	.LVL513:
 3189 12b4 2B70     		strb	r3, [r5, #0]
 3190 12b6 9B18     		adds	r3, r3, r2
 3191              	.LVL514:
 3192 12b8 2370     		strb	r3, [r4, #0]
 3193 12ba 7448     		ldr	r0, .L248
 3194 12bc FFF7FEFF 		bl	uart_transmit
 3195              	.LVL515:
 3196              	.LBE289:
 3197 12c0 2978     		ldrb	r1, [r5, #0]	@ zero_extendqisi2
 3198 12c2 7248     		ldr	r0, .L248
 3199 12c4 FFF7FEFF 		bl	uart_transmit
 3200 12c8 7048     		ldr	r0, .L248
 3201 12ca 2178     		ldrb	r1, [r4, #0]	@ zero_extendqisi2
 3202 12cc FFF7FEFF 		bl	uart_transmit
 3203 12d0 03E0     		b	.L40
 3204              	.L42:
 3205              		.loc 1 422 0 discriminator 41
 3206 12d2 704B     		ldr	r3, .L248+8
 3207 12d4 1A78     		ldrb	r2, [r3, #0]	@ zero_extendqisi2
 3208 12d6 0132     		adds	r2, r2, #1
 3209 12d8 1A70     		strb	r2, [r3, #0]
 3210              	.L40:
 3211              		.loc 1 422 0 discriminator 39
 3212 12da 6F4B     		ldr	r3, .L248+12
 3213 12dc 1B78     		ldrb	r3, [r3, #0]	@ zero_extendqisi2
 3214 12de 3C2B     		cmp	r3, #60
 3215 12e0 40F0F480 		bne	.L43
 3216              	.LBB290:
 3217              		.loc 1 422 0 discriminator 42
 3218 12e4 6D4B     		ldr	r3, .L248+16
 3219 12e6 1A68     		ldr	r2, [r3, #0]
 3220 12e8 0A23     		movs	r3, #10
 3221 12ea 92FBF3F3 		sdiv	r3, r2, r3
 3222 12ee ADF81E30 		strh	r3, [sp, #30]	@ movhi
 3223              	.LVL516:
 3224              	.LBB291:
 3225 12f2 6B4B     		ldr	r3, .L248+20
 3226 12f4 1868     		ldr	r0, [r3, #0]	@ float
 3227 12f6 FFF7FEFF 		bl	__aeabi_f2iz
 3228 12fa 1421     		movs	r1, #20
 3229 12fc ADF81C00 		strh	r0, [sp, #28]	@ movhi
 3230              	.LVL517:
 3231 1300 6248     		ldr	r0, .L248
 3232 1302 FFF7FEFF 		bl	uart_check_free_space
 3233 1306 0028     		cmp	r0, #0
 3234 1308 00F0CE81 		beq	.L46
 3235              		.loc 1 422 0 discriminator 44
 3236 130c 654B     		ldr	r3, .L248+24
 3237              	.LBB292:
 3238 130e 5F48     		ldr	r0, .L248
 3239              	.LBE292:
 3240 1310 1A88     		ldrh	r2, [r3, #0]
 3241              	.LBB293:
 3242 1312 9921     		movs	r1, #153
 3243              	.LBE293:
 3244 1314 1432     		adds	r2, r2, #20
 3245 1316 1A80     		strh	r2, [r3, #0]	@ movhi
 3246 1318 634B     		ldr	r3, .L248+28
 3247 131a 644D     		ldr	r5, .L248+32
 3248 131c 1A88     		ldrh	r2, [r3, #0]
 3249 131e 644C     		ldr	r4, .L248+36
 3250 1320 0132     		adds	r2, r2, #1
 3251 1322 1A80     		strh	r2, [r3, #0]	@ movhi
 3252              	.LBB294:
 3253 1324 FFF7FEFF 		bl	uart_transmit
 3254              	.LVL518:
 3255 1328 5848     		ldr	r0, .L248
 3256 132a 1421     		movs	r1, #20
 3257 132c FFF7FEFF 		bl	uart_transmit
 3258              	.LBE294:
 3259 1330 1523     		movs	r3, #21
 3260 1332 2B70     		strb	r3, [r5, #0]
 3261 1334 2923     		movs	r3, #41
 3262 1336 2370     		strb	r3, [r4, #0]
 3263 1338 5448     		ldr	r0, .L248
 3264 133a 0121     		movs	r1, #1
 3265 133c FFF7FEFF 		bl	uart_transmit
 3266 1340 2B78     		ldrb	r3, [r5, #0]	@ zero_extendqisi2
 3267 1342 2278     		ldrb	r2, [r4, #0]	@ zero_extendqisi2
 3268 1344 0C33     		adds	r3, r3, #12
 3269 1346 DBB2     		uxtb	r3, r3
 3270              	.LBB295:
 3271 1348 5A4E     		ldr	r6, .L248+40
 3272              	.LBE295:
 3273 134a 2B70     		strb	r3, [r5, #0]
 3274 134c 9B18     		adds	r3, r3, r2
 3275 134e 2370     		strb	r3, [r4, #0]
 3276 1350 4E48     		ldr	r0, .L248
 3277 1352 0C21     		movs	r1, #12
 3278 1354 FFF7FEFF 		bl	uart_transmit
 3279              	.LBB296:
 3280 1358 3178     		ldrb	r1, [r6, #0]	@ zero_extendqisi2
 3281              	.LVL519:
 3282 135a 2B78     		ldrb	r3, [r5, #0]	@ zero_extendqisi2
 3283 135c 2278     		ldrb	r2, [r4, #0]	@ zero_extendqisi2
 3284 135e CB18     		adds	r3, r1, r3
 3285 1360 DBB2     		uxtb	r3, r3
 3286              	.LVL520:
 3287 1362 2B70     		strb	r3, [r5, #0]
 3288 1364 9B18     		adds	r3, r3, r2
 3289              	.LVL521:
 3290 1366 2370     		strb	r3, [r4, #0]
 3291 1368 4848     		ldr	r0, .L248
 3292 136a FFF7FEFF 		bl	uart_transmit
 3293              	.LVL522:
 3294              	.LBE296:
 3295              	.LBB297:
 3296 136e 7178     		ldrb	r1, [r6, #1]	@ zero_extendqisi2
 3297              	.LVL523:
 3298 1370 2B78     		ldrb	r3, [r5, #0]	@ zero_extendqisi2
 3299 1372 2278     		ldrb	r2, [r4, #0]	@ zero_extendqisi2
 3300 1374 CB18     		adds	r3, r1, r3
 3301 1376 DBB2     		uxtb	r3, r3
 3302              	.LVL524:
 3303 1378 2B70     		strb	r3, [r5, #0]
 3304 137a 9B18     		adds	r3, r3, r2
 3305              	.LVL525:
 3306 137c 2370     		strb	r3, [r4, #0]
 3307 137e 4348     		ldr	r0, .L248
 3308 1380 FFF7FEFF 		bl	uart_transmit
 3309              	.LVL526:
 3310              	.LBE297:
 3311              	.LBB298:
 3312 1384 4C4B     		ldr	r3, .L248+44
 3313 1386 2278     		ldrb	r2, [r4, #0]	@ zero_extendqisi2
 3314 1388 1978     		ldrb	r1, [r3, #0]	@ zero_extendqisi2
 3315              	.LVL527:
 3316 138a 2B78     		ldrb	r3, [r5, #0]	@ zero_extendqisi2
 3317 138c 3F48     		ldr	r0, .L248
 3318 138e CB18     		adds	r3, r1, r3
 3319 1390 DBB2     		uxtb	r3, r3
 3320              	.LVL528:
 3321 1392 2B70     		strb	r3, [r5, #0]
 3322 1394 9B18     		adds	r3, r3, r2
 3323              	.LVL529:
 3324 1396 2370     		strb	r3, [r4, #0]
 3325 1398 FFF7FEFF 		bl	uart_transmit
 3326              	.LVL530:
 3327              	.LBE298:
 3328              	.LBB299:
 3329 139c 9DF81E10 		ldrb	r1, [sp, #30]	@ zero_extendqisi2
 3330              	.LVL531:
 3331 13a0 2B78     		ldrb	r3, [r5, #0]	@ zero_extendqisi2
 3332 13a2 2278     		ldrb	r2, [r4, #0]	@ zero_extendqisi2
 3333 13a4 CB18     		adds	r3, r1, r3
 3334 13a6 DBB2     		uxtb	r3, r3
 3335              	.LVL532:
 3336 13a8 2B70     		strb	r3, [r5, #0]
 3337 13aa 9B18     		adds	r3, r3, r2
 3338              	.LVL533:
 3339 13ac 2370     		strb	r3, [r4, #0]
 3340 13ae 3748     		ldr	r0, .L248
 3341 13b0 FFF7FEFF 		bl	uart_transmit
 3342              	.LVL534:
 3343              	.LBE299:
 3344              	.LBB300:
 3345 13b4 9DF81F10 		ldrb	r1, [sp, #31]	@ zero_extendqisi2
 3346              	.LVL535:
 3347 13b8 2B78     		ldrb	r3, [r5, #0]	@ zero_extendqisi2
 3348 13ba 2278     		ldrb	r2, [r4, #0]	@ zero_extendqisi2
 3349 13bc CB18     		adds	r3, r1, r3
 3350 13be DBB2     		uxtb	r3, r3
 3351              	.LBE300:
 3352              	.LBB301:
 3353 13c0 3E4E     		ldr	r6, .L248+48
 3354              	.LVL536:
 3355              	.LBE301:
 3356              	.LBB302:
 3357 13c2 2B70     		strb	r3, [r5, #0]
 3358 13c4 9B18     		adds	r3, r3, r2
 3359              	.LVL537:
 3360 13c6 2370     		strb	r3, [r4, #0]
 3361 13c8 3048     		ldr	r0, .L248
 3362 13ca FFF7FEFF 		bl	uart_transmit
 3363              	.LVL538:
 3364              	.LBE302:
 3365              	.LBB303:
 3366 13ce 3178     		ldrb	r1, [r6, #0]	@ zero_extendqisi2
 3367              	.LVL539:
 3368 13d0 2B78     		ldrb	r3, [r5, #0]	@ zero_extendqisi2
 3369 13d2 2278     		ldrb	r2, [r4, #0]	@ zero_extendqisi2
 3370 13d4 CB18     		adds	r3, r1, r3
 3371 13d6 DBB2     		uxtb	r3, r3
 3372              	.LVL540:
 3373 13d8 2B70     		strb	r3, [r5, #0]
 3374 13da 9B18     		adds	r3, r3, r2
 3375              	.LVL541:
 3376 13dc 2370     		strb	r3, [r4, #0]
 3377 13de 2B48     		ldr	r0, .L248
 3378 13e0 FFF7FEFF 		bl	uart_transmit
 3379              	.LVL542:
 3380              	.LBE303:
 3381              	.LBB304:
 3382 13e4 7178     		ldrb	r1, [r6, #1]	@ zero_extendqisi2
 3383              	.LVL543:
 3384 13e6 2B78     		ldrb	r3, [r5, #0]	@ zero_extendqisi2
 3385 13e8 2278     		ldrb	r2, [r4, #0]	@ zero_extendqisi2
 3386 13ea CB18     		adds	r3, r1, r3
 3387 13ec DBB2     		uxtb	r3, r3
 3388              	.LVL544:
 3389 13ee 2B70     		strb	r3, [r5, #0]
 3390 13f0 9B18     		adds	r3, r3, r2
 3391              	.LVL545:
 3392 13f2 2370     		strb	r3, [r4, #0]
 3393 13f4 2548     		ldr	r0, .L248
 3394 13f6 FFF7FEFF 		bl	uart_transmit
 3395              	.LVL546:
 3396              	.LBE304:
 3397              	.LBB305:
 3398 13fa 314B     		ldr	r3, .L248+52
 3399 13fc 2278     		ldrb	r2, [r4, #0]	@ zero_extendqisi2
 3400 13fe 1978     		ldrb	r1, [r3, #0]	@ zero_extendqisi2
 3401              	.LVL547:
 3402 1400 2B78     		ldrb	r3, [r5, #0]	@ zero_extendqisi2
 3403              	.LBE305:
 3404              	.LBB306:
 3405 1402 304E     		ldr	r6, .L248+56
 3406              	.LBE306:
 3407              	.LBB307:
 3408 1404 CB18     		adds	r3, r1, r3
 3409 1406 DBB2     		uxtb	r3, r3
 3410              	.LVL548:
 3411 1408 2B70     		strb	r3, [r5, #0]
 3412 140a 9B18     		adds	r3, r3, r2
 3413              	.LVL549:
 3414 140c 2370     		strb	r3, [r4, #0]
 3415 140e 1F48     		ldr	r0, .L248
 3416 1410 FFF7FEFF 		bl	uart_transmit
 3417              	.LVL550:
 3418              	.LBE307:
 3419              	.LBB308:
 3420 1414 3178     		ldrb	r1, [r6, #0]	@ zero_extendqisi2
 3421              	.LVL551:
 3422 1416 2B78     		ldrb	r3, [r5, #0]	@ zero_extendqisi2
 3423 1418 2278     		ldrb	r2, [r4, #0]	@ zero_extendqisi2
 3424 141a CB18     		adds	r3, r1, r3
 3425 141c DBB2     		uxtb	r3, r3
 3426              	.LVL552:
 3427 141e 2B70     		strb	r3, [r5, #0]
 3428 1420 9B18     		adds	r3, r3, r2
 3429              	.LVL553:
 3430 1422 2370     		strb	r3, [r4, #0]
 3431 1424 1948     		ldr	r0, .L248
 3432 1426 FFF7FEFF 		bl	uart_transmit
 3433              	.LVL554:
 3434              	.LBE308:
 3435              	.LBB309:
 3436 142a 7178     		ldrb	r1, [r6, #1]	@ zero_extendqisi2
 3437              	.LVL555:
 3438 142c 2B78     		ldrb	r3, [r5, #0]	@ zero_extendqisi2
 3439 142e 2278     		ldrb	r2, [r4, #0]	@ zero_extendqisi2
 3440 1430 CB18     		adds	r3, r1, r3
 3441 1432 DBB2     		uxtb	r3, r3
 3442              	.LVL556:
 3443 1434 2B70     		strb	r3, [r5, #0]
 3444              	.LBE309:
 3445              	.LBB310:
 3446 1436 244E     		ldr	r6, .L248+60
 3447              	.LBE310:
 3448              	.LBB311:
 3449 1438 9B18     		adds	r3, r3, r2
 3450              	.LVL557:
 3451 143a 2370     		strb	r3, [r4, #0]
 3452 143c 1348     		ldr	r0, .L248
 3453 143e FFF7FEFF 		bl	uart_transmit
 3454              	.LVL558:
 3455              	.LBE311:
 3456              	.LBB312:
 3457 1442 3178     		ldrb	r1, [r6, #0]	@ zero_extendqisi2
 3458              	.LVL559:
 3459 1444 2B78     		ldrb	r3, [r5, #0]	@ zero_extendqisi2
 3460 1446 2278     		ldrb	r2, [r4, #0]	@ zero_extendqisi2
 3461 1448 CB18     		adds	r3, r1, r3
 3462 144a DBB2     		uxtb	r3, r3
 3463              	.LVL560:
 3464 144c 2B70     		strb	r3, [r5, #0]
 3465 144e 9B18     		adds	r3, r3, r2
 3466              	.LVL561:
 3467 1450 2370     		strb	r3, [r4, #0]
 3468 1452 0E48     		ldr	r0, .L248
 3469 1454 FFF7FEFF 		bl	uart_transmit
 3470              	.LVL562:
 3471              	.LBE312:
 3472              	.LBB313:
 3473 1458 7178     		ldrb	r1, [r6, #1]	@ zero_extendqisi2
 3474              	.LVL563:
 3475 145a 2B78     		ldrb	r3, [r5, #0]	@ zero_extendqisi2
 3476 145c 2278     		ldrb	r2, [r4, #0]	@ zero_extendqisi2
 3477 145e CB18     		adds	r3, r1, r3
 3478 1460 DBB2     		uxtb	r3, r3
 3479              	.LVL564:
 3480 1462 2B70     		strb	r3, [r5, #0]
 3481 1464 9B18     		adds	r3, r3, r2
 3482              	.LVL565:
 3483 1466 2370     		strb	r3, [r4, #0]
 3484 1468 0848     		ldr	r0, .L248
 3485 146a FFF7FEFF 		bl	uart_transmit
 3486              	.LVL566:
 3487              	.LBE313:
 3488              	.LBB314:
 3489 146e 9DF81C10 		ldrb	r1, [sp, #28]	@ zero_extendqisi2
 3490              	.LVL567:
 3491 1472 2B78     		ldrb	r3, [r5, #0]	@ zero_extendqisi2
 3492 1474 2278     		ldrb	r2, [r4, #0]	@ zero_extendqisi2
 3493 1476 CB18     		adds	r3, r1, r3
 3494 1478 DBB2     		uxtb	r3, r3
 3495              	.LVL568:
 3496 147a 2B70     		strb	r3, [r5, #0]
 3497 147c 9B18     		adds	r3, r3, r2
 3498              	.LVL569:
 3499 147e 2370     		strb	r3, [r4, #0]
 3500 1480 0248     		ldr	r0, .L248
 3501 1482 FFF7FEFF 		bl	uart_transmit
 3502              	.LVL570:
 3503              	.LBE314:
 3504              	.LBB315:
 3505 1486 9DF81D10 		ldrb	r1, [sp, #29]	@ zero_extendqisi2
 3506              	.LVL571:
 3507 148a EDE0     		b	.L212
 3508              	.L249:
 3509              		.align	2
 3510              	.L248:
 3511 148c 00000000 		.word	uart2
 3512 1490 00000000 		.word	v_ctl_climb_setpoint
 3513 1494 00000000 		.word	downlink_nb_ovrn
 3514 1498 00000000 		.word	.LANCHOR13
 3515 149c 00000000 		.word	.LANCHOR24
 3516 14a0 00000000 		.word	.LANCHOR25
 3517 14a4 00000000 		.word	downlink_nb_bytes
 3518 14a8 00000000 		.word	downlink_nb_msgs
 3519 14ac 00000000 		.word	ck_a
 3520 14b0 00000000 		.word	ck_b
 3521 14b4 00000000 		.word	v_ctl_throttle_slewed
 3522 14b8 00000000 		.word	.LANCHOR26
 3523 14bc 00000000 		.word	estimator_flight_time
 3524 14c0 00000000 		.word	.LANCHOR27
 3525 14c4 00000000 		.word	block_time
 3526 14c8 00000000 		.word	stage_time
 3527              	.LVL572:
 3528              	.L43:
 3529              	.LBE315:
 3530              	.LBE291:
 3531              	.LBE290:
 3532              		.loc 1 422 0 discriminator 43
 3533 14cc 002B     		cmp	r3, #0
 3534 14ce 40F0EF80 		bne	.L45
 3535              	.LBB316:
 3536              		.loc 1 422 0 discriminator 46
 3537 14d2 6F4C     		ldr	r4, .L250
 3538 14d4 2068     		ldr	r0, [r4, #0]
 3539 14d6 FFF7FEFF 		bl	__aeabi_i2f
 3540 14da 4FF06651 		mov	r1, #964689920
 3541 14de FFF7FEFF 		bl	__aeabi_fmul
 3542 14e2 0190     		str	r0, [sp, #4]	@ float
 3543 14e4 6068     		ldr	r0, [r4, #4]
 3544 14e6 FFF7FEFF 		bl	__aeabi_i2f
 3545 14ea 4FF06651 		mov	r1, #964689920
 3546 14ee FFF7FEFF 		bl	__aeabi_fmul
 3547 14f2 0290     		str	r0, [sp, #8]	@ float
 3548 14f4 A068     		ldr	r0, [r4, #8]
 3549 14f6 FFF7FEFF 		bl	__aeabi_i2f
 3550 14fa 4FF06651 		mov	r1, #964689920
 3551 14fe FFF7FEFF 		bl	__aeabi_fmul
 3552 1502 1221     		movs	r1, #18
 3553 1504 0390     		str	r0, [sp, #12]	@ float
 3554 1506 6348     		ldr	r0, .L250+4
 3555 1508 FFF7FEFF 		bl	uart_check_free_space
 3556 150c 0028     		cmp	r0, #0
 3557 150e 00F0CB80 		beq	.L46
 3558              		.loc 1 422 0 discriminator 48
 3559 1512 614B     		ldr	r3, .L250+8
 3560              	.LBB317:
 3561 1514 5F48     		ldr	r0, .L250+4
 3562              	.LBE317:
 3563 1516 1A88     		ldrh	r2, [r3, #0]
 3564              	.LBB318:
 3565 1518 9921     		movs	r1, #153
 3566              	.LBE318:
 3567 151a 1232     		adds	r2, r2, #18
 3568 151c 1A80     		strh	r2, [r3, #0]	@ movhi
 3569 151e 5F4B     		ldr	r3, .L250+12
 3570 1520 5F4D     		ldr	r5, .L250+16
 3571 1522 1A88     		ldrh	r2, [r3, #0]
 3572 1524 5F4C     		ldr	r4, .L250+20
 3573 1526 0132     		adds	r2, r2, #1
 3574 1528 1A80     		strh	r2, [r3, #0]	@ movhi
 3575              	.LBB319:
 3576 152a FFF7FEFF 		bl	uart_transmit
 3577              	.LVL573:
 3578 152e 5948     		ldr	r0, .L250+4
 3579 1530 1221     		movs	r1, #18
 3580 1532 FFF7FEFF 		bl	uart_transmit
 3581              	.LBE319:
 3582 1536 1323     		movs	r3, #19
 3583 1538 2B70     		strb	r3, [r5, #0]
 3584 153a 2523     		movs	r3, #37
 3585 153c 2370     		strb	r3, [r4, #0]
 3586 153e 5548     		ldr	r0, .L250+4
 3587 1540 0121     		movs	r1, #1
 3588 1542 FFF7FEFF 		bl	uart_transmit
 3589 1546 2B78     		ldrb	r3, [r5, #0]	@ zero_extendqisi2
 3590 1548 2278     		ldrb	r2, [r4, #0]	@ zero_extendqisi2
 3591 154a 383B     		subs	r3, r3, #56
 3592 154c DBB2     		uxtb	r3, r3
 3593 154e 2B70     		strb	r3, [r5, #0]
 3594 1550 9B18     		adds	r3, r3, r2
 3595 1552 2370     		strb	r3, [r4, #0]
 3596 1554 4F48     		ldr	r0, .L250+4
 3597 1556 C821     		movs	r1, #200
 3598 1558 FFF7FEFF 		bl	uart_transmit
 3599              	.LBB320:
 3600 155c 9DF80410 		ldrb	r1, [sp, #4]	@ zero_extendqisi2
 3601              	.LVL574:
 3602 1560 2B78     		ldrb	r3, [r5, #0]	@ zero_extendqisi2
 3603 1562 2278     		ldrb	r2, [r4, #0]	@ zero_extendqisi2
 3604 1564 CB18     		adds	r3, r1, r3
 3605 1566 DBB2     		uxtb	r3, r3
 3606              	.LVL575:
 3607 1568 2B70     		strb	r3, [r5, #0]
 3608 156a 9B18     		adds	r3, r3, r2
 3609              	.LVL576:
 3610 156c 2370     		strb	r3, [r4, #0]
 3611 156e 4948     		ldr	r0, .L250+4
 3612 1570 FFF7FEFF 		bl	uart_transmit
 3613              	.LVL577:
 3614              	.LBE320:
 3615              	.LBB321:
 3616 1574 9DF80510 		ldrb	r1, [sp, #5]	@ zero_extendqisi2
 3617              	.LVL578:
 3618 1578 2B78     		ldrb	r3, [r5, #0]	@ zero_extendqisi2
 3619 157a 2278     		ldrb	r2, [r4, #0]	@ zero_extendqisi2
 3620 157c CB18     		adds	r3, r1, r3
 3621 157e DBB2     		uxtb	r3, r3
 3622              	.LVL579:
 3623 1580 2B70     		strb	r3, [r5, #0]
 3624 1582 9B18     		adds	r3, r3, r2
 3625              	.LVL580:
 3626 1584 2370     		strb	r3, [r4, #0]
 3627 1586 4348     		ldr	r0, .L250+4
 3628 1588 FFF7FEFF 		bl	uart_transmit
 3629              	.LVL581:
 3630              	.LBE321:
 3631              	.LBB322:
 3632 158c 9DF80610 		ldrb	r1, [sp, #6]	@ zero_extendqisi2
 3633              	.LVL582:
 3634 1590 2B78     		ldrb	r3, [r5, #0]	@ zero_extendqisi2
 3635 1592 2278     		ldrb	r2, [r4, #0]	@ zero_extendqisi2
 3636 1594 CB18     		adds	r3, r1, r3
 3637 1596 DBB2     		uxtb	r3, r3
 3638              	.LVL583:
 3639 1598 2B70     		strb	r3, [r5, #0]
 3640 159a 9B18     		adds	r3, r3, r2
 3641              	.LVL584:
 3642 159c 2370     		strb	r3, [r4, #0]
 3643 159e 3D48     		ldr	r0, .L250+4
 3644 15a0 FFF7FEFF 		bl	uart_transmit
 3645              	.LVL585:
 3646              	.LBE322:
 3647              	.LBB323:
 3648 15a4 9DF80710 		ldrb	r1, [sp, #7]	@ zero_extendqisi2
 3649              	.LVL586:
 3650 15a8 2B78     		ldrb	r3, [r5, #0]	@ zero_extendqisi2
 3651 15aa 2278     		ldrb	r2, [r4, #0]	@ zero_extendqisi2
 3652 15ac CB18     		adds	r3, r1, r3
 3653 15ae DBB2     		uxtb	r3, r3
 3654              	.LVL587:
 3655 15b0 2B70     		strb	r3, [r5, #0]
 3656 15b2 9B18     		adds	r3, r3, r2
 3657              	.LVL588:
 3658 15b4 2370     		strb	r3, [r4, #0]
 3659 15b6 3748     		ldr	r0, .L250+4
 3660 15b8 FFF7FEFF 		bl	uart_transmit
 3661              	.LVL589:
 3662              	.LBE323:
 3663              	.LBB324:
 3664 15bc 9DF80810 		ldrb	r1, [sp, #8]	@ zero_extendqisi2
 3665              	.LVL590:
 3666 15c0 2B78     		ldrb	r3, [r5, #0]	@ zero_extendqisi2
 3667 15c2 2278     		ldrb	r2, [r4, #0]	@ zero_extendqisi2
 3668 15c4 CB18     		adds	r3, r1, r3
 3669 15c6 DBB2     		uxtb	r3, r3
 3670              	.LVL591:
 3671 15c8 2B70     		strb	r3, [r5, #0]
 3672 15ca 9B18     		adds	r3, r3, r2
 3673              	.LVL592:
 3674 15cc 2370     		strb	r3, [r4, #0]
 3675 15ce 3148     		ldr	r0, .L250+4
 3676 15d0 FFF7FEFF 		bl	uart_transmit
 3677              	.LVL593:
 3678              	.LBE324:
 3679              	.LBB325:
 3680 15d4 9DF80910 		ldrb	r1, [sp, #9]	@ zero_extendqisi2
 3681              	.LVL594:
 3682 15d8 2B78     		ldrb	r3, [r5, #0]	@ zero_extendqisi2
 3683 15da 2278     		ldrb	r2, [r4, #0]	@ zero_extendqisi2
 3684 15dc CB18     		adds	r3, r1, r3
 3685 15de DBB2     		uxtb	r3, r3
 3686              	.LVL595:
 3687 15e0 2B70     		strb	r3, [r5, #0]
 3688 15e2 9B18     		adds	r3, r3, r2
 3689              	.LVL596:
 3690 15e4 2370     		strb	r3, [r4, #0]
 3691 15e6 2B48     		ldr	r0, .L250+4
 3692 15e8 FFF7FEFF 		bl	uart_transmit
 3693              	.LVL597:
 3694              	.LBE325:
 3695              	.LBB326:
 3696 15ec 9DF80A10 		ldrb	r1, [sp, #10]	@ zero_extendqisi2
 3697              	.LVL598:
 3698 15f0 2B78     		ldrb	r3, [r5, #0]	@ zero_extendqisi2
 3699 15f2 2278     		ldrb	r2, [r4, #0]	@ zero_extendqisi2
 3700 15f4 CB18     		adds	r3, r1, r3
 3701 15f6 DBB2     		uxtb	r3, r3
 3702              	.LVL599:
 3703 15f8 2B70     		strb	r3, [r5, #0]
 3704 15fa 9B18     		adds	r3, r3, r2
 3705              	.LVL600:
 3706 15fc 2370     		strb	r3, [r4, #0]
 3707 15fe 2548     		ldr	r0, .L250+4
 3708 1600 FFF7FEFF 		bl	uart_transmit
 3709              	.LVL601:
 3710              	.LBE326:
 3711              	.LBB327:
 3712 1604 9DF80B10 		ldrb	r1, [sp, #11]	@ zero_extendqisi2
 3713              	.LVL602:
 3714 1608 2B78     		ldrb	r3, [r5, #0]	@ zero_extendqisi2
 3715 160a 2278     		ldrb	r2, [r4, #0]	@ zero_extendqisi2
 3716 160c CB18     		adds	r3, r1, r3
 3717 160e DBB2     		uxtb	r3, r3
 3718              	.LVL603:
 3719 1610 2B70     		strb	r3, [r5, #0]
 3720 1612 9B18     		adds	r3, r3, r2
 3721              	.LVL604:
 3722 1614 2370     		strb	r3, [r4, #0]
 3723 1616 1F48     		ldr	r0, .L250+4
 3724 1618 FFF7FEFF 		bl	uart_transmit
 3725              	.LVL605:
 3726              	.LBE327:
 3727              	.LBB328:
 3728 161c 9DF80C10 		ldrb	r1, [sp, #12]	@ zero_extendqisi2
 3729              	.LVL606:
 3730 1620 2B78     		ldrb	r3, [r5, #0]	@ zero_extendqisi2
 3731 1622 2278     		ldrb	r2, [r4, #0]	@ zero_extendqisi2
 3732 1624 CB18     		adds	r3, r1, r3
 3733 1626 DBB2     		uxtb	r3, r3
 3734              	.LVL607:
 3735 1628 2B70     		strb	r3, [r5, #0]
 3736 162a 9B18     		adds	r3, r3, r2
 3737              	.LVL608:
 3738 162c 2370     		strb	r3, [r4, #0]
 3739 162e 1948     		ldr	r0, .L250+4
 3740 1630 FFF7FEFF 		bl	uart_transmit
 3741              	.LVL609:
 3742              	.LBE328:
 3743              	.LBB329:
 3744 1634 9DF80D10 		ldrb	r1, [sp, #13]	@ zero_extendqisi2
 3745              	.LVL610:
 3746 1638 2B78     		ldrb	r3, [r5, #0]	@ zero_extendqisi2
 3747 163a 2278     		ldrb	r2, [r4, #0]	@ zero_extendqisi2
 3748 163c CB18     		adds	r3, r1, r3
 3749 163e DBB2     		uxtb	r3, r3
 3750              	.LVL611:
 3751 1640 2B70     		strb	r3, [r5, #0]
 3752 1642 9B18     		adds	r3, r3, r2
 3753              	.LVL612:
 3754 1644 2370     		strb	r3, [r4, #0]
 3755 1646 1348     		ldr	r0, .L250+4
 3756 1648 FFF7FEFF 		bl	uart_transmit
 3757              	.LVL613:
 3758              	.LBE329:
 3759              	.LBB330:
 3760 164c 9DF80E10 		ldrb	r1, [sp, #14]	@ zero_extendqisi2
 3761              	.LVL614:
 3762 1650 2B78     		ldrb	r3, [r5, #0]	@ zero_extendqisi2
 3763 1652 2278     		ldrb	r2, [r4, #0]	@ zero_extendqisi2
 3764 1654 CB18     		adds	r3, r1, r3
 3765 1656 DBB2     		uxtb	r3, r3
 3766              	.LVL615:
 3767 1658 2B70     		strb	r3, [r5, #0]
 3768 165a 9B18     		adds	r3, r3, r2
 3769              	.LVL616:
 3770 165c 2370     		strb	r3, [r4, #0]
 3771 165e 0D48     		ldr	r0, .L250+4
 3772 1660 FFF7FEFF 		bl	uart_transmit
 3773              	.LVL617:
 3774              	.LBE330:
 3775              	.LBB331:
 3776 1664 9DF80F10 		ldrb	r1, [sp, #15]	@ zero_extendqisi2
 3777              	.LVL618:
 3778              	.L212:
 3779 1668 2B78     		ldrb	r3, [r5, #0]	@ zero_extendqisi2
 3780 166a 2278     		ldrb	r2, [r4, #0]	@ zero_extendqisi2
 3781 166c CB18     		adds	r3, r1, r3
 3782 166e DBB2     		uxtb	r3, r3
 3783              	.LVL619:
 3784 1670 2B70     		strb	r3, [r5, #0]
 3785 1672 9B18     		adds	r3, r3, r2
 3786              	.LVL620:
 3787 1674 2370     		strb	r3, [r4, #0]
 3788 1676 0748     		ldr	r0, .L250+4
 3789 1678 FFF7FEFF 		bl	uart_transmit
 3790              	.LVL621:
 3791              	.LBE331:
 3792 167c 2978     		ldrb	r1, [r5, #0]	@ zero_extendqisi2
 3793 167e 0548     		ldr	r0, .L250+4
 3794 1680 FFF7FEFF 		bl	uart_transmit
 3795 1684 0348     		ldr	r0, .L250+4
 3796 1686 2178     		ldrb	r1, [r4, #0]	@ zero_extendqisi2
 3797 1688 FFF7FEFF 		bl	uart_transmit
 3798 168c 10E0     		b	.L45
 3799              	.L251:
 3800 168e 00BF     		.align	2
 3801              	.L250:
 3802 1690 00000000 		.word	imu
 3803 1694 00000000 		.word	uart2
 3804 1698 00000000 		.word	downlink_nb_bytes
 3805 169c 00000000 		.word	downlink_nb_msgs
 3806 16a0 00000000 		.word	ck_a
 3807 16a4 00000000 		.word	ck_b
 3808              	.L46:
 3809              		.loc 1 422 0 discriminator 49
 3810 16a8 954B     		ldr	r3, .L252
 3811 16aa 1A78     		ldrb	r2, [r3, #0]	@ zero_extendqisi2
 3812 16ac 0132     		adds	r2, r2, #1
 3813 16ae 1A70     		strb	r2, [r3, #0]
 3814              	.L45:
 3815              	.LBE316:
 3816              		.loc 1 422 0 discriminator 47
 3817 16b0 944B     		ldr	r3, .L252+4
 3818 16b2 1B78     		ldrb	r3, [r3, #0]	@ zero_extendqisi2
 3819 16b4 062B     		cmp	r3, #6
 3820 16b6 40F0F280 		bne	.L47
 3821              		.loc 1 422 0 discriminator 50
 3822 16ba 934B     		ldr	r3, .L252+8
 3823 16bc 1B78     		ldrb	r3, [r3, #0]	@ zero_extendqisi2
 3824 16be 002B     		cmp	r3, #0
 3825 16c0 00F0ED80 		beq	.L47
 3826              		.loc 1 422 0 discriminator 52
 3827 16c4 9148     		ldr	r0, .L252+12
 3828 16c6 1621     		movs	r1, #22
 3829 16c8 FFF7FEFF 		bl	uart_check_free_space
 3830 16cc 0028     		cmp	r0, #0
 3831 16ce 00F0E280 		beq	.L48
 3832              		.loc 1 422 0 discriminator 53
 3833 16d2 8F4B     		ldr	r3, .L252+16
 3834              	.LBB332:
 3835 16d4 9921     		movs	r1, #153
 3836              	.LBE332:
 3837 16d6 1A88     		ldrh	r2, [r3, #0]
 3838              	.LBB333:
 3839 16d8 8C48     		ldr	r0, .L252+12
 3840              	.LBE333:
 3841 16da 1632     		adds	r2, r2, #22
 3842 16dc 1A80     		strh	r2, [r3, #0]	@ movhi
 3843 16de 8D4B     		ldr	r3, .L252+20
 3844 16e0 8D4D     		ldr	r5, .L252+24
 3845 16e2 1A88     		ldrh	r2, [r3, #0]
 3846 16e4 8D4C     		ldr	r4, .L252+28
 3847 16e6 0132     		adds	r2, r2, #1
 3848 16e8 1A80     		strh	r2, [r3, #0]	@ movhi
 3849              	.LBB334:
 3850 16ea FFF7FEFF 		bl	uart_transmit
 3851              	.LVL622:
 3852 16ee 1621     		movs	r1, #22
 3853 16f0 8648     		ldr	r0, .L252+12
 3854 16f2 FFF7FEFF 		bl	uart_transmit
 3855              	.LBE334:
 3856 16f6 1723     		movs	r3, #23
 3857 16f8 2B70     		strb	r3, [r5, #0]
 3858 16fa 2D23     		movs	r3, #45
 3859 16fc 2370     		strb	r3, [r4, #0]
 3860 16fe 0121     		movs	r1, #1
 3861 1700 8248     		ldr	r0, .L252+12
 3862 1702 FFF7FEFF 		bl	uart_transmit
 3863 1706 2B78     		ldrb	r3, [r5, #0]	@ zero_extendqisi2
 3864 1708 2278     		ldrb	r2, [r4, #0]	@ zero_extendqisi2
 3865 170a 1633     		adds	r3, r3, #22
 3866 170c DBB2     		uxtb	r3, r3
 3867              	.LBB335:
 3868 170e 844E     		ldr	r6, .L252+32
 3869              	.LBE335:
 3870 1710 2B70     		strb	r3, [r5, #0]
 3871 1712 9B18     		adds	r3, r3, r2
 3872 1714 2370     		strb	r3, [r4, #0]
 3873 1716 1621     		movs	r1, #22
 3874 1718 7C48     		ldr	r0, .L252+12
 3875 171a FFF7FEFF 		bl	uart_transmit
 3876              	.LBB336:
 3877 171e 3178     		ldrb	r1, [r6, #0]	@ zero_extendqisi2
 3878              	.LVL623:
 3879 1720 2B78     		ldrb	r3, [r5, #0]	@ zero_extendqisi2
 3880 1722 2278     		ldrb	r2, [r4, #0]	@ zero_extendqisi2
 3881 1724 CB18     		adds	r3, r1, r3
 3882 1726 DBB2     		uxtb	r3, r3
 3883              	.LVL624:
 3884 1728 2B70     		strb	r3, [r5, #0]
 3885 172a 9B18     		adds	r3, r3, r2
 3886              	.LVL625:
 3887 172c 2370     		strb	r3, [r4, #0]
 3888 172e 7748     		ldr	r0, .L252+12
 3889 1730 FFF7FEFF 		bl	uart_transmit
 3890              	.LVL626:
 3891              	.LBE336:
 3892              	.LBB337:
 3893 1734 7178     		ldrb	r1, [r6, #1]	@ zero_extendqisi2
 3894              	.LVL627:
 3895 1736 2B78     		ldrb	r3, [r5, #0]	@ zero_extendqisi2
 3896 1738 2278     		ldrb	r2, [r4, #0]	@ zero_extendqisi2
 3897 173a CB18     		adds	r3, r1, r3
 3898 173c DBB2     		uxtb	r3, r3
 3899              	.LVL628:
 3900 173e 2B70     		strb	r3, [r5, #0]
 3901 1740 9B18     		adds	r3, r3, r2
 3902              	.LVL629:
 3903 1742 2370     		strb	r3, [r4, #0]
 3904 1744 7148     		ldr	r0, .L252+12
 3905 1746 FFF7FEFF 		bl	uart_transmit
 3906              	.LVL630:
 3907              	.LBE337:
 3908              	.LBB338:
 3909 174a B178     		ldrb	r1, [r6, #2]	@ zero_extendqisi2
 3910              	.LVL631:
 3911 174c 2B78     		ldrb	r3, [r5, #0]	@ zero_extendqisi2
 3912 174e 2278     		ldrb	r2, [r4, #0]	@ zero_extendqisi2
 3913 1750 CB18     		adds	r3, r1, r3
 3914 1752 DBB2     		uxtb	r3, r3
 3915              	.LVL632:
 3916 1754 2B70     		strb	r3, [r5, #0]
 3917 1756 9B18     		adds	r3, r3, r2
 3918              	.LVL633:
 3919 1758 2370     		strb	r3, [r4, #0]
 3920 175a 6C48     		ldr	r0, .L252+12
 3921 175c FFF7FEFF 		bl	uart_transmit
 3922              	.LVL634:
 3923              	.LBE338:
 3924              	.LBB339:
 3925 1760 F178     		ldrb	r1, [r6, #3]	@ zero_extendqisi2
 3926              	.LVL635:
 3927 1762 2B78     		ldrb	r3, [r5, #0]	@ zero_extendqisi2
 3928 1764 2278     		ldrb	r2, [r4, #0]	@ zero_extendqisi2
 3929 1766 CB18     		adds	r3, r1, r3
 3930 1768 DBB2     		uxtb	r3, r3
 3931              	.LBE339:
 3932              	.LBB340:
 3933 176a 6E4E     		ldr	r6, .L252+36
 3934              	.LVL636:
 3935              	.LBE340:
 3936              	.LBB341:
 3937 176c 2B70     		strb	r3, [r5, #0]
 3938 176e 9B18     		adds	r3, r3, r2
 3939              	.LVL637:
 3940 1770 2370     		strb	r3, [r4, #0]
 3941 1772 6648     		ldr	r0, .L252+12
 3942 1774 FFF7FEFF 		bl	uart_transmit
 3943              	.LVL638:
 3944              	.LBE341:
 3945              	.LBB342:
 3946 1778 3178     		ldrb	r1, [r6, #0]	@ zero_extendqisi2
 3947              	.LVL639:
 3948 177a 2B78     		ldrb	r3, [r5, #0]	@ zero_extendqisi2
 3949 177c 2278     		ldrb	r2, [r4, #0]	@ zero_extendqisi2
 3950 177e CB18     		adds	r3, r1, r3
 3951 1780 DBB2     		uxtb	r3, r3
 3952              	.LVL640:
 3953 1782 2B70     		strb	r3, [r5, #0]
 3954 1784 9B18     		adds	r3, r3, r2
 3955              	.LVL641:
 3956 1786 2370     		strb	r3, [r4, #0]
 3957 1788 6048     		ldr	r0, .L252+12
 3958 178a FFF7FEFF 		bl	uart_transmit
 3959              	.LVL642:
 3960              	.LBE342:
 3961              	.LBB343:
 3962 178e 7178     		ldrb	r1, [r6, #1]	@ zero_extendqisi2
 3963              	.LVL643:
 3964 1790 2B78     		ldrb	r3, [r5, #0]	@ zero_extendqisi2
 3965 1792 2278     		ldrb	r2, [r4, #0]	@ zero_extendqisi2
 3966 1794 CB18     		adds	r3, r1, r3
 3967 1796 DBB2     		uxtb	r3, r3
 3968              	.LVL644:
 3969 1798 2B70     		strb	r3, [r5, #0]
 3970 179a 9B18     		adds	r3, r3, r2
 3971              	.LVL645:
 3972 179c 2370     		strb	r3, [r4, #0]
 3973 179e 5B48     		ldr	r0, .L252+12
 3974 17a0 FFF7FEFF 		bl	uart_transmit
 3975              	.LVL646:
 3976              	.LBE343:
 3977              	.LBB344:
 3978 17a4 B178     		ldrb	r1, [r6, #2]	@ zero_extendqisi2
 3979              	.LVL647:
 3980 17a6 2B78     		ldrb	r3, [r5, #0]	@ zero_extendqisi2
 3981 17a8 2278     		ldrb	r2, [r4, #0]	@ zero_extendqisi2
 3982 17aa CB18     		adds	r3, r1, r3
 3983 17ac DBB2     		uxtb	r3, r3
 3984              	.LVL648:
 3985 17ae 2B70     		strb	r3, [r5, #0]
 3986 17b0 9B18     		adds	r3, r3, r2
 3987              	.LVL649:
 3988 17b2 2370     		strb	r3, [r4, #0]
 3989 17b4 5548     		ldr	r0, .L252+12
 3990 17b6 FFF7FEFF 		bl	uart_transmit
 3991              	.LVL650:
 3992              	.LBE344:
 3993              	.LBB345:
 3994 17ba F178     		ldrb	r1, [r6, #3]	@ zero_extendqisi2
 3995              	.LVL651:
 3996 17bc 2B78     		ldrb	r3, [r5, #0]	@ zero_extendqisi2
 3997 17be 2278     		ldrb	r2, [r4, #0]	@ zero_extendqisi2
 3998 17c0 CB18     		adds	r3, r1, r3
 3999 17c2 DBB2     		uxtb	r3, r3
 4000              	.LBE345:
 4001              	.LBB346:
 4002 17c4 584E     		ldr	r6, .L252+40
 4003              	.LVL652:
 4004              	.LBE346:
 4005              	.LBB347:
 4006 17c6 2B70     		strb	r3, [r5, #0]
 4007 17c8 9B18     		adds	r3, r3, r2
 4008              	.LVL653:
 4009 17ca 2370     		strb	r3, [r4, #0]
 4010 17cc 4F48     		ldr	r0, .L252+12
 4011 17ce FFF7FEFF 		bl	uart_transmit
 4012              	.LVL654:
 4013              	.LBE347:
 4014              	.LBB348:
 4015 17d2 3178     		ldrb	r1, [r6, #0]	@ zero_extendqisi2
 4016              	.LVL655:
 4017 17d4 2B78     		ldrb	r3, [r5, #0]	@ zero_extendqisi2
 4018 17d6 2278     		ldrb	r2, [r4, #0]	@ zero_extendqisi2
 4019 17d8 CB18     		adds	r3, r1, r3
 4020 17da DBB2     		uxtb	r3, r3
 4021              	.LVL656:
 4022 17dc 2B70     		strb	r3, [r5, #0]
 4023 17de 9B18     		adds	r3, r3, r2
 4024              	.LVL657:
 4025 17e0 2370     		strb	r3, [r4, #0]
 4026 17e2 4A48     		ldr	r0, .L252+12
 4027 17e4 FFF7FEFF 		bl	uart_transmit
 4028              	.LVL658:
 4029              	.LBE348:
 4030              	.LBB349:
 4031 17e8 7178     		ldrb	r1, [r6, #1]	@ zero_extendqisi2
 4032              	.LVL659:
 4033 17ea 2B78     		ldrb	r3, [r5, #0]	@ zero_extendqisi2
 4034 17ec 2278     		ldrb	r2, [r4, #0]	@ zero_extendqisi2
 4035 17ee CB18     		adds	r3, r1, r3
 4036 17f0 DBB2     		uxtb	r3, r3
 4037              	.LVL660:
 4038 17f2 2B70     		strb	r3, [r5, #0]
 4039 17f4 9B18     		adds	r3, r3, r2
 4040              	.LVL661:
 4041 17f6 2370     		strb	r3, [r4, #0]
 4042 17f8 4448     		ldr	r0, .L252+12
 4043 17fa FFF7FEFF 		bl	uart_transmit
 4044              	.LVL662:
 4045              	.LBE349:
 4046              	.LBB350:
 4047 17fe B178     		ldrb	r1, [r6, #2]	@ zero_extendqisi2
 4048              	.LVL663:
 4049 1800 2B78     		ldrb	r3, [r5, #0]	@ zero_extendqisi2
 4050 1802 2278     		ldrb	r2, [r4, #0]	@ zero_extendqisi2
 4051 1804 CB18     		adds	r3, r1, r3
 4052 1806 DBB2     		uxtb	r3, r3
 4053              	.LVL664:
 4054 1808 2B70     		strb	r3, [r5, #0]
 4055 180a 9B18     		adds	r3, r3, r2
 4056              	.LVL665:
 4057 180c 2370     		strb	r3, [r4, #0]
 4058 180e 3F48     		ldr	r0, .L252+12
 4059 1810 FFF7FEFF 		bl	uart_transmit
 4060              	.LVL666:
 4061              	.LBE350:
 4062              	.LBB351:
 4063 1814 F178     		ldrb	r1, [r6, #3]	@ zero_extendqisi2
 4064              	.LVL667:
 4065 1816 2B78     		ldrb	r3, [r5, #0]	@ zero_extendqisi2
 4066 1818 2278     		ldrb	r2, [r4, #0]	@ zero_extendqisi2
 4067 181a CB18     		adds	r3, r1, r3
 4068 181c DBB2     		uxtb	r3, r3
 4069              	.LBE351:
 4070              	.LBB352:
 4071 181e 434E     		ldr	r6, .L252+44
 4072              	.LVL668:
 4073              	.LBE352:
 4074              	.LBB353:
 4075 1820 2B70     		strb	r3, [r5, #0]
 4076 1822 9B18     		adds	r3, r3, r2
 4077              	.LVL669:
 4078 1824 2370     		strb	r3, [r4, #0]
 4079 1826 3948     		ldr	r0, .L252+12
 4080 1828 FFF7FEFF 		bl	uart_transmit
 4081              	.LVL670:
 4082              	.LBE353:
 4083              	.LBB354:
 4084 182c 3178     		ldrb	r1, [r6, #0]	@ zero_extendqisi2
 4085              	.LVL671:
 4086 182e 2B78     		ldrb	r3, [r5, #0]	@ zero_extendqisi2
 4087 1830 2278     		ldrb	r2, [r4, #0]	@ zero_extendqisi2
 4088 1832 CB18     		adds	r3, r1, r3
 4089 1834 DBB2     		uxtb	r3, r3
 4090              	.LVL672:
 4091 1836 2B70     		strb	r3, [r5, #0]
 4092 1838 9B18     		adds	r3, r3, r2
 4093              	.LVL673:
 4094 183a 2370     		strb	r3, [r4, #0]
 4095 183c 3348     		ldr	r0, .L252+12
 4096 183e FFF7FEFF 		bl	uart_transmit
 4097              	.LVL674:
 4098              	.LBE354:
 4099              	.LBB355:
 4100 1842 7178     		ldrb	r1, [r6, #1]	@ zero_extendqisi2
 4101              	.LVL675:
 4102 1844 2B78     		ldrb	r3, [r5, #0]	@ zero_extendqisi2
 4103 1846 2278     		ldrb	r2, [r4, #0]	@ zero_extendqisi2
 4104 1848 CB18     		adds	r3, r1, r3
 4105 184a DBB2     		uxtb	r3, r3
 4106              	.LVL676:
 4107 184c 2B70     		strb	r3, [r5, #0]
 4108 184e 9B18     		adds	r3, r3, r2
 4109              	.LVL677:
 4110 1850 2370     		strb	r3, [r4, #0]
 4111 1852 2E48     		ldr	r0, .L252+12
 4112 1854 FFF7FEFF 		bl	uart_transmit
 4113              	.LVL678:
 4114              	.LBE355:
 4115              	.LBB356:
 4116 1858 B178     		ldrb	r1, [r6, #2]	@ zero_extendqisi2
 4117              	.LVL679:
 4118 185a 2B78     		ldrb	r3, [r5, #0]	@ zero_extendqisi2
 4119 185c 2278     		ldrb	r2, [r4, #0]	@ zero_extendqisi2
 4120 185e CB18     		adds	r3, r1, r3
 4121 1860 DBB2     		uxtb	r3, r3
 4122              	.LVL680:
 4123 1862 2B70     		strb	r3, [r5, #0]
 4124 1864 9B18     		adds	r3, r3, r2
 4125              	.LVL681:
 4126 1866 2370     		strb	r3, [r4, #0]
 4127 1868 2848     		ldr	r0, .L252+12
 4128 186a FFF7FEFF 		bl	uart_transmit
 4129              	.LVL682:
 4130              	.LBE356:
 4131              	.LBB357:
 4132 186e F178     		ldrb	r1, [r6, #3]	@ zero_extendqisi2
 4133              	.LVL683:
 4134 1870 2B78     		ldrb	r3, [r5, #0]	@ zero_extendqisi2
 4135 1872 2278     		ldrb	r2, [r4, #0]	@ zero_extendqisi2
 4136 1874 CB18     		adds	r3, r1, r3
 4137 1876 DBB2     		uxtb	r3, r3
 4138              	.LVL684:
 4139 1878 2B70     		strb	r3, [r5, #0]
 4140 187a 9B18     		adds	r3, r3, r2
 4141              	.LVL685:
 4142 187c 2370     		strb	r3, [r4, #0]
 4143 187e 2348     		ldr	r0, .L252+12
 4144 1880 FFF7FEFF 		bl	uart_transmit
 4145              	.LVL686:
 4146              	.LBE357:
 4147 1884 2978     		ldrb	r1, [r5, #0]	@ zero_extendqisi2
 4148 1886 2148     		ldr	r0, .L252+12
 4149 1888 FFF7FEFF 		bl	uart_transmit
 4150 188c 1F48     		ldr	r0, .L252+12
 4151 188e 2178     		ldrb	r1, [r4, #0]	@ zero_extendqisi2
 4152 1890 FFF7FEFF 		bl	uart_transmit
 4153 1894 03E0     		b	.L47
 4154              	.LVL687:
 4155              	.L48:
 4156              		.loc 1 422 0 discriminator 54
 4157 1896 1A4B     		ldr	r3, .L252
 4158 1898 1A78     		ldrb	r2, [r3, #0]	@ zero_extendqisi2
 4159 189a 0132     		adds	r2, r2, #1
 4160 189c 1A70     		strb	r2, [r3, #0]
 4161              	.L47:
 4162              		.loc 1 422 0 discriminator 55
 4163 189e 244B     		ldr	r3, .L252+48
 4164 18a0 1B78     		ldrb	r3, [r3, #0]	@ zero_extendqisi2
 4165 18a2 122B     		cmp	r3, #18
 4166 18a4 40F0DA80 		bne	.L49
 4167              	.LBB358:
 4168              		.loc 1 422 0 discriminator 56
 4169 18a8 224B     		ldr	r3, .L252+52
 4170 18aa 1A78     		ldrb	r2, [r3, #0]	@ zero_extendqisi2
 4171 18ac 0A2A     		cmp	r2, #10
 4172 18ae 01D9     		bls	.L50
 4173              		.loc 1 422 0 discriminator 58
 4174 18b0 0022     		movs	r2, #0
 4175 18b2 1A70     		strb	r2, [r3, #0]
 4176              	.L50:
 4177              		.loc 1 422 0 discriminator 59
 4178 18b4 1B78     		ldrb	r3, [r3, #0]	@ zero_extendqisi2
 4179 18b6 0A2B     		cmp	r3, #10
 4180 18b8 56D8     		bhi	.L51
 4181 18ba DFE803F0 		tbb	[pc, r3]
 4182              	.L63:
 4183 18be 06       		.byte	(.L52-.L63)/2
 4184 18bf 08       		.byte	(.L53-.L63)/2
 4185 18c0 0E       		.byte	(.L54-.L63)/2
 4186 18c1 10       		.byte	(.L55-.L63)/2
 4187 18c2 12       		.byte	(.L56-.L63)/2
 4188 18c3 14       		.byte	(.L57-.L63)/2
 4189 18c4 17       		.byte	(.L58-.L63)/2
 4190 18c5 1A       		.byte	(.L59-.L63)/2
 4191 18c6 1C       		.byte	(.L60-.L63)/2
 4192 18c7 1E       		.byte	(.L61-.L63)/2
 4193 18c8 51       		.byte	(.L62-.L63)/2
 4194 18c9 00       		.align	1
 4195              	.L52:
 4196              		.loc 1 422 0 discriminator 61
 4197 18ca 1B4B     		ldr	r3, .L252+56
 4198 18cc 00E0     		b	.L213
 4199              	.L53:
 4200              		.loc 1 422 0 discriminator 62
 4201 18ce 1B4B     		ldr	r3, .L252+60
 4202              	.L213:
 4203 18d0 1878     		ldrb	r0, [r3, #0]	@ zero_extendqisi2
 4204              	.L214:
 4205 18d2 FFF7FEFF 		bl	__aeabi_ui2f
 4206 18d6 0590     		str	r0, [sp, #20]	@ float
 4207              	.LVL688:
 4208 18d8 48E0     		b	.L64
 4209              	.LVL689:
 4210              	.L54:
 4211              		.loc 1 422 0 discriminator 63
 4212 18da 194B     		ldr	r3, .L252+64
 4213 18dc 07E0     		b	.L224
 4214              	.L55:
 4215              		.loc 1 422 0 discriminator 64
 4216 18de 194B     		ldr	r3, .L252+68
 4217 18e0 05E0     		b	.L224
 4218              	.L56:
 4219              		.loc 1 422 0 discriminator 65
 4220 18e2 194B     		ldr	r3, .L252+72
 4221 18e4 03E0     		b	.L224
 4222              	.L57:
 4223              		.loc 1 422 0 discriminator 66
 4224 18e6 194B     		ldr	r3, .L252+76
 4225 18e8 1888     		ldrh	r0, [r3, #0]
 4226 18ea F2E7     		b	.L214
 4227              	.L58:
 4228              		.loc 1 422 0 discriminator 67
 4229 18ec 184B     		ldr	r3, .L252+80
 4230              	.L224:
 4231 18ee 1B68     		ldr	r3, [r3, #0]	@ float
 4232 18f0 3BE0     		b	.L215
 4233              	.L59:
 4234              		.loc 1 422 0 discriminator 68
 4235 18f2 184B     		ldr	r3, .L252+84
 4236 18f4 ECE7     		b	.L213
 4237              	.L60:
 4238              		.loc 1 422 0 discriminator 69
 4239 18f6 184B     		ldr	r3, .L252+88
 4240 18f8 EAE7     		b	.L213
 4241              	.L61:
 4242              		.loc 1 422 0 discriminator 70
 4243 18fa 184B     		ldr	r3, .L252+92
 4244 18fc E8E7     		b	.L213
 4245              	.L253:
 4246 18fe 00BF     		.align	2
 4247              	.L252:
 4248 1900 00000000 		.word	downlink_nb_ovrn
 4249 1904 00000000 		.word	.LANCHOR14
 4250 1908 00000000 		.word	nav_in_segment
 4251 190c 00000000 		.word	uart2
 4252 1910 00000000 		.word	downlink_nb_bytes
 4253 1914 00000000 		.word	downlink_nb_msgs
 4254 1918 00000000 		.word	ck_a
 4255 191c 00000000 		.word	ck_b
 4256 1920 00000000 		.word	nav_segment_x_1
 4257 1924 00000000 		.word	nav_segment_y_1
 4258 1928 00000000 		.word	nav_segment_x_2
 4259 192c 00000000 		.word	nav_segment_y_2
 4260 1930 00000000 		.word	.LANCHOR15
 4261 1934 00000000 		.word	.LANCHOR28
 4262 1938 00000000 		.word	telemetry_mode_Ap
 4263 193c 00000000 		.word	telemetry_mode_Fbw
 4264 1940 00000000 		.word	flight_altitude
 4265 1944 00000000 		.word	nav_course
 4266 1948 00000000 		.word	nav_shift
 4267 194c 00000000 		.word	estimator_flight_time
 4268 1950 00000000 		.word	nav_radius
 4269 1954 00000000 		.word	.LANCHOR29
 4270 1958 00000000 		.word	.LANCHOR30
 4271 195c 00000000 		.word	.LANCHOR27
 4272              	.L62:
 4273              		.loc 1 422 0 discriminator 71
 4274 1960 9E4B     		ldr	r3, .L254
 4275 1962 B3F8F000 		ldrh	r0, [r3, #240]
 4276 1966 B4E7     		b	.L214
 4277              	.L51:
 4278              		.loc 1 422 0 discriminator 60
 4279 1968 0023     		movs	r3, #0
 4280              	.L215:
 4281 196a 0593     		str	r3, [sp, #20]	@ float
 4282              	.LVL690:
 4283              	.L64:
 4284              		.loc 1 422 0 discriminator 72
 4285 196c 9C48     		ldr	r0, .L254+4
 4286 196e 0B21     		movs	r1, #11
 4287 1970 FFF7FEFF 		bl	uart_check_free_space
 4288 1974 0028     		cmp	r0, #0
 4289 1976 69D0     		beq	.L65
 4290              		.loc 1 422 0 discriminator 73
 4291 1978 9A4B     		ldr	r3, .L254+8
 4292              	.LBB359:
 4293 197a 9921     		movs	r1, #153
 4294              	.LBE359:
 4295 197c 1A88     		ldrh	r2, [r3, #0]
 4296              	.LBB360:
 4297 197e 9848     		ldr	r0, .L254+4
 4298              	.LBE360:
 4299 1980 0B32     		adds	r2, r2, #11
 4300 1982 1A80     		strh	r2, [r3, #0]	@ movhi
 4301 1984 984B     		ldr	r3, .L254+12
 4302 1986 994D     		ldr	r5, .L254+16
 4303 1988 1A88     		ldrh	r2, [r3, #0]
 4304 198a 994C     		ldr	r4, .L254+20
 4305 198c 0132     		adds	r2, r2, #1
 4306 198e 1A80     		strh	r2, [r3, #0]	@ movhi
 4307              	.LBB361:
 4308 1990 FFF7FEFF 		bl	uart_transmit
 4309              	.LVL691:
 4310 1994 0B21     		movs	r1, #11
 4311 1996 9248     		ldr	r0, .L254+4
 4312 1998 FFF7FEFF 		bl	uart_transmit
 4313              	.LBE361:
 4314 199c 0C23     		movs	r3, #12
 4315 199e 2B70     		strb	r3, [r5, #0]
 4316 19a0 1723     		movs	r3, #23
 4317 19a2 2370     		strb	r3, [r4, #0]
 4318 19a4 0121     		movs	r1, #1
 4319 19a6 8E48     		ldr	r0, .L254+4
 4320 19a8 FFF7FEFF 		bl	uart_transmit
 4321 19ac 2B78     		ldrb	r3, [r5, #0]	@ zero_extendqisi2
 4322 19ae 2278     		ldrb	r2, [r4, #0]	@ zero_extendqisi2
 4323 19b0 1F33     		adds	r3, r3, #31
 4324 19b2 DBB2     		uxtb	r3, r3
 4325 19b4 2B70     		strb	r3, [r5, #0]
 4326 19b6 9B18     		adds	r3, r3, r2
 4327 19b8 2370     		strb	r3, [r4, #0]
 4328 19ba 1F21     		movs	r1, #31
 4329 19bc 8848     		ldr	r0, .L254+4
 4330 19be FFF7FEFF 		bl	uart_transmit
 4331              	.LBB362:
 4332 19c2 8C4B     		ldr	r3, .L254+24
 4333 19c4 2278     		ldrb	r2, [r4, #0]	@ zero_extendqisi2
 4334 19c6 1978     		ldrb	r1, [r3, #0]	@ zero_extendqisi2
 4335              	.LVL692:
 4336 19c8 2B78     		ldrb	r3, [r5, #0]	@ zero_extendqisi2
 4337 19ca 8548     		ldr	r0, .L254+4
 4338 19cc CB18     		adds	r3, r1, r3
 4339 19ce DBB2     		uxtb	r3, r3
 4340              	.LVL693:
 4341 19d0 2B70     		strb	r3, [r5, #0]
 4342 19d2 9B18     		adds	r3, r3, r2
 4343              	.LVL694:
 4344 19d4 2370     		strb	r3, [r4, #0]
 4345 19d6 FFF7FEFF 		bl	uart_transmit
 4346              	.LVL695:
 4347              	.LBE362:
 4348              	.LBB363:
 4349 19da 9DF81410 		ldrb	r1, [sp, #20]	@ zero_extendqisi2
 4350              	.LVL696:
 4351 19de 2B78     		ldrb	r3, [r5, #0]	@ zero_extendqisi2
 4352 19e0 2278     		ldrb	r2, [r4, #0]	@ zero_extendqisi2
 4353 19e2 CB18     		adds	r3, r1, r3
 4354 19e4 DBB2     		uxtb	r3, r3
 4355              	.LVL697:
 4356 19e6 2B70     		strb	r3, [r5, #0]
 4357 19e8 9B18     		adds	r3, r3, r2
 4358              	.LVL698:
 4359 19ea 2370     		strb	r3, [r4, #0]
 4360 19ec 7C48     		ldr	r0, .L254+4
 4361 19ee FFF7FEFF 		bl	uart_transmit
 4362              	.LVL699:
 4363              	.LBE363:
 4364              	.LBB364:
 4365 19f2 9DF81510 		ldrb	r1, [sp, #21]	@ zero_extendqisi2
 4366              	.LVL700:
 4367 19f6 2B78     		ldrb	r3, [r5, #0]	@ zero_extendqisi2
 4368 19f8 2278     		ldrb	r2, [r4, #0]	@ zero_extendqisi2
 4369 19fa CB18     		adds	r3, r1, r3
 4370 19fc DBB2     		uxtb	r3, r3
 4371              	.LVL701:
 4372 19fe 2B70     		strb	r3, [r5, #0]
 4373 1a00 9B18     		adds	r3, r3, r2
 4374              	.LVL702:
 4375 1a02 2370     		strb	r3, [r4, #0]
 4376 1a04 7648     		ldr	r0, .L254+4
 4377 1a06 FFF7FEFF 		bl	uart_transmit
 4378              	.LVL703:
 4379              	.LBE364:
 4380              	.LBB365:
 4381 1a0a 9DF81610 		ldrb	r1, [sp, #22]	@ zero_extendqisi2
 4382              	.LVL704:
 4383 1a0e 2B78     		ldrb	r3, [r5, #0]	@ zero_extendqisi2
 4384 1a10 2278     		ldrb	r2, [r4, #0]	@ zero_extendqisi2
 4385 1a12 CB18     		adds	r3, r1, r3
 4386 1a14 DBB2     		uxtb	r3, r3
 4387              	.LVL705:
 4388 1a16 2B70     		strb	r3, [r5, #0]
 4389 1a18 9B18     		adds	r3, r3, r2
 4390              	.LVL706:
 4391 1a1a 2370     		strb	r3, [r4, #0]
 4392 1a1c 7048     		ldr	r0, .L254+4
 4393 1a1e FFF7FEFF 		bl	uart_transmit
 4394              	.LVL707:
 4395              	.LBE365:
 4396              	.LBB366:
 4397 1a22 9DF81710 		ldrb	r1, [sp, #23]	@ zero_extendqisi2
 4398              	.LVL708:
 4399 1a26 2B78     		ldrb	r3, [r5, #0]	@ zero_extendqisi2
 4400 1a28 2278     		ldrb	r2, [r4, #0]	@ zero_extendqisi2
 4401 1a2a CB18     		adds	r3, r1, r3
 4402 1a2c DBB2     		uxtb	r3, r3
 4403              	.LVL709:
 4404 1a2e 2B70     		strb	r3, [r5, #0]
 4405 1a30 9B18     		adds	r3, r3, r2
 4406              	.LVL710:
 4407 1a32 2370     		strb	r3, [r4, #0]
 4408 1a34 6A48     		ldr	r0, .L254+4
 4409 1a36 FFF7FEFF 		bl	uart_transmit
 4410              	.LVL711:
 4411              	.LBE366:
 4412 1a3a 2978     		ldrb	r1, [r5, #0]	@ zero_extendqisi2
 4413 1a3c 6848     		ldr	r0, .L254+4
 4414 1a3e FFF7FEFF 		bl	uart_transmit
 4415 1a42 6748     		ldr	r0, .L254+4
 4416 1a44 2178     		ldrb	r1, [r4, #0]	@ zero_extendqisi2
 4417 1a46 FFF7FEFF 		bl	uart_transmit
 4418 1a4a 03E0     		b	.L66
 4419              	.LVL712:
 4420              	.L65:
 4421              		.loc 1 422 0 discriminator 74
 4422 1a4c 6A4B     		ldr	r3, .L254+28
 4423 1a4e 1A78     		ldrb	r2, [r3, #0]	@ zero_extendqisi2
 4424 1a50 0132     		adds	r2, r2, #1
 4425 1a52 1A70     		strb	r2, [r3, #0]
 4426              	.L66:
 4427              		.loc 1 422 0 discriminator 75
 4428 1a54 674B     		ldr	r3, .L254+24
 4429 1a56 1A78     		ldrb	r2, [r3, #0]	@ zero_extendqisi2
 4430 1a58 0132     		adds	r2, r2, #1
 4431 1a5a 1A70     		strb	r2, [r3, #0]
 4432              	.L49:
 4433              	.LBE358:
 4434              		.loc 1 422 0 discriminator 57
 4435 1a5c 674B     		ldr	r3, .L254+32
 4436 1a5e 1B78     		ldrb	r3, [r3, #0]	@ zero_extendqisi2
 4437 1a60 182B     		cmp	r3, #24
 4438 1a62 40F0D180 		bne	.L67
 4439              		.loc 1 422 0 discriminator 76
 4440 1a66 5E48     		ldr	r0, .L254+4
 4441 1a68 1121     		movs	r1, #17
 4442 1a6a FFF7FEFF 		bl	uart_check_free_space
 4443 1a6e 0028     		cmp	r0, #0
 4444 1a70 00F0C680 		beq	.L68
 4445              		.loc 1 422 0 discriminator 78
 4446 1a74 5B4B     		ldr	r3, .L254+8
 4447              	.LBB367:
 4448 1a76 9921     		movs	r1, #153
 4449              	.LBE367:
 4450 1a78 1A88     		ldrh	r2, [r3, #0]
 4451              	.LBB368:
 4452 1a7a 5948     		ldr	r0, .L254+4
 4453              	.LBE368:
 4454 1a7c 1132     		adds	r2, r2, #17
 4455 1a7e 1A80     		strh	r2, [r3, #0]	@ movhi
 4456 1a80 594B     		ldr	r3, .L254+12
 4457 1a82 5A4D     		ldr	r5, .L254+16
 4458 1a84 1A88     		ldrh	r2, [r3, #0]
 4459 1a86 5A4C     		ldr	r4, .L254+20
 4460 1a88 0132     		adds	r2, r2, #1
 4461 1a8a 1A80     		strh	r2, [r3, #0]	@ movhi
 4462              	.LBB369:
 4463 1a8c FFF7FEFF 		bl	uart_transmit
 4464              	.LVL713:
 4465 1a90 1121     		movs	r1, #17
 4466 1a92 5348     		ldr	r0, .L254+4
 4467 1a94 FFF7FEFF 		bl	uart_transmit
 4468              	.LBE369:
 4469 1a98 1223     		movs	r3, #18
 4470 1a9a 2B70     		strb	r3, [r5, #0]
 4471 1a9c 2323     		movs	r3, #35
 4472 1a9e 2370     		strb	r3, [r4, #0]
 4473 1aa0 0121     		movs	r1, #1
 4474 1aa2 4F48     		ldr	r0, .L254+4
 4475 1aa4 FFF7FEFF 		bl	uart_transmit
 4476 1aa8 2B78     		ldrb	r3, [r5, #0]	@ zero_extendqisi2
 4477 1aaa 2278     		ldrb	r2, [r4, #0]	@ zero_extendqisi2
 4478 1aac 1133     		adds	r3, r3, #17
 4479 1aae DBB2     		uxtb	r3, r3
 4480              	.LBB370:
 4481 1ab0 4A4E     		ldr	r6, .L254
 4482              	.LBE370:
 4483 1ab2 2B70     		strb	r3, [r5, #0]
 4484 1ab4 9B18     		adds	r3, r3, r2
 4485 1ab6 2370     		strb	r3, [r4, #0]
 4486 1ab8 1121     		movs	r1, #17
 4487 1aba 4948     		ldr	r0, .L254+4
 4488 1abc FFF7FEFF 		bl	uart_transmit
 4489              	.LBB371:
 4490 1ac0 96F84C10 		ldrb	r1, [r6, #76]	@ zero_extendqisi2
 4491              	.LVL714:
 4492 1ac4 2B78     		ldrb	r3, [r5, #0]	@ zero_extendqisi2
 4493 1ac6 2278     		ldrb	r2, [r4, #0]	@ zero_extendqisi2
 4494 1ac8 CB18     		adds	r3, r1, r3
 4495 1aca DBB2     		uxtb	r3, r3
 4496              	.LVL715:
 4497 1acc 2B70     		strb	r3, [r5, #0]
 4498 1ace 9B18     		adds	r3, r3, r2
 4499              	.LVL716:
 4500 1ad0 2370     		strb	r3, [r4, #0]
 4501 1ad2 4348     		ldr	r0, .L254+4
 4502 1ad4 FFF7FEFF 		bl	uart_transmit
 4503              	.LVL717:
 4504              	.LBE371:
 4505              	.LBB372:
 4506 1ad8 96F84D10 		ldrb	r1, [r6, #77]	@ zero_extendqisi2
 4507              	.LVL718:
 4508 1adc 2B78     		ldrb	r3, [r5, #0]	@ zero_extendqisi2
 4509 1ade 2278     		ldrb	r2, [r4, #0]	@ zero_extendqisi2
 4510 1ae0 CB18     		adds	r3, r1, r3
 4511 1ae2 DBB2     		uxtb	r3, r3
 4512              	.LVL719:
 4513 1ae4 2B70     		strb	r3, [r5, #0]
 4514 1ae6 9B18     		adds	r3, r3, r2
 4515              	.LVL720:
 4516 1ae8 2370     		strb	r3, [r4, #0]
 4517 1aea 3D48     		ldr	r0, .L254+4
 4518 1aec FFF7FEFF 		bl	uart_transmit
 4519              	.LVL721:
 4520              	.LBE372:
 4521              	.LBB373:
 4522 1af0 96F84E10 		ldrb	r1, [r6, #78]	@ zero_extendqisi2
 4523              	.LVL722:
 4524 1af4 2B78     		ldrb	r3, [r5, #0]	@ zero_extendqisi2
 4525 1af6 2278     		ldrb	r2, [r4, #0]	@ zero_extendqisi2
 4526 1af8 CB18     		adds	r3, r1, r3
 4527 1afa DBB2     		uxtb	r3, r3
 4528              	.LVL723:
 4529 1afc 2B70     		strb	r3, [r5, #0]
 4530 1afe 9B18     		adds	r3, r3, r2
 4531              	.LVL724:
 4532 1b00 2370     		strb	r3, [r4, #0]
 4533 1b02 3748     		ldr	r0, .L254+4
 4534 1b04 FFF7FEFF 		bl	uart_transmit
 4535              	.LVL725:
 4536              	.LBE373:
 4537              	.LBB374:
 4538 1b08 96F84F10 		ldrb	r1, [r6, #79]	@ zero_extendqisi2
 4539              	.LVL726:
 4540 1b0c 2B78     		ldrb	r3, [r5, #0]	@ zero_extendqisi2
 4541 1b0e 2278     		ldrb	r2, [r4, #0]	@ zero_extendqisi2
 4542 1b10 CB18     		adds	r3, r1, r3
 4543 1b12 DBB2     		uxtb	r3, r3
 4544              	.LVL727:
 4545 1b14 2B70     		strb	r3, [r5, #0]
 4546 1b16 9B18     		adds	r3, r3, r2
 4547              	.LVL728:
 4548 1b18 2370     		strb	r3, [r4, #0]
 4549 1b1a 3148     		ldr	r0, .L254+4
 4550 1b1c FFF7FEFF 		bl	uart_transmit
 4551              	.LVL729:
 4552              	.LBE374:
 4553              	.LBB375:
 4554 1b20 96F85010 		ldrb	r1, [r6, #80]	@ zero_extendqisi2
 4555              	.LVL730:
 4556 1b24 2B78     		ldrb	r3, [r5, #0]	@ zero_extendqisi2
 4557 1b26 2278     		ldrb	r2, [r4, #0]	@ zero_extendqisi2
 4558 1b28 CB18     		adds	r3, r1, r3
 4559 1b2a DBB2     		uxtb	r3, r3
 4560              	.LVL731:
 4561 1b2c 2B70     		strb	r3, [r5, #0]
 4562 1b2e 9B18     		adds	r3, r3, r2
 4563              	.LVL732:
 4564 1b30 2370     		strb	r3, [r4, #0]
 4565 1b32 2B48     		ldr	r0, .L254+4
 4566 1b34 FFF7FEFF 		bl	uart_transmit
 4567              	.LVL733:
 4568              	.LBE375:
 4569              	.LBB376:
 4570 1b38 96F85110 		ldrb	r1, [r6, #81]	@ zero_extendqisi2
 4571              	.LVL734:
 4572 1b3c 2B78     		ldrb	r3, [r5, #0]	@ zero_extendqisi2
 4573 1b3e 2278     		ldrb	r2, [r4, #0]	@ zero_extendqisi2
 4574 1b40 CB18     		adds	r3, r1, r3
 4575 1b42 DBB2     		uxtb	r3, r3
 4576              	.LVL735:
 4577 1b44 2B70     		strb	r3, [r5, #0]
 4578 1b46 9B18     		adds	r3, r3, r2
 4579              	.LVL736:
 4580 1b48 2370     		strb	r3, [r4, #0]
 4581 1b4a 2548     		ldr	r0, .L254+4
 4582 1b4c FFF7FEFF 		bl	uart_transmit
 4583              	.LVL737:
 4584              	.LBE376:
 4585              	.LBB377:
 4586 1b50 96F85210 		ldrb	r1, [r6, #82]	@ zero_extendqisi2
 4587              	.LVL738:
 4588 1b54 2B78     		ldrb	r3, [r5, #0]	@ zero_extendqisi2
 4589 1b56 2278     		ldrb	r2, [r4, #0]	@ zero_extendqisi2
 4590 1b58 CB18     		adds	r3, r1, r3
 4591 1b5a DBB2     		uxtb	r3, r3
 4592              	.LVL739:
 4593 1b5c 2B70     		strb	r3, [r5, #0]
 4594 1b5e 9B18     		adds	r3, r3, r2
 4595              	.LVL740:
 4596 1b60 2370     		strb	r3, [r4, #0]
 4597 1b62 1F48     		ldr	r0, .L254+4
 4598 1b64 FFF7FEFF 		bl	uart_transmit
 4599              	.LVL741:
 4600              	.LBE377:
 4601              	.LBB378:
 4602 1b68 96F85310 		ldrb	r1, [r6, #83]	@ zero_extendqisi2
 4603              	.LVL742:
 4604 1b6c 2B78     		ldrb	r3, [r5, #0]	@ zero_extendqisi2
 4605 1b6e 2278     		ldrb	r2, [r4, #0]	@ zero_extendqisi2
 4606 1b70 CB18     		adds	r3, r1, r3
 4607 1b72 DBB2     		uxtb	r3, r3
 4608              	.LVL743:
 4609 1b74 2B70     		strb	r3, [r5, #0]
 4610 1b76 9B18     		adds	r3, r3, r2
 4611              	.LVL744:
 4612 1b78 2370     		strb	r3, [r4, #0]
 4613 1b7a 1948     		ldr	r0, .L254+4
 4614 1b7c FFF7FEFF 		bl	uart_transmit
 4615              	.LVL745:
 4616              	.LBE378:
 4617              	.LBB379:
 4618 1b80 96F85810 		ldrb	r1, [r6, #88]	@ zero_extendqisi2
 4619              	.LVL746:
 4620 1b84 2B78     		ldrb	r3, [r5, #0]	@ zero_extendqisi2
 4621 1b86 2278     		ldrb	r2, [r4, #0]	@ zero_extendqisi2
 4622 1b88 CB18     		adds	r3, r1, r3
 4623 1b8a DBB2     		uxtb	r3, r3
 4624              	.LVL747:
 4625 1b8c 2B70     		strb	r3, [r5, #0]
 4626 1b8e 9B18     		adds	r3, r3, r2
 4627              	.LVL748:
 4628 1b90 2370     		strb	r3, [r4, #0]
 4629 1b92 1348     		ldr	r0, .L254+4
 4630 1b94 FFF7FEFF 		bl	uart_transmit
 4631              	.LVL749:
 4632              	.LBE379:
 4633              	.LBB380:
 4634 1b98 96F85910 		ldrb	r1, [r6, #89]	@ zero_extendqisi2
 4635              	.LVL750:
 4636 1b9c 2B78     		ldrb	r3, [r5, #0]	@ zero_extendqisi2
 4637 1b9e 2278     		ldrb	r2, [r4, #0]	@ zero_extendqisi2
 4638 1ba0 CB18     		adds	r3, r1, r3
 4639 1ba2 DBB2     		uxtb	r3, r3
 4640              	.LVL751:
 4641 1ba4 2B70     		strb	r3, [r5, #0]
 4642 1ba6 9B18     		adds	r3, r3, r2
 4643              	.LVL752:
 4644 1ba8 2370     		strb	r3, [r4, #0]
 4645 1baa 0D48     		ldr	r0, .L254+4
 4646 1bac FFF7FEFF 		bl	uart_transmit
 4647              	.LVL753:
 4648              	.LBE380:
 4649              	.LBB381:
 4650 1bb0 96F85A10 		ldrb	r1, [r6, #90]	@ zero_extendqisi2
 4651              	.LVL754:
 4652 1bb4 2B78     		ldrb	r3, [r5, #0]	@ zero_extendqisi2
 4653 1bb6 2278     		ldrb	r2, [r4, #0]	@ zero_extendqisi2
 4654 1bb8 CB18     		adds	r3, r1, r3
 4655 1bba DBB2     		uxtb	r3, r3
 4656              	.LVL755:
 4657 1bbc 2B70     		strb	r3, [r5, #0]
 4658 1bbe 9B18     		adds	r3, r3, r2
 4659              	.LVL756:
 4660 1bc0 2370     		strb	r3, [r4, #0]
 4661 1bc2 0748     		ldr	r0, .L254+4
 4662 1bc4 FFF7FEFF 		bl	uart_transmit
 4663              	.LVL757:
 4664              	.LBE381:
 4665 1bc8 2978     		ldrb	r1, [r5, #0]	@ zero_extendqisi2
 4666 1bca 0548     		ldr	r0, .L254+4
 4667 1bcc FFF7FEFF 		bl	uart_transmit
 4668 1bd0 0348     		ldr	r0, .L254+4
 4669 1bd2 2178     		ldrb	r1, [r4, #0]	@ zero_extendqisi2
 4670 1bd4 FFF7FEFF 		bl	uart_transmit
 4671 1bd8 16E0     		b	.L67
 4672              	.L255:
 4673 1bda 00BF     		.align	2
 4674              	.L254:
 4675 1bdc 00000000 		.word	gps
 4676 1be0 00000000 		.word	uart2
 4677 1be4 00000000 		.word	downlink_nb_bytes
 4678 1be8 00000000 		.word	downlink_nb_msgs
 4679 1bec 00000000 		.word	ck_a
 4680 1bf0 00000000 		.word	ck_b
 4681 1bf4 00000000 		.word	.LANCHOR28
 4682 1bf8 00000000 		.word	downlink_nb_ovrn
 4683 1bfc 00000000 		.word	.LANCHOR16
 4684              	.LVL758:
 4685              	.L68:
 4686              		.loc 1 422 0 discriminator 79
 4687 1c00 314B     		ldr	r3, .L256
 4688 1c02 1A78     		ldrb	r2, [r3, #0]	@ zero_extendqisi2
 4689 1c04 0132     		adds	r2, r2, #1
 4690 1c06 1A70     		strb	r2, [r3, #0]
 4691              	.L67:
 4692              		.loc 1 422 0 discriminator 77
 4693 1c08 304B     		ldr	r3, .L256+4
 4694 1c0a 1B78     		ldrb	r3, [r3, #0]	@ zero_extendqisi2
 4695 1c0c 1E2B     		cmp	r3, #30
 4696 1c0e 6DD1     		bne	.L69
 4697              		.loc 1 422 0 discriminator 80
 4698 1c10 2F48     		ldr	r0, .L256+8
 4699 1c12 0B21     		movs	r1, #11
 4700 1c14 FFF7FEFF 		bl	uart_check_free_space
 4701 1c18 0028     		cmp	r0, #0
 4702 1c1a 00F06D81 		beq	.L72
 4703              		.loc 1 422 0 discriminator 82
 4704 1c1e 2D4B     		ldr	r3, .L256+12
 4705              	.LBB382:
 4706 1c20 2B48     		ldr	r0, .L256+8
 4707              	.LBE382:
 4708 1c22 1A88     		ldrh	r2, [r3, #0]
 4709              	.LBB383:
 4710 1c24 9921     		movs	r1, #153
 4711              	.LBE383:
 4712 1c26 0B32     		adds	r2, r2, #11
 4713 1c28 1A80     		strh	r2, [r3, #0]	@ movhi
 4714 1c2a 2B4B     		ldr	r3, .L256+16
 4715 1c2c 2B4D     		ldr	r5, .L256+20
 4716 1c2e 1A88     		ldrh	r2, [r3, #0]
 4717 1c30 2B4C     		ldr	r4, .L256+24
 4718 1c32 0132     		adds	r2, r2, #1
 4719 1c34 1A80     		strh	r2, [r3, #0]	@ movhi
 4720              	.LBB384:
 4721 1c36 FFF7FEFF 		bl	uart_transmit
 4722              	.LVL759:
 4723 1c3a 2548     		ldr	r0, .L256+8
 4724 1c3c 0B21     		movs	r1, #11
 4725 1c3e FFF7FEFF 		bl	uart_transmit
 4726              	.LBE384:
 4727 1c42 0C23     		movs	r3, #12
 4728 1c44 2B70     		strb	r3, [r5, #0]
 4729 1c46 1723     		movs	r3, #23
 4730 1c48 2370     		strb	r3, [r4, #0]
 4731 1c4a 2148     		ldr	r0, .L256+8
 4732 1c4c 0121     		movs	r1, #1
 4733 1c4e FFF7FEFF 		bl	uart_transmit
 4734 1c52 2B78     		ldrb	r3, [r5, #0]	@ zero_extendqisi2
 4735 1c54 2278     		ldrb	r2, [r4, #0]	@ zero_extendqisi2
 4736 1c56 0E33     		adds	r3, r3, #14
 4737 1c58 DBB2     		uxtb	r3, r3
 4738              	.LBB385:
 4739 1c5a 224E     		ldr	r6, .L256+28
 4740              	.LBE385:
 4741 1c5c 2B70     		strb	r3, [r5, #0]
 4742 1c5e 9B18     		adds	r3, r3, r2
 4743 1c60 2370     		strb	r3, [r4, #0]
 4744 1c62 1B48     		ldr	r0, .L256+8
 4745 1c64 0E21     		movs	r1, #14
 4746 1c66 FFF7FEFF 		bl	uart_transmit
 4747              	.LBB386:
 4748 1c6a 3178     		ldrb	r1, [r6, #0]	@ zero_extendqisi2
 4749              	.LVL760:
 4750 1c6c 2B78     		ldrb	r3, [r5, #0]	@ zero_extendqisi2
 4751 1c6e 2278     		ldrb	r2, [r4, #0]	@ zero_extendqisi2
 4752 1c70 CB18     		adds	r3, r1, r3
 4753 1c72 DBB2     		uxtb	r3, r3
 4754              	.LVL761:
 4755 1c74 2B70     		strb	r3, [r5, #0]
 4756 1c76 9B18     		adds	r3, r3, r2
 4757              	.LVL762:
 4758 1c78 2370     		strb	r3, [r4, #0]
 4759 1c7a 1548     		ldr	r0, .L256+8
 4760 1c7c FFF7FEFF 		bl	uart_transmit
 4761              	.LVL763:
 4762              	.LBE386:
 4763              	.LBB387:
 4764 1c80 7178     		ldrb	r1, [r6, #1]	@ zero_extendqisi2
 4765              	.LVL764:
 4766 1c82 2B78     		ldrb	r3, [r5, #0]	@ zero_extendqisi2
 4767 1c84 2278     		ldrb	r2, [r4, #0]	@ zero_extendqisi2
 4768 1c86 CB18     		adds	r3, r1, r3
 4769 1c88 DBB2     		uxtb	r3, r3
 4770              	.LVL765:
 4771 1c8a 2B70     		strb	r3, [r5, #0]
 4772 1c8c 9B18     		adds	r3, r3, r2
 4773              	.LVL766:
 4774 1c8e 2370     		strb	r3, [r4, #0]
 4775 1c90 0F48     		ldr	r0, .L256+8
 4776 1c92 FFF7FEFF 		bl	uart_transmit
 4777              	.LVL767:
 4778              	.LBE387:
 4779              	.LBB388:
 4780 1c96 B178     		ldrb	r1, [r6, #2]	@ zero_extendqisi2
 4781              	.LVL768:
 4782 1c98 2B78     		ldrb	r3, [r5, #0]	@ zero_extendqisi2
 4783 1c9a 2278     		ldrb	r2, [r4, #0]	@ zero_extendqisi2
 4784 1c9c CB18     		adds	r3, r1, r3
 4785 1c9e DBB2     		uxtb	r3, r3
 4786              	.LVL769:
 4787 1ca0 2B70     		strb	r3, [r5, #0]
 4788 1ca2 9B18     		adds	r3, r3, r2
 4789              	.LVL770:
 4790 1ca4 2370     		strb	r3, [r4, #0]
 4791 1ca6 0A48     		ldr	r0, .L256+8
 4792 1ca8 FFF7FEFF 		bl	uart_transmit
 4793              	.LVL771:
 4794              	.LBE388:
 4795              	.LBB389:
 4796 1cac F178     		ldrb	r1, [r6, #3]	@ zero_extendqisi2
 4797              	.LVL772:
 4798 1cae 2B78     		ldrb	r3, [r5, #0]	@ zero_extendqisi2
 4799 1cb0 2278     		ldrb	r2, [r4, #0]	@ zero_extendqisi2
 4800 1cb2 CB18     		adds	r3, r1, r3
 4801 1cb4 DBB2     		uxtb	r3, r3
 4802              	.LVL773:
 4803 1cb6 2B70     		strb	r3, [r5, #0]
 4804 1cb8 9B18     		adds	r3, r3, r2
 4805              	.LVL774:
 4806 1cba 2370     		strb	r3, [r4, #0]
 4807 1cbc 0448     		ldr	r0, .L256+8
 4808 1cbe FFF7FEFF 		bl	uart_transmit
 4809              	.LVL775:
 4810              	.LBE389:
 4811              	.LBB390:
 4812 1cc2 094B     		ldr	r3, .L256+32
 4813 1cc4 1978     		ldrb	r1, [r3, #0]	@ zero_extendqisi2
 4814              	.LVL776:
 4815 1cc6 EFE0     		b	.L216
 4816              	.L257:
 4817              		.align	2
 4818              	.L256:
 4819 1cc8 00000000 		.word	downlink_nb_ovrn
 4820 1ccc 00000000 		.word	.LANCHOR17
 4821 1cd0 00000000 		.word	uart2
 4822 1cd4 00000000 		.word	downlink_nb_bytes
 4823 1cd8 00000000 		.word	downlink_nb_msgs
 4824 1cdc 00000000 		.word	ck_a
 4825 1ce0 00000000 		.word	ck_b
 4826 1ce4 00000000 		.word	v_ctl_auto_throttle_sum_err
 4827 1ce8 00000000 		.word	v_ctl_auto_throttle_submode
 4828              	.LVL777:
 4829              	.L69:
 4830              	.LBE390:
 4831              		.loc 1 422 0 discriminator 81
 4832 1cec 242B     		cmp	r3, #36
 4833 1cee 40F00781 		bne	.L71
 4834              		.loc 1 422 0 discriminator 84
 4835 1cf2 774B     		ldr	r3, .L258
 4836 1cf4 1B78     		ldrb	r3, [r3, #0]	@ zero_extendqisi2
 4837 1cf6 002B     		cmp	r3, #0
 4838 1cf8 00F00281 		beq	.L71
 4839              		.loc 1 422 0 discriminator 86
 4840 1cfc 7548     		ldr	r0, .L258+4
 4841 1cfe 1621     		movs	r1, #22
 4842 1d00 FFF7FEFF 		bl	uart_check_free_space
 4843 1d04 0028     		cmp	r0, #0
 4844 1d06 00F0F780 		beq	.L72
 4845              		.loc 1 422 0 discriminator 87
 4846 1d0a 734B     		ldr	r3, .L258+8
 4847              	.LBB391:
 4848 1d0c 7148     		ldr	r0, .L258+4
 4849              	.LBE391:
 4850 1d0e 1A88     		ldrh	r2, [r3, #0]
 4851              	.LBB392:
 4852 1d10 9921     		movs	r1, #153
 4853              	.LBE392:
 4854 1d12 1632     		adds	r2, r2, #22
 4855 1d14 1A80     		strh	r2, [r3, #0]	@ movhi
 4856 1d16 714B     		ldr	r3, .L258+12
 4857 1d18 714D     		ldr	r5, .L258+16
 4858 1d1a 1A88     		ldrh	r2, [r3, #0]
 4859 1d1c 714C     		ldr	r4, .L258+20
 4860 1d1e 0132     		adds	r2, r2, #1
 4861 1d20 1A80     		strh	r2, [r3, #0]	@ movhi
 4862              	.LBB393:
 4863 1d22 FFF7FEFF 		bl	uart_transmit
 4864              	.LVL778:
 4865 1d26 6B48     		ldr	r0, .L258+4
 4866 1d28 1621     		movs	r1, #22
 4867 1d2a FFF7FEFF 		bl	uart_transmit
 4868              	.LBE393:
 4869 1d2e 1723     		movs	r3, #23
 4870 1d30 2B70     		strb	r3, [r5, #0]
 4871 1d32 2D23     		movs	r3, #45
 4872 1d34 2370     		strb	r3, [r4, #0]
 4873 1d36 6748     		ldr	r0, .L258+4
 4874 1d38 0121     		movs	r1, #1
 4875 1d3a FFF7FEFF 		bl	uart_transmit
 4876 1d3e 2B78     		ldrb	r3, [r5, #0]	@ zero_extendqisi2
 4877 1d40 2278     		ldrb	r2, [r4, #0]	@ zero_extendqisi2
 4878 1d42 1B33     		adds	r3, r3, #27
 4879 1d44 DBB2     		uxtb	r3, r3
 4880              	.LBB394:
 4881 1d46 684E     		ldr	r6, .L258+24
 4882              	.LBE394:
 4883 1d48 2B70     		strb	r3, [r5, #0]
 4884 1d4a 9B18     		adds	r3, r3, r2
 4885 1d4c 2370     		strb	r3, [r4, #0]
 4886 1d4e 6148     		ldr	r0, .L258+4
 4887 1d50 1B21     		movs	r1, #27
 4888 1d52 FFF7FEFF 		bl	uart_transmit
 4889              	.LBB395:
 4890 1d56 3178     		ldrb	r1, [r6, #0]	@ zero_extendqisi2
 4891              	.LVL779:
 4892 1d58 2B78     		ldrb	r3, [r5, #0]	@ zero_extendqisi2
 4893 1d5a 2278     		ldrb	r2, [r4, #0]	@ zero_extendqisi2
 4894 1d5c CB18     		adds	r3, r1, r3
 4895 1d5e DBB2     		uxtb	r3, r3
 4896              	.LVL780:
 4897 1d60 2B70     		strb	r3, [r5, #0]
 4898 1d62 9B18     		adds	r3, r3, r2
 4899              	.LVL781:
 4900 1d64 2370     		strb	r3, [r4, #0]
 4901 1d66 5B48     		ldr	r0, .L258+4
 4902 1d68 FFF7FEFF 		bl	uart_transmit
 4903              	.LVL782:
 4904              	.LBE395:
 4905              	.LBB396:
 4906 1d6c 7178     		ldrb	r1, [r6, #1]	@ zero_extendqisi2
 4907              	.LVL783:
 4908 1d6e 2B78     		ldrb	r3, [r5, #0]	@ zero_extendqisi2
 4909 1d70 2278     		ldrb	r2, [r4, #0]	@ zero_extendqisi2
 4910 1d72 CB18     		adds	r3, r1, r3
 4911 1d74 DBB2     		uxtb	r3, r3
 4912              	.LVL784:
 4913 1d76 2B70     		strb	r3, [r5, #0]
 4914 1d78 9B18     		adds	r3, r3, r2
 4915              	.LVL785:
 4916 1d7a 2370     		strb	r3, [r4, #0]
 4917 1d7c 5548     		ldr	r0, .L258+4
 4918 1d7e FFF7FEFF 		bl	uart_transmit
 4919              	.LVL786:
 4920              	.LBE396:
 4921              	.LBB397:
 4922 1d82 B178     		ldrb	r1, [r6, #2]	@ zero_extendqisi2
 4923              	.LVL787:
 4924 1d84 2B78     		ldrb	r3, [r5, #0]	@ zero_extendqisi2
 4925 1d86 2278     		ldrb	r2, [r4, #0]	@ zero_extendqisi2
 4926 1d88 CB18     		adds	r3, r1, r3
 4927 1d8a DBB2     		uxtb	r3, r3
 4928              	.LVL788:
 4929 1d8c 2B70     		strb	r3, [r5, #0]
 4930 1d8e 9B18     		adds	r3, r3, r2
 4931              	.LVL789:
 4932 1d90 2370     		strb	r3, [r4, #0]
 4933 1d92 5048     		ldr	r0, .L258+4
 4934 1d94 FFF7FEFF 		bl	uart_transmit
 4935              	.LVL790:
 4936              	.LBE397:
 4937              	.LBB398:
 4938 1d98 F178     		ldrb	r1, [r6, #3]	@ zero_extendqisi2
 4939              	.LVL791:
 4940 1d9a 2B78     		ldrb	r3, [r5, #0]	@ zero_extendqisi2
 4941 1d9c 2278     		ldrb	r2, [r4, #0]	@ zero_extendqisi2
 4942 1d9e CB18     		adds	r3, r1, r3
 4943 1da0 DBB2     		uxtb	r3, r3
 4944              	.LBE398:
 4945              	.LBB399:
 4946 1da2 524E     		ldr	r6, .L258+28
 4947              	.LVL792:
 4948              	.LBE399:
 4949              	.LBB400:
 4950 1da4 2B70     		strb	r3, [r5, #0]
 4951 1da6 9B18     		adds	r3, r3, r2
 4952              	.LVL793:
 4953 1da8 2370     		strb	r3, [r4, #0]
 4954 1daa 4A48     		ldr	r0, .L258+4
 4955 1dac FFF7FEFF 		bl	uart_transmit
 4956              	.LVL794:
 4957              	.LBE400:
 4958              	.LBB401:
 4959 1db0 3178     		ldrb	r1, [r6, #0]	@ zero_extendqisi2
 4960              	.LVL795:
 4961 1db2 2B78     		ldrb	r3, [r5, #0]	@ zero_extendqisi2
 4962 1db4 2278     		ldrb	r2, [r4, #0]	@ zero_extendqisi2
 4963 1db6 CB18     		adds	r3, r1, r3
 4964 1db8 DBB2     		uxtb	r3, r3
 4965              	.LVL796:
 4966 1dba 2B70     		strb	r3, [r5, #0]
 4967 1dbc 9B18     		adds	r3, r3, r2
 4968              	.LVL797:
 4969 1dbe 2370     		strb	r3, [r4, #0]
 4970 1dc0 4448     		ldr	r0, .L258+4
 4971 1dc2 FFF7FEFF 		bl	uart_transmit
 4972              	.LVL798:
 4973              	.LBE401:
 4974              	.LBB402:
 4975 1dc6 7178     		ldrb	r1, [r6, #1]	@ zero_extendqisi2
 4976              	.LVL799:
 4977 1dc8 2B78     		ldrb	r3, [r5, #0]	@ zero_extendqisi2
 4978 1dca 2278     		ldrb	r2, [r4, #0]	@ zero_extendqisi2
 4979 1dcc CB18     		adds	r3, r1, r3
 4980 1dce DBB2     		uxtb	r3, r3
 4981              	.LVL800:
 4982 1dd0 2B70     		strb	r3, [r5, #0]
 4983 1dd2 9B18     		adds	r3, r3, r2
 4984              	.LVL801:
 4985 1dd4 2370     		strb	r3, [r4, #0]
 4986 1dd6 3F48     		ldr	r0, .L258+4
 4987 1dd8 FFF7FEFF 		bl	uart_transmit
 4988              	.LVL802:
 4989              	.LBE402:
 4990              	.LBB403:
 4991 1ddc B178     		ldrb	r1, [r6, #2]	@ zero_extendqisi2
 4992              	.LVL803:
 4993 1dde 2B78     		ldrb	r3, [r5, #0]	@ zero_extendqisi2
 4994 1de0 2278     		ldrb	r2, [r4, #0]	@ zero_extendqisi2
 4995 1de2 CB18     		adds	r3, r1, r3
 4996 1de4 DBB2     		uxtb	r3, r3
 4997              	.LVL804:
 4998 1de6 2B70     		strb	r3, [r5, #0]
 4999 1de8 9B18     		adds	r3, r3, r2
 5000              	.LVL805:
 5001 1dea 2370     		strb	r3, [r4, #0]
 5002 1dec 3948     		ldr	r0, .L258+4
 5003 1dee FFF7FEFF 		bl	uart_transmit
 5004              	.LVL806:
 5005              	.LBE403:
 5006              	.LBB404:
 5007 1df2 F178     		ldrb	r1, [r6, #3]	@ zero_extendqisi2
 5008              	.LVL807:
 5009 1df4 2B78     		ldrb	r3, [r5, #0]	@ zero_extendqisi2
 5010 1df6 2278     		ldrb	r2, [r4, #0]	@ zero_extendqisi2
 5011 1df8 CB18     		adds	r3, r1, r3
 5012 1dfa DBB2     		uxtb	r3, r3
 5013              	.LBE404:
 5014              	.LBB405:
 5015 1dfc 3C4E     		ldr	r6, .L258+32
 5016              	.LVL808:
 5017              	.LBE405:
 5018              	.LBB406:
 5019 1dfe 2B70     		strb	r3, [r5, #0]
 5020 1e00 9B18     		adds	r3, r3, r2
 5021              	.LVL809:
 5022 1e02 2370     		strb	r3, [r4, #0]
 5023 1e04 3348     		ldr	r0, .L258+4
 5024 1e06 FFF7FEFF 		bl	uart_transmit
 5025              	.LVL810:
 5026              	.LBE406:
 5027              	.LBB407:
 5028 1e0a 3178     		ldrb	r1, [r6, #0]	@ zero_extendqisi2
 5029              	.LVL811:
 5030 1e0c 2B78     		ldrb	r3, [r5, #0]	@ zero_extendqisi2
 5031 1e0e 2278     		ldrb	r2, [r4, #0]	@ zero_extendqisi2
 5032 1e10 CB18     		adds	r3, r1, r3
 5033 1e12 DBB2     		uxtb	r3, r3
 5034              	.LVL812:
 5035 1e14 2B70     		strb	r3, [r5, #0]
 5036 1e16 9B18     		adds	r3, r3, r2
 5037              	.LVL813:
 5038 1e18 2370     		strb	r3, [r4, #0]
 5039 1e1a 2E48     		ldr	r0, .L258+4
 5040 1e1c FFF7FEFF 		bl	uart_transmit
 5041              	.LVL814:
 5042              	.LBE407:
 5043              	.LBB408:
 5044 1e20 7178     		ldrb	r1, [r6, #1]	@ zero_extendqisi2
 5045              	.LVL815:
 5046 1e22 2B78     		ldrb	r3, [r5, #0]	@ zero_extendqisi2
 5047 1e24 2278     		ldrb	r2, [r4, #0]	@ zero_extendqisi2
 5048 1e26 CB18     		adds	r3, r1, r3
 5049 1e28 DBB2     		uxtb	r3, r3
 5050              	.LVL816:
 5051 1e2a 2B70     		strb	r3, [r5, #0]
 5052 1e2c 9B18     		adds	r3, r3, r2
 5053              	.LVL817:
 5054 1e2e 2370     		strb	r3, [r4, #0]
 5055 1e30 2848     		ldr	r0, .L258+4
 5056 1e32 FFF7FEFF 		bl	uart_transmit
 5057              	.LVL818:
 5058              	.LBE408:
 5059              	.LBB409:
 5060 1e36 B178     		ldrb	r1, [r6, #2]	@ zero_extendqisi2
 5061              	.LVL819:
 5062 1e38 2B78     		ldrb	r3, [r5, #0]	@ zero_extendqisi2
 5063 1e3a 2278     		ldrb	r2, [r4, #0]	@ zero_extendqisi2
 5064 1e3c CB18     		adds	r3, r1, r3
 5065 1e3e DBB2     		uxtb	r3, r3
 5066              	.LVL820:
 5067 1e40 2B70     		strb	r3, [r5, #0]
 5068 1e42 9B18     		adds	r3, r3, r2
 5069              	.LVL821:
 5070 1e44 2370     		strb	r3, [r4, #0]
 5071 1e46 2348     		ldr	r0, .L258+4
 5072 1e48 FFF7FEFF 		bl	uart_transmit
 5073              	.LVL822:
 5074              	.LBE409:
 5075              	.LBB410:
 5076 1e4c F178     		ldrb	r1, [r6, #3]	@ zero_extendqisi2
 5077              	.LVL823:
 5078 1e4e 2B78     		ldrb	r3, [r5, #0]	@ zero_extendqisi2
 5079 1e50 2278     		ldrb	r2, [r4, #0]	@ zero_extendqisi2
 5080 1e52 CB18     		adds	r3, r1, r3
 5081 1e54 DBB2     		uxtb	r3, r3
 5082              	.LBE410:
 5083              	.LBB411:
 5084 1e56 274E     		ldr	r6, .L258+36
 5085              	.LVL824:
 5086              	.LBE411:
 5087              	.LBB412:
 5088 1e58 2B70     		strb	r3, [r5, #0]
 5089 1e5a 9B18     		adds	r3, r3, r2
 5090              	.LVL825:
 5091 1e5c 2370     		strb	r3, [r4, #0]
 5092 1e5e 1D48     		ldr	r0, .L258+4
 5093 1e60 FFF7FEFF 		bl	uart_transmit
 5094              	.LVL826:
 5095              	.LBE412:
 5096              	.LBB413:
 5097 1e64 3178     		ldrb	r1, [r6, #0]	@ zero_extendqisi2
 5098              	.LVL827:
 5099 1e66 2B78     		ldrb	r3, [r5, #0]	@ zero_extendqisi2
 5100 1e68 2278     		ldrb	r2, [r4, #0]	@ zero_extendqisi2
 5101 1e6a CB18     		adds	r3, r1, r3
 5102 1e6c DBB2     		uxtb	r3, r3
 5103              	.LVL828:
 5104 1e6e 2B70     		strb	r3, [r5, #0]
 5105 1e70 9B18     		adds	r3, r3, r2
 5106              	.LVL829:
 5107 1e72 2370     		strb	r3, [r4, #0]
 5108 1e74 1748     		ldr	r0, .L258+4
 5109 1e76 FFF7FEFF 		bl	uart_transmit
 5110              	.LVL830:
 5111              	.LBE413:
 5112              	.LBB414:
 5113 1e7a 7178     		ldrb	r1, [r6, #1]	@ zero_extendqisi2
 5114              	.LVL831:
 5115 1e7c 2B78     		ldrb	r3, [r5, #0]	@ zero_extendqisi2
 5116 1e7e 2278     		ldrb	r2, [r4, #0]	@ zero_extendqisi2
 5117 1e80 CB18     		adds	r3, r1, r3
 5118 1e82 DBB2     		uxtb	r3, r3
 5119              	.LVL832:
 5120 1e84 2B70     		strb	r3, [r5, #0]
 5121 1e86 9B18     		adds	r3, r3, r2
 5122              	.LVL833:
 5123 1e88 2370     		strb	r3, [r4, #0]
 5124 1e8a 1248     		ldr	r0, .L258+4
 5125 1e8c FFF7FEFF 		bl	uart_transmit
 5126              	.LVL834:
 5127              	.LBE414:
 5128              	.LBB415:
 5129 1e90 B178     		ldrb	r1, [r6, #2]	@ zero_extendqisi2
 5130              	.LVL835:
 5131 1e92 2B78     		ldrb	r3, [r5, #0]	@ zero_extendqisi2
 5132 1e94 2278     		ldrb	r2, [r4, #0]	@ zero_extendqisi2
 5133 1e96 CB18     		adds	r3, r1, r3
 5134 1e98 DBB2     		uxtb	r3, r3
 5135              	.LVL836:
 5136 1e9a 2B70     		strb	r3, [r5, #0]
 5137 1e9c 9B18     		adds	r3, r3, r2
 5138              	.LVL837:
 5139 1e9e 2370     		strb	r3, [r4, #0]
 5140 1ea0 0C48     		ldr	r0, .L258+4
 5141 1ea2 FFF7FEFF 		bl	uart_transmit
 5142              	.LVL838:
 5143              	.LBE415:
 5144              	.LBB416:
 5145 1ea6 F178     		ldrb	r1, [r6, #3]	@ zero_extendqisi2
 5146              	.LVL839:
 5147              	.L216:
 5148 1ea8 2B78     		ldrb	r3, [r5, #0]	@ zero_extendqisi2
 5149 1eaa 2278     		ldrb	r2, [r4, #0]	@ zero_extendqisi2
 5150 1eac CB18     		adds	r3, r1, r3
 5151 1eae DBB2     		uxtb	r3, r3
 5152              	.LVL840:
 5153 1eb0 2B70     		strb	r3, [r5, #0]
 5154 1eb2 9B18     		adds	r3, r3, r2
 5155              	.LVL841:
 5156 1eb4 2370     		strb	r3, [r4, #0]
 5157 1eb6 0748     		ldr	r0, .L258+4
 5158 1eb8 FFF7FEFF 		bl	uart_transmit
 5159              	.LVL842:
 5160              	.LBE416:
 5161 1ebc 2978     		ldrb	r1, [r5, #0]	@ zero_extendqisi2
 5162 1ebe 0548     		ldr	r0, .L258+4
 5163 1ec0 FFF7FEFF 		bl	uart_transmit
 5164 1ec4 0348     		ldr	r0, .L258+4
 5165 1ec6 2178     		ldrb	r1, [r4, #0]	@ zero_extendqisi2
 5166 1ec8 FFF7FEFF 		bl	uart_transmit
 5167 1ecc 18E0     		b	.L71
 5168              	.L259:
 5169 1ece 00BF     		.align	2
 5170              	.L258:
 5171 1ed0 00000000 		.word	nav_survey_active
 5172 1ed4 00000000 		.word	uart2
 5173 1ed8 00000000 		.word	downlink_nb_bytes
 5174 1edc 00000000 		.word	downlink_nb_msgs
 5175 1ee0 00000000 		.word	ck_a
 5176 1ee4 00000000 		.word	ck_b
 5177 1ee8 00000000 		.word	nav_survey_east
 5178 1eec 00000000 		.word	nav_survey_north
 5179 1ef0 00000000 		.word	nav_survey_west
 5180 1ef4 00000000 		.word	nav_survey_south
 5181              	.L72:
 5182              		.loc 1 422 0 discriminator 88
 5183 1ef8 804B     		ldr	r3, .L260
 5184 1efa 1A78     		ldrb	r2, [r3, #0]	@ zero_extendqisi2
 5185 1efc 0132     		adds	r2, r2, #1
 5186 1efe 1A70     		strb	r2, [r3, #0]
 5187              	.L71:
 5188              		.loc 1 422 0 discriminator 85
 5189 1f00 7F4B     		ldr	r3, .L260+4
 5190 1f02 1B78     		ldrb	r3, [r3, #0]	@ zero_extendqisi2
 5191 1f04 2A2B     		cmp	r3, #42
 5192 1f06 40F01581 		bne	.L73
 5193              	.LBB417:
 5194              		.loc 1 422 0 discriminator 89
 5195 1f0a 7E4B     		ldr	r3, .L260+8
 5196 1f0c 1868     		ldr	r0, [r3, #0]	@ float
 5197 1f0e FFF7FEFF 		bl	__aeabi_f2iz
 5198 1f12 7D4B     		ldr	r3, .L260+12
 5199 1f14 ADF81C00 		strh	r0, [sp, #28]	@ movhi
 5200              	.LVL843:
 5201 1f18 1878     		ldrb	r0, [r3, #0]	@ zero_extendqisi2
 5202 1f1a FFF7FEFF 		bl	__aeabi_ui2f
 5203 1f1e 7B49     		ldr	r1, .L260+16
 5204 1f20 FFF7FEFF 		bl	__aeabi_fdiv
 5205 1f24 7A4B     		ldr	r3, .L260+20
 5206 1f26 0446     		mov	r4, r0
 5207 1f28 0590     		str	r0, [sp, #20]	@ float
 5208              	.LVL844:
 5209 1f2a 1868     		ldr	r0, [r3, #0]
 5210 1f2c FFF7FEFF 		bl	__aeabi_i2f
 5211 1f30 7849     		ldr	r1, .L260+24
 5212 1f32 FFF7FEFF 		bl	__aeabi_fdiv
 5213 1f36 0146     		mov	r1, r0
 5214 1f38 0490     		str	r0, [sp, #16]	@ float
 5215              	.LVL845:
 5216 1f3a 2046     		mov	r0, r4
 5217 1f3c FFF7FEFF 		bl	__aeabi_fmul
 5218 1f40 1421     		movs	r1, #20
 5219 1f42 0690     		str	r0, [sp, #24]	@ float
 5220              	.LVL846:
 5221 1f44 7448     		ldr	r0, .L260+28
 5222 1f46 FFF7FEFF 		bl	uart_check_free_space
 5223 1f4a 0028     		cmp	r0, #0
 5224 1f4c 00F0EE80 		beq	.L74
 5225              		.loc 1 422 0 discriminator 91
 5226 1f50 724B     		ldr	r3, .L260+32
 5227              	.LBB418:
 5228 1f52 9921     		movs	r1, #153
 5229              	.LBE418:
 5230 1f54 1A88     		ldrh	r2, [r3, #0]
 5231              	.LBB419:
 5232 1f56 7048     		ldr	r0, .L260+28
 5233              	.LBE419:
 5234 1f58 1432     		adds	r2, r2, #20
 5235 1f5a 1A80     		strh	r2, [r3, #0]	@ movhi
 5236 1f5c 704B     		ldr	r3, .L260+36
 5237 1f5e 714D     		ldr	r5, .L260+40
 5238 1f60 1A88     		ldrh	r2, [r3, #0]
 5239 1f62 714C     		ldr	r4, .L260+44
 5240 1f64 0132     		adds	r2, r2, #1
 5241 1f66 1A80     		strh	r2, [r3, #0]	@ movhi
 5242              	.LBB420:
 5243 1f68 FFF7FEFF 		bl	uart_transmit
 5244              	.LVL847:
 5245 1f6c 1421     		movs	r1, #20
 5246 1f6e 6A48     		ldr	r0, .L260+28
 5247 1f70 FFF7FEFF 		bl	uart_transmit
 5248              	.LBE420:
 5249 1f74 1523     		movs	r3, #21
 5250 1f76 2B70     		strb	r3, [r5, #0]
 5251 1f78 2923     		movs	r3, #41
 5252 1f7a 2370     		strb	r3, [r4, #0]
 5253 1f7c 0121     		movs	r1, #1
 5254 1f7e 6648     		ldr	r0, .L260+28
 5255 1f80 FFF7FEFF 		bl	uart_transmit
 5256 1f84 2B78     		ldrb	r3, [r5, #0]	@ zero_extendqisi2
 5257 1f86 2278     		ldrb	r2, [r4, #0]	@ zero_extendqisi2
 5258 1f88 2533     		adds	r3, r3, #37
 5259 1f8a DBB2     		uxtb	r3, r3
 5260              	.LVL848:
 5261 1f8c 2B70     		strb	r3, [r5, #0]
 5262 1f8e 9B18     		adds	r3, r3, r2
 5263              	.LVL849:
 5264 1f90 2370     		strb	r3, [r4, #0]
 5265 1f92 2521     		movs	r1, #37
 5266 1f94 6048     		ldr	r0, .L260+28
 5267 1f96 FFF7FEFF 		bl	uart_transmit
 5268              	.LBB421:
 5269 1f9a 9DF81410 		ldrb	r1, [sp, #20]	@ zero_extendqisi2
 5270              	.LVL850:
 5271 1f9e 2B78     		ldrb	r3, [r5, #0]	@ zero_extendqisi2
 5272 1fa0 2278     		ldrb	r2, [r4, #0]	@ zero_extendqisi2
 5273 1fa2 CB18     		adds	r3, r1, r3
 5274 1fa4 DBB2     		uxtb	r3, r3
 5275              	.LVL851:
 5276 1fa6 2B70     		strb	r3, [r5, #0]
 5277 1fa8 9B18     		adds	r3, r3, r2
 5278              	.LVL852:
 5279 1faa 2370     		strb	r3, [r4, #0]
 5280 1fac 5A48     		ldr	r0, .L260+28
 5281 1fae FFF7FEFF 		bl	uart_transmit
 5282              	.LVL853:
 5283              	.LBE421:
 5284              	.LBB422:
 5285 1fb2 9DF81510 		ldrb	r1, [sp, #21]	@ zero_extendqisi2
 5286              	.LVL854:
 5287 1fb6 2B78     		ldrb	r3, [r5, #0]	@ zero_extendqisi2
 5288 1fb8 2278     		ldrb	r2, [r4, #0]	@ zero_extendqisi2
 5289 1fba CB18     		adds	r3, r1, r3
 5290 1fbc DBB2     		uxtb	r3, r3
 5291              	.LVL855:
 5292 1fbe 2B70     		strb	r3, [r5, #0]
 5293 1fc0 9B18     		adds	r3, r3, r2
 5294              	.LVL856:
 5295 1fc2 2370     		strb	r3, [r4, #0]
 5296 1fc4 5448     		ldr	r0, .L260+28
 5297 1fc6 FFF7FEFF 		bl	uart_transmit
 5298              	.LVL857:
 5299              	.LBE422:
 5300              	.LBB423:
 5301 1fca 9DF81610 		ldrb	r1, [sp, #22]	@ zero_extendqisi2
 5302              	.LVL858:
 5303 1fce 2B78     		ldrb	r3, [r5, #0]	@ zero_extendqisi2
 5304 1fd0 2278     		ldrb	r2, [r4, #0]	@ zero_extendqisi2
 5305 1fd2 CB18     		adds	r3, r1, r3
 5306 1fd4 DBB2     		uxtb	r3, r3
 5307              	.LVL859:
 5308 1fd6 2B70     		strb	r3, [r5, #0]
 5309 1fd8 9B18     		adds	r3, r3, r2
 5310              	.LVL860:
 5311 1fda 2370     		strb	r3, [r4, #0]
 5312 1fdc 4E48     		ldr	r0, .L260+28
 5313 1fde FFF7FEFF 		bl	uart_transmit
 5314              	.LVL861:
 5315              	.LBE423:
 5316              	.LBB424:
 5317 1fe2 9DF81710 		ldrb	r1, [sp, #23]	@ zero_extendqisi2
 5318              	.LVL862:
 5319 1fe6 2B78     		ldrb	r3, [r5, #0]	@ zero_extendqisi2
 5320 1fe8 2278     		ldrb	r2, [r4, #0]	@ zero_extendqisi2
 5321 1fea CB18     		adds	r3, r1, r3
 5322 1fec DBB2     		uxtb	r3, r3
 5323              	.LVL863:
 5324 1fee 2B70     		strb	r3, [r5, #0]
 5325 1ff0 9B18     		adds	r3, r3, r2
 5326              	.LVL864:
 5327 1ff2 2370     		strb	r3, [r4, #0]
 5328 1ff4 4848     		ldr	r0, .L260+28
 5329 1ff6 FFF7FEFF 		bl	uart_transmit
 5330              	.LVL865:
 5331              	.LBE424:
 5332              	.LBB425:
 5333 1ffa 9DF81010 		ldrb	r1, [sp, #16]	@ zero_extendqisi2
 5334              	.LVL866:
 5335 1ffe 2B78     		ldrb	r3, [r5, #0]	@ zero_extendqisi2
 5336 2000 2278     		ldrb	r2, [r4, #0]	@ zero_extendqisi2
 5337 2002 CB18     		adds	r3, r1, r3
 5338 2004 DBB2     		uxtb	r3, r3
 5339              	.LVL867:
 5340 2006 2B70     		strb	r3, [r5, #0]
 5341 2008 9B18     		adds	r3, r3, r2
 5342              	.LVL868:
 5343 200a 2370     		strb	r3, [r4, #0]
 5344 200c 4248     		ldr	r0, .L260+28
 5345 200e FFF7FEFF 		bl	uart_transmit
 5346              	.LVL869:
 5347              	.LBE425:
 5348              	.LBB426:
 5349 2012 9DF81110 		ldrb	r1, [sp, #17]	@ zero_extendqisi2
 5350              	.LVL870:
 5351 2016 2B78     		ldrb	r3, [r5, #0]	@ zero_extendqisi2
 5352 2018 2278     		ldrb	r2, [r4, #0]	@ zero_extendqisi2
 5353 201a CB18     		adds	r3, r1, r3
 5354 201c DBB2     		uxtb	r3, r3
 5355              	.LVL871:
 5356 201e 2B70     		strb	r3, [r5, #0]
 5357 2020 9B18     		adds	r3, r3, r2
 5358              	.LVL872:
 5359 2022 2370     		strb	r3, [r4, #0]
 5360 2024 3C48     		ldr	r0, .L260+28
 5361 2026 FFF7FEFF 		bl	uart_transmit
 5362              	.LVL873:
 5363              	.LBE426:
 5364              	.LBB427:
 5365 202a 9DF81210 		ldrb	r1, [sp, #18]	@ zero_extendqisi2
 5366              	.LVL874:
 5367 202e 2B78     		ldrb	r3, [r5, #0]	@ zero_extendqisi2
 5368 2030 2278     		ldrb	r2, [r4, #0]	@ zero_extendqisi2
 5369 2032 CB18     		adds	r3, r1, r3
 5370 2034 DBB2     		uxtb	r3, r3
 5371              	.LVL875:
 5372 2036 2B70     		strb	r3, [r5, #0]
 5373 2038 9B18     		adds	r3, r3, r2
 5374              	.LVL876:
 5375 203a 2370     		strb	r3, [r4, #0]
 5376 203c 3648     		ldr	r0, .L260+28
 5377 203e FFF7FEFF 		bl	uart_transmit
 5378              	.LVL877:
 5379              	.LBE427:
 5380              	.LBB428:
 5381 2042 9DF81310 		ldrb	r1, [sp, #19]	@ zero_extendqisi2
 5382              	.LVL878:
 5383 2046 2B78     		ldrb	r3, [r5, #0]	@ zero_extendqisi2
 5384 2048 2278     		ldrb	r2, [r4, #0]	@ zero_extendqisi2
 5385 204a CB18     		adds	r3, r1, r3
 5386 204c DBB2     		uxtb	r3, r3
 5387              	.LVL879:
 5388 204e 2B70     		strb	r3, [r5, #0]
 5389 2050 9B18     		adds	r3, r3, r2
 5390              	.LVL880:
 5391 2052 2370     		strb	r3, [r4, #0]
 5392 2054 3048     		ldr	r0, .L260+28
 5393 2056 FFF7FEFF 		bl	uart_transmit
 5394              	.LVL881:
 5395              	.LBE428:
 5396              	.LBB429:
 5397 205a 9DF81C10 		ldrb	r1, [sp, #28]	@ zero_extendqisi2
 5398              	.LVL882:
 5399 205e 2B78     		ldrb	r3, [r5, #0]	@ zero_extendqisi2
 5400 2060 2278     		ldrb	r2, [r4, #0]	@ zero_extendqisi2
 5401 2062 CB18     		adds	r3, r1, r3
 5402 2064 DBB2     		uxtb	r3, r3
 5403              	.LVL883:
 5404 2066 2B70     		strb	r3, [r5, #0]
 5405 2068 9B18     		adds	r3, r3, r2
 5406              	.LVL884:
 5407 206a 2370     		strb	r3, [r4, #0]
 5408 206c 2A48     		ldr	r0, .L260+28
 5409 206e FFF7FEFF 		bl	uart_transmit
 5410              	.LVL885:
 5411              	.LBE429:
 5412              	.LBB430:
 5413 2072 9DF81D10 		ldrb	r1, [sp, #29]	@ zero_extendqisi2
 5414              	.LVL886:
 5415 2076 2B78     		ldrb	r3, [r5, #0]	@ zero_extendqisi2
 5416 2078 2278     		ldrb	r2, [r4, #0]	@ zero_extendqisi2
 5417 207a CB18     		adds	r3, r1, r3
 5418 207c DBB2     		uxtb	r3, r3
 5419              	.LVL887:
 5420 207e 2B70     		strb	r3, [r5, #0]
 5421 2080 9B18     		adds	r3, r3, r2
 5422              	.LVL888:
 5423 2082 2370     		strb	r3, [r4, #0]
 5424 2084 2448     		ldr	r0, .L260+28
 5425 2086 FFF7FEFF 		bl	uart_transmit
 5426              	.LVL889:
 5427              	.LBE430:
 5428              	.LBB431:
 5429 208a 9DF81810 		ldrb	r1, [sp, #24]	@ zero_extendqisi2
 5430              	.LVL890:
 5431 208e 2B78     		ldrb	r3, [r5, #0]	@ zero_extendqisi2
 5432 2090 2278     		ldrb	r2, [r4, #0]	@ zero_extendqisi2
 5433 2092 CB18     		adds	r3, r1, r3
 5434 2094 DBB2     		uxtb	r3, r3
 5435              	.LVL891:
 5436 2096 2B70     		strb	r3, [r5, #0]
 5437 2098 9B18     		adds	r3, r3, r2
 5438              	.LVL892:
 5439 209a 2370     		strb	r3, [r4, #0]
 5440 209c 1E48     		ldr	r0, .L260+28
 5441 209e FFF7FEFF 		bl	uart_transmit
 5442              	.LVL893:
 5443              	.LBE431:
 5444              	.LBB432:
 5445 20a2 9DF81910 		ldrb	r1, [sp, #25]	@ zero_extendqisi2
 5446              	.LVL894:
 5447 20a6 2B78     		ldrb	r3, [r5, #0]	@ zero_extendqisi2
 5448 20a8 2278     		ldrb	r2, [r4, #0]	@ zero_extendqisi2
 5449 20aa CB18     		adds	r3, r1, r3
 5450 20ac DBB2     		uxtb	r3, r3
 5451              	.LVL895:
 5452 20ae 2B70     		strb	r3, [r5, #0]
 5453 20b0 9B18     		adds	r3, r3, r2
 5454              	.LVL896:
 5455 20b2 2370     		strb	r3, [r4, #0]
 5456 20b4 1848     		ldr	r0, .L260+28
 5457 20b6 FFF7FEFF 		bl	uart_transmit
 5458              	.LVL897:
 5459              	.LBE432:
 5460              	.LBB433:
 5461 20ba 9DF81A10 		ldrb	r1, [sp, #26]	@ zero_extendqisi2
 5462              	.LVL898:
 5463 20be 2B78     		ldrb	r3, [r5, #0]	@ zero_extendqisi2
 5464 20c0 2278     		ldrb	r2, [r4, #0]	@ zero_extendqisi2
 5465 20c2 CB18     		adds	r3, r1, r3
 5466 20c4 DBB2     		uxtb	r3, r3
 5467              	.LVL899:
 5468 20c6 2B70     		strb	r3, [r5, #0]
 5469 20c8 9B18     		adds	r3, r3, r2
 5470              	.LVL900:
 5471 20ca 2370     		strb	r3, [r4, #0]
 5472 20cc 1248     		ldr	r0, .L260+28
 5473 20ce FFF7FEFF 		bl	uart_transmit
 5474              	.LVL901:
 5475              	.LBE433:
 5476              	.LBB434:
 5477 20d2 9DF81B10 		ldrb	r1, [sp, #27]	@ zero_extendqisi2
 5478              	.LVL902:
 5479 20d6 2B78     		ldrb	r3, [r5, #0]	@ zero_extendqisi2
 5480 20d8 2278     		ldrb	r2, [r4, #0]	@ zero_extendqisi2
 5481 20da CB18     		adds	r3, r1, r3
 5482 20dc DBB2     		uxtb	r3, r3
 5483              	.LVL903:
 5484 20de 2B70     		strb	r3, [r5, #0]
 5485 20e0 9B18     		adds	r3, r3, r2
 5486              	.LVL904:
 5487 20e2 2370     		strb	r3, [r4, #0]
 5488 20e4 0C48     		ldr	r0, .L260+28
 5489 20e6 FFF7FEFF 		bl	uart_transmit
 5490              	.LVL905:
 5491              	.LBE434:
 5492 20ea 2978     		ldrb	r1, [r5, #0]	@ zero_extendqisi2
 5493 20ec 0A48     		ldr	r0, .L260+28
 5494 20ee FFF7FEFF 		bl	uart_transmit
 5495 20f2 0948     		ldr	r0, .L260+28
 5496 20f4 2178     		ldrb	r1, [r4, #0]	@ zero_extendqisi2
 5497 20f6 FFF7FEFF 		bl	uart_transmit
 5498 20fa 1BE0     		b	.L73
 5499              	.L261:
 5500              		.align	2
 5501              	.L260:
 5502 20fc 00000000 		.word	downlink_nb_ovrn
 5503 2100 00000000 		.word	.LANCHOR18
 5504 2104 00000000 		.word	.LANCHOR25
 5505 2108 00000000 		.word	.LANCHOR26
 5506 210c 00002041 		.word	1092616192
 5507 2110 00000000 		.word	.LANCHOR24
 5508 2114 00007A44 		.word	1148846080
 5509 2118 00000000 		.word	uart2
 5510 211c 00000000 		.word	downlink_nb_bytes
 5511 2120 00000000 		.word	downlink_nb_msgs
 5512 2124 00000000 		.word	ck_a
 5513 2128 00000000 		.word	ck_b
 5514              	.LVL906:
 5515              	.L74:
 5516              		.loc 1 422 0 discriminator 92
 5517 212c 954B     		ldr	r3, .L262
 5518 212e 1A78     		ldrb	r2, [r3, #0]	@ zero_extendqisi2
 5519 2130 0132     		adds	r2, r2, #1
 5520 2132 1A70     		strb	r2, [r3, #0]
 5521              	.L73:
 5522              	.LBE417:
 5523              		.loc 1 422 0 discriminator 90
 5524 2134 944B     		ldr	r3, .L262+4
 5525 2136 1B88     		ldrh	r3, [r3, #0]
 5526 2138 302B     		cmp	r3, #48
 5527 213a 4FD1     		bne	.L75
 5528              		.loc 1 422 0 discriminator 93
 5529 213c 9348     		ldr	r0, .L262+8
 5530 213e 1721     		movs	r1, #23
 5531 2140 FFF7FEFF 		bl	uart_check_free_space
 5532 2144 0028     		cmp	r0, #0
 5533 2146 00F03B81 		beq	.L83
 5534              		.loc 1 422 0 discriminator 95
 5535 214a 914B     		ldr	r3, .L262+12
 5536              	.LBB435:
 5537 214c 8F48     		ldr	r0, .L262+8
 5538              	.LBE435:
 5539 214e 1A88     		ldrh	r2, [r3, #0]
 5540              	.LBB436:
 5541 2150 9921     		movs	r1, #153
 5542              	.LBE436:
 5543 2152 1732     		adds	r2, r2, #23
 5544 2154 1A80     		strh	r2, [r3, #0]	@ movhi
 5545 2156 8F4B     		ldr	r3, .L262+16
 5546 2158 8F4D     		ldr	r5, .L262+20
 5547 215a 1A88     		ldrh	r2, [r3, #0]
 5548 215c 8F4C     		ldr	r4, .L262+24
 5549 215e 0132     		adds	r2, r2, #1
 5550 2160 1A80     		strh	r2, [r3, #0]	@ movhi
 5551              	.LBB437:
 5552 2162 FFF7FEFF 		bl	uart_transmit
 5553              	.LVL907:
 5554 2166 8948     		ldr	r0, .L262+8
 5555 2168 1721     		movs	r1, #23
 5556 216a FFF7FEFF 		bl	uart_transmit
 5557              	.LBE437:
 5558 216e 1823     		movs	r3, #24
 5559 2170 2B70     		strb	r3, [r5, #0]
 5560 2172 2F23     		movs	r3, #47
 5561 2174 2370     		strb	r3, [r4, #0]
 5562 2176 8548     		ldr	r0, .L262+8
 5563 2178 0121     		movs	r1, #1
 5564 217a FFF7FEFF 		bl	uart_transmit
 5565 217e 2B78     		ldrb	r3, [r5, #0]	@ zero_extendqisi2
 5566 2180 2278     		ldrb	r2, [r4, #0]	@ zero_extendqisi2
 5567 2182 0233     		adds	r3, r3, #2
 5568 2184 DBB2     		uxtb	r3, r3
 5569 2186 2B70     		strb	r3, [r5, #0]
 5570 2188 9B18     		adds	r3, r3, r2
 5571 218a 2370     		strb	r3, [r4, #0]
 5572 218c 7F48     		ldr	r0, .L262+8
 5573 218e 0221     		movs	r1, #2
 5574 2190 FFF7FEFF 		bl	uart_transmit
 5575              	.LBB438:
 5576 2194 2B78     		ldrb	r3, [r5, #0]	@ zero_extendqisi2
 5577 2196 2278     		ldrb	r2, [r4, #0]	@ zero_extendqisi2
 5578 2198 1033     		adds	r3, r3, #16
 5579 219a DBB2     		uxtb	r3, r3
 5580 219c 2B70     		strb	r3, [r5, #0]
 5581 219e 9B18     		adds	r3, r3, r2
 5582 21a0 2370     		strb	r3, [r4, #0]
 5583 21a2 7A48     		ldr	r0, .L262+8
 5584 21a4 1021     		movs	r1, #16
 5585 21a6 FFF7FEFF 		bl	uart_transmit
 5586              	.LVL908:
 5587              	.LBB439:
 5588 21aa 7D4F     		ldr	r7, .L262+28
 5589              	.LBE439:
 5590 21ac 0026     		movs	r6, #0
 5591              	.LVL909:
 5592              	.L77:
 5593              	.LBB440:
 5594              		.loc 1 422 0 discriminator 98
 5595 21ae F15D     		ldrb	r1, [r6, r7]	@ zero_extendqisi2
 5596              	.LVL910:
 5597 21b0 2B78     		ldrb	r3, [r5, #0]	@ zero_extendqisi2
 5598 21b2 2278     		ldrb	r2, [r4, #0]	@ zero_extendqisi2
 5599 21b4 CB18     		adds	r3, r1, r3
 5600 21b6 DBB2     		uxtb	r3, r3
 5601              	.LVL911:
 5602 21b8 2B70     		strb	r3, [r5, #0]
 5603 21ba 9B18     		adds	r3, r3, r2
 5604              	.LVL912:
 5605 21bc 2370     		strb	r3, [r4, #0]
 5606 21be 7348     		ldr	r0, .L262+8
 5607 21c0 0136     		adds	r6, r6, #1
 5608 21c2 FFF7FEFF 		bl	uart_transmit
 5609              	.LVL913:
 5610              	.LBE440:
 5611 21c6 102E     		cmp	r6, #16
 5612 21c8 F1D1     		bne	.L77
 5613              	.LBE438:
 5614              		.loc 1 422 0 discriminator 99
 5615 21ca 734B     		ldr	r3, .L262+20
 5616 21cc 6F48     		ldr	r0, .L262+8
 5617 21ce 1978     		ldrb	r1, [r3, #0]	@ zero_extendqisi2
 5618 21d0 FFF7FEFF 		bl	uart_transmit
 5619 21d4 714B     		ldr	r3, .L262+24
 5620 21d6 6D48     		ldr	r0, .L262+8
 5621 21d8 1978     		ldrb	r1, [r3, #0]	@ zero_extendqisi2
 5622 21da 77E0     		b	.L217
 5623              	.LVL914:
 5624              	.L75:
 5625              		.loc 1 422 0 discriminator 94
 5626 21dc 362B     		cmp	r3, #54
 5627 21de 78D1     		bne	.L79
 5628              	.LVL915:
 5629              	.LBB441:
 5630              		.loc 1 422 0 discriminator 100
 5631 21e0 6A48     		ldr	r0, .L262+8
 5632 21e2 0C21     		movs	r1, #12
 5633 21e4 FFF7FEFF 		bl	uart_check_free_space
 5634 21e8 0028     		cmp	r0, #0
 5635 21ea 00F0E980 		beq	.L83
 5636              		.loc 1 422 0 discriminator 102
 5637 21ee 684B     		ldr	r3, .L262+12
 5638              	.LBB442:
 5639 21f0 6648     		ldr	r0, .L262+8
 5640              	.LBE442:
 5641 21f2 1A88     		ldrh	r2, [r3, #0]
 5642              	.LBB443:
 5643 21f4 9921     		movs	r1, #153
 5644              	.LBE443:
 5645 21f6 0C32     		adds	r2, r2, #12
 5646 21f8 1A80     		strh	r2, [r3, #0]	@ movhi
 5647 21fa 664B     		ldr	r3, .L262+16
 5648 21fc 664D     		ldr	r5, .L262+20
 5649 21fe 1A88     		ldrh	r2, [r3, #0]
 5650 2200 664C     		ldr	r4, .L262+24
 5651 2202 0132     		adds	r2, r2, #1
 5652 2204 1A80     		strh	r2, [r3, #0]	@ movhi
 5653              	.LBB444:
 5654 2206 FFF7FEFF 		bl	uart_transmit
 5655              	.LVL916:
 5656 220a 6048     		ldr	r0, .L262+8
 5657 220c 0C21     		movs	r1, #12
 5658 220e FFF7FEFF 		bl	uart_transmit
 5659              	.LBE444:
 5660 2212 0D23     		movs	r3, #13
 5661 2214 2B70     		strb	r3, [r5, #0]
 5662 2216 1923     		movs	r3, #25
 5663 2218 2370     		strb	r3, [r4, #0]
 5664 221a 5C48     		ldr	r0, .L262+8
 5665 221c 0121     		movs	r1, #1
 5666 221e FFF7FEFF 		bl	uart_transmit
 5667 2222 2B78     		ldrb	r3, [r5, #0]	@ zero_extendqisi2
 5668 2224 2278     		ldrb	r2, [r4, #0]	@ zero_extendqisi2
 5669 2226 0B33     		adds	r3, r3, #11
 5670 2228 DBB2     		uxtb	r3, r3
 5671 222a 2B70     		strb	r3, [r5, #0]
 5672 222c 9B18     		adds	r3, r3, r2
 5673 222e 2370     		strb	r3, [r4, #0]
 5674 2230 5648     		ldr	r0, .L262+8
 5675 2232 0B21     		movs	r1, #11
 5676 2234 FFF7FEFF 		bl	uart_transmit
 5677              	.LBB445:
 5678 2238 5A4B     		ldr	r3, .L262+32
 5679 223a 2278     		ldrb	r2, [r4, #0]	@ zero_extendqisi2
 5680 223c 1978     		ldrb	r1, [r3, #0]	@ zero_extendqisi2
 5681              	.LVL917:
 5682 223e 2B78     		ldrb	r3, [r5, #0]	@ zero_extendqisi2
 5683 2240 5248     		ldr	r0, .L262+8
 5684 2242 CB18     		adds	r3, r1, r3
 5685 2244 DBB2     		uxtb	r3, r3
 5686              	.LVL918:
 5687 2246 2B70     		strb	r3, [r5, #0]
 5688 2248 9B18     		adds	r3, r3, r2
 5689              	.LVL919:
 5690 224a 2370     		strb	r3, [r4, #0]
 5691 224c FFF7FEFF 		bl	uart_transmit
 5692              	.LVL920:
 5693              	.LBE445:
 5694              	.LBB446:
 5695 2250 554B     		ldr	r3, .L262+36
 5696 2252 2278     		ldrb	r2, [r4, #0]	@ zero_extendqisi2
 5697 2254 1978     		ldrb	r1, [r3, #0]	@ zero_extendqisi2
 5698              	.LVL921:
 5699 2256 2B78     		ldrb	r3, [r5, #0]	@ zero_extendqisi2
 5700 2258 4C48     		ldr	r0, .L262+8
 5701 225a CB18     		adds	r3, r1, r3
 5702 225c DBB2     		uxtb	r3, r3
 5703              	.LVL922:
 5704 225e 2B70     		strb	r3, [r5, #0]
 5705 2260 9B18     		adds	r3, r3, r2
 5706              	.LVL923:
 5707 2262 2370     		strb	r3, [r4, #0]
 5708 2264 FFF7FEFF 		bl	uart_transmit
 5709              	.LVL924:
 5710              	.LBE446:
 5711              	.LBB447:
 5712 2268 504B     		ldr	r3, .L262+40
 5713 226a 2278     		ldrb	r2, [r4, #0]	@ zero_extendqisi2
 5714 226c 1978     		ldrb	r1, [r3, #0]	@ zero_extendqisi2
 5715              	.LVL925:
 5716 226e 2B78     		ldrb	r3, [r5, #0]	@ zero_extendqisi2
 5717 2270 4648     		ldr	r0, .L262+8
 5718 2272 CB18     		adds	r3, r1, r3
 5719 2274 DBB2     		uxtb	r3, r3
 5720              	.LVL926:
 5721 2276 2B70     		strb	r3, [r5, #0]
 5722 2278 9B18     		adds	r3, r3, r2
 5723              	.LVL927:
 5724 227a 2370     		strb	r3, [r4, #0]
 5725 227c FFF7FEFF 		bl	uart_transmit
 5726              	.LVL928:
 5727              	.LBE447:
 5728              	.LBB448:
 5729 2280 4B4B     		ldr	r3, .L262+44
 5730 2282 2278     		ldrb	r2, [r4, #0]	@ zero_extendqisi2
 5731 2284 1978     		ldrb	r1, [r3, #0]	@ zero_extendqisi2
 5732              	.LVL929:
 5733 2286 2B78     		ldrb	r3, [r5, #0]	@ zero_extendqisi2
 5734 2288 4048     		ldr	r0, .L262+8
 5735 228a CB18     		adds	r3, r1, r3
 5736 228c DBB2     		uxtb	r3, r3
 5737              	.LVL930:
 5738 228e 2B70     		strb	r3, [r5, #0]
 5739 2290 9B18     		adds	r3, r3, r2
 5740              	.LVL931:
 5741 2292 2370     		strb	r3, [r4, #0]
 5742 2294 FFF7FEFF 		bl	uart_transmit
 5743              	.LVL932:
 5744              	.LBE448:
 5745              	.LBB449:
 5746 2298 2278     		ldrb	r2, [r4, #0]	@ zero_extendqisi2
 5747 229a 2B78     		ldrb	r3, [r5, #0]	@ zero_extendqisi2
 5748 229c 0021     		movs	r1, #0
 5749 229e D318     		adds	r3, r2, r3
 5750 22a0 2370     		strb	r3, [r4, #0]
 5751 22a2 3A48     		ldr	r0, .L262+8
 5752 22a4 FFF7FEFF 		bl	uart_transmit
 5753              	.LBE449:
 5754              	.LBB450:
 5755 22a8 424B     		ldr	r3, .L262+48
 5756 22aa 1978     		ldrb	r1, [r3, #0]	@ zero_extendqisi2
 5757              	.LVL933:
 5758              	.L225:
 5759 22ac 2B78     		ldrb	r3, [r5, #0]	@ zero_extendqisi2
 5760 22ae 2278     		ldrb	r2, [r4, #0]	@ zero_extendqisi2
 5761 22b0 CB18     		adds	r3, r1, r3
 5762 22b2 DBB2     		uxtb	r3, r3
 5763              	.LVL934:
 5764 22b4 2B70     		strb	r3, [r5, #0]
 5765 22b6 9B18     		adds	r3, r3, r2
 5766              	.LVL935:
 5767 22b8 2370     		strb	r3, [r4, #0]
 5768 22ba 3448     		ldr	r0, .L262+8
 5769 22bc FFF7FEFF 		bl	uart_transmit
 5770              	.LVL936:
 5771              	.LBE450:
 5772 22c0 3248     		ldr	r0, .L262+8
 5773 22c2 2978     		ldrb	r1, [r5, #0]	@ zero_extendqisi2
 5774 22c4 FFF7FEFF 		bl	uart_transmit
 5775 22c8 3048     		ldr	r0, .L262+8
 5776 22ca 2178     		ldrb	r1, [r4, #0]	@ zero_extendqisi2
 5777              	.L217:
 5778 22cc FFF7FEFF 		bl	uart_transmit
 5779 22d0 7AE0     		b	.L78
 5780              	.LVL937:
 5781              	.L79:
 5782              	.LBE441:
 5783              		.loc 1 422 0 discriminator 101
 5784 22d2 3C2B     		cmp	r3, #60
 5785 22d4 78D0     		beq	.L78
 5786              		.loc 1 422 0 discriminator 104
 5787 22d6 422B     		cmp	r3, #66
 5788 22d8 76D1     		bne	.L78
 5789              	.LVL938:
 5790              	.LBB451:
 5791              		.loc 1 422 0 discriminator 105
 5792 22da 374B     		ldr	r3, .L262+52
 5793 22dc 2B48     		ldr	r0, .L262+8
 5794 22de 93F89860 		ldrb	r6, [r3, #152]	@ zero_extendqisi2
 5795 22e2 364B     		ldr	r3, .L262+56
 5796 22e4 002E     		cmp	r6, #0
 5797 22e6 0CBF     		ite	eq
 5798 22e8 0226     		moveq	r6, #2
 5799 22ea 0326     		movne	r6, #3
 5800              	.LVL939:
 5801 22ec 1B78     		ldrb	r3, [r3, #0]	@ zero_extendqisi2
 5802 22ee 0921     		movs	r1, #9
 5803 22f0 0A2B     		cmp	r3, #10
 5804 22f2 88BF     		it	hi
 5805 22f4 0526     		movhi	r6, #5
 5806              	.LVL940:
 5807 22f6 0023     		movs	r3, #0
 5808 22f8 ADF81C30 		strh	r3, [sp, #28]	@ movhi
 5809              	.LVL941:
 5810 22fc FFF7FEFF 		bl	uart_check_free_space
 5811 2300 0028     		cmp	r0, #0
 5812 2302 5DD0     		beq	.L83
 5813              		.loc 1 422 0 discriminator 111
 5814 2304 224B     		ldr	r3, .L262+12
 5815              	.LBB452:
 5816 2306 2148     		ldr	r0, .L262+8
 5817              	.LBE452:
 5818 2308 1A88     		ldrh	r2, [r3, #0]
 5819              	.LBB453:
 5820 230a 9921     		movs	r1, #153
 5821              	.LBE453:
 5822 230c 0932     		adds	r2, r2, #9
 5823 230e 1A80     		strh	r2, [r3, #0]	@ movhi
 5824 2310 204B     		ldr	r3, .L262+16
 5825 2312 214D     		ldr	r5, .L262+20
 5826 2314 1A88     		ldrh	r2, [r3, #0]
 5827 2316 214C     		ldr	r4, .L262+24
 5828 2318 0132     		adds	r2, r2, #1
 5829 231a 1A80     		strh	r2, [r3, #0]	@ movhi
 5830              	.LBB454:
 5831 231c FFF7FEFF 		bl	uart_transmit
 5832              	.LVL942:
 5833 2320 1A48     		ldr	r0, .L262+8
 5834 2322 0921     		movs	r1, #9
 5835 2324 FFF7FEFF 		bl	uart_transmit
 5836              	.LBE454:
 5837 2328 0A23     		movs	r3, #10
 5838 232a 2B70     		strb	r3, [r5, #0]
 5839 232c 1323     		movs	r3, #19
 5840 232e 2370     		strb	r3, [r4, #0]
 5841 2330 1648     		ldr	r0, .L262+8
 5842 2332 0121     		movs	r1, #1
 5843 2334 FFF7FEFF 		bl	uart_transmit
 5844 2338 2B78     		ldrb	r3, [r5, #0]	@ zero_extendqisi2
 5845 233a 2278     		ldrb	r2, [r4, #0]	@ zero_extendqisi2
 5846 233c 183B     		subs	r3, r3, #24
 5847 233e DBB2     		uxtb	r3, r3
 5848 2340 2B70     		strb	r3, [r5, #0]
 5849 2342 9B18     		adds	r3, r3, r2
 5850 2344 2370     		strb	r3, [r4, #0]
 5851 2346 1148     		ldr	r0, .L262+8
 5852 2348 E821     		movs	r1, #232
 5853 234a FFF7FEFF 		bl	uart_transmit
 5854              	.LVL943:
 5855              	.LBB455:
 5856 234e 2B78     		ldrb	r3, [r5, #0]	@ zero_extendqisi2
 5857 2350 2278     		ldrb	r2, [r4, #0]	@ zero_extendqisi2
 5858 2352 F318     		adds	r3, r6, r3
 5859 2354 DBB2     		uxtb	r3, r3
 5860              	.LVL944:
 5861 2356 2B70     		strb	r3, [r5, #0]
 5862 2358 9B18     		adds	r3, r3, r2
 5863              	.LVL945:
 5864 235a 2370     		strb	r3, [r4, #0]
 5865 235c 0B48     		ldr	r0, .L262+8
 5866 235e 3146     		mov	r1, r6
 5867 2360 FFF7FEFF 		bl	uart_transmit
 5868              	.LBE455:
 5869              	.LBB456:
 5870 2364 9DF81C10 		ldrb	r1, [sp, #28]	@ zero_extendqisi2
 5871              	.LVL946:
 5872 2368 2B78     		ldrb	r3, [r5, #0]	@ zero_extendqisi2
 5873 236a 2278     		ldrb	r2, [r4, #0]	@ zero_extendqisi2
 5874 236c CB18     		adds	r3, r1, r3
 5875 236e DBB2     		uxtb	r3, r3
 5876              	.LVL947:
 5877 2370 2B70     		strb	r3, [r5, #0]
 5878 2372 9B18     		adds	r3, r3, r2
 5879              	.LVL948:
 5880 2374 2370     		strb	r3, [r4, #0]
 5881 2376 0548     		ldr	r0, .L262+8
 5882 2378 FFF7FEFF 		bl	uart_transmit
 5883              	.LVL949:
 5884              	.LBE456:
 5885              	.LBB457:
 5886 237c 9DF81D10 		ldrb	r1, [sp, #29]	@ zero_extendqisi2
 5887              	.LVL950:
 5888 2380 94E7     		b	.L225
 5889              	.L263:
 5890 2382 00BF     		.align	2
 5891              	.L262:
 5892 2384 00000000 		.word	downlink_nb_ovrn
 5893 2388 00000000 		.word	.LANCHOR19
 5894 238c 00000000 		.word	uart2
 5895 2390 00000000 		.word	downlink_nb_bytes
 5896 2394 00000000 		.word	downlink_nb_msgs
 5897 2398 00000000 		.word	ck_a
 5898 239c 00000000 		.word	ck_b
 5899 23a0 00000000 		.word	.LC0
 5900 23a4 00000000 		.word	.LANCHOR29
 5901 23a8 00000000 		.word	v_ctl_mode
 5902 23ac 00000000 		.word	.LANCHOR31
 5903 23b0 00000000 		.word	horizontal_mode
 5904 23b4 00000000 		.word	.LANCHOR32
 5905 23b8 00000000 		.word	ahrs
 5906 23bc 00000000 		.word	.LANCHOR33
 5907              	.LVL951:
 5908              	.L83:
 5909              	.LBE457:
 5910              		.loc 1 422 0 discriminator 112
 5911 23c0 974B     		ldr	r3, .L264+8
 5912 23c2 1A78     		ldrb	r2, [r3, #0]	@ zero_extendqisi2
 5913 23c4 0132     		adds	r2, r2, #1
 5914 23c6 1A70     		strb	r2, [r3, #0]
 5915              	.L78:
 5916              	.LBE451:
 5917              		.loc 1 422 0 discriminator 106
 5918 23c8 964B     		ldr	r3, .L264+12
 5919 23ca 1B88     		ldrh	r3, [r3, #0]
 5920 23cc 482B     		cmp	r3, #72
 5921 23ce 40F08280 		bne	.L84
 5922              	.LBB458:
 5923              		.loc 1 422 0 discriminator 113
 5924 23d2 954D     		ldr	r5, .L264+16
 5925 23d4 954C     		ldr	r4, .L264+20
 5926 23d6 2888     		ldrh	r0, [r5, #0]
 5927 23d8 2688     		ldrh	r6, [r4, #0]
 5928 23da 301A     		subs	r0, r6, r0
 5929 23dc FFF7FEFF 		bl	__aeabi_i2d
 5930 23e0 8DA3     		adr	r3, .L264
 5931 23e2 D3E90023 		ldrd	r2, [r3]
 5932 23e6 FFF7FEFF 		bl	__aeabi_ddiv
 5933 23ea FFF7FEFF 		bl	__aeabi_d2uiz
 5934 23ee 2E80     		strh	r6, [r5, #0]	@ movhi
 5935 23f0 ADF81C00 		strh	r0, [sp, #28]	@ movhi
 5936              	.LVL952:
 5937 23f4 0B21     		movs	r1, #11
 5938 23f6 8E48     		ldr	r0, .L264+24
 5939 23f8 FFF7FEFF 		bl	uart_check_free_space
 5940 23fc 0028     		cmp	r0, #0
 5941 23fe 66D0     		beq	.L85
 5942              		.loc 1 422 0 discriminator 115
 5943 2400 2388     		ldrh	r3, [r4, #0]
 5944 2402 8C4E     		ldr	r6, .L264+28
 5945 2404 0B33     		adds	r3, r3, #11
 5946 2406 2380     		strh	r3, [r4, #0]	@ movhi
 5947 2408 3388     		ldrh	r3, [r6, #0]
 5948              	.LBB459:
 5949 240a 9921     		movs	r1, #153
 5950              	.LBE459:
 5951 240c 0133     		adds	r3, r3, #1
 5952 240e 3380     		strh	r3, [r6, #0]	@ movhi
 5953              	.LBB460:
 5954 2410 8748     		ldr	r0, .L264+24
 5955              	.LBE460:
 5956 2412 894D     		ldr	r5, .L264+32
 5957              	.LBB461:
 5958 2414 FFF7FEFF 		bl	uart_transmit
 5959              	.LVL953:
 5960 2418 0B21     		movs	r1, #11
 5961 241a 8548     		ldr	r0, .L264+24
 5962              	.LBE461:
 5963 241c 874C     		ldr	r4, .L264+36
 5964              	.LBB462:
 5965 241e FFF7FEFF 		bl	uart_transmit
 5966              	.LBE462:
 5967 2422 0C23     		movs	r3, #12
 5968 2424 2B70     		strb	r3, [r5, #0]
 5969 2426 1723     		movs	r3, #23
 5970 2428 2370     		strb	r3, [r4, #0]
 5971 242a 0121     		movs	r1, #1
 5972 242c 8048     		ldr	r0, .L264+24
 5973 242e FFF7FEFF 		bl	uart_transmit
 5974 2432 2B78     		ldrb	r3, [r5, #0]	@ zero_extendqisi2
 5975 2434 2278     		ldrb	r2, [r4, #0]	@ zero_extendqisi2
 5976 2436 1E33     		adds	r3, r3, #30
 5977 2438 DBB2     		uxtb	r3, r3
 5978 243a 2B70     		strb	r3, [r5, #0]
 5979 243c 9B18     		adds	r3, r3, r2
 5980 243e 2370     		strb	r3, [r4, #0]
 5981 2440 1E21     		movs	r1, #30
 5982 2442 7B48     		ldr	r0, .L264+24
 5983 2444 FFF7FEFF 		bl	uart_transmit
 5984              	.LBB463:
 5985 2448 754B     		ldr	r3, .L264+8
 5986 244a 2278     		ldrb	r2, [r4, #0]	@ zero_extendqisi2
 5987 244c 1978     		ldrb	r1, [r3, #0]	@ zero_extendqisi2
 5988              	.LVL954:
 5989 244e 2B78     		ldrb	r3, [r5, #0]	@ zero_extendqisi2
 5990 2450 7748     		ldr	r0, .L264+24
 5991 2452 CB18     		adds	r3, r1, r3
 5992 2454 DBB2     		uxtb	r3, r3
 5993              	.LVL955:
 5994 2456 2B70     		strb	r3, [r5, #0]
 5995 2458 9B18     		adds	r3, r3, r2
 5996              	.LVL956:
 5997 245a 2370     		strb	r3, [r4, #0]
 5998 245c FFF7FEFF 		bl	uart_transmit
 5999              	.LVL957:
 6000              	.LBE463:
 6001              	.LBB464:
 6002 2460 9DF81C10 		ldrb	r1, [sp, #28]	@ zero_extendqisi2
 6003              	.LVL958:
 6004 2464 2B78     		ldrb	r3, [r5, #0]	@ zero_extendqisi2
 6005 2466 2278     		ldrb	r2, [r4, #0]	@ zero_extendqisi2
 6006 2468 CB18     		adds	r3, r1, r3
 6007 246a DBB2     		uxtb	r3, r3
 6008              	.LVL959:
 6009 246c 2B70     		strb	r3, [r5, #0]
 6010 246e 9B18     		adds	r3, r3, r2
 6011              	.LVL960:
 6012 2470 2370     		strb	r3, [r4, #0]
 6013 2472 6F48     		ldr	r0, .L264+24
 6014 2474 FFF7FEFF 		bl	uart_transmit
 6015              	.LVL961:
 6016              	.LBE464:
 6017              	.LBB465:
 6018 2478 9DF81D10 		ldrb	r1, [sp, #29]	@ zero_extendqisi2
 6019              	.LVL962:
 6020 247c 2B78     		ldrb	r3, [r5, #0]	@ zero_extendqisi2
 6021 247e 2278     		ldrb	r2, [r4, #0]	@ zero_extendqisi2
 6022 2480 CB18     		adds	r3, r1, r3
 6023 2482 DBB2     		uxtb	r3, r3
 6024              	.LVL963:
 6025 2484 2B70     		strb	r3, [r5, #0]
 6026 2486 9B18     		adds	r3, r3, r2
 6027              	.LVL964:
 6028 2488 2370     		strb	r3, [r4, #0]
 6029 248a 6948     		ldr	r0, .L264+24
 6030 248c FFF7FEFF 		bl	uart_transmit
 6031              	.LVL965:
 6032              	.LBE465:
 6033              	.LBB466:
 6034 2490 3178     		ldrb	r1, [r6, #0]	@ zero_extendqisi2
 6035              	.LVL966:
 6036 2492 2B78     		ldrb	r3, [r5, #0]	@ zero_extendqisi2
 6037 2494 2278     		ldrb	r2, [r4, #0]	@ zero_extendqisi2
 6038 2496 CB18     		adds	r3, r1, r3
 6039 2498 DBB2     		uxtb	r3, r3
 6040              	.LVL967:
 6041 249a 2B70     		strb	r3, [r5, #0]
 6042 249c 9B18     		adds	r3, r3, r2
 6043              	.LVL968:
 6044 249e 2370     		strb	r3, [r4, #0]
 6045 24a0 6348     		ldr	r0, .L264+24
 6046 24a2 FFF7FEFF 		bl	uart_transmit
 6047              	.LVL969:
 6048              	.LBE466:
 6049              	.LBB467:
 6050 24a6 7178     		ldrb	r1, [r6, #1]	@ zero_extendqisi2
 6051              	.LVL970:
 6052 24a8 2B78     		ldrb	r3, [r5, #0]	@ zero_extendqisi2
 6053 24aa 2278     		ldrb	r2, [r4, #0]	@ zero_extendqisi2
 6054 24ac CB18     		adds	r3, r1, r3
 6055 24ae DBB2     		uxtb	r3, r3
 6056              	.LVL971:
 6057 24b0 2B70     		strb	r3, [r5, #0]
 6058 24b2 9B18     		adds	r3, r3, r2
 6059              	.LVL972:
 6060 24b4 2370     		strb	r3, [r4, #0]
 6061 24b6 5E48     		ldr	r0, .L264+24
 6062 24b8 FFF7FEFF 		bl	uart_transmit
 6063              	.LVL973:
 6064              	.LBE467:
 6065 24bc 2978     		ldrb	r1, [r5, #0]	@ zero_extendqisi2
 6066 24be 5C48     		ldr	r0, .L264+24
 6067 24c0 FFF7FEFF 		bl	uart_transmit
 6068 24c4 5A48     		ldr	r0, .L264+24
 6069 24c6 2178     		ldrb	r1, [r4, #0]	@ zero_extendqisi2
 6070 24c8 FFF7FEFF 		bl	uart_transmit
 6071 24cc 03E0     		b	.L84
 6072              	.LVL974:
 6073              	.L85:
 6074              		.loc 1 422 0 discriminator 116
 6075 24ce 544B     		ldr	r3, .L264+8
 6076 24d0 1A78     		ldrb	r2, [r3, #0]	@ zero_extendqisi2
 6077 24d2 0132     		adds	r2, r2, #1
 6078 24d4 1A70     		strb	r2, [r3, #0]
 6079              	.L84:
 6080              	.LBE458:
 6081              		.loc 1 422 0 discriminator 114
 6082 24d6 5A4B     		ldr	r3, .L264+40
 6083 24d8 1B88     		ldrh	r3, [r3, #0]
 6084 24da 4E2B     		cmp	r3, #78
 6085 24dc 40F0BC80 		bne	.L9
 6086              		.loc 1 422 0 discriminator 117
 6087 24e0 5348     		ldr	r0, .L264+24
 6088 24e2 0F21     		movs	r1, #15
 6089 24e4 FFF7FEFF 		bl	uart_check_free_space
 6090 24e8 0028     		cmp	r0, #0
 6091 24ea 00F0B180 		beq	.L86
 6092              		.loc 1 422 0 discriminator 118
 6093 24ee 4F4B     		ldr	r3, .L264+20
 6094              	.LBB468:
 6095 24f0 9921     		movs	r1, #153
 6096              	.LBE468:
 6097 24f2 1A88     		ldrh	r2, [r3, #0]
 6098              	.LBB469:
 6099 24f4 4E48     		ldr	r0, .L264+24
 6100              	.LBE469:
 6101 24f6 0F32     		adds	r2, r2, #15
 6102 24f8 1A80     		strh	r2, [r3, #0]	@ movhi
 6103 24fa 4E4B     		ldr	r3, .L264+28
 6104 24fc 4E4D     		ldr	r5, .L264+32
 6105 24fe 1A88     		ldrh	r2, [r3, #0]
 6106 2500 4E4C     		ldr	r4, .L264+36
 6107 2502 0132     		adds	r2, r2, #1
 6108 2504 1A80     		strh	r2, [r3, #0]	@ movhi
 6109              	.LBB470:
 6110 2506 FFF7FEFF 		bl	uart_transmit
 6111              	.LVL975:
 6112 250a 0F21     		movs	r1, #15
 6113 250c 4848     		ldr	r0, .L264+24
 6114 250e FFF7FEFF 		bl	uart_transmit
 6115              	.LBE470:
 6116 2512 1023     		movs	r3, #16
 6117 2514 2B70     		strb	r3, [r5, #0]
 6118 2516 1F23     		movs	r3, #31
 6119 2518 2370     		strb	r3, [r4, #0]
 6120 251a 0121     		movs	r1, #1
 6121 251c 4448     		ldr	r0, .L264+24
 6122 251e FFF7FEFF 		bl	uart_transmit
 6123 2522 2B78     		ldrb	r3, [r5, #0]	@ zero_extendqisi2
 6124 2524 2278     		ldrb	r2, [r4, #0]	@ zero_extendqisi2
 6125 2526 0933     		adds	r3, r3, #9
 6126 2528 DBB2     		uxtb	r3, r3
 6127              	.LBB471:
 6128 252a 464E     		ldr	r6, .L264+44
 6129              	.LBE471:
 6130 252c 2B70     		strb	r3, [r5, #0]
 6131 252e 9B18     		adds	r3, r3, r2
 6132 2530 2370     		strb	r3, [r4, #0]
 6133 2532 0921     		movs	r1, #9
 6134 2534 3E48     		ldr	r0, .L264+24
 6135 2536 FFF7FEFF 		bl	uart_transmit
 6136              	.LBB472:
 6137 253a 3178     		ldrb	r1, [r6, #0]	@ zero_extendqisi2
 6138              	.LVL976:
 6139 253c 2B78     		ldrb	r3, [r5, #0]	@ zero_extendqisi2
 6140 253e 2278     		ldrb	r2, [r4, #0]	@ zero_extendqisi2
 6141 2540 CB18     		adds	r3, r1, r3
 6142 2542 DBB2     		uxtb	r3, r3
 6143              	.LVL977:
 6144 2544 2B70     		strb	r3, [r5, #0]
 6145 2546 9B18     		adds	r3, r3, r2
 6146              	.LVL978:
 6147 2548 2370     		strb	r3, [r4, #0]
 6148 254a 3948     		ldr	r0, .L264+24
 6149 254c FFF7FEFF 		bl	uart_transmit
 6150              	.LVL979:
 6151              	.LBE472:
 6152              	.LBB473:
 6153 2550 7178     		ldrb	r1, [r6, #1]	@ zero_extendqisi2
 6154              	.LVL980:
 6155 2552 2B78     		ldrb	r3, [r5, #0]	@ zero_extendqisi2
 6156 2554 2278     		ldrb	r2, [r4, #0]	@ zero_extendqisi2
 6157 2556 CB18     		adds	r3, r1, r3
 6158 2558 DBB2     		uxtb	r3, r3
 6159              	.LVL981:
 6160 255a 2B70     		strb	r3, [r5, #0]
 6161 255c 9B18     		adds	r3, r3, r2
 6162              	.LVL982:
 6163 255e 2370     		strb	r3, [r4, #0]
 6164 2560 3348     		ldr	r0, .L264+24
 6165 2562 FFF7FEFF 		bl	uart_transmit
 6166              	.LVL983:
 6167              	.LBE473:
 6168              	.LBB474:
 6169 2566 B178     		ldrb	r1, [r6, #2]	@ zero_extendqisi2
 6170              	.LVL984:
 6171 2568 2B78     		ldrb	r3, [r5, #0]	@ zero_extendqisi2
 6172 256a 2278     		ldrb	r2, [r4, #0]	@ zero_extendqisi2
 6173 256c CB18     		adds	r3, r1, r3
 6174 256e DBB2     		uxtb	r3, r3
 6175              	.LVL985:
 6176 2570 2B70     		strb	r3, [r5, #0]
 6177 2572 9B18     		adds	r3, r3, r2
 6178              	.LVL986:
 6179 2574 2370     		strb	r3, [r4, #0]
 6180 2576 2E48     		ldr	r0, .L264+24
 6181 2578 FFF7FEFF 		bl	uart_transmit
 6182              	.LVL987:
 6183              	.LBE474:
 6184              	.LBB475:
 6185 257c F178     		ldrb	r1, [r6, #3]	@ zero_extendqisi2
 6186              	.LVL988:
 6187 257e 2B78     		ldrb	r3, [r5, #0]	@ zero_extendqisi2
 6188 2580 2278     		ldrb	r2, [r4, #0]	@ zero_extendqisi2
 6189 2582 CB18     		adds	r3, r1, r3
 6190 2584 DBB2     		uxtb	r3, r3
 6191              	.LBE475:
 6192              	.LBB476:
 6193 2586 304E     		ldr	r6, .L264+48
 6194              	.LVL989:
 6195              	.LBE476:
 6196              	.LBB477:
 6197 2588 2B70     		strb	r3, [r5, #0]
 6198 258a 9B18     		adds	r3, r3, r2
 6199              	.LVL990:
 6200 258c 2370     		strb	r3, [r4, #0]
 6201 258e 2848     		ldr	r0, .L264+24
 6202 2590 FFF7FEFF 		bl	uart_transmit
 6203              	.LVL991:
 6204              	.LBE477:
 6205              	.LBB478:
 6206 2594 3178     		ldrb	r1, [r6, #0]	@ zero_extendqisi2
 6207              	.LVL992:
 6208 2596 2B78     		ldrb	r3, [r5, #0]	@ zero_extendqisi2
 6209 2598 2278     		ldrb	r2, [r4, #0]	@ zero_extendqisi2
 6210 259a CB18     		adds	r3, r1, r3
 6211 259c DBB2     		uxtb	r3, r3
 6212              	.LVL993:
 6213 259e 2B70     		strb	r3, [r5, #0]
 6214 25a0 9B18     		adds	r3, r3, r2
 6215              	.LVL994:
 6216 25a2 2370     		strb	r3, [r4, #0]
 6217 25a4 2248     		ldr	r0, .L264+24
 6218 25a6 FFF7FEFF 		bl	uart_transmit
 6219              	.LVL995:
 6220              	.LBE478:
 6221              	.LBB479:
 6222 25aa 7178     		ldrb	r1, [r6, #1]	@ zero_extendqisi2
 6223              	.LVL996:
 6224 25ac 2B78     		ldrb	r3, [r5, #0]	@ zero_extendqisi2
 6225 25ae 2278     		ldrb	r2, [r4, #0]	@ zero_extendqisi2
 6226 25b0 CB18     		adds	r3, r1, r3
 6227 25b2 DBB2     		uxtb	r3, r3
 6228              	.LVL997:
 6229 25b4 2B70     		strb	r3, [r5, #0]
 6230 25b6 9B18     		adds	r3, r3, r2
 6231              	.LVL998:
 6232 25b8 2370     		strb	r3, [r4, #0]
 6233 25ba 1D48     		ldr	r0, .L264+24
 6234 25bc FFF7FEFF 		bl	uart_transmit
 6235              	.LVL999:
 6236              	.LBE479:
 6237              	.LBB480:
 6238 25c0 B178     		ldrb	r1, [r6, #2]	@ zero_extendqisi2
 6239              	.LVL1000:
 6240 25c2 2B78     		ldrb	r3, [r5, #0]	@ zero_extendqisi2
 6241 25c4 2278     		ldrb	r2, [r4, #0]	@ zero_extendqisi2
 6242 25c6 CB18     		adds	r3, r1, r3
 6243 25c8 DBB2     		uxtb	r3, r3
 6244              	.LVL1001:
 6245 25ca 2B70     		strb	r3, [r5, #0]
 6246 25cc 9B18     		adds	r3, r3, r2
 6247              	.LVL1002:
 6248 25ce 2370     		strb	r3, [r4, #0]
 6249 25d0 1748     		ldr	r0, .L264+24
 6250 25d2 FFF7FEFF 		bl	uart_transmit
 6251              	.LVL1003:
 6252              	.LBE480:
 6253              	.LBB481:
 6254 25d6 F178     		ldrb	r1, [r6, #3]	@ zero_extendqisi2
 6255              	.LVL1004:
 6256 25d8 2B78     		ldrb	r3, [r5, #0]	@ zero_extendqisi2
 6257 25da 2278     		ldrb	r2, [r4, #0]	@ zero_extendqisi2
 6258 25dc CB18     		adds	r3, r1, r3
 6259 25de DBB2     		uxtb	r3, r3
 6260              	.LVL1005:
 6261 25e0 2B70     		strb	r3, [r5, #0]
 6262 25e2 9B18     		adds	r3, r3, r2
 6263              	.LVL1006:
 6264 25e4 2370     		strb	r3, [r4, #0]
 6265 25e6 1248     		ldr	r0, .L264+24
 6266 25e8 FFF7FEFF 		bl	uart_transmit
 6267              	.LVL1007:
 6268              	.LBE481:
 6269              	.LBB482:
 6270 25ec 174B     		ldr	r3, .L264+52
 6271 25ee 2278     		ldrb	r2, [r4, #0]	@ zero_extendqisi2
 6272 25f0 1978     		ldrb	r1, [r3, #0]	@ zero_extendqisi2
 6273              	.LVL1008:
 6274 25f2 2B78     		ldrb	r3, [r5, #0]	@ zero_extendqisi2
 6275 25f4 0E48     		ldr	r0, .L264+24
 6276 25f6 CB18     		adds	r3, r1, r3
 6277 25f8 DBB2     		uxtb	r3, r3
 6278              	.LVL1009:
 6279 25fa 2B70     		strb	r3, [r5, #0]
 6280 25fc 9B18     		adds	r3, r3, r2
 6281              	.LVL1010:
 6282 25fe 2370     		strb	r3, [r4, #0]
 6283 2600 FFF7FEFF 		bl	uart_transmit
 6284              	.LVL1011:
 6285              	.LBE482:
 6286 2604 2978     		ldrb	r1, [r5, #0]	@ zero_extendqisi2
 6287 2606 0A48     		ldr	r0, .L264+24
 6288 2608 FFF7FEFF 		bl	uart_transmit
 6289 260c 0848     		ldr	r0, .L264+24
 6290 260e 2178     		ldrb	r1, [r4, #0]	@ zero_extendqisi2
 6291 2610 FFF7FEFF 		bl	uart_transmit
 6292 2614 20E0     		b	.L9
 6293              	.L265:
 6294 2616 00BF     		.align	3
 6295              	.L264:
 6296 2618 66666666 		.word	1717986918
 6297 261c 66661440 		.word	1075078758
 6298 2620 00000000 		.word	downlink_nb_ovrn
 6299 2624 00000000 		.word	.LANCHOR20
 6300 2628 00000000 		.word	.LANCHOR34
 6301 262c 00000000 		.word	downlink_nb_bytes
 6302 2630 00000000 		.word	uart2
 6303 2634 00000000 		.word	downlink_nb_msgs
 6304 2638 00000000 		.word	ck_a
 6305 263c 00000000 		.word	ck_b
 6306 2640 00000000 		.word	.LANCHOR21
 6307 2644 00000000 		.word	nav_utm_east0
 6308 2648 00000000 		.word	nav_utm_north0
 6309 264c 00000000 		.word	nav_utm_zone0
 6310              	.LVL1012:
 6311              	.L86:
 6312              		.loc 1 422 0 discriminator 119
 6313 2650 A14B     		ldr	r3, .L266+16
 6314 2652 1A78     		ldrb	r2, [r3, #0]	@ zero_extendqisi2
 6315 2654 0132     		adds	r2, r2, #1
 6316 2656 1A70     		strb	r2, [r3, #0]
 6317              	.L9:
 6318              	.LBE111:
 6319              		.loc 1 422 0 discriminator 2
 6320 2658 A04B     		ldr	r3, .L266+20
 6321 265a 1B78     		ldrb	r3, [r3, #0]	@ zero_extendqisi2
 6322 265c 012B     		cmp	r3, #1
 6323 265e 42F07782 		bne	.L87
 6324              	.LBB483:
 6325              		.loc 1 422 0 discriminator 120
 6326 2662 9F4B     		ldr	r3, .L266+24
 6327 2664 1A78     		ldrb	r2, [r3, #0]	@ zero_extendqisi2
 6328 2666 0132     		adds	r2, r2, #1
 6329 2668 D2B2     		uxtb	r2, r2
 6330 266a 3E2A     		cmp	r2, #62
 6331 266c 1A70     		strb	r2, [r3, #0]
 6332 266e 01D9     		bls	.L88
 6333              		.loc 1 422 0 discriminator 122
 6334 2670 0022     		movs	r2, #0
 6335 2672 1A70     		strb	r2, [r3, #0]
 6336              	.L88:
 6337              		.loc 1 422 0 discriminator 123
 6338 2674 9B4B     		ldr	r3, .L266+28
 6339 2676 1A78     		ldrb	r2, [r3, #0]	@ zero_extendqisi2
 6340 2678 0132     		adds	r2, r2, #1
 6341 267a D2B2     		uxtb	r2, r2
 6342 267c 412A     		cmp	r2, #65
 6343 267e 1A70     		strb	r2, [r3, #0]
 6344 2680 01D9     		bls	.L89
 6345              		.loc 1 422 0 discriminator 124
 6346 2682 0022     		movs	r2, #0
 6347 2684 1A70     		strb	r2, [r3, #0]
 6348              	.L89:
 6349              		.loc 1 422 0 discriminator 125
 6350 2686 984B     		ldr	r3, .L266+32
 6351 2688 1A78     		ldrb	r2, [r3, #0]	@ zero_extendqisi2
 6352 268a 0132     		adds	r2, r2, #1
 6353 268c D2B2     		uxtb	r2, r2
 6354 268e 4D2A     		cmp	r2, #77
 6355 2690 1A70     		strb	r2, [r3, #0]
 6356 2692 01D9     		bls	.L90
 6357              		.loc 1 422 0 discriminator 126
 6358 2694 0022     		movs	r2, #0
 6359 2696 1A70     		strb	r2, [r3, #0]
 6360              	.L90:
 6361              		.loc 1 422 0 discriminator 127
 6362 2698 944B     		ldr	r3, .L266+36
 6363 269a 1A78     		ldrb	r2, [r3, #0]	@ zero_extendqisi2
 6364 269c 0132     		adds	r2, r2, #1
 6365 269e D2B2     		uxtb	r2, r2
 6366 26a0 532A     		cmp	r2, #83
 6367 26a2 1A70     		strb	r2, [r3, #0]
 6368 26a4 01D9     		bls	.L91
 6369              		.loc 1 422 0 discriminator 128
 6370 26a6 0022     		movs	r2, #0
 6371 26a8 1A70     		strb	r2, [r3, #0]
 6372              	.L91:
 6373              		.loc 1 422 0 discriminator 129
 6374 26aa 914B     		ldr	r3, .L266+40
 6375 26ac 1A78     		ldrb	r2, [r3, #0]	@ zero_extendqisi2
 6376 26ae 0132     		adds	r2, r2, #1
 6377 26b0 D2B2     		uxtb	r2, r2
 6378 26b2 592A     		cmp	r2, #89
 6379 26b4 1A70     		strb	r2, [r3, #0]
 6380 26b6 01D9     		bls	.L92
 6381              		.loc 1 422 0 discriminator 130
 6382 26b8 0022     		movs	r2, #0
 6383 26ba 1A70     		strb	r2, [r3, #0]
 6384              	.L92:
 6385              		.loc 1 422 0 discriminator 131
 6386 26bc 8D4B     		ldr	r3, .L266+44
 6387 26be 1A78     		ldrb	r2, [r3, #0]	@ zero_extendqisi2
 6388 26c0 0132     		adds	r2, r2, #1
 6389 26c2 D2B2     		uxtb	r2, r2
 6390 26c4 7D2A     		cmp	r2, #125
 6391 26c6 1A70     		strb	r2, [r3, #0]
 6392 26c8 01D9     		bls	.L93
 6393              		.loc 1 422 0 discriminator 132
 6394 26ca 0022     		movs	r2, #0
 6395 26cc 1A70     		strb	r2, [r3, #0]
 6396              	.L93:
 6397              		.loc 1 422 0 discriminator 133
 6398 26ce 8A4B     		ldr	r3, .L266+48
 6399 26d0 1A78     		ldrb	r2, [r3, #0]	@ zero_extendqisi2
 6400 26d2 0132     		adds	r2, r2, #1
 6401 26d4 D2B2     		uxtb	r2, r2
 6402 26d6 B32A     		cmp	r2, #179
 6403 26d8 1A70     		strb	r2, [r3, #0]
 6404 26da 01D9     		bls	.L94
 6405              		.loc 1 422 0 discriminator 134
 6406 26dc 0022     		movs	r2, #0
 6407 26de 1A70     		strb	r2, [r3, #0]
 6408              	.L94:
 6409              		.loc 1 422 0 discriminator 135
 6410 26e0 864B     		ldr	r3, .L266+52
 6411 26e2 1A78     		ldrb	r2, [r3, #0]	@ zero_extendqisi2
 6412 26e4 0132     		adds	r2, r2, #1
 6413 26e6 D2B2     		uxtb	r2, r2
 6414 26e8 B62A     		cmp	r2, #182
 6415 26ea 1A70     		strb	r2, [r3, #0]
 6416 26ec 01D9     		bls	.L95
 6417              		.loc 1 422 0 discriminator 136
 6418 26ee 0022     		movs	r2, #0
 6419 26f0 1A70     		strb	r2, [r3, #0]
 6420              	.L95:
 6421              		.loc 1 422 0 discriminator 137
 6422 26f2 834B     		ldr	r3, .L266+56
 6423 26f4 1A78     		ldrb	r2, [r3, #0]	@ zero_extendqisi2
 6424 26f6 0132     		adds	r2, r2, #1
 6425 26f8 D2B2     		uxtb	r2, r2
 6426 26fa BF2A     		cmp	r2, #191
 6427 26fc 1A70     		strb	r2, [r3, #0]
 6428 26fe 01D9     		bls	.L96
 6429              		.loc 1 422 0 discriminator 138
 6430 2700 0022     		movs	r2, #0
 6431 2702 1A70     		strb	r2, [r3, #0]
 6432              	.L96:
 6433              		.loc 1 422 0 discriminator 139
 6434 2704 7F4B     		ldr	r3, .L266+60
 6435 2706 1A78     		ldrb	r2, [r3, #0]	@ zero_extendqisi2
 6436 2708 0132     		adds	r2, r2, #1
 6437 270a D2B2     		uxtb	r2, r2
 6438 270c EF2A     		cmp	r2, #239
 6439 270e 1A70     		strb	r2, [r3, #0]
 6440 2710 01D9     		bls	.L97
 6441              		.loc 1 422 0 discriminator 140
 6442 2712 0022     		movs	r2, #0
 6443 2714 1A70     		strb	r2, [r3, #0]
 6444              	.L97:
 6445              		.loc 1 422 0 discriminator 141
 6446 2716 7C4B     		ldr	r3, .L266+64
 6447 2718 1A78     		ldrb	r2, [r3, #0]	@ zero_extendqisi2
 6448 271a 0132     		adds	r2, r2, #1
 6449 271c D2B2     		uxtb	r2, r2
 6450 271e F22A     		cmp	r2, #242
 6451 2720 1A70     		strb	r2, [r3, #0]
 6452 2722 01D9     		bls	.L98
 6453              		.loc 1 422 0 discriminator 142
 6454 2724 0022     		movs	r2, #0
 6455 2726 1A70     		strb	r2, [r3, #0]
 6456              	.L98:
 6457              		.loc 1 422 0 discriminator 143
 6458 2728 784B     		ldr	r3, .L266+68
 6459 272a 1A88     		ldrh	r2, [r3, #0]
 6460 272c 0132     		adds	r2, r2, #1
 6461 272e 92B2     		uxth	r2, r2
 6462 2730 B2F5967F 		cmp	r2, #300
 6463 2734 1A80     		strh	r2, [r3, #0]	@ movhi
 6464 2736 01D3     		bcc	.L99
 6465              		.loc 1 422 0 discriminator 144
 6466 2738 0022     		movs	r2, #0
 6467 273a 1A80     		strh	r2, [r3, #0]	@ movhi
 6468              	.L99:
 6469              		.loc 1 422 0 discriminator 145
 6470 273c 744B     		ldr	r3, .L266+72
 6471 273e 1A88     		ldrh	r2, [r3, #0]
 6472 2740 0132     		adds	r2, r2, #1
 6473 2742 92B2     		uxth	r2, r2
 6474 2744 B2F5997F 		cmp	r2, #306
 6475 2748 1A80     		strh	r2, [r3, #0]	@ movhi
 6476 274a 01D3     		bcc	.L100
 6477              		.loc 1 422 0 discriminator 146
 6478 274c 0022     		movs	r2, #0
 6479 274e 1A80     		strh	r2, [r3, #0]	@ movhi
 6480              	.L100:
 6481              		.loc 1 422 0 discriminator 147
 6482 2750 704B     		ldr	r3, .L266+76
 6483 2752 1A88     		ldrh	r2, [r3, #0]
 6484 2754 0132     		adds	r2, r2, #1
 6485 2756 92B2     		uxth	r2, r2
 6486 2758 B2F59C7F 		cmp	r2, #312
 6487 275c 1A80     		strh	r2, [r3, #0]	@ movhi
 6488 275e 01D3     		bcc	.L101
 6489              		.loc 1 422 0 discriminator 148
 6490 2760 0022     		movs	r2, #0
 6491 2762 1A80     		strh	r2, [r3, #0]	@ movhi
 6492              	.L101:
 6493              		.loc 1 422 0 discriminator 149
 6494 2764 6C4B     		ldr	r3, .L266+80
 6495 2766 1A88     		ldrh	r2, [r3, #0]
 6496 2768 0132     		adds	r2, r2, #1
 6497 276a 92B2     		uxth	r2, r2
 6498 276c B2F5077F 		cmp	r2, #540
 6499 2770 1A80     		strh	r2, [r3, #0]	@ movhi
 6500 2772 01D3     		bcc	.L102
 6501              		.loc 1 422 0 discriminator 150
 6502 2774 0022     		movs	r2, #0
 6503 2776 1A80     		strh	r2, [r3, #0]	@ movhi
 6504              	.L102:
 6505              		.loc 1 422 0 discriminator 151
 6506 2778 684B     		ldr	r3, .L266+84
 6507 277a 40F25D21 		movw	r1, #605
 6508 277e 1A88     		ldrh	r2, [r3, #0]
 6509 2780 0132     		adds	r2, r2, #1
 6510 2782 92B2     		uxth	r2, r2
 6511 2784 8A42     		cmp	r2, r1
 6512 2786 1A80     		strh	r2, [r3, #0]	@ movhi
 6513 2788 01D9     		bls	.L103
 6514              		.loc 1 422 0 discriminator 152
 6515 278a 0022     		movs	r2, #0
 6516 278c 1A80     		strh	r2, [r3, #0]	@ movhi
 6517              	.L103:
 6518              		.loc 1 422 0 discriminator 153
 6519 278e 544B     		ldr	r3, .L266+24
 6520 2790 1B78     		ldrb	r3, [r3, #0]	@ zero_extendqisi2
 6521 2792 002B     		cmp	r3, #0
 6522 2794 40F0AC82 		bne	.L104
 6523              	.LBB484:
 6524              		.loc 1 422 0 discriminator 154
 6525 2798 614C     		ldr	r4, .L266+88
 6526 279a 236C     		ldr	r3, [r4, #64]
 6527 279c A06C     		ldr	r0, [r4, #72]
 6528 279e 5B42     		negs	r3, r3
 6529 27a0 ADF81C30 		strh	r3, [sp, #28]	@ movhi
 6530              	.LVL1013:
 6531 27a4 FFF7FEFF 		bl	__aeabi_i2d
 6532 27a8 47A3     		adr	r3, .L266
 6533 27aa D3E90023 		ldrd	r2, [r3]
 6534 27ae FFF7FEFF 		bl	__aeabi_dmul
 6535 27b2 47A3     		adr	r3, .L266+8
 6536 27b4 D3E90023 		ldrd	r2, [r3]
 6537 27b8 FFF7FEFF 		bl	__aeabi_ddiv
 6538 27bc FFF7FEFF 		bl	__aeabi_d2iz
 6539 27c0 2121     		movs	r1, #33
 6540 27c2 ADF81E00 		strh	r0, [sp, #30]	@ movhi
 6541              	.LVL1014:
 6542 27c6 5748     		ldr	r0, .L266+92
 6543 27c8 FFF7FEFF 		bl	uart_check_free_space
 6544 27cc 0028     		cmp	r0, #0
 6545 27ce 00F0A781 		beq	.L105
 6546              		.loc 1 422 0 discriminator 156
 6547 27d2 554B     		ldr	r3, .L266+96
 6548              	.LBB485:
 6549 27d4 9921     		movs	r1, #153
 6550              	.LBE485:
 6551 27d6 1A88     		ldrh	r2, [r3, #0]
 6552              	.LBB486:
 6553 27d8 5248     		ldr	r0, .L266+92
 6554              	.LBE486:
 6555 27da 2132     		adds	r2, r2, #33
 6556 27dc 1A80     		strh	r2, [r3, #0]	@ movhi
 6557 27de 534B     		ldr	r3, .L266+100
 6558 27e0 534E     		ldr	r6, .L266+104
 6559 27e2 1A88     		ldrh	r2, [r3, #0]
 6560 27e4 534D     		ldr	r5, .L266+108
 6561 27e6 0132     		adds	r2, r2, #1
 6562 27e8 1A80     		strh	r2, [r3, #0]	@ movhi
 6563              	.LBB487:
 6564 27ea FFF7FEFF 		bl	uart_transmit
 6565              	.LVL1015:
 6566 27ee 2121     		movs	r1, #33
 6567 27f0 4C48     		ldr	r0, .L266+92
 6568 27f2 FFF7FEFF 		bl	uart_transmit
 6569              	.LBE487:
 6570 27f6 2223     		movs	r3, #34
 6571 27f8 3370     		strb	r3, [r6, #0]
 6572 27fa 4323     		movs	r3, #67
 6573 27fc 2B70     		strb	r3, [r5, #0]
 6574 27fe 0121     		movs	r1, #1
 6575 2800 4848     		ldr	r0, .L266+92
 6576 2802 FFF7FEFF 		bl	uart_transmit
 6577 2806 3378     		ldrb	r3, [r6, #0]	@ zero_extendqisi2
 6578 2808 2A78     		ldrb	r2, [r5, #0]	@ zero_extendqisi2
 6579 280a 0833     		adds	r3, r3, #8
 6580 280c DBB2     		uxtb	r3, r3
 6581 280e 3370     		strb	r3, [r6, #0]
 6582 2810 9B18     		adds	r3, r3, r2
 6583 2812 2B70     		strb	r3, [r5, #0]
 6584 2814 0821     		movs	r1, #8
 6585 2816 4348     		ldr	r0, .L266+92
 6586 2818 FFF7FEFF 		bl	uart_transmit
 6587              	.LBB488:
 6588 281c 94F85B10 		ldrb	r1, [r4, #91]	@ zero_extendqisi2
 6589              	.LVL1016:
 6590 2820 3378     		ldrb	r3, [r6, #0]	@ zero_extendqisi2
 6591 2822 2A78     		ldrb	r2, [r5, #0]	@ zero_extendqisi2
 6592 2824 CB18     		adds	r3, r1, r3
 6593 2826 DBB2     		uxtb	r3, r3
 6594              	.LVL1017:
 6595 2828 3370     		strb	r3, [r6, #0]
 6596 282a 9B18     		adds	r3, r3, r2
 6597              	.LVL1018:
 6598 282c 2B70     		strb	r3, [r5, #0]
 6599 282e 3D48     		ldr	r0, .L266+92
 6600 2830 FFF7FEFF 		bl	uart_transmit
 6601              	.LVL1019:
 6602              	.LBE488:
 6603              	.LBB489:
 6604 2834 217F     		ldrb	r1, [r4, #28]	@ zero_extendqisi2
 6605              	.LVL1020:
 6606 2836 3378     		ldrb	r3, [r6, #0]	@ zero_extendqisi2
 6607 2838 2A78     		ldrb	r2, [r5, #0]	@ zero_extendqisi2
 6608 283a CB18     		adds	r3, r1, r3
 6609 283c DBB2     		uxtb	r3, r3
 6610              	.LVL1021:
 6611 283e 3370     		strb	r3, [r6, #0]
 6612 2840 9B18     		adds	r3, r3, r2
 6613              	.LVL1022:
 6614 2842 2B70     		strb	r3, [r5, #0]
 6615 2844 3748     		ldr	r0, .L266+92
 6616 2846 FFF7FEFF 		bl	uart_transmit
 6617              	.LVL1023:
 6618              	.LBE489:
 6619              	.LBB490:
 6620 284a 617F     		ldrb	r1, [r4, #29]	@ zero_extendqisi2
 6621              	.LVL1024:
 6622 284c 3378     		ldrb	r3, [r6, #0]	@ zero_extendqisi2
 6623 284e 2A78     		ldrb	r2, [r5, #0]	@ zero_extendqisi2
 6624 2850 CB18     		adds	r3, r1, r3
 6625 2852 DBB2     		uxtb	r3, r3
 6626              	.LVL1025:
 6627 2854 3370     		strb	r3, [r6, #0]
 6628 2856 9B18     		adds	r3, r3, r2
 6629              	.LVL1026:
 6630 2858 2B70     		strb	r3, [r5, #0]
 6631 285a 3248     		ldr	r0, .L266+92
 6632 285c FFF7FEFF 		bl	uart_transmit
 6633              	.LVL1027:
 6634              	.LBE490:
 6635              	.LBB491:
 6636 2860 A17F     		ldrb	r1, [r4, #30]	@ zero_extendqisi2
 6637              	.LVL1028:
 6638 2862 3378     		ldrb	r3, [r6, #0]	@ zero_extendqisi2
 6639 2864 2A78     		ldrb	r2, [r5, #0]	@ zero_extendqisi2
 6640 2866 CB18     		adds	r3, r1, r3
 6641 2868 DBB2     		uxtb	r3, r3
 6642              	.LVL1029:
 6643 286a 3370     		strb	r3, [r6, #0]
 6644 286c 9B18     		adds	r3, r3, r2
 6645              	.LVL1030:
 6646 286e 2B70     		strb	r3, [r5, #0]
 6647 2870 2C48     		ldr	r0, .L266+92
 6648 2872 FFF7FEFF 		bl	uart_transmit
 6649              	.LVL1031:
 6650              	.LBE491:
 6651              	.LBB492:
 6652 2876 E17F     		ldrb	r1, [r4, #31]	@ zero_extendqisi2
 6653              	.LVL1032:
 6654 2878 3378     		ldrb	r3, [r6, #0]	@ zero_extendqisi2
 6655 287a 2A78     		ldrb	r2, [r5, #0]	@ zero_extendqisi2
 6656 287c CB18     		adds	r3, r1, r3
 6657 287e DBB2     		uxtb	r3, r3
 6658              	.LVL1033:
 6659 2880 3370     		strb	r3, [r6, #0]
 6660 2882 9B18     		adds	r3, r3, r2
 6661              	.LVL1034:
 6662 2884 2B70     		strb	r3, [r5, #0]
 6663 2886 2748     		ldr	r0, .L266+92
 6664 2888 FFF7FEFF 		bl	uart_transmit
 6665              	.LVL1035:
 6666              	.LBE492:
 6667              	.LBB493:
 6668 288c 217E     		ldrb	r1, [r4, #24]	@ zero_extendqisi2
 6669              	.LVL1036:
 6670 288e 3378     		ldrb	r3, [r6, #0]	@ zero_extendqisi2
 6671 2890 2A78     		ldrb	r2, [r5, #0]	@ zero_extendqisi2
 6672 2892 CB18     		adds	r3, r1, r3
 6673 2894 DBB2     		uxtb	r3, r3
 6674              	.LVL1037:
 6675 2896 3370     		strb	r3, [r6, #0]
 6676 2898 9B18     		adds	r3, r3, r2
 6677              	.LVL1038:
 6678 289a 2B70     		strb	r3, [r5, #0]
 6679 289c 2148     		ldr	r0, .L266+92
 6680 289e FFF7FEFF 		bl	uart_transmit
 6681              	.LVL1039:
 6682              	.LBE493:
 6683              	.LBB494:
 6684 28a2 617E     		ldrb	r1, [r4, #25]	@ zero_extendqisi2
 6685              	.LVL1040:
 6686 28a4 3378     		ldrb	r3, [r6, #0]	@ zero_extendqisi2
 6687 28a6 2A78     		ldrb	r2, [r5, #0]	@ zero_extendqisi2
 6688 28a8 CB18     		adds	r3, r1, r3
 6689 28aa DBB2     		uxtb	r3, r3
 6690              	.LVL1041:
 6691 28ac 3370     		strb	r3, [r6, #0]
 6692 28ae 9B18     		adds	r3, r3, r2
 6693              	.LVL1042:
 6694 28b0 2B70     		strb	r3, [r5, #0]
 6695 28b2 1C48     		ldr	r0, .L266+92
 6696 28b4 FFF7FEFF 		bl	uart_transmit
 6697              	.LVL1043:
 6698              	.LBE494:
 6699              	.LBB495:
 6700 28b8 A17E     		ldrb	r1, [r4, #26]	@ zero_extendqisi2
 6701              	.LVL1044:
 6702 28ba 3378     		ldrb	r3, [r6, #0]	@ zero_extendqisi2
 6703 28bc 2A78     		ldrb	r2, [r5, #0]	@ zero_extendqisi2
 6704 28be CB18     		adds	r3, r1, r3
 6705 28c0 DBB2     		uxtb	r3, r3
 6706              	.LVL1045:
 6707 28c2 3370     		strb	r3, [r6, #0]
 6708 28c4 9B18     		adds	r3, r3, r2
 6709 28c6 37E0     		b	.L267
 6710              	.L268:
 6711              		.align	3
 6712              	.L266:
 6713 28c8 F8C1631A 		.word	442745336
 6714 28cc DCA54C40 		.word	1078765020
 6715 28d0 00000000 		.word	0
 6716 28d4 80842E41 		.word	1093567616
 6717 28d8 00000000 		.word	downlink_nb_ovrn
 6718 28dc 00000000 		.word	telemetry_mode_Ap
 6719 28e0 00000000 		.word	.LANCHOR35
 6720 28e4 00000000 		.word	.LANCHOR36
 6721 28e8 00000000 		.word	.LANCHOR37
 6722 28ec 00000000 		.word	.LANCHOR38
 6723 28f0 00000000 		.word	.LANCHOR39
 6724 28f4 00000000 		.word	.LANCHOR40
 6725 28f8 00000000 		.word	.LANCHOR41
 6726 28fc 00000000 		.word	.LANCHOR42
 6727 2900 00000000 		.word	.LANCHOR43
 6728 2904 00000000 		.word	.LANCHOR44
 6729 2908 00000000 		.word	.LANCHOR45
 6730 290c 00000000 		.word	.LANCHOR46
 6731 2910 00000000 		.word	.LANCHOR47
 6732 2914 00000000 		.word	.LANCHOR48
 6733 2918 00000000 		.word	.LANCHOR49
 6734 291c 00000000 		.word	.LANCHOR50
 6735 2920 00000000 		.word	gps
 6736 2924 00000000 		.word	uart2
 6737 2928 00000000 		.word	downlink_nb_bytes
 6738 292c 00000000 		.word	downlink_nb_msgs
 6739 2930 00000000 		.word	ck_a
 6740 2934 00000000 		.word	ck_b
 6741              	.L267:
 6742              	.LVL1046:
 6743 2938 2B70     		strb	r3, [r5, #0]
 6744 293a 7748     		ldr	r0, .L269
 6745 293c FFF7FEFF 		bl	uart_transmit
 6746              	.LVL1047:
 6747              	.LBE495:
 6748              	.LBB496:
 6749 2940 E17E     		ldrb	r1, [r4, #27]	@ zero_extendqisi2
 6750              	.LVL1048:
 6751 2942 3378     		ldrb	r3, [r6, #0]	@ zero_extendqisi2
 6752 2944 2A78     		ldrb	r2, [r5, #0]	@ zero_extendqisi2
 6753 2946 CB18     		adds	r3, r1, r3
 6754 2948 DBB2     		uxtb	r3, r3
 6755              	.LVL1049:
 6756 294a 3370     		strb	r3, [r6, #0]
 6757 294c 9B18     		adds	r3, r3, r2
 6758              	.LVL1050:
 6759 294e 2B70     		strb	r3, [r5, #0]
 6760 2950 7148     		ldr	r0, .L269
 6761 2952 FFF7FEFF 		bl	uart_transmit
 6762              	.LVL1051:
 6763              	.LBE496:
 6764              	.LBB497:
 6765 2956 9DF81E10 		ldrb	r1, [sp, #30]	@ zero_extendqisi2
 6766              	.LVL1052:
 6767 295a 3378     		ldrb	r3, [r6, #0]	@ zero_extendqisi2
 6768 295c 2A78     		ldrb	r2, [r5, #0]	@ zero_extendqisi2
 6769 295e CB18     		adds	r3, r1, r3
 6770 2960 DBB2     		uxtb	r3, r3
 6771              	.LVL1053:
 6772 2962 3370     		strb	r3, [r6, #0]
 6773 2964 9B18     		adds	r3, r3, r2
 6774              	.LVL1054:
 6775 2966 2B70     		strb	r3, [r5, #0]
 6776 2968 6B48     		ldr	r0, .L269
 6777 296a FFF7FEFF 		bl	uart_transmit
 6778              	.LVL1055:
 6779              	.LBE497:
 6780              	.LBB498:
 6781 296e 9DF81F10 		ldrb	r1, [sp, #31]	@ zero_extendqisi2
 6782              	.LVL1056:
 6783 2972 3378     		ldrb	r3, [r6, #0]	@ zero_extendqisi2
 6784 2974 2A78     		ldrb	r2, [r5, #0]	@ zero_extendqisi2
 6785 2976 CB18     		adds	r3, r1, r3
 6786 2978 DBB2     		uxtb	r3, r3
 6787              	.LVL1057:
 6788 297a 3370     		strb	r3, [r6, #0]
 6789 297c 9B18     		adds	r3, r3, r2
 6790              	.LVL1058:
 6791 297e 2B70     		strb	r3, [r5, #0]
 6792 2980 6548     		ldr	r0, .L269
 6793 2982 FFF7FEFF 		bl	uart_transmit
 6794              	.LVL1059:
 6795              	.LBE498:
 6796              	.LBB499:
 6797 2986 94F82810 		ldrb	r1, [r4, #40]	@ zero_extendqisi2
 6798              	.LVL1060:
 6799 298a 3378     		ldrb	r3, [r6, #0]	@ zero_extendqisi2
 6800 298c 2A78     		ldrb	r2, [r5, #0]	@ zero_extendqisi2
 6801 298e CB18     		adds	r3, r1, r3
 6802 2990 DBB2     		uxtb	r3, r3
 6803              	.LVL1061:
 6804 2992 3370     		strb	r3, [r6, #0]
 6805 2994 9B18     		adds	r3, r3, r2
 6806              	.LVL1062:
 6807 2996 2B70     		strb	r3, [r5, #0]
 6808 2998 5F48     		ldr	r0, .L269
 6809 299a FFF7FEFF 		bl	uart_transmit
 6810              	.LVL1063:
 6811              	.LBE499:
 6812              	.LBB500:
 6813 299e 94F82910 		ldrb	r1, [r4, #41]	@ zero_extendqisi2
 6814              	.LVL1064:
 6815 29a2 3378     		ldrb	r3, [r6, #0]	@ zero_extendqisi2
 6816 29a4 2A78     		ldrb	r2, [r5, #0]	@ zero_extendqisi2
 6817 29a6 CB18     		adds	r3, r1, r3
 6818 29a8 DBB2     		uxtb	r3, r3
 6819              	.LVL1065:
 6820 29aa 3370     		strb	r3, [r6, #0]
 6821 29ac 9B18     		adds	r3, r3, r2
 6822              	.LVL1066:
 6823 29ae 2B70     		strb	r3, [r5, #0]
 6824 29b0 5948     		ldr	r0, .L269
 6825 29b2 FFF7FEFF 		bl	uart_transmit
 6826              	.LVL1067:
 6827              	.LBE500:
 6828              	.LBB501:
 6829 29b6 94F82A10 		ldrb	r1, [r4, #42]	@ zero_extendqisi2
 6830              	.LVL1068:
 6831 29ba 3378     		ldrb	r3, [r6, #0]	@ zero_extendqisi2
 6832 29bc 2A78     		ldrb	r2, [r5, #0]	@ zero_extendqisi2
 6833 29be CB18     		adds	r3, r1, r3
 6834 29c0 DBB2     		uxtb	r3, r3
 6835              	.LVL1069:
 6836 29c2 3370     		strb	r3, [r6, #0]
 6837 29c4 9B18     		adds	r3, r3, r2
 6838              	.LVL1070:
 6839 29c6 2B70     		strb	r3, [r5, #0]
 6840 29c8 5348     		ldr	r0, .L269
 6841 29ca FFF7FEFF 		bl	uart_transmit
 6842              	.LVL1071:
 6843              	.LBE501:
 6844              	.LBB502:
 6845 29ce 94F82B10 		ldrb	r1, [r4, #43]	@ zero_extendqisi2
 6846              	.LVL1072:
 6847 29d2 3378     		ldrb	r3, [r6, #0]	@ zero_extendqisi2
 6848 29d4 2A78     		ldrb	r2, [r5, #0]	@ zero_extendqisi2
 6849 29d6 CB18     		adds	r3, r1, r3
 6850 29d8 DBB2     		uxtb	r3, r3
 6851              	.LVL1073:
 6852 29da 3370     		strb	r3, [r6, #0]
 6853 29dc 9B18     		adds	r3, r3, r2
 6854              	.LVL1074:
 6855 29de 2B70     		strb	r3, [r5, #0]
 6856 29e0 4D48     		ldr	r0, .L269
 6857 29e2 FFF7FEFF 		bl	uart_transmit
 6858              	.LVL1075:
 6859              	.LBE502:
 6860              	.LBB503:
 6861 29e6 94F84410 		ldrb	r1, [r4, #68]	@ zero_extendqisi2
 6862              	.LVL1076:
 6863 29ea 3378     		ldrb	r3, [r6, #0]	@ zero_extendqisi2
 6864 29ec 2A78     		ldrb	r2, [r5, #0]	@ zero_extendqisi2
 6865 29ee CB18     		adds	r3, r1, r3
 6866 29f0 DBB2     		uxtb	r3, r3
 6867              	.LVL1077:
 6868 29f2 3370     		strb	r3, [r6, #0]
 6869 29f4 9B18     		adds	r3, r3, r2
 6870              	.LVL1078:
 6871 29f6 2B70     		strb	r3, [r5, #0]
 6872 29f8 4748     		ldr	r0, .L269
 6873 29fa FFF7FEFF 		bl	uart_transmit
 6874              	.LVL1079:
 6875              	.LBE503:
 6876              	.LBB504:
 6877 29fe 94F84510 		ldrb	r1, [r4, #69]	@ zero_extendqisi2
 6878              	.LVL1080:
 6879 2a02 3378     		ldrb	r3, [r6, #0]	@ zero_extendqisi2
 6880 2a04 2A78     		ldrb	r2, [r5, #0]	@ zero_extendqisi2
 6881 2a06 CB18     		adds	r3, r1, r3
 6882 2a08 DBB2     		uxtb	r3, r3
 6883              	.LVL1081:
 6884 2a0a 3370     		strb	r3, [r6, #0]
 6885 2a0c 9B18     		adds	r3, r3, r2
 6886              	.LVL1082:
 6887 2a0e 2B70     		strb	r3, [r5, #0]
 6888 2a10 4148     		ldr	r0, .L269
 6889 2a12 FFF7FEFF 		bl	uart_transmit
 6890              	.LVL1083:
 6891              	.LBE504:
 6892              	.LBB505:
 6893 2a16 9DF81C10 		ldrb	r1, [sp, #28]	@ zero_extendqisi2
 6894              	.LVL1084:
 6895 2a1a 3378     		ldrb	r3, [r6, #0]	@ zero_extendqisi2
 6896 2a1c 2A78     		ldrb	r2, [r5, #0]	@ zero_extendqisi2
 6897 2a1e CB18     		adds	r3, r1, r3
 6898 2a20 DBB2     		uxtb	r3, r3
 6899              	.LVL1085:
 6900 2a22 3370     		strb	r3, [r6, #0]
 6901 2a24 9B18     		adds	r3, r3, r2
 6902              	.LVL1086:
 6903 2a26 2B70     		strb	r3, [r5, #0]
 6904 2a28 3B48     		ldr	r0, .L269
 6905 2a2a FFF7FEFF 		bl	uart_transmit
 6906              	.LVL1087:
 6907              	.LBE505:
 6908              	.LBB506:
 6909 2a2e 9DF81D10 		ldrb	r1, [sp, #29]	@ zero_extendqisi2
 6910              	.LVL1088:
 6911 2a32 3378     		ldrb	r3, [r6, #0]	@ zero_extendqisi2
 6912 2a34 2A78     		ldrb	r2, [r5, #0]	@ zero_extendqisi2
 6913 2a36 CB18     		adds	r3, r1, r3
 6914 2a38 DBB2     		uxtb	r3, r3
 6915              	.LVL1089:
 6916 2a3a 3370     		strb	r3, [r6, #0]
 6917 2a3c 9B18     		adds	r3, r3, r2
 6918              	.LVL1090:
 6919 2a3e 2B70     		strb	r3, [r5, #0]
 6920 2a40 3548     		ldr	r0, .L269
 6921 2a42 FFF7FEFF 		bl	uart_transmit
 6922              	.LVL1091:
 6923              	.LBE506:
 6924              	.LBB507:
 6925 2a46 94F85C10 		ldrb	r1, [r4, #92]	@ zero_extendqisi2
 6926              	.LVL1092:
 6927 2a4a 3378     		ldrb	r3, [r6, #0]	@ zero_extendqisi2
 6928 2a4c 2A78     		ldrb	r2, [r5, #0]	@ zero_extendqisi2
 6929 2a4e CB18     		adds	r3, r1, r3
 6930 2a50 DBB2     		uxtb	r3, r3
 6931              	.LVL1093:
 6932 2a52 3370     		strb	r3, [r6, #0]
 6933 2a54 9B18     		adds	r3, r3, r2
 6934              	.LVL1094:
 6935 2a56 2B70     		strb	r3, [r5, #0]
 6936 2a58 2F48     		ldr	r0, .L269
 6937 2a5a FFF7FEFF 		bl	uart_transmit
 6938              	.LVL1095:
 6939              	.LBE507:
 6940              	.LBB508:
 6941 2a5e 94F85D10 		ldrb	r1, [r4, #93]	@ zero_extendqisi2
 6942              	.LVL1096:
 6943 2a62 3378     		ldrb	r3, [r6, #0]	@ zero_extendqisi2
 6944 2a64 2A78     		ldrb	r2, [r5, #0]	@ zero_extendqisi2
 6945 2a66 CB18     		adds	r3, r1, r3
 6946 2a68 DBB2     		uxtb	r3, r3
 6947              	.LVL1097:
 6948 2a6a 3370     		strb	r3, [r6, #0]
 6949 2a6c 9B18     		adds	r3, r3, r2
 6950              	.LVL1098:
 6951 2a6e 2B70     		strb	r3, [r5, #0]
 6952 2a70 2948     		ldr	r0, .L269
 6953 2a72 FFF7FEFF 		bl	uart_transmit
 6954              	.LVL1099:
 6955              	.LBE508:
 6956              	.LBB509:
 6957 2a76 94F86010 		ldrb	r1, [r4, #96]	@ zero_extendqisi2
 6958              	.LVL1100:
 6959 2a7a 3378     		ldrb	r3, [r6, #0]	@ zero_extendqisi2
 6960 2a7c 2A78     		ldrb	r2, [r5, #0]	@ zero_extendqisi2
 6961 2a7e CB18     		adds	r3, r1, r3
 6962 2a80 DBB2     		uxtb	r3, r3
 6963              	.LVL1101:
 6964 2a82 3370     		strb	r3, [r6, #0]
 6965 2a84 9B18     		adds	r3, r3, r2
 6966              	.LVL1102:
 6967 2a86 2B70     		strb	r3, [r5, #0]
 6968 2a88 2348     		ldr	r0, .L269
 6969 2a8a FFF7FEFF 		bl	uart_transmit
 6970              	.LVL1103:
 6971              	.LBE509:
 6972              	.LBB510:
 6973 2a8e 94F86110 		ldrb	r1, [r4, #97]	@ zero_extendqisi2
 6974              	.LVL1104:
 6975 2a92 3378     		ldrb	r3, [r6, #0]	@ zero_extendqisi2
 6976 2a94 2A78     		ldrb	r2, [r5, #0]	@ zero_extendqisi2
 6977 2a96 CB18     		adds	r3, r1, r3
 6978 2a98 DBB2     		uxtb	r3, r3
 6979              	.LVL1105:
 6980 2a9a 3370     		strb	r3, [r6, #0]
 6981 2a9c 9B18     		adds	r3, r3, r2
 6982              	.LVL1106:
 6983 2a9e 2B70     		strb	r3, [r5, #0]
 6984 2aa0 1D48     		ldr	r0, .L269
 6985 2aa2 FFF7FEFF 		bl	uart_transmit
 6986              	.LVL1107:
 6987              	.LBE510:
 6988              	.LBB511:
 6989 2aa6 94F86210 		ldrb	r1, [r4, #98]	@ zero_extendqisi2
 6990              	.LVL1108:
 6991 2aaa 3378     		ldrb	r3, [r6, #0]	@ zero_extendqisi2
 6992 2aac 2A78     		ldrb	r2, [r5, #0]	@ zero_extendqisi2
 6993 2aae CB18     		adds	r3, r1, r3
 6994 2ab0 DBB2     		uxtb	r3, r3
 6995              	.LVL1109:
 6996 2ab2 3370     		strb	r3, [r6, #0]
 6997 2ab4 9B18     		adds	r3, r3, r2
 6998              	.LVL1110:
 6999 2ab6 2B70     		strb	r3, [r5, #0]
 7000 2ab8 1748     		ldr	r0, .L269
 7001 2aba FFF7FEFF 		bl	uart_transmit
 7002              	.LVL1111:
 7003              	.LBE511:
 7004              	.LBB512:
 7005 2abe 94F86310 		ldrb	r1, [r4, #99]	@ zero_extendqisi2
 7006              	.LVL1112:
 7007 2ac2 3378     		ldrb	r3, [r6, #0]	@ zero_extendqisi2
 7008 2ac4 2A78     		ldrb	r2, [r5, #0]	@ zero_extendqisi2
 7009 2ac6 CB18     		adds	r3, r1, r3
 7010 2ac8 DBB2     		uxtb	r3, r3
 7011              	.LVL1113:
 7012 2aca 3370     		strb	r3, [r6, #0]
 7013 2acc 9B18     		adds	r3, r3, r2
 7014              	.LVL1114:
 7015 2ace 2B70     		strb	r3, [r5, #0]
 7016 2ad0 1148     		ldr	r0, .L269
 7017 2ad2 FFF7FEFF 		bl	uart_transmit
 7018              	.LVL1115:
 7019              	.LBE512:
 7020              	.LBB513:
 7021 2ad6 94F82410 		ldrb	r1, [r4, #36]	@ zero_extendqisi2
 7022              	.LVL1116:
 7023 2ada 3378     		ldrb	r3, [r6, #0]	@ zero_extendqisi2
 7024 2adc 2A78     		ldrb	r2, [r5, #0]	@ zero_extendqisi2
 7025 2ade CB18     		adds	r3, r1, r3
 7026 2ae0 DBB2     		uxtb	r3, r3
 7027              	.LVL1117:
 7028 2ae2 3370     		strb	r3, [r6, #0]
 7029 2ae4 9B18     		adds	r3, r3, r2
 7030              	.LVL1118:
 7031 2ae6 2B70     		strb	r3, [r5, #0]
 7032 2ae8 0B48     		ldr	r0, .L269
 7033 2aea FFF7FEFF 		bl	uart_transmit
 7034              	.LVL1119:
 7035              	.LBE513:
 7036              	.LBB514:
 7037 2aee 0B4B     		ldr	r3, .L269+4
 7038 2af0 2A78     		ldrb	r2, [r5, #0]	@ zero_extendqisi2
 7039 2af2 1978     		ldrb	r1, [r3, #0]	@ zero_extendqisi2
 7040              	.LVL1120:
 7041 2af4 3378     		ldrb	r3, [r6, #0]	@ zero_extendqisi2
 7042 2af6 0848     		ldr	r0, .L269
 7043 2af8 CB18     		adds	r3, r1, r3
 7044 2afa DBB2     		uxtb	r3, r3
 7045              	.LVL1121:
 7046 2afc 3370     		strb	r3, [r6, #0]
 7047 2afe 9B18     		adds	r3, r3, r2
 7048              	.LVL1122:
 7049 2b00 2B70     		strb	r3, [r5, #0]
 7050 2b02 FFF7FEFF 		bl	uart_transmit
 7051              	.LVL1123:
 7052              	.LBE514:
 7053 2b06 3178     		ldrb	r1, [r6, #0]	@ zero_extendqisi2
 7054 2b08 0348     		ldr	r0, .L269
 7055 2b0a FFF7FEFF 		bl	uart_transmit
 7056 2b0e 0248     		ldr	r0, .L269
 7057 2b10 2978     		ldrb	r1, [r5, #0]	@ zero_extendqisi2
 7058 2b12 FFF7FEFF 		bl	uart_transmit
 7059 2b16 07E0     		b	.L106
 7060              	.L270:
 7061              		.align	2
 7062              	.L269:
 7063 2b18 00000000 		.word	uart2
 7064 2b1c 00000000 		.word	.LANCHOR51
 7065              	.LVL1124:
 7066              	.L105:
 7067              		.loc 1 422 0 discriminator 157
 7068 2b20 674B     		ldr	r3, .L271
 7069 2b22 1A78     		ldrb	r2, [r3, #0]	@ zero_extendqisi2
 7070 2b24 0132     		adds	r2, r2, #1
 7071 2b26 1A70     		strb	r2, [r3, #0]
 7072              	.L106:
 7073              		.loc 1 422 0 discriminator 158
 7074 2b28 664A     		ldr	r2, .L271+4
 7075 2b2a 92F85B30 		ldrb	r3, [r2, #91]	@ zero_extendqisi2
 7076 2b2e 032B     		cmp	r3, #3
 7077 2b30 654B     		ldr	r3, .L271+8
 7078 2b32 06D0     		beq	.L107
 7079              		.loc 1 422 0 discriminator 159
 7080 2b34 1878     		ldrb	r0, [r3, #0]	@ zero_extendqisi2
 7081 2b36 92F86410 		ldrb	r1, [r2, #100]	@ zero_extendqisi2
 7082 2b3a 8842     		cmp	r0, r1
 7083 2b3c 01D3     		bcc	.L107
 7084              		.loc 1 422 0 discriminator 161
 7085 2b3e 0021     		movs	r1, #0
 7086 2b40 1970     		strb	r1, [r3, #0]
 7087              	.L107:
 7088              		.loc 1 422 0 discriminator 160
 7089 2b42 92F86420 		ldrb	r2, [r2, #100]	@ zero_extendqisi2
 7090 2b46 1B78     		ldrb	r3, [r3, #0]	@ zero_extendqisi2
 7091 2b48 B3EB420F 		cmp	r3, r2, lsl #1
 7092 2b4c 02DB     		blt	.L108
 7093              		.loc 1 422 0 discriminator 162
 7094 2b4e 5E4B     		ldr	r3, .L271+8
 7095 2b50 0021     		movs	r1, #0
 7096 2b52 1970     		strb	r1, [r3, #0]
 7097              	.L108:
 7098              		.loc 1 422 0 discriminator 163
 7099 2b54 5C4E     		ldr	r6, .L271+8
 7100 2b56 3378     		ldrb	r3, [r6, #0]	@ zero_extendqisi2
 7101 2b58 9342     		cmp	r3, r2
 7102 2b5a 80F0C580 		bcs	.L109
 7103              		.loc 1 422 0 discriminator 164
 7104 2b5e 594F     		ldr	r7, .L271+4
 7105 2b60 07EBC303 		add	r3, r7, r3, lsl #3
 7106 2b64 93F86930 		ldrb	r3, [r3, #105]	@ zero_extendqisi2
 7107 2b68 002B     		cmp	r3, #0
 7108 2b6a 00F0BD80 		beq	.L109
 7109              		.loc 1 422 0 discriminator 166
 7110 2b6e 5748     		ldr	r0, .L271+12
 7111 2b70 0E21     		movs	r1, #14
 7112 2b72 FFF7FEFF 		bl	uart_check_free_space
 7113 2b76 0028     		cmp	r0, #0
 7114 2b78 00F0B280 		beq	.L110
 7115              		.loc 1 422 0 discriminator 167
 7116 2b7c 544B     		ldr	r3, .L271+16
 7117              	.LBB515:
 7118 2b7e 9921     		movs	r1, #153
 7119              	.LBE515:
 7120 2b80 1A88     		ldrh	r2, [r3, #0]
 7121              	.LBB516:
 7122 2b82 5248     		ldr	r0, .L271+12
 7123              	.LBE516:
 7124 2b84 0E32     		adds	r2, r2, #14
 7125 2b86 1A80     		strh	r2, [r3, #0]	@ movhi
 7126 2b88 524B     		ldr	r3, .L271+20
 7127 2b8a 534D     		ldr	r5, .L271+24
 7128 2b8c 1A88     		ldrh	r2, [r3, #0]
 7129 2b8e 534C     		ldr	r4, .L271+28
 7130 2b90 0132     		adds	r2, r2, #1
 7131 2b92 1A80     		strh	r2, [r3, #0]	@ movhi
 7132              	.LBB517:
 7133 2b94 FFF7FEFF 		bl	uart_transmit
 7134              	.LVL1125:
 7135 2b98 0E21     		movs	r1, #14
 7136 2b9a 4C48     		ldr	r0, .L271+12
 7137 2b9c FFF7FEFF 		bl	uart_transmit
 7138              	.LBE517:
 7139 2ba0 0F23     		movs	r3, #15
 7140 2ba2 2B70     		strb	r3, [r5, #0]
 7141 2ba4 1D23     		movs	r3, #29
 7142 2ba6 2370     		strb	r3, [r4, #0]
 7143 2ba8 0121     		movs	r1, #1
 7144 2baa 4848     		ldr	r0, .L271+12
 7145 2bac FFF7FEFF 		bl	uart_transmit
 7146 2bb0 2B78     		ldrb	r3, [r5, #0]	@ zero_extendqisi2
 7147 2bb2 2278     		ldrb	r2, [r4, #0]	@ zero_extendqisi2
 7148 2bb4 1933     		adds	r3, r3, #25
 7149 2bb6 DBB2     		uxtb	r3, r3
 7150 2bb8 2B70     		strb	r3, [r5, #0]
 7151 2bba 9B18     		adds	r3, r3, r2
 7152 2bbc 2370     		strb	r3, [r4, #0]
 7153 2bbe 1921     		movs	r1, #25
 7154 2bc0 4248     		ldr	r0, .L271+12
 7155 2bc2 FFF7FEFF 		bl	uart_transmit
 7156              	.LBB518:
 7157 2bc6 3178     		ldrb	r1, [r6, #0]	@ zero_extendqisi2
 7158              	.LVL1126:
 7159 2bc8 2B78     		ldrb	r3, [r5, #0]	@ zero_extendqisi2
 7160 2bca 2278     		ldrb	r2, [r4, #0]	@ zero_extendqisi2
 7161 2bcc CB18     		adds	r3, r1, r3
 7162 2bce DBB2     		uxtb	r3, r3
 7163              	.LVL1127:
 7164 2bd0 2B70     		strb	r3, [r5, #0]
 7165 2bd2 9B18     		adds	r3, r3, r2
 7166              	.LVL1128:
 7167 2bd4 2370     		strb	r3, [r4, #0]
 7168 2bd6 3D48     		ldr	r0, .L271+12
 7169 2bd8 FFF7FEFF 		bl	uart_transmit
 7170              	.LVL1129:
 7171              	.LBE518:
 7172              	.LBB519:
 7173 2bdc 3378     		ldrb	r3, [r6, #0]	@ zero_extendqisi2
 7174 2bde 2278     		ldrb	r2, [r4, #0]	@ zero_extendqisi2
 7175 2be0 07EBC303 		add	r3, r7, r3, lsl #3
 7176 2be4 93F86610 		ldrb	r1, [r3, #102]	@ zero_extendqisi2
 7177              	.LVL1130:
 7178 2be8 2B78     		ldrb	r3, [r5, #0]	@ zero_extendqisi2
 7179 2bea 3848     		ldr	r0, .L271+12
 7180 2bec CB18     		adds	r3, r1, r3
 7181 2bee DBB2     		uxtb	r3, r3
 7182              	.LVL1131:
 7183 2bf0 2B70     		strb	r3, [r5, #0]
 7184 2bf2 9B18     		adds	r3, r3, r2
 7185              	.LVL1132:
 7186 2bf4 2370     		strb	r3, [r4, #0]
 7187 2bf6 FFF7FEFF 		bl	uart_transmit
 7188              	.LVL1133:
 7189              	.LBE519:
 7190              	.LBB520:
 7191 2bfa 3378     		ldrb	r3, [r6, #0]	@ zero_extendqisi2
 7192 2bfc 2278     		ldrb	r2, [r4, #0]	@ zero_extendqisi2
 7193 2bfe 07EBC303 		add	r3, r7, r3, lsl #3
 7194 2c02 93F86710 		ldrb	r1, [r3, #103]	@ zero_extendqisi2
 7195              	.LVL1134:
 7196 2c06 2B78     		ldrb	r3, [r5, #0]	@ zero_extendqisi2
 7197 2c08 3048     		ldr	r0, .L271+12
 7198 2c0a CB18     		adds	r3, r1, r3
 7199 2c0c DBB2     		uxtb	r3, r3
 7200              	.LVL1135:
 7201 2c0e 2B70     		strb	r3, [r5, #0]
 7202 2c10 9B18     		adds	r3, r3, r2
 7203              	.LVL1136:
 7204 2c12 2370     		strb	r3, [r4, #0]
 7205 2c14 FFF7FEFF 		bl	uart_transmit
 7206              	.LVL1137:
 7207              	.LBE520:
 7208              	.LBB521:
 7209 2c18 3378     		ldrb	r3, [r6, #0]	@ zero_extendqisi2
 7210 2c1a 2278     		ldrb	r2, [r4, #0]	@ zero_extendqisi2
 7211 2c1c 07EBC303 		add	r3, r7, r3, lsl #3
 7212 2c20 93F86810 		ldrb	r1, [r3, #104]	@ zero_extendqisi2
 7213              	.LVL1138:
 7214 2c24 2B78     		ldrb	r3, [r5, #0]	@ zero_extendqisi2
 7215 2c26 2948     		ldr	r0, .L271+12
 7216 2c28 CB18     		adds	r3, r1, r3
 7217 2c2a DBB2     		uxtb	r3, r3
 7218              	.LVL1139:
 7219 2c2c 2B70     		strb	r3, [r5, #0]
 7220 2c2e 9B18     		adds	r3, r3, r2
 7221              	.LVL1140:
 7222 2c30 2370     		strb	r3, [r4, #0]
 7223 2c32 FFF7FEFF 		bl	uart_transmit
 7224              	.LVL1141:
 7225              	.LBE521:
 7226              	.LBB522:
 7227 2c36 3378     		ldrb	r3, [r6, #0]	@ zero_extendqisi2
 7228 2c38 2278     		ldrb	r2, [r4, #0]	@ zero_extendqisi2
 7229 2c3a 07EBC303 		add	r3, r7, r3, lsl #3
 7230 2c3e 93F86910 		ldrb	r1, [r3, #105]	@ zero_extendqisi2
 7231              	.LVL1142:
 7232 2c42 2B78     		ldrb	r3, [r5, #0]	@ zero_extendqisi2
 7233 2c44 2148     		ldr	r0, .L271+12
 7234 2c46 CB18     		adds	r3, r1, r3
 7235 2c48 DBB2     		uxtb	r3, r3
 7236              	.LVL1143:
 7237 2c4a 2B70     		strb	r3, [r5, #0]
 7238 2c4c 9B18     		adds	r3, r3, r2
 7239              	.LVL1144:
 7240 2c4e 2370     		strb	r3, [r4, #0]
 7241 2c50 FFF7FEFF 		bl	uart_transmit
 7242              	.LVL1145:
 7243              	.LBE522:
 7244              	.LBB523:
 7245 2c54 3378     		ldrb	r3, [r6, #0]	@ zero_extendqisi2
 7246 2c56 2278     		ldrb	r2, [r4, #0]	@ zero_extendqisi2
 7247 2c58 07EBC303 		add	r3, r7, r3, lsl #3
 7248 2c5c 93F86A10 		ldrb	r1, [r3, #106]	@ zero_extendqisi2
 7249              	.LVL1146:
 7250 2c60 2B78     		ldrb	r3, [r5, #0]	@ zero_extendqisi2
 7251 2c62 1A48     		ldr	r0, .L271+12
 7252 2c64 CB18     		adds	r3, r1, r3
 7253 2c66 DBB2     		uxtb	r3, r3
 7254              	.LVL1147:
 7255 2c68 2B70     		strb	r3, [r5, #0]
 7256 2c6a 9B18     		adds	r3, r3, r2
 7257              	.LVL1148:
 7258 2c6c 2370     		strb	r3, [r4, #0]
 7259 2c6e FFF7FEFF 		bl	uart_transmit
 7260              	.LVL1149:
 7261              	.LBE523:
 7262              	.LBB524:
 7263 2c72 3378     		ldrb	r3, [r6, #0]	@ zero_extendqisi2
 7264 2c74 0C37     		adds	r7, r7, #12
 7265 2c76 0C33     		adds	r3, r3, #12
 7266 2c78 17F83310 		ldrb	r1, [r7, r3, lsl #3]	@ zero_extendqisi2
 7267              	.LVL1150:
 7268 2c7c 2B78     		ldrb	r3, [r5, #0]	@ zero_extendqisi2
 7269 2c7e 2278     		ldrb	r2, [r4, #0]	@ zero_extendqisi2
 7270 2c80 CB18     		adds	r3, r1, r3
 7271 2c82 DBB2     		uxtb	r3, r3
 7272              	.LVL1151:
 7273 2c84 2B70     		strb	r3, [r5, #0]
 7274 2c86 9B18     		adds	r3, r3, r2
 7275              	.LVL1152:
 7276 2c88 2370     		strb	r3, [r4, #0]
 7277 2c8a 1048     		ldr	r0, .L271+12
 7278 2c8c FFF7FEFF 		bl	uart_transmit
 7279              	.LVL1153:
 7280              	.LBE524:
 7281              	.LBB525:
 7282 2c90 3378     		ldrb	r3, [r6, #0]	@ zero_extendqisi2
 7283 2c92 2278     		ldrb	r2, [r4, #0]	@ zero_extendqisi2
 7284 2c94 07EBC307 		add	r7, r7, r3, lsl #3
 7285 2c98 97F86110 		ldrb	r1, [r7, #97]	@ zero_extendqisi2
 7286              	.LVL1154:
 7287 2c9c 2B78     		ldrb	r3, [r5, #0]	@ zero_extendqisi2
 7288 2c9e 0B48     		ldr	r0, .L271+12
 7289 2ca0 CB18     		adds	r3, r1, r3
 7290 2ca2 DBB2     		uxtb	r3, r3
 7291              	.LVL1155:
 7292 2ca4 2B70     		strb	r3, [r5, #0]
 7293 2ca6 9B18     		adds	r3, r3, r2
 7294              	.LVL1156:
 7295 2ca8 2370     		strb	r3, [r4, #0]
 7296 2caa FFF7FEFF 		bl	uart_transmit
 7297              	.LVL1157:
 7298              	.LBE525:
 7299 2cae 2978     		ldrb	r1, [r5, #0]	@ zero_extendqisi2
 7300 2cb0 0648     		ldr	r0, .L271+12
 7301 2cb2 FFF7FEFF 		bl	uart_transmit
 7302 2cb6 0548     		ldr	r0, .L271+12
 7303 2cb8 2178     		ldrb	r1, [r4, #0]	@ zero_extendqisi2
 7304 2cba FFF7FEFF 		bl	uart_transmit
 7305 2cbe 13E0     		b	.L109
 7306              	.L272:
 7307              		.align	2
 7308              	.L271:
 7309 2cc0 00000000 		.word	downlink_nb_ovrn
 7310 2cc4 00000000 		.word	gps
 7311 2cc8 00000000 		.word	.LANCHOR51
 7312 2ccc 00000000 		.word	uart2
 7313 2cd0 00000000 		.word	downlink_nb_bytes
 7314 2cd4 00000000 		.word	downlink_nb_msgs
 7315 2cd8 00000000 		.word	ck_a
 7316 2cdc 00000000 		.word	ck_b
 7317              	.LVL1158:
 7318              	.L110:
 7319              		.loc 1 422 0 discriminator 168
 7320 2ce0 794B     		ldr	r3, .L273
 7321 2ce2 1A78     		ldrb	r2, [r3, #0]	@ zero_extendqisi2
 7322 2ce4 0132     		adds	r2, r2, #1
 7323 2ce6 1A70     		strb	r2, [r3, #0]
 7324              	.L109:
 7325              		.loc 1 422 0 discriminator 165
 7326 2ce8 784B     		ldr	r3, .L273+4
 7327 2cea 1A78     		ldrb	r2, [r3, #0]	@ zero_extendqisi2
 7328 2cec 0132     		adds	r2, r2, #1
 7329 2cee 1A70     		strb	r2, [r3, #0]
 7330              	.L104:
 7331              	.LBE484:
 7332              		.loc 1 422 0 discriminator 155
 7333 2cf0 774B     		ldr	r3, .L273+8
 7334 2cf2 1B78     		ldrb	r3, [r3, #0]	@ zero_extendqisi2
 7335 2cf4 062B     		cmp	r3, #6
 7336 2cf6 40F00B81 		bne	.L111
 7337              	.LBB526:
 7338              		.loc 1 422 0 discriminator 169
 7339 2cfa 764B     		ldr	r3, .L273+12
 7340 2cfc 1A68     		ldr	r2, [r3, #0]
 7341 2cfe 0A23     		movs	r3, #10
 7342 2d00 92FBF3F3 		sdiv	r3, r2, r3
 7343 2d04 ADF81E30 		strh	r3, [sp, #30]	@ movhi
 7344              	.LVL1159:
 7345              	.LBB527:
 7346 2d08 734B     		ldr	r3, .L273+16
 7347 2d0a 1868     		ldr	r0, [r3, #0]	@ float
 7348 2d0c FFF7FEFF 		bl	__aeabi_f2iz
 7349 2d10 1421     		movs	r1, #20
 7350 2d12 ADF81C00 		strh	r0, [sp, #28]	@ movhi
 7351              	.LVL1160:
 7352 2d16 7148     		ldr	r0, .L273+20
 7353 2d18 FFF7FEFF 		bl	uart_check_free_space
 7354 2d1c 0028     		cmp	r0, #0
 7355 2d1e 00F0F380 		beq	.L112
 7356              		.loc 1 422 0 discriminator 171
 7357 2d22 6F4B     		ldr	r3, .L273+24
 7358              	.LBB528:
 7359 2d24 9921     		movs	r1, #153
 7360              	.LBE528:
 7361 2d26 1A88     		ldrh	r2, [r3, #0]
 7362              	.LBB529:
 7363 2d28 6C48     		ldr	r0, .L273+20
 7364              	.LBE529:
 7365 2d2a 1432     		adds	r2, r2, #20
 7366 2d2c 1A80     		strh	r2, [r3, #0]	@ movhi
 7367 2d2e 6D4B     		ldr	r3, .L273+28
 7368 2d30 6D4D     		ldr	r5, .L273+32
 7369 2d32 1A88     		ldrh	r2, [r3, #0]
 7370 2d34 6D4C     		ldr	r4, .L273+36
 7371 2d36 0132     		adds	r2, r2, #1
 7372 2d38 1A80     		strh	r2, [r3, #0]	@ movhi
 7373              	.LBB530:
 7374 2d3a FFF7FEFF 		bl	uart_transmit
 7375              	.LVL1161:
 7376 2d3e 1421     		movs	r1, #20
 7377 2d40 6648     		ldr	r0, .L273+20
 7378 2d42 FFF7FEFF 		bl	uart_transmit
 7379              	.LBE530:
 7380 2d46 1523     		movs	r3, #21
 7381 2d48 2B70     		strb	r3, [r5, #0]
 7382 2d4a 2923     		movs	r3, #41
 7383 2d4c 2370     		strb	r3, [r4, #0]
 7384 2d4e 0121     		movs	r1, #1
 7385 2d50 6248     		ldr	r0, .L273+20
 7386 2d52 FFF7FEFF 		bl	uart_transmit
 7387 2d56 2B78     		ldrb	r3, [r5, #0]	@ zero_extendqisi2
 7388 2d58 2278     		ldrb	r2, [r4, #0]	@ zero_extendqisi2
 7389 2d5a 0C33     		adds	r3, r3, #12
 7390 2d5c DBB2     		uxtb	r3, r3
 7391 2d5e 2B70     		strb	r3, [r5, #0]
 7392              	.LBB531:
 7393 2d60 634E     		ldr	r6, .L273+40
 7394              	.LBE531:
 7395 2d62 9B18     		adds	r3, r3, r2
 7396 2d64 2370     		strb	r3, [r4, #0]
 7397 2d66 0C21     		movs	r1, #12
 7398 2d68 5C48     		ldr	r0, .L273+20
 7399 2d6a FFF7FEFF 		bl	uart_transmit
 7400              	.LBB532:
 7401 2d6e 3178     		ldrb	r1, [r6, #0]	@ zero_extendqisi2
 7402              	.LVL1162:
 7403 2d70 2B78     		ldrb	r3, [r5, #0]	@ zero_extendqisi2
 7404 2d72 2278     		ldrb	r2, [r4, #0]	@ zero_extendqisi2
 7405 2d74 CB18     		adds	r3, r1, r3
 7406 2d76 DBB2     		uxtb	r3, r3
 7407              	.LVL1163:
 7408 2d78 2B70     		strb	r3, [r5, #0]
 7409 2d7a 9B18     		adds	r3, r3, r2
 7410              	.LVL1164:
 7411 2d7c 2370     		strb	r3, [r4, #0]
 7412 2d7e 5748     		ldr	r0, .L273+20
 7413 2d80 FFF7FEFF 		bl	uart_transmit
 7414              	.LVL1165:
 7415              	.LBE532:
 7416              	.LBB533:
 7417 2d84 7178     		ldrb	r1, [r6, #1]	@ zero_extendqisi2
 7418              	.LVL1166:
 7419 2d86 2B78     		ldrb	r3, [r5, #0]	@ zero_extendqisi2
 7420 2d88 2278     		ldrb	r2, [r4, #0]	@ zero_extendqisi2
 7421 2d8a CB18     		adds	r3, r1, r3
 7422 2d8c DBB2     		uxtb	r3, r3
 7423              	.LVL1167:
 7424 2d8e 2B70     		strb	r3, [r5, #0]
 7425 2d90 9B18     		adds	r3, r3, r2
 7426              	.LVL1168:
 7427 2d92 2370     		strb	r3, [r4, #0]
 7428 2d94 5148     		ldr	r0, .L273+20
 7429 2d96 FFF7FEFF 		bl	uart_transmit
 7430              	.LVL1169:
 7431              	.LBE533:
 7432              	.LBB534:
 7433 2d9a 564B     		ldr	r3, .L273+44
 7434 2d9c 2278     		ldrb	r2, [r4, #0]	@ zero_extendqisi2
 7435 2d9e 1978     		ldrb	r1, [r3, #0]	@ zero_extendqisi2
 7436              	.LVL1170:
 7437 2da0 2B78     		ldrb	r3, [r5, #0]	@ zero_extendqisi2
 7438 2da2 4E48     		ldr	r0, .L273+20
 7439 2da4 CB18     		adds	r3, r1, r3
 7440 2da6 DBB2     		uxtb	r3, r3
 7441              	.LVL1171:
 7442 2da8 2B70     		strb	r3, [r5, #0]
 7443 2daa 9B18     		adds	r3, r3, r2
 7444              	.LVL1172:
 7445 2dac 2370     		strb	r3, [r4, #0]
 7446 2dae FFF7FEFF 		bl	uart_transmit
 7447              	.LVL1173:
 7448              	.LBE534:
 7449              	.LBB535:
 7450 2db2 9DF81E10 		ldrb	r1, [sp, #30]	@ zero_extendqisi2
 7451              	.LVL1174:
 7452 2db6 2B78     		ldrb	r3, [r5, #0]	@ zero_extendqisi2
 7453 2db8 2278     		ldrb	r2, [r4, #0]	@ zero_extendqisi2
 7454 2dba CB18     		adds	r3, r1, r3
 7455 2dbc DBB2     		uxtb	r3, r3
 7456              	.LVL1175:
 7457 2dbe 2B70     		strb	r3, [r5, #0]
 7458 2dc0 9B18     		adds	r3, r3, r2
 7459              	.LVL1176:
 7460 2dc2 2370     		strb	r3, [r4, #0]
 7461 2dc4 4548     		ldr	r0, .L273+20
 7462 2dc6 FFF7FEFF 		bl	uart_transmit
 7463              	.LVL1177:
 7464              	.LBE535:
 7465              	.LBB536:
 7466 2dca 9DF81F10 		ldrb	r1, [sp, #31]	@ zero_extendqisi2
 7467              	.LVL1178:
 7468 2dce 2B78     		ldrb	r3, [r5, #0]	@ zero_extendqisi2
 7469 2dd0 2278     		ldrb	r2, [r4, #0]	@ zero_extendqisi2
 7470 2dd2 CB18     		adds	r3, r1, r3
 7471 2dd4 DBB2     		uxtb	r3, r3
 7472              	.LVL1179:
 7473 2dd6 2B70     		strb	r3, [r5, #0]
 7474              	.LBE536:
 7475              	.LBB537:
 7476 2dd8 474E     		ldr	r6, .L273+48
 7477              	.LBE537:
 7478              	.LBB538:
 7479 2dda 9B18     		adds	r3, r3, r2
 7480              	.LVL1180:
 7481 2ddc 2370     		strb	r3, [r4, #0]
 7482 2dde 3F48     		ldr	r0, .L273+20
 7483 2de0 FFF7FEFF 		bl	uart_transmit
 7484              	.LVL1181:
 7485              	.LBE538:
 7486              	.LBB539:
 7487 2de4 3178     		ldrb	r1, [r6, #0]	@ zero_extendqisi2
 7488              	.LVL1182:
 7489 2de6 2B78     		ldrb	r3, [r5, #0]	@ zero_extendqisi2
 7490 2de8 2278     		ldrb	r2, [r4, #0]	@ zero_extendqisi2
 7491 2dea CB18     		adds	r3, r1, r3
 7492 2dec DBB2     		uxtb	r3, r3
 7493              	.LVL1183:
 7494 2dee 2B70     		strb	r3, [r5, #0]
 7495 2df0 9B18     		adds	r3, r3, r2
 7496              	.LVL1184:
 7497 2df2 2370     		strb	r3, [r4, #0]
 7498 2df4 3948     		ldr	r0, .L273+20
 7499 2df6 FFF7FEFF 		bl	uart_transmit
 7500              	.LVL1185:
 7501              	.LBE539:
 7502              	.LBB540:
 7503 2dfa 7178     		ldrb	r1, [r6, #1]	@ zero_extendqisi2
 7504              	.LVL1186:
 7505 2dfc 2B78     		ldrb	r3, [r5, #0]	@ zero_extendqisi2
 7506 2dfe 2278     		ldrb	r2, [r4, #0]	@ zero_extendqisi2
 7507 2e00 CB18     		adds	r3, r1, r3
 7508 2e02 DBB2     		uxtb	r3, r3
 7509              	.LVL1187:
 7510 2e04 2B70     		strb	r3, [r5, #0]
 7511 2e06 9B18     		adds	r3, r3, r2
 7512              	.LVL1188:
 7513 2e08 2370     		strb	r3, [r4, #0]
 7514 2e0a 3448     		ldr	r0, .L273+20
 7515 2e0c FFF7FEFF 		bl	uart_transmit
 7516              	.LVL1189:
 7517              	.LBE540:
 7518              	.LBB541:
 7519 2e10 3A4B     		ldr	r3, .L273+52
 7520 2e12 2278     		ldrb	r2, [r4, #0]	@ zero_extendqisi2
 7521 2e14 1978     		ldrb	r1, [r3, #0]	@ zero_extendqisi2
 7522              	.LVL1190:
 7523 2e16 2B78     		ldrb	r3, [r5, #0]	@ zero_extendqisi2
 7524              	.LBE541:
 7525              	.LBB542:
 7526 2e18 394E     		ldr	r6, .L273+56
 7527              	.LBE542:
 7528              	.LBB543:
 7529 2e1a CB18     		adds	r3, r1, r3
 7530 2e1c DBB2     		uxtb	r3, r3
 7531              	.LVL1191:
 7532 2e1e 2B70     		strb	r3, [r5, #0]
 7533 2e20 9B18     		adds	r3, r3, r2
 7534              	.LVL1192:
 7535 2e22 2370     		strb	r3, [r4, #0]
 7536 2e24 2D48     		ldr	r0, .L273+20
 7537 2e26 FFF7FEFF 		bl	uart_transmit
 7538              	.LVL1193:
 7539              	.LBE543:
 7540              	.LBB544:
 7541 2e2a 3178     		ldrb	r1, [r6, #0]	@ zero_extendqisi2
 7542              	.LVL1194:
 7543 2e2c 2B78     		ldrb	r3, [r5, #0]	@ zero_extendqisi2
 7544 2e2e 2278     		ldrb	r2, [r4, #0]	@ zero_extendqisi2
 7545 2e30 CB18     		adds	r3, r1, r3
 7546 2e32 DBB2     		uxtb	r3, r3
 7547              	.LVL1195:
 7548 2e34 2B70     		strb	r3, [r5, #0]
 7549 2e36 9B18     		adds	r3, r3, r2
 7550              	.LVL1196:
 7551 2e38 2370     		strb	r3, [r4, #0]
 7552 2e3a 2848     		ldr	r0, .L273+20
 7553 2e3c FFF7FEFF 		bl	uart_transmit
 7554              	.LVL1197:
 7555              	.LBE544:
 7556              	.LBB545:
 7557 2e40 7178     		ldrb	r1, [r6, #1]	@ zero_extendqisi2
 7558              	.LVL1198:
 7559 2e42 2B78     		ldrb	r3, [r5, #0]	@ zero_extendqisi2
 7560 2e44 2278     		ldrb	r2, [r4, #0]	@ zero_extendqisi2
 7561 2e46 CB18     		adds	r3, r1, r3
 7562 2e48 DBB2     		uxtb	r3, r3
 7563              	.LVL1199:
 7564 2e4a 2B70     		strb	r3, [r5, #0]
 7565              	.LBE545:
 7566              	.LBB546:
 7567 2e4c 2D4E     		ldr	r6, .L273+60
 7568              	.LBE546:
 7569              	.LBB547:
 7570 2e4e 9B18     		adds	r3, r3, r2
 7571              	.LVL1200:
 7572 2e50 2370     		strb	r3, [r4, #0]
 7573 2e52 2248     		ldr	r0, .L273+20
 7574 2e54 FFF7FEFF 		bl	uart_transmit
 7575              	.LVL1201:
 7576              	.LBE547:
 7577              	.LBB548:
 7578 2e58 3178     		ldrb	r1, [r6, #0]	@ zero_extendqisi2
 7579              	.LVL1202:
 7580 2e5a 2B78     		ldrb	r3, [r5, #0]	@ zero_extendqisi2
 7581 2e5c 2278     		ldrb	r2, [r4, #0]	@ zero_extendqisi2
 7582 2e5e CB18     		adds	r3, r1, r3
 7583 2e60 DBB2     		uxtb	r3, r3
 7584              	.LVL1203:
 7585 2e62 2B70     		strb	r3, [r5, #0]
 7586 2e64 9B18     		adds	r3, r3, r2
 7587              	.LVL1204:
 7588 2e66 2370     		strb	r3, [r4, #0]
 7589 2e68 1C48     		ldr	r0, .L273+20
 7590 2e6a FFF7FEFF 		bl	uart_transmit
 7591              	.LVL1205:
 7592              	.LBE548:
 7593              	.LBB549:
 7594 2e6e 7178     		ldrb	r1, [r6, #1]	@ zero_extendqisi2
 7595              	.LVL1206:
 7596 2e70 2B78     		ldrb	r3, [r5, #0]	@ zero_extendqisi2
 7597 2e72 2278     		ldrb	r2, [r4, #0]	@ zero_extendqisi2
 7598 2e74 CB18     		adds	r3, r1, r3
 7599 2e76 DBB2     		uxtb	r3, r3
 7600              	.LVL1207:
 7601 2e78 2B70     		strb	r3, [r5, #0]
 7602 2e7a 9B18     		adds	r3, r3, r2
 7603              	.LVL1208:
 7604 2e7c 2370     		strb	r3, [r4, #0]
 7605 2e7e 1748     		ldr	r0, .L273+20
 7606 2e80 FFF7FEFF 		bl	uart_transmit
 7607              	.LVL1209:
 7608              	.LBE549:
 7609              	.LBB550:
 7610 2e84 9DF81C10 		ldrb	r1, [sp, #28]	@ zero_extendqisi2
 7611              	.LVL1210:
 7612 2e88 2B78     		ldrb	r3, [r5, #0]	@ zero_extendqisi2
 7613 2e8a 2278     		ldrb	r2, [r4, #0]	@ zero_extendqisi2
 7614 2e8c CB18     		adds	r3, r1, r3
 7615 2e8e DBB2     		uxtb	r3, r3
 7616              	.LVL1211:
 7617 2e90 2B70     		strb	r3, [r5, #0]
 7618 2e92 9B18     		adds	r3, r3, r2
 7619              	.LVL1212:
 7620 2e94 2370     		strb	r3, [r4, #0]
 7621 2e96 1148     		ldr	r0, .L273+20
 7622 2e98 FFF7FEFF 		bl	uart_transmit
 7623              	.LVL1213:
 7624              	.LBE550:
 7625              	.LBB551:
 7626 2e9c 9DF81D10 		ldrb	r1, [sp, #29]	@ zero_extendqisi2
 7627              	.LVL1214:
 7628 2ea0 2B78     		ldrb	r3, [r5, #0]	@ zero_extendqisi2
 7629 2ea2 2278     		ldrb	r2, [r4, #0]	@ zero_extendqisi2
 7630 2ea4 CB18     		adds	r3, r1, r3
 7631 2ea6 DBB2     		uxtb	r3, r3
 7632              	.LVL1215:
 7633 2ea8 2B70     		strb	r3, [r5, #0]
 7634 2eaa 9B18     		adds	r3, r3, r2
 7635              	.LVL1216:
 7636 2eac 2370     		strb	r3, [r4, #0]
 7637 2eae 0B48     		ldr	r0, .L273+20
 7638 2eb0 FFF7FEFF 		bl	uart_transmit
 7639              	.LVL1217:
 7640              	.LBE551:
 7641 2eb4 2978     		ldrb	r1, [r5, #0]	@ zero_extendqisi2
 7642 2eb6 0948     		ldr	r0, .L273+20
 7643 2eb8 FFF7FEFF 		bl	uart_transmit
 7644 2ebc 0748     		ldr	r0, .L273+20
 7645 2ebe 2178     		ldrb	r1, [r4, #0]	@ zero_extendqisi2
 7646 2ec0 FFF7FEFF 		bl	uart_transmit
 7647 2ec4 24E0     		b	.L111
 7648              	.L274:
 7649 2ec6 00BF     		.align	2
 7650              	.L273:
 7651 2ec8 00000000 		.word	downlink_nb_ovrn
 7652 2ecc 00000000 		.word	.LANCHOR51
 7653 2ed0 00000000 		.word	.LANCHOR36
 7654 2ed4 00000000 		.word	.LANCHOR24
 7655 2ed8 00000000 		.word	.LANCHOR25
 7656 2edc 00000000 		.word	uart2
 7657 2ee0 00000000 		.word	downlink_nb_bytes
 7658 2ee4 00000000 		.word	downlink_nb_msgs
 7659 2ee8 00000000 		.word	ck_a
 7660 2eec 00000000 		.word	ck_b
 7661 2ef0 00000000 		.word	v_ctl_throttle_slewed
 7662 2ef4 00000000 		.word	.LANCHOR26
 7663 2ef8 00000000 		.word	estimator_flight_time
 7664 2efc 00000000 		.word	.LANCHOR27
 7665 2f00 00000000 		.word	block_time
 7666 2f04 00000000 		.word	stage_time
 7667              	.LVL1218:
 7668              	.L112:
 7669              		.loc 1 422 0 discriminator 172
 7670 2f08 4B4B     		ldr	r3, .L275
 7671 2f0a 1A78     		ldrb	r2, [r3, #0]	@ zero_extendqisi2
 7672 2f0c 0132     		adds	r2, r2, #1
 7673 2f0e 1A70     		strb	r2, [r3, #0]
 7674              	.L111:
 7675              	.LBE527:
 7676              	.LBE526:
 7677              		.loc 1 422 0 discriminator 170
 7678 2f10 4A4B     		ldr	r3, .L275+4
 7679 2f12 1B78     		ldrb	r3, [r3, #0]	@ zero_extendqisi2
 7680 2f14 0C2B     		cmp	r3, #12
 7681 2f16 40F0A580 		bne	.L113
 7682              		.loc 1 422 0 discriminator 173
 7683 2f1a 4948     		ldr	r0, .L275+8
 7684 2f1c 0E21     		movs	r1, #14
 7685 2f1e FFF7FEFF 		bl	uart_check_free_space
 7686 2f22 0028     		cmp	r0, #0
 7687 2f24 00F09A80 		beq	.L114
 7688              		.loc 1 422 0 discriminator 175
 7689 2f28 464B     		ldr	r3, .L275+12
 7690              	.LBB552:
 7691 2f2a 9921     		movs	r1, #153
 7692              	.LBE552:
 7693 2f2c 1A88     		ldrh	r2, [r3, #0]
 7694              	.LBB553:
 7695 2f2e 4448     		ldr	r0, .L275+8
 7696              	.LBE553:
 7697 2f30 0E32     		adds	r2, r2, #14
 7698 2f32 1A80     		strh	r2, [r3, #0]	@ movhi
 7699 2f34 444B     		ldr	r3, .L275+16
 7700 2f36 454D     		ldr	r5, .L275+20
 7701 2f38 1A88     		ldrh	r2, [r3, #0]
 7702 2f3a 454C     		ldr	r4, .L275+24
 7703 2f3c 0132     		adds	r2, r2, #1
 7704 2f3e 1A80     		strh	r2, [r3, #0]	@ movhi
 7705              	.LBB554:
 7706 2f40 FFF7FEFF 		bl	uart_transmit
 7707              	.LVL1219:
 7708 2f44 0E21     		movs	r1, #14
 7709 2f46 3E48     		ldr	r0, .L275+8
 7710 2f48 FFF7FEFF 		bl	uart_transmit
 7711              	.LBE554:
 7712 2f4c 0F23     		movs	r3, #15
 7713 2f4e 2B70     		strb	r3, [r5, #0]
 7714 2f50 1D23     		movs	r3, #29
 7715 2f52 2370     		strb	r3, [r4, #0]
 7716 2f54 0121     		movs	r1, #1
 7717 2f56 3A48     		ldr	r0, .L275+8
 7718 2f58 FFF7FEFF 		bl	uart_transmit
 7719 2f5c 2B78     		ldrb	r3, [r5, #0]	@ zero_extendqisi2
 7720 2f5e 2278     		ldrb	r2, [r4, #0]	@ zero_extendqisi2
 7721 2f60 2A33     		adds	r3, r3, #42
 7722 2f62 DBB2     		uxtb	r3, r3
 7723              	.LBB555:
 7724 2f64 3B4E     		ldr	r6, .L275+28
 7725              	.LBE555:
 7726 2f66 2B70     		strb	r3, [r5, #0]
 7727 2f68 9B18     		adds	r3, r3, r2
 7728 2f6a 2370     		strb	r3, [r4, #0]
 7729 2f6c 2A21     		movs	r1, #42
 7730 2f6e 3448     		ldr	r0, .L275+8
 7731 2f70 FFF7FEFF 		bl	uart_transmit
 7732              	.LBB556:
 7733 2f74 3178     		ldrb	r1, [r6, #0]	@ zero_extendqisi2
 7734              	.LVL1220:
 7735 2f76 2B78     		ldrb	r3, [r5, #0]	@ zero_extendqisi2
 7736 2f78 2278     		ldrb	r2, [r4, #0]	@ zero_extendqisi2
 7737 2f7a CB18     		adds	r3, r1, r3
 7738 2f7c DBB2     		uxtb	r3, r3
 7739              	.LVL1221:
 7740 2f7e 2B70     		strb	r3, [r5, #0]
 7741 2f80 9B18     		adds	r3, r3, r2
 7742              	.LVL1222:
 7743 2f82 2370     		strb	r3, [r4, #0]
 7744 2f84 2E48     		ldr	r0, .L275+8
 7745 2f86 FFF7FEFF 		bl	uart_transmit
 7746              	.LVL1223:
 7747              	.LBE556:
 7748              	.LBB557:
 7749 2f8a 7178     		ldrb	r1, [r6, #1]	@ zero_extendqisi2
 7750              	.LVL1224:
 7751 2f8c 2B78     		ldrb	r3, [r5, #0]	@ zero_extendqisi2
 7752 2f8e 2278     		ldrb	r2, [r4, #0]	@ zero_extendqisi2
 7753 2f90 CB18     		adds	r3, r1, r3
 7754 2f92 DBB2     		uxtb	r3, r3
 7755              	.LVL1225:
 7756 2f94 2B70     		strb	r3, [r5, #0]
 7757 2f96 9B18     		adds	r3, r3, r2
 7758              	.LVL1226:
 7759 2f98 2370     		strb	r3, [r4, #0]
 7760 2f9a 2948     		ldr	r0, .L275+8
 7761 2f9c FFF7FEFF 		bl	uart_transmit
 7762              	.LVL1227:
 7763              	.LBE557:
 7764              	.LBB558:
 7765 2fa0 B178     		ldrb	r1, [r6, #2]	@ zero_extendqisi2
 7766              	.LVL1228:
 7767 2fa2 2B78     		ldrb	r3, [r5, #0]	@ zero_extendqisi2
 7768 2fa4 2278     		ldrb	r2, [r4, #0]	@ zero_extendqisi2
 7769 2fa6 CB18     		adds	r3, r1, r3
 7770 2fa8 DBB2     		uxtb	r3, r3
 7771              	.LVL1229:
 7772 2faa 2B70     		strb	r3, [r5, #0]
 7773 2fac 9B18     		adds	r3, r3, r2
 7774              	.LVL1230:
 7775 2fae 2370     		strb	r3, [r4, #0]
 7776 2fb0 2348     		ldr	r0, .L275+8
 7777 2fb2 FFF7FEFF 		bl	uart_transmit
 7778              	.LVL1231:
 7779              	.LBE558:
 7780              	.LBB559:
 7781 2fb6 F178     		ldrb	r1, [r6, #3]	@ zero_extendqisi2
 7782              	.LVL1232:
 7783 2fb8 2B78     		ldrb	r3, [r5, #0]	@ zero_extendqisi2
 7784 2fba 2278     		ldrb	r2, [r4, #0]	@ zero_extendqisi2
 7785 2fbc CB18     		adds	r3, r1, r3
 7786 2fbe DBB2     		uxtb	r3, r3
 7787              	.LBE559:
 7788              	.LBB560:
 7789 2fc0 254E     		ldr	r6, .L275+32
 7790              	.LVL1233:
 7791              	.LBE560:
 7792              	.LBB561:
 7793 2fc2 2B70     		strb	r3, [r5, #0]
 7794 2fc4 9B18     		adds	r3, r3, r2
 7795              	.LVL1234:
 7796 2fc6 2370     		strb	r3, [r4, #0]
 7797 2fc8 1D48     		ldr	r0, .L275+8
 7798 2fca FFF7FEFF 		bl	uart_transmit
 7799              	.LVL1235:
 7800              	.LBE561:
 7801              	.LBB562:
 7802 2fce 3178     		ldrb	r1, [r6, #0]	@ zero_extendqisi2
 7803              	.LVL1236:
 7804 2fd0 2B78     		ldrb	r3, [r5, #0]	@ zero_extendqisi2
 7805 2fd2 2278     		ldrb	r2, [r4, #0]	@ zero_extendqisi2
 7806 2fd4 CB18     		adds	r3, r1, r3
 7807 2fd6 DBB2     		uxtb	r3, r3
 7808              	.LVL1237:
 7809 2fd8 2B70     		strb	r3, [r5, #0]
 7810 2fda 9B18     		adds	r3, r3, r2
 7811              	.LVL1238:
 7812 2fdc 2370     		strb	r3, [r4, #0]
 7813 2fde 1848     		ldr	r0, .L275+8
 7814 2fe0 FFF7FEFF 		bl	uart_transmit
 7815              	.LVL1239:
 7816              	.LBE562:
 7817              	.LBB563:
 7818 2fe4 7178     		ldrb	r1, [r6, #1]	@ zero_extendqisi2
 7819              	.LVL1240:
 7820 2fe6 2B78     		ldrb	r3, [r5, #0]	@ zero_extendqisi2
 7821 2fe8 2278     		ldrb	r2, [r4, #0]	@ zero_extendqisi2
 7822 2fea CB18     		adds	r3, r1, r3
 7823 2fec DBB2     		uxtb	r3, r3
 7824              	.LVL1241:
 7825 2fee 2B70     		strb	r3, [r5, #0]
 7826 2ff0 9B18     		adds	r3, r3, r2
 7827              	.LVL1242:
 7828 2ff2 2370     		strb	r3, [r4, #0]
 7829 2ff4 1248     		ldr	r0, .L275+8
 7830 2ff6 FFF7FEFF 		bl	uart_transmit
 7831              	.LVL1243:
 7832              	.LBE563:
 7833              	.LBB564:
 7834 2ffa B178     		ldrb	r1, [r6, #2]	@ zero_extendqisi2
 7835              	.LVL1244:
 7836 2ffc 2B78     		ldrb	r3, [r5, #0]	@ zero_extendqisi2
 7837 2ffe 2278     		ldrb	r2, [r4, #0]	@ zero_extendqisi2
 7838 3000 CB18     		adds	r3, r1, r3
 7839 3002 DBB2     		uxtb	r3, r3
 7840              	.LVL1245:
 7841 3004 2B70     		strb	r3, [r5, #0]
 7842 3006 9B18     		adds	r3, r3, r2
 7843              	.LVL1246:
 7844 3008 2370     		strb	r3, [r4, #0]
 7845 300a 0D48     		ldr	r0, .L275+8
 7846 300c FFF7FEFF 		bl	uart_transmit
 7847              	.LVL1247:
 7848              	.LBE564:
 7849              	.LBB565:
 7850 3010 F178     		ldrb	r1, [r6, #3]	@ zero_extendqisi2
 7851              	.LVL1248:
 7852 3012 2B78     		ldrb	r3, [r5, #0]	@ zero_extendqisi2
 7853 3014 2278     		ldrb	r2, [r4, #0]	@ zero_extendqisi2
 7854 3016 CB18     		adds	r3, r1, r3
 7855 3018 DBB2     		uxtb	r3, r3
 7856              	.LVL1249:
 7857 301a 2B70     		strb	r3, [r5, #0]
 7858 301c 9B18     		adds	r3, r3, r2
 7859              	.LVL1250:
 7860 301e 2370     		strb	r3, [r4, #0]
 7861 3020 0748     		ldr	r0, .L275+8
 7862 3022 FFF7FEFF 		bl	uart_transmit
 7863              	.LVL1251:
 7864              	.LBE565:
 7865 3026 2978     		ldrb	r1, [r5, #0]	@ zero_extendqisi2
 7866 3028 0548     		ldr	r0, .L275+8
 7867 302a FFF7FEFF 		bl	uart_transmit
 7868 302e 0448     		ldr	r0, .L275+8
 7869 3030 2178     		ldrb	r1, [r4, #0]	@ zero_extendqisi2
 7870 3032 FFF7FEFF 		bl	uart_transmit
 7871 3036 15E0     		b	.L113
 7872              	.L276:
 7873              		.align	2
 7874              	.L275:
 7875 3038 00000000 		.word	downlink_nb_ovrn
 7876 303c 00000000 		.word	.LANCHOR37
 7877 3040 00000000 		.word	uart2
 7878 3044 00000000 		.word	downlink_nb_bytes
 7879 3048 00000000 		.word	downlink_nb_msgs
 7880 304c 00000000 		.word	ck_a
 7881 3050 00000000 		.word	ck_b
 7882 3054 00000000 		.word	estimator_z
 7883 3058 00000000 		.word	estimator_z_dot
 7884              	.LVL1252:
 7885              	.L114:
 7886              		.loc 1 422 0 discriminator 176
 7887 305c 9F4B     		ldr	r3, .L277
 7888 305e 1A78     		ldrb	r2, [r3, #0]	@ zero_extendqisi2
 7889 3060 0132     		adds	r2, r2, #1
 7890 3062 1A70     		strb	r2, [r3, #0]
 7891              	.L113:
 7892              		.loc 1 422 0 discriminator 174
 7893 3064 9E4B     		ldr	r3, .L277+4
 7894 3066 1B78     		ldrb	r3, [r3, #0]	@ zero_extendqisi2
 7895 3068 122B     		cmp	r3, #18
 7896 306a 40F01081 		bne	.L115
 7897              	.LBB566:
 7898              		.loc 1 422 0 discriminator 177
 7899 306e 9D4B     		ldr	r3, .L277+8
 7900 3070 9D49     		ldr	r1, .L277+12
 7901 3072 1A78     		ldrb	r2, [r3, #0]	@ zero_extendqisi2
 7902 3074 0978     		ldrb	r1, [r1, #0]	@ zero_extendqisi2
 7903 3076 0132     		adds	r2, r2, #1
 7904 3078 D2B2     		uxtb	r2, r2
 7905 307a 9142     		cmp	r1, r2
 7906 307c 1A70     		strb	r2, [r3, #0]
 7907 307e 01D8     		bhi	.L116
 7908              		.loc 1 422 0 discriminator 179
 7909 3080 0022     		movs	r2, #0
 7910 3082 1A70     		strb	r2, [r3, #0]
 7911              	.L116:
 7912              	.LBB567:
 7913              		.loc 1 422 0 discriminator 180
 7914 3084 1C78     		ldrb	r4, [r3, #0]	@ zero_extendqisi2
 7915 3086 994B     		ldr	r3, .L277+16
 7916 3088 0C27     		movs	r7, #12
 7917 308a 1868     		ldr	r0, [r3, #0]
 7918 308c FFF7FEFF 		bl	__aeabi_i2f
 7919 3090 07FB04F3 		mul	r3, r7, r4
 7920 3094 964E     		ldr	r6, .L277+20
 7921 3096 DFF84C82 		ldr	r8, .L277+8
 7922 309a F158     		ldr	r1, [r6, r3]	@ float
 7923 309c F418     		adds	r4, r6, r3
 7924 309e FFF7FEFF 		bl	__aeabi_fadd
 7925 30a2 944B     		ldr	r3, .L277+24
 7926 30a4 0690     		str	r0, [sp, #24]	@ float
 7927              	.LVL1253:
 7928 30a6 1868     		ldr	r0, [r3, #0]
 7929 30a8 FFF7FEFF 		bl	__aeabi_i2f
 7930 30ac 6168     		ldr	r1, [r4, #4]	@ float
 7931 30ae FFF7FEFF 		bl	__aeabi_fadd
 7932 30b2 1421     		movs	r1, #20
 7933 30b4 0490     		str	r0, [sp, #16]	@ float
 7934              	.LVL1254:
 7935 30b6 9048     		ldr	r0, .L277+28
 7936 30b8 FFF7FEFF 		bl	uart_check_free_space
 7937 30bc 0028     		cmp	r0, #0
 7938 30be 00F0E280 		beq	.L117
 7939              		.loc 1 422 0 discriminator 181
 7940 30c2 8E4B     		ldr	r3, .L277+32
 7941              	.LBB568:
 7942 30c4 9921     		movs	r1, #153
 7943              	.LBE568:
 7944 30c6 1A88     		ldrh	r2, [r3, #0]
 7945              	.LBB569:
 7946 30c8 8B48     		ldr	r0, .L277+28
 7947              	.LBE569:
 7948 30ca 1432     		adds	r2, r2, #20
 7949 30cc 1A80     		strh	r2, [r3, #0]	@ movhi
 7950 30ce 8C4B     		ldr	r3, .L277+36
 7951 30d0 8C4D     		ldr	r5, .L277+40
 7952 30d2 1A88     		ldrh	r2, [r3, #0]
 7953 30d4 8C4C     		ldr	r4, .L277+44
 7954 30d6 0132     		adds	r2, r2, #1
 7955 30d8 1A80     		strh	r2, [r3, #0]	@ movhi
 7956              	.LBB570:
 7957 30da FFF7FEFF 		bl	uart_transmit
 7958              	.LVL1255:
 7959 30de 1421     		movs	r1, #20
 7960 30e0 8548     		ldr	r0, .L277+28
 7961 30e2 FFF7FEFF 		bl	uart_transmit
 7962              	.LBE570:
 7963 30e6 1523     		movs	r3, #21
 7964 30e8 2B70     		strb	r3, [r5, #0]
 7965 30ea 2923     		movs	r3, #41
 7966 30ec 2370     		strb	r3, [r4, #0]
 7967 30ee 0121     		movs	r1, #1
 7968 30f0 8148     		ldr	r0, .L277+28
 7969 30f2 FFF7FEFF 		bl	uart_transmit
 7970 30f6 2B78     		ldrb	r3, [r5, #0]	@ zero_extendqisi2
 7971 30f8 2278     		ldrb	r2, [r4, #0]	@ zero_extendqisi2
 7972 30fa 2333     		adds	r3, r3, #35
 7973 30fc DBB2     		uxtb	r3, r3
 7974 30fe 2B70     		strb	r3, [r5, #0]
 7975 3100 9B18     		adds	r3, r3, r2
 7976 3102 2370     		strb	r3, [r4, #0]
 7977 3104 2321     		movs	r1, #35
 7978 3106 7C48     		ldr	r0, .L277+28
 7979 3108 FFF7FEFF 		bl	uart_transmit
 7980              	.LBB571:
 7981 310c 98F80010 		ldrb	r1, [r8, #0]	@ zero_extendqisi2
 7982              	.LVL1256:
 7983 3110 2B78     		ldrb	r3, [r5, #0]	@ zero_extendqisi2
 7984 3112 2278     		ldrb	r2, [r4, #0]	@ zero_extendqisi2
 7985 3114 CB18     		adds	r3, r1, r3
 7986 3116 DBB2     		uxtb	r3, r3
 7987              	.LVL1257:
 7988 3118 2B70     		strb	r3, [r5, #0]
 7989 311a 9B18     		adds	r3, r3, r2
 7990              	.LVL1258:
 7991 311c 2370     		strb	r3, [r4, #0]
 7992 311e 7648     		ldr	r0, .L277+28
 7993 3120 FFF7FEFF 		bl	uart_transmit
 7994              	.LVL1259:
 7995              	.LBE571:
 7996              	.LBB572:
 7997 3124 9DF81810 		ldrb	r1, [sp, #24]	@ zero_extendqisi2
 7998              	.LVL1260:
 7999 3128 2B78     		ldrb	r3, [r5, #0]	@ zero_extendqisi2
 8000 312a 2278     		ldrb	r2, [r4, #0]	@ zero_extendqisi2
 8001 312c CB18     		adds	r3, r1, r3
 8002 312e DBB2     		uxtb	r3, r3
 8003              	.LVL1261:
 8004 3130 2B70     		strb	r3, [r5, #0]
 8005 3132 9B18     		adds	r3, r3, r2
 8006              	.LVL1262:
 8007 3134 2370     		strb	r3, [r4, #0]
 8008 3136 7048     		ldr	r0, .L277+28
 8009 3138 FFF7FEFF 		bl	uart_transmit
 8010              	.LVL1263:
 8011              	.LBE572:
 8012              	.LBB573:
 8013 313c 9DF81910 		ldrb	r1, [sp, #25]	@ zero_extendqisi2
 8014              	.LVL1264:
 8015 3140 2B78     		ldrb	r3, [r5, #0]	@ zero_extendqisi2
 8016 3142 2278     		ldrb	r2, [r4, #0]	@ zero_extendqisi2
 8017 3144 CB18     		adds	r3, r1, r3
 8018 3146 DBB2     		uxtb	r3, r3
 8019              	.LVL1265:
 8020 3148 2B70     		strb	r3, [r5, #0]
 8021 314a 9B18     		adds	r3, r3, r2
 8022              	.LVL1266:
 8023 314c 2370     		strb	r3, [r4, #0]
 8024 314e 6A48     		ldr	r0, .L277+28
 8025 3150 FFF7FEFF 		bl	uart_transmit
 8026              	.LVL1267:
 8027              	.LBE573:
 8028              	.LBB574:
 8029 3154 9DF81A10 		ldrb	r1, [sp, #26]	@ zero_extendqisi2
 8030              	.LVL1268:
 8031 3158 2B78     		ldrb	r3, [r5, #0]	@ zero_extendqisi2
 8032 315a 2278     		ldrb	r2, [r4, #0]	@ zero_extendqisi2
 8033 315c CB18     		adds	r3, r1, r3
 8034 315e DBB2     		uxtb	r3, r3
 8035              	.LVL1269:
 8036 3160 2B70     		strb	r3, [r5, #0]
 8037 3162 9B18     		adds	r3, r3, r2
 8038              	.LVL1270:
 8039 3164 2370     		strb	r3, [r4, #0]
 8040 3166 6448     		ldr	r0, .L277+28
 8041 3168 FFF7FEFF 		bl	uart_transmit
 8042              	.LVL1271:
 8043              	.LBE574:
 8044              	.LBB575:
 8045 316c 9DF81B10 		ldrb	r1, [sp, #27]	@ zero_extendqisi2
 8046              	.LVL1272:
 8047 3170 2B78     		ldrb	r3, [r5, #0]	@ zero_extendqisi2
 8048 3172 2278     		ldrb	r2, [r4, #0]	@ zero_extendqisi2
 8049 3174 CB18     		adds	r3, r1, r3
 8050 3176 DBB2     		uxtb	r3, r3
 8051              	.LVL1273:
 8052 3178 2B70     		strb	r3, [r5, #0]
 8053 317a 9B18     		adds	r3, r3, r2
 8054              	.LVL1274:
 8055 317c 2370     		strb	r3, [r4, #0]
 8056 317e 5E48     		ldr	r0, .L277+28
 8057 3180 FFF7FEFF 		bl	uart_transmit
 8058              	.LVL1275:
 8059              	.LBE575:
 8060              	.LBB576:
 8061 3184 9DF81010 		ldrb	r1, [sp, #16]	@ zero_extendqisi2
 8062              	.LVL1276:
 8063 3188 2B78     		ldrb	r3, [r5, #0]	@ zero_extendqisi2
 8064 318a 2278     		ldrb	r2, [r4, #0]	@ zero_extendqisi2
 8065 318c CB18     		adds	r3, r1, r3
 8066 318e DBB2     		uxtb	r3, r3
 8067              	.LVL1277:
 8068 3190 2B70     		strb	r3, [r5, #0]
 8069 3192 9B18     		adds	r3, r3, r2
 8070              	.LVL1278:
 8071 3194 2370     		strb	r3, [r4, #0]
 8072 3196 5848     		ldr	r0, .L277+28
 8073 3198 FFF7FEFF 		bl	uart_transmit
 8074              	.LVL1279:
 8075              	.LBE576:
 8076              	.LBB577:
 8077 319c 9DF81110 		ldrb	r1, [sp, #17]	@ zero_extendqisi2
 8078              	.LVL1280:
 8079 31a0 2B78     		ldrb	r3, [r5, #0]	@ zero_extendqisi2
 8080 31a2 2278     		ldrb	r2, [r4, #0]	@ zero_extendqisi2
 8081 31a4 CB18     		adds	r3, r1, r3
 8082 31a6 DBB2     		uxtb	r3, r3
 8083              	.LVL1281:
 8084 31a8 2B70     		strb	r3, [r5, #0]
 8085 31aa 9B18     		adds	r3, r3, r2
 8086              	.LVL1282:
 8087 31ac 2370     		strb	r3, [r4, #0]
 8088 31ae 5248     		ldr	r0, .L277+28
 8089 31b0 FFF7FEFF 		bl	uart_transmit
 8090              	.LVL1283:
 8091              	.LBE577:
 8092              	.LBB578:
 8093 31b4 9DF81210 		ldrb	r1, [sp, #18]	@ zero_extendqisi2
 8094              	.LVL1284:
 8095 31b8 2B78     		ldrb	r3, [r5, #0]	@ zero_extendqisi2
 8096 31ba 2278     		ldrb	r2, [r4, #0]	@ zero_extendqisi2
 8097 31bc CB18     		adds	r3, r1, r3
 8098 31be DBB2     		uxtb	r3, r3
 8099              	.LVL1285:
 8100 31c0 2B70     		strb	r3, [r5, #0]
 8101 31c2 9B18     		adds	r3, r3, r2
 8102              	.LVL1286:
 8103 31c4 2370     		strb	r3, [r4, #0]
 8104 31c6 4C48     		ldr	r0, .L277+28
 8105 31c8 FFF7FEFF 		bl	uart_transmit
 8106              	.LVL1287:
 8107              	.LBE578:
 8108              	.LBB579:
 8109 31cc 9DF81310 		ldrb	r1, [sp, #19]	@ zero_extendqisi2
 8110              	.LVL1288:
 8111 31d0 2B78     		ldrb	r3, [r5, #0]	@ zero_extendqisi2
 8112 31d2 2278     		ldrb	r2, [r4, #0]	@ zero_extendqisi2
 8113 31d4 CB18     		adds	r3, r1, r3
 8114 31d6 DBB2     		uxtb	r3, r3
 8115              	.LVL1289:
 8116 31d8 2B70     		strb	r3, [r5, #0]
 8117 31da 9B18     		adds	r3, r3, r2
 8118              	.LVL1290:
 8119 31dc 2370     		strb	r3, [r4, #0]
 8120 31de 4648     		ldr	r0, .L277+28
 8121 31e0 FFF7FEFF 		bl	uart_transmit
 8122              	.LVL1291:
 8123              	.LBE579:
 8124              	.LBB580:
 8125 31e4 98F80030 		ldrb	r3, [r8, #0]	@ zero_extendqisi2
 8126 31e8 2278     		ldrb	r2, [r4, #0]	@ zero_extendqisi2
 8127 31ea 07FB0363 		mla	r3, r7, r3, r6
 8128 31ee 197A     		ldrb	r1, [r3, #8]	@ zero_extendqisi2
 8129              	.LVL1292:
 8130 31f0 2B78     		ldrb	r3, [r5, #0]	@ zero_extendqisi2
 8131 31f2 4148     		ldr	r0, .L277+28
 8132 31f4 CB18     		adds	r3, r1, r3
 8133 31f6 DBB2     		uxtb	r3, r3
 8134              	.LVL1293:
 8135 31f8 2B70     		strb	r3, [r5, #0]
 8136 31fa 9B18     		adds	r3, r3, r2
 8137              	.LVL1294:
 8138 31fc 2370     		strb	r3, [r4, #0]
 8139 31fe FFF7FEFF 		bl	uart_transmit
 8140              	.LVL1295:
 8141              	.LBE580:
 8142              	.LBB581:
 8143 3202 98F80030 		ldrb	r3, [r8, #0]	@ zero_extendqisi2
 8144 3206 2278     		ldrb	r2, [r4, #0]	@ zero_extendqisi2
 8145 3208 07FB0363 		mla	r3, r7, r3, r6
 8146 320c 597A     		ldrb	r1, [r3, #9]	@ zero_extendqisi2
 8147              	.LVL1296:
 8148 320e 2B78     		ldrb	r3, [r5, #0]	@ zero_extendqisi2
 8149 3210 3948     		ldr	r0, .L277+28
 8150 3212 CB18     		adds	r3, r1, r3
 8151 3214 DBB2     		uxtb	r3, r3
 8152              	.LVL1297:
 8153 3216 2B70     		strb	r3, [r5, #0]
 8154 3218 9B18     		adds	r3, r3, r2
 8155              	.LVL1298:
 8156 321a 2370     		strb	r3, [r4, #0]
 8157 321c FFF7FEFF 		bl	uart_transmit
 8158              	.LVL1299:
 8159              	.LBE581:
 8160              	.LBB582:
 8161 3220 98F80030 		ldrb	r3, [r8, #0]	@ zero_extendqisi2
 8162 3224 2278     		ldrb	r2, [r4, #0]	@ zero_extendqisi2
 8163 3226 07FB0363 		mla	r3, r7, r3, r6
 8164 322a 997A     		ldrb	r1, [r3, #10]	@ zero_extendqisi2
 8165              	.LVL1300:
 8166 322c 2B78     		ldrb	r3, [r5, #0]	@ zero_extendqisi2
 8167 322e 3248     		ldr	r0, .L277+28
 8168 3230 CB18     		adds	r3, r1, r3
 8169 3232 DBB2     		uxtb	r3, r3
 8170              	.LVL1301:
 8171 3234 2B70     		strb	r3, [r5, #0]
 8172 3236 9B18     		adds	r3, r3, r2
 8173              	.LVL1302:
 8174 3238 2370     		strb	r3, [r4, #0]
 8175 323a FFF7FEFF 		bl	uart_transmit
 8176              	.LVL1303:
 8177              	.LBE582:
 8178              	.LBB583:
 8179 323e 98F80030 		ldrb	r3, [r8, #0]	@ zero_extendqisi2
 8180 3242 2278     		ldrb	r2, [r4, #0]	@ zero_extendqisi2
 8181 3244 07FB0366 		mla	r6, r7, r3, r6
 8182 3248 2B78     		ldrb	r3, [r5, #0]	@ zero_extendqisi2
 8183 324a F17A     		ldrb	r1, [r6, #11]	@ zero_extendqisi2
 8184              	.LVL1304:
 8185 324c 2A48     		ldr	r0, .L277+28
 8186 324e CB18     		adds	r3, r1, r3
 8187 3250 DBB2     		uxtb	r3, r3
 8188              	.LVL1305:
 8189 3252 2B70     		strb	r3, [r5, #0]
 8190 3254 9B18     		adds	r3, r3, r2
 8191              	.LVL1306:
 8192 3256 2370     		strb	r3, [r4, #0]
 8193 3258 FFF7FEFF 		bl	uart_transmit
 8194              	.LVL1307:
 8195              	.LBE583:
 8196              	.LBB584:
 8197 325c 2B4B     		ldr	r3, .L277+48
 8198 325e 2278     		ldrb	r2, [r4, #0]	@ zero_extendqisi2
 8199 3260 1978     		ldrb	r1, [r3, #0]	@ zero_extendqisi2
 8200              	.LVL1308:
 8201 3262 2B78     		ldrb	r3, [r5, #0]	@ zero_extendqisi2
 8202 3264 2448     		ldr	r0, .L277+28
 8203 3266 CB18     		adds	r3, r1, r3
 8204 3268 DBB2     		uxtb	r3, r3
 8205              	.LVL1309:
 8206 326a 2B70     		strb	r3, [r5, #0]
 8207 326c 9B18     		adds	r3, r3, r2
 8208              	.LVL1310:
 8209 326e 2370     		strb	r3, [r4, #0]
 8210 3270 FFF7FEFF 		bl	uart_transmit
 8211              	.LVL1311:
 8212              	.LBE584:
 8213 3274 2978     		ldrb	r1, [r5, #0]	@ zero_extendqisi2
 8214 3276 2048     		ldr	r0, .L277+28
 8215 3278 FFF7FEFF 		bl	uart_transmit
 8216 327c 1E48     		ldr	r0, .L277+28
 8217 327e 2178     		ldrb	r1, [r4, #0]	@ zero_extendqisi2
 8218 3280 FFF7FEFF 		bl	uart_transmit
 8219 3284 03E0     		b	.L115
 8220              	.LVL1312:
 8221              	.L117:
 8222              		.loc 1 422 0 discriminator 182
 8223 3286 154B     		ldr	r3, .L277
 8224 3288 1A78     		ldrb	r2, [r3, #0]	@ zero_extendqisi2
 8225 328a 0132     		adds	r2, r2, #1
 8226 328c 1A70     		strb	r2, [r3, #0]
 8227              	.L115:
 8228              	.LBE567:
 8229              	.LBE566:
 8230              		.loc 1 422 0 discriminator 178
 8231 328e 204B     		ldr	r3, .L277+52
 8232 3290 1B78     		ldrb	r3, [r3, #0]	@ zero_extendqisi2
 8233 3292 182B     		cmp	r3, #24
 8234 3294 40F0EA80 		bne	.L118
 8235              	.LBB585:
 8236              		.loc 1 422 0 discriminator 183
 8237 3298 1E4B     		ldr	r3, .L277+56
 8238 329a 1A78     		ldrb	r2, [r3, #0]	@ zero_extendqisi2
 8239 329c 0A2A     		cmp	r2, #10
 8240 329e 01D9     		bls	.L119
 8241              		.loc 1 422 0 discriminator 185
 8242 32a0 0022     		movs	r2, #0
 8243 32a2 1A70     		strb	r2, [r3, #0]
 8244              	.L119:
 8245              		.loc 1 422 0 discriminator 186
 8246 32a4 1B78     		ldrb	r3, [r3, #0]	@ zero_extendqisi2
 8247 32a6 0A2B     		cmp	r3, #10
 8248 32a8 4FD8     		bhi	.L120
 8249 32aa DFE803F0 		tbb	[pc, r3]
 8250              	.L132:
 8251 32ae 06       		.byte	(.L121-.L132)/2
 8252 32af 08       		.byte	(.L122-.L132)/2
 8253 32b0 0E       		.byte	(.L123-.L132)/2
 8254 32b1 10       		.byte	(.L124-.L132)/2
 8255 32b2 12       		.byte	(.L125-.L132)/2
 8256 32b3 14       		.byte	(.L126-.L132)/2
 8257 32b4 41       		.byte	(.L127-.L132)/2
 8258 32b5 44       		.byte	(.L128-.L132)/2
 8259 32b6 46       		.byte	(.L129-.L132)/2
 8260 32b7 48       		.byte	(.L130-.L132)/2
 8261 32b8 4A       		.byte	(.L131-.L132)/2
 8262 32b9 00       		.align	1
 8263              	.L121:
 8264              		.loc 1 422 0 discriminator 188
 8265 32ba 174B     		ldr	r3, .L277+60
 8266 32bc 00E0     		b	.L218
 8267              	.L122:
 8268              		.loc 1 422 0 discriminator 189
 8269 32be 174B     		ldr	r3, .L277+64
 8270              	.L218:
 8271 32c0 1878     		ldrb	r0, [r3, #0]	@ zero_extendqisi2
 8272              	.L219:
 8273 32c2 FFF7FEFF 		bl	__aeabi_ui2f
 8274 32c6 0490     		str	r0, [sp, #16]	@ float
 8275              	.LVL1313:
 8276 32c8 41E0     		b	.L133
 8277              	.LVL1314:
 8278              	.L123:
 8279              		.loc 1 422 0 discriminator 190
 8280 32ca 154B     		ldr	r3, .L277+68
 8281 32cc 31E0     		b	.L226
 8282              	.L124:
 8283              		.loc 1 422 0 discriminator 191
 8284 32ce 154B     		ldr	r3, .L277+72
 8285 32d0 2FE0     		b	.L226
 8286              	.L125:
 8287              		.loc 1 422 0 discriminator 192
 8288 32d2 154B     		ldr	r3, .L277+76
 8289 32d4 2DE0     		b	.L226
 8290              	.L126:
 8291              		.loc 1 422 0 discriminator 193
 8292 32d6 154B     		ldr	r3, .L277+80
 8293 32d8 1888     		ldrh	r0, [r3, #0]
 8294 32da F2E7     		b	.L219
 8295              	.L278:
 8296              		.align	2
 8297              	.L277:
 8298 32dc 00000000 		.word	downlink_nb_ovrn
 8299 32e0 00000000 		.word	.LANCHOR38
 8300 32e4 00000000 		.word	.LANCHOR52
 8301 32e8 00000000 		.word	nb_waypoint
 8302 32ec 00000000 		.word	nav_utm_east0
 8303 32f0 00000000 		.word	waypoints
 8304 32f4 00000000 		.word	nav_utm_north0
 8305 32f8 00000000 		.word	uart2
 8306 32fc 00000000 		.word	downlink_nb_bytes
 8307 3300 00000000 		.word	downlink_nb_msgs
 8308 3304 00000000 		.word	ck_a
 8309 3308 00000000 		.word	ck_b
 8310 330c 00000000 		.word	nav_utm_zone0
 8311 3310 00000000 		.word	.LANCHOR39
 8312 3314 00000000 		.word	.LANCHOR53
 8313 3318 00000000 		.word	telemetry_mode_Ap
 8314 331c 00000000 		.word	telemetry_mode_Fbw
 8315 3320 00000000 		.word	flight_altitude
 8316 3324 00000000 		.word	nav_course
 8317 3328 00000000 		.word	nav_shift
 8318 332c 00000000 		.word	estimator_flight_time
 8319              	.L127:
 8320              		.loc 1 422 0 discriminator 194
 8321 3330 3F4B     		ldr	r3, .L279
 8322              	.L226:
 8323 3332 1B68     		ldr	r3, [r3, #0]	@ float
 8324 3334 0AE0     		b	.L220
 8325              	.L128:
 8326              		.loc 1 422 0 discriminator 195
 8327 3336 3F4B     		ldr	r3, .L279+4
 8328 3338 C2E7     		b	.L218
 8329              	.L129:
 8330              		.loc 1 422 0 discriminator 196
 8331 333a 3F4B     		ldr	r3, .L279+8
 8332 333c C0E7     		b	.L218
 8333              	.L130:
 8334              		.loc 1 422 0 discriminator 197
 8335 333e 3F4B     		ldr	r3, .L279+12
 8336 3340 BEE7     		b	.L218
 8337              	.L131:
 8338              		.loc 1 422 0 discriminator 198
 8339 3342 3F4B     		ldr	r3, .L279+16
 8340 3344 B3F8F000 		ldrh	r0, [r3, #240]
 8341 3348 BBE7     		b	.L219
 8342              	.L120:
 8343              		.loc 1 422 0 discriminator 187
 8344 334a 0023     		movs	r3, #0
 8345              	.L220:
 8346 334c 0493     		str	r3, [sp, #16]	@ float
 8347              	.LVL1315:
 8348              	.L133:
 8349              		.loc 1 422 0 discriminator 199
 8350 334e 3D48     		ldr	r0, .L279+20
 8351 3350 0B21     		movs	r1, #11
 8352 3352 FFF7FEFF 		bl	uart_check_free_space
 8353 3356 0028     		cmp	r0, #0
 8354 3358 00F08080 		beq	.L134
 8355              		.loc 1 422 0 discriminator 200
 8356 335c 3A4B     		ldr	r3, .L279+24
 8357              	.LBB586:
 8358 335e 9921     		movs	r1, #153
 8359              	.LBE586:
 8360 3360 1A88     		ldrh	r2, [r3, #0]
 8361              	.LBB587:
 8362 3362 3848     		ldr	r0, .L279+20
 8363              	.LBE587:
 8364 3364 0B32     		adds	r2, r2, #11
 8365 3366 1A80     		strh	r2, [r3, #0]	@ movhi
 8366 3368 384B     		ldr	r3, .L279+28
 8367 336a 394D     		ldr	r5, .L279+32
 8368 336c 1A88     		ldrh	r2, [r3, #0]
 8369 336e 394C     		ldr	r4, .L279+36
 8370 3370 0132     		adds	r2, r2, #1
 8371 3372 1A80     		strh	r2, [r3, #0]	@ movhi
 8372              	.LBB588:
 8373 3374 FFF7FEFF 		bl	uart_transmit
 8374              	.LVL1316:
 8375 3378 0B21     		movs	r1, #11
 8376 337a 3248     		ldr	r0, .L279+20
 8377 337c FFF7FEFF 		bl	uart_transmit
 8378              	.LBE588:
 8379 3380 0C23     		movs	r3, #12
 8380 3382 2B70     		strb	r3, [r5, #0]
 8381 3384 1723     		movs	r3, #23
 8382 3386 2370     		strb	r3, [r4, #0]
 8383 3388 0121     		movs	r1, #1
 8384 338a 2E48     		ldr	r0, .L279+20
 8385 338c FFF7FEFF 		bl	uart_transmit
 8386 3390 2B78     		ldrb	r3, [r5, #0]	@ zero_extendqisi2
 8387 3392 2278     		ldrb	r2, [r4, #0]	@ zero_extendqisi2
 8388 3394 1F33     		adds	r3, r3, #31
 8389 3396 DBB2     		uxtb	r3, r3
 8390 3398 2B70     		strb	r3, [r5, #0]
 8391 339a 9B18     		adds	r3, r3, r2
 8392 339c 2370     		strb	r3, [r4, #0]
 8393 339e 1F21     		movs	r1, #31
 8394 33a0 2848     		ldr	r0, .L279+20
 8395 33a2 FFF7FEFF 		bl	uart_transmit
 8396              	.LBB589:
 8397 33a6 2C4B     		ldr	r3, .L279+40
 8398 33a8 2278     		ldrb	r2, [r4, #0]	@ zero_extendqisi2
 8399 33aa 1978     		ldrb	r1, [r3, #0]	@ zero_extendqisi2
 8400              	.LVL1317:
 8401 33ac 2B78     		ldrb	r3, [r5, #0]	@ zero_extendqisi2
 8402 33ae 2548     		ldr	r0, .L279+20
 8403 33b0 CB18     		adds	r3, r1, r3
 8404 33b2 DBB2     		uxtb	r3, r3
 8405              	.LVL1318:
 8406 33b4 2B70     		strb	r3, [r5, #0]
 8407 33b6 9B18     		adds	r3, r3, r2
 8408              	.LVL1319:
 8409 33b8 2370     		strb	r3, [r4, #0]
 8410 33ba FFF7FEFF 		bl	uart_transmit
 8411              	.LVL1320:
 8412              	.LBE589:
 8413              	.LBB590:
 8414 33be 9DF81010 		ldrb	r1, [sp, #16]	@ zero_extendqisi2
 8415              	.LVL1321:
 8416 33c2 2B78     		ldrb	r3, [r5, #0]	@ zero_extendqisi2
 8417 33c4 2278     		ldrb	r2, [r4, #0]	@ zero_extendqisi2
 8418 33c6 CB18     		adds	r3, r1, r3
 8419 33c8 DBB2     		uxtb	r3, r3
 8420              	.LVL1322:
 8421 33ca 2B70     		strb	r3, [r5, #0]
 8422 33cc 9B18     		adds	r3, r3, r2
 8423              	.LVL1323:
 8424 33ce 2370     		strb	r3, [r4, #0]
 8425 33d0 1C48     		ldr	r0, .L279+20
 8426 33d2 FFF7FEFF 		bl	uart_transmit
 8427              	.LVL1324:
 8428              	.LBE590:
 8429              	.LBB591:
 8430 33d6 9DF81110 		ldrb	r1, [sp, #17]	@ zero_extendqisi2
 8431              	.LVL1325:
 8432 33da 2B78     		ldrb	r3, [r5, #0]	@ zero_extendqisi2
 8433 33dc 2278     		ldrb	r2, [r4, #0]	@ zero_extendqisi2
 8434 33de CB18     		adds	r3, r1, r3
 8435 33e0 DBB2     		uxtb	r3, r3
 8436              	.LVL1326:
 8437 33e2 2B70     		strb	r3, [r5, #0]
 8438 33e4 9B18     		adds	r3, r3, r2
 8439              	.LVL1327:
 8440 33e6 2370     		strb	r3, [r4, #0]
 8441 33e8 1648     		ldr	r0, .L279+20
 8442 33ea FFF7FEFF 		bl	uart_transmit
 8443              	.LVL1328:
 8444              	.LBE591:
 8445              	.LBB592:
 8446 33ee 9DF81210 		ldrb	r1, [sp, #18]	@ zero_extendqisi2
 8447              	.LVL1329:
 8448 33f2 2B78     		ldrb	r3, [r5, #0]	@ zero_extendqisi2
 8449 33f4 2278     		ldrb	r2, [r4, #0]	@ zero_extendqisi2
 8450 33f6 CB18     		adds	r3, r1, r3
 8451 33f8 DBB2     		uxtb	r3, r3
 8452              	.LVL1330:
 8453 33fa 2B70     		strb	r3, [r5, #0]
 8454 33fc 9B18     		adds	r3, r3, r2
 8455              	.LVL1331:
 8456 33fe 2370     		strb	r3, [r4, #0]
 8457 3400 1048     		ldr	r0, .L279+20
 8458 3402 FFF7FEFF 		bl	uart_transmit
 8459              	.LVL1332:
 8460              	.LBE592:
 8461              	.LBB593:
 8462 3406 9DF81310 		ldrb	r1, [sp, #19]	@ zero_extendqisi2
 8463              	.LVL1333:
 8464 340a 2B78     		ldrb	r3, [r5, #0]	@ zero_extendqisi2
 8465 340c 2278     		ldrb	r2, [r4, #0]	@ zero_extendqisi2
 8466 340e CB18     		adds	r3, r1, r3
 8467 3410 DBB2     		uxtb	r3, r3
 8468              	.LVL1334:
 8469 3412 2B70     		strb	r3, [r5, #0]
 8470 3414 9B18     		adds	r3, r3, r2
 8471              	.LVL1335:
 8472 3416 2370     		strb	r3, [r4, #0]
 8473 3418 0A48     		ldr	r0, .L279+20
 8474 341a FFF7FEFF 		bl	uart_transmit
 8475              	.LVL1336:
 8476              	.LBE593:
 8477 341e 2978     		ldrb	r1, [r5, #0]	@ zero_extendqisi2
 8478 3420 0848     		ldr	r0, .L279+20
 8479 3422 FFF7FEFF 		bl	uart_transmit
 8480 3426 0748     		ldr	r0, .L279+20
 8481 3428 2178     		ldrb	r1, [r4, #0]	@ zero_extendqisi2
 8482 342a FFF7FEFF 		bl	uart_transmit
 8483 342e 19E0     		b	.L135
 8484              	.L280:
 8485              		.align	2
 8486              	.L279:
 8487 3430 00000000 		.word	nav_radius
 8488 3434 00000000 		.word	.LANCHOR29
 8489 3438 00000000 		.word	.LANCHOR30
 8490 343c 00000000 		.word	.LANCHOR27
 8491 3440 00000000 		.word	gps
 8492 3444 00000000 		.word	uart2
 8493 3448 00000000 		.word	downlink_nb_bytes
 8494 344c 00000000 		.word	downlink_nb_msgs
 8495 3450 00000000 		.word	ck_a
 8496 3454 00000000 		.word	ck_b
 8497 3458 00000000 		.word	.LANCHOR53
 8498              	.LVL1337:
 8499              	.L134:
 8500              		.loc 1 422 0 discriminator 201
 8501 345c 7D4B     		ldr	r3, .L281
 8502 345e 1A78     		ldrb	r2, [r3, #0]	@ zero_extendqisi2
 8503 3460 0132     		adds	r2, r2, #1
 8504 3462 1A70     		strb	r2, [r3, #0]
 8505              	.L135:
 8506              		.loc 1 422 0 discriminator 202
 8507 3464 7C4B     		ldr	r3, .L281+4
 8508 3466 1A78     		ldrb	r2, [r3, #0]	@ zero_extendqisi2
 8509 3468 0132     		adds	r2, r2, #1
 8510 346a 1A70     		strb	r2, [r3, #0]
 8511              	.L118:
 8512              	.LBE585:
 8513              		.loc 1 422 0 discriminator 184
 8514 346c 7B4B     		ldr	r3, .L281+8
 8515 346e 1B78     		ldrb	r3, [r3, #0]	@ zero_extendqisi2
 8516 3470 1E2B     		cmp	r3, #30
 8517 3472 40F00D81 		bne	.L136
 8518              		.loc 1 422 0 discriminator 203
 8519 3476 7A4B     		ldr	r3, .L281+12
 8520 3478 1B78     		ldrb	r3, [r3, #0]	@ zero_extendqisi2
 8521 347a 002B     		cmp	r3, #0
 8522 347c 00F00881 		beq	.L136
 8523              		.loc 1 422 0 discriminator 205
 8524 3480 7848     		ldr	r0, .L281+16
 8525 3482 1621     		movs	r1, #22
 8526 3484 FFF7FEFF 		bl	uart_check_free_space
 8527 3488 0028     		cmp	r0, #0
 8528 348a 00F0FD80 		beq	.L137
 8529              		.loc 1 422 0 discriminator 206
 8530 348e 764B     		ldr	r3, .L281+20
 8531              	.LBB594:
 8532 3490 9921     		movs	r1, #153
 8533              	.LBE594:
 8534 3492 1A88     		ldrh	r2, [r3, #0]
 8535              	.LBB595:
 8536 3494 7348     		ldr	r0, .L281+16
 8537              	.LBE595:
 8538 3496 1632     		adds	r2, r2, #22
 8539 3498 1A80     		strh	r2, [r3, #0]	@ movhi
 8540 349a 744B     		ldr	r3, .L281+24
 8541 349c 744D     		ldr	r5, .L281+28
 8542 349e 1A88     		ldrh	r2, [r3, #0]
 8543 34a0 744C     		ldr	r4, .L281+32
 8544 34a2 0132     		adds	r2, r2, #1
 8545 34a4 1A80     		strh	r2, [r3, #0]	@ movhi
 8546              	.LBB596:
 8547 34a6 FFF7FEFF 		bl	uart_transmit
 8548              	.LVL1338:
 8549 34aa 1621     		movs	r1, #22
 8550 34ac 6D48     		ldr	r0, .L281+16
 8551 34ae FFF7FEFF 		bl	uart_transmit
 8552              	.LBE596:
 8553 34b2 1723     		movs	r3, #23
 8554 34b4 2B70     		strb	r3, [r5, #0]
 8555 34b6 2D23     		movs	r3, #45
 8556 34b8 2370     		strb	r3, [r4, #0]
 8557 34ba 0121     		movs	r1, #1
 8558 34bc 6948     		ldr	r0, .L281+16
 8559 34be FFF7FEFF 		bl	uart_transmit
 8560 34c2 2B78     		ldrb	r3, [r5, #0]	@ zero_extendqisi2
 8561 34c4 2278     		ldrb	r2, [r4, #0]	@ zero_extendqisi2
 8562 34c6 1B33     		adds	r3, r3, #27
 8563 34c8 DBB2     		uxtb	r3, r3
 8564              	.LBB597:
 8565 34ca 6B4E     		ldr	r6, .L281+36
 8566              	.LBE597:
 8567 34cc 2B70     		strb	r3, [r5, #0]
 8568 34ce 9B18     		adds	r3, r3, r2
 8569 34d0 2370     		strb	r3, [r4, #0]
 8570 34d2 1B21     		movs	r1, #27
 8571 34d4 6348     		ldr	r0, .L281+16
 8572 34d6 FFF7FEFF 		bl	uart_transmit
 8573              	.LBB598:
 8574 34da 3178     		ldrb	r1, [r6, #0]	@ zero_extendqisi2
 8575              	.LVL1339:
 8576 34dc 2B78     		ldrb	r3, [r5, #0]	@ zero_extendqisi2
 8577 34de 2278     		ldrb	r2, [r4, #0]	@ zero_extendqisi2
 8578 34e0 CB18     		adds	r3, r1, r3
 8579 34e2 DBB2     		uxtb	r3, r3
 8580              	.LVL1340:
 8581 34e4 2B70     		strb	r3, [r5, #0]
 8582 34e6 9B18     		adds	r3, r3, r2
 8583              	.LVL1341:
 8584 34e8 2370     		strb	r3, [r4, #0]
 8585 34ea 5E48     		ldr	r0, .L281+16
 8586 34ec FFF7FEFF 		bl	uart_transmit
 8587              	.LVL1342:
 8588              	.LBE598:
 8589              	.LBB599:
 8590 34f0 7178     		ldrb	r1, [r6, #1]	@ zero_extendqisi2
 8591              	.LVL1343:
 8592 34f2 2B78     		ldrb	r3, [r5, #0]	@ zero_extendqisi2
 8593 34f4 2278     		ldrb	r2, [r4, #0]	@ zero_extendqisi2
 8594 34f6 CB18     		adds	r3, r1, r3
 8595 34f8 DBB2     		uxtb	r3, r3
 8596              	.LVL1344:
 8597 34fa 2B70     		strb	r3, [r5, #0]
 8598 34fc 9B18     		adds	r3, r3, r2
 8599              	.LVL1345:
 8600 34fe 2370     		strb	r3, [r4, #0]
 8601 3500 5848     		ldr	r0, .L281+16
 8602 3502 FFF7FEFF 		bl	uart_transmit
 8603              	.LVL1346:
 8604              	.LBE599:
 8605              	.LBB600:
 8606 3506 B178     		ldrb	r1, [r6, #2]	@ zero_extendqisi2
 8607              	.LVL1347:
 8608 3508 2B78     		ldrb	r3, [r5, #0]	@ zero_extendqisi2
 8609 350a 2278     		ldrb	r2, [r4, #0]	@ zero_extendqisi2
 8610 350c CB18     		adds	r3, r1, r3
 8611 350e DBB2     		uxtb	r3, r3
 8612              	.LVL1348:
 8613 3510 2B70     		strb	r3, [r5, #0]
 8614 3512 9B18     		adds	r3, r3, r2
 8615              	.LVL1349:
 8616 3514 2370     		strb	r3, [r4, #0]
 8617 3516 5348     		ldr	r0, .L281+16
 8618 3518 FFF7FEFF 		bl	uart_transmit
 8619              	.LVL1350:
 8620              	.LBE600:
 8621              	.LBB601:
 8622 351c F178     		ldrb	r1, [r6, #3]	@ zero_extendqisi2
 8623              	.LVL1351:
 8624 351e 2B78     		ldrb	r3, [r5, #0]	@ zero_extendqisi2
 8625 3520 2278     		ldrb	r2, [r4, #0]	@ zero_extendqisi2
 8626 3522 CB18     		adds	r3, r1, r3
 8627 3524 DBB2     		uxtb	r3, r3
 8628              	.LBE601:
 8629              	.LBB602:
 8630 3526 554E     		ldr	r6, .L281+40
 8631              	.LVL1352:
 8632              	.LBE602:
 8633              	.LBB603:
 8634 3528 2B70     		strb	r3, [r5, #0]
 8635 352a 9B18     		adds	r3, r3, r2
 8636              	.LVL1353:
 8637 352c 2370     		strb	r3, [r4, #0]
 8638 352e 4D48     		ldr	r0, .L281+16
 8639 3530 FFF7FEFF 		bl	uart_transmit
 8640              	.LVL1354:
 8641              	.LBE603:
 8642              	.LBB604:
 8643 3534 3178     		ldrb	r1, [r6, #0]	@ zero_extendqisi2
 8644              	.LVL1355:
 8645 3536 2B78     		ldrb	r3, [r5, #0]	@ zero_extendqisi2
 8646 3538 2278     		ldrb	r2, [r4, #0]	@ zero_extendqisi2
 8647 353a CB18     		adds	r3, r1, r3
 8648 353c DBB2     		uxtb	r3, r3
 8649              	.LVL1356:
 8650 353e 2B70     		strb	r3, [r5, #0]
 8651 3540 9B18     		adds	r3, r3, r2
 8652              	.LVL1357:
 8653 3542 2370     		strb	r3, [r4, #0]
 8654 3544 4748     		ldr	r0, .L281+16
 8655 3546 FFF7FEFF 		bl	uart_transmit
 8656              	.LVL1358:
 8657              	.LBE604:
 8658              	.LBB605:
 8659 354a 7178     		ldrb	r1, [r6, #1]	@ zero_extendqisi2
 8660              	.LVL1359:
 8661 354c 2B78     		ldrb	r3, [r5, #0]	@ zero_extendqisi2
 8662 354e 2278     		ldrb	r2, [r4, #0]	@ zero_extendqisi2
 8663 3550 CB18     		adds	r3, r1, r3
 8664 3552 DBB2     		uxtb	r3, r3
 8665              	.LVL1360:
 8666 3554 2B70     		strb	r3, [r5, #0]
 8667 3556 9B18     		adds	r3, r3, r2
 8668              	.LVL1361:
 8669 3558 2370     		strb	r3, [r4, #0]
 8670 355a 4248     		ldr	r0, .L281+16
 8671 355c FFF7FEFF 		bl	uart_transmit
 8672              	.LVL1362:
 8673              	.LBE605:
 8674              	.LBB606:
 8675 3560 B178     		ldrb	r1, [r6, #2]	@ zero_extendqisi2
 8676              	.LVL1363:
 8677 3562 2B78     		ldrb	r3, [r5, #0]	@ zero_extendqisi2
 8678 3564 2278     		ldrb	r2, [r4, #0]	@ zero_extendqisi2
 8679 3566 CB18     		adds	r3, r1, r3
 8680 3568 DBB2     		uxtb	r3, r3
 8681              	.LVL1364:
 8682 356a 2B70     		strb	r3, [r5, #0]
 8683 356c 9B18     		adds	r3, r3, r2
 8684              	.LVL1365:
 8685 356e 2370     		strb	r3, [r4, #0]
 8686 3570 3C48     		ldr	r0, .L281+16
 8687 3572 FFF7FEFF 		bl	uart_transmit
 8688              	.LVL1366:
 8689              	.LBE606:
 8690              	.LBB607:
 8691 3576 F178     		ldrb	r1, [r6, #3]	@ zero_extendqisi2
 8692              	.LVL1367:
 8693 3578 2B78     		ldrb	r3, [r5, #0]	@ zero_extendqisi2
 8694 357a 2278     		ldrb	r2, [r4, #0]	@ zero_extendqisi2
 8695 357c CB18     		adds	r3, r1, r3
 8696 357e DBB2     		uxtb	r3, r3
 8697              	.LBE607:
 8698              	.LBB608:
 8699 3580 3F4E     		ldr	r6, .L281+44
 8700              	.LVL1368:
 8701              	.LBE608:
 8702              	.LBB609:
 8703 3582 2B70     		strb	r3, [r5, #0]
 8704 3584 9B18     		adds	r3, r3, r2
 8705              	.LVL1369:
 8706 3586 2370     		strb	r3, [r4, #0]
 8707 3588 3648     		ldr	r0, .L281+16
 8708 358a FFF7FEFF 		bl	uart_transmit
 8709              	.LVL1370:
 8710              	.LBE609:
 8711              	.LBB610:
 8712 358e 3178     		ldrb	r1, [r6, #0]	@ zero_extendqisi2
 8713              	.LVL1371:
 8714 3590 2B78     		ldrb	r3, [r5, #0]	@ zero_extendqisi2
 8715 3592 2278     		ldrb	r2, [r4, #0]	@ zero_extendqisi2
 8716 3594 CB18     		adds	r3, r1, r3
 8717 3596 DBB2     		uxtb	r3, r3
 8718              	.LVL1372:
 8719 3598 2B70     		strb	r3, [r5, #0]
 8720 359a 9B18     		adds	r3, r3, r2
 8721              	.LVL1373:
 8722 359c 2370     		strb	r3, [r4, #0]
 8723 359e 3148     		ldr	r0, .L281+16
 8724 35a0 FFF7FEFF 		bl	uart_transmit
 8725              	.LVL1374:
 8726              	.LBE610:
 8727              	.LBB611:
 8728 35a4 7178     		ldrb	r1, [r6, #1]	@ zero_extendqisi2
 8729              	.LVL1375:
 8730 35a6 2B78     		ldrb	r3, [r5, #0]	@ zero_extendqisi2
 8731 35a8 2278     		ldrb	r2, [r4, #0]	@ zero_extendqisi2
 8732 35aa CB18     		adds	r3, r1, r3
 8733 35ac DBB2     		uxtb	r3, r3
 8734              	.LVL1376:
 8735 35ae 2B70     		strb	r3, [r5, #0]
 8736 35b0 9B18     		adds	r3, r3, r2
 8737              	.LVL1377:
 8738 35b2 2370     		strb	r3, [r4, #0]
 8739 35b4 2B48     		ldr	r0, .L281+16
 8740 35b6 FFF7FEFF 		bl	uart_transmit
 8741              	.LVL1378:
 8742              	.LBE611:
 8743              	.LBB612:
 8744 35ba B178     		ldrb	r1, [r6, #2]	@ zero_extendqisi2
 8745              	.LVL1379:
 8746 35bc 2B78     		ldrb	r3, [r5, #0]	@ zero_extendqisi2
 8747 35be 2278     		ldrb	r2, [r4, #0]	@ zero_extendqisi2
 8748 35c0 CB18     		adds	r3, r1, r3
 8749 35c2 DBB2     		uxtb	r3, r3
 8750              	.LVL1380:
 8751 35c4 2B70     		strb	r3, [r5, #0]
 8752 35c6 9B18     		adds	r3, r3, r2
 8753              	.LVL1381:
 8754 35c8 2370     		strb	r3, [r4, #0]
 8755 35ca 2648     		ldr	r0, .L281+16
 8756 35cc FFF7FEFF 		bl	uart_transmit
 8757              	.LVL1382:
 8758              	.LBE612:
 8759              	.LBB613:
 8760 35d0 F178     		ldrb	r1, [r6, #3]	@ zero_extendqisi2
 8761              	.LVL1383:
 8762 35d2 2B78     		ldrb	r3, [r5, #0]	@ zero_extendqisi2
 8763 35d4 2278     		ldrb	r2, [r4, #0]	@ zero_extendqisi2
 8764 35d6 CB18     		adds	r3, r1, r3
 8765 35d8 DBB2     		uxtb	r3, r3
 8766              	.LBE613:
 8767              	.LBB614:
 8768 35da 2A4E     		ldr	r6, .L281+48
 8769              	.LVL1384:
 8770              	.LBE614:
 8771              	.LBB615:
 8772 35dc 2B70     		strb	r3, [r5, #0]
 8773 35de 9B18     		adds	r3, r3, r2
 8774              	.LVL1385:
 8775 35e0 2370     		strb	r3, [r4, #0]
 8776 35e2 2048     		ldr	r0, .L281+16
 8777 35e4 FFF7FEFF 		bl	uart_transmit
 8778              	.LVL1386:
 8779              	.LBE615:
 8780              	.LBB616:
 8781 35e8 3178     		ldrb	r1, [r6, #0]	@ zero_extendqisi2
 8782              	.LVL1387:
 8783 35ea 2B78     		ldrb	r3, [r5, #0]	@ zero_extendqisi2
 8784 35ec 2278     		ldrb	r2, [r4, #0]	@ zero_extendqisi2
 8785 35ee CB18     		adds	r3, r1, r3
 8786 35f0 DBB2     		uxtb	r3, r3
 8787              	.LVL1388:
 8788 35f2 2B70     		strb	r3, [r5, #0]
 8789 35f4 9B18     		adds	r3, r3, r2
 8790              	.LVL1389:
 8791 35f6 2370     		strb	r3, [r4, #0]
 8792 35f8 1A48     		ldr	r0, .L281+16
 8793 35fa FFF7FEFF 		bl	uart_transmit
 8794              	.LVL1390:
 8795              	.LBE616:
 8796              	.LBB617:
 8797 35fe 7178     		ldrb	r1, [r6, #1]	@ zero_extendqisi2
 8798              	.LVL1391:
 8799 3600 2B78     		ldrb	r3, [r5, #0]	@ zero_extendqisi2
 8800 3602 2278     		ldrb	r2, [r4, #0]	@ zero_extendqisi2
 8801 3604 CB18     		adds	r3, r1, r3
 8802 3606 DBB2     		uxtb	r3, r3
 8803              	.LVL1392:
 8804 3608 2B70     		strb	r3, [r5, #0]
 8805 360a 9B18     		adds	r3, r3, r2
 8806              	.LVL1393:
 8807 360c 2370     		strb	r3, [r4, #0]
 8808 360e 1548     		ldr	r0, .L281+16
 8809 3610 FFF7FEFF 		bl	uart_transmit
 8810              	.LVL1394:
 8811              	.LBE617:
 8812              	.LBB618:
 8813 3614 B178     		ldrb	r1, [r6, #2]	@ zero_extendqisi2
 8814              	.LVL1395:
 8815 3616 2B78     		ldrb	r3, [r5, #0]	@ zero_extendqisi2
 8816 3618 2278     		ldrb	r2, [r4, #0]	@ zero_extendqisi2
 8817 361a CB18     		adds	r3, r1, r3
 8818 361c DBB2     		uxtb	r3, r3
 8819              	.LVL1396:
 8820 361e 2B70     		strb	r3, [r5, #0]
 8821 3620 9B18     		adds	r3, r3, r2
 8822              	.LVL1397:
 8823 3622 2370     		strb	r3, [r4, #0]
 8824 3624 0F48     		ldr	r0, .L281+16
 8825 3626 FFF7FEFF 		bl	uart_transmit
 8826              	.LVL1398:
 8827              	.LBE618:
 8828              	.LBB619:
 8829 362a F178     		ldrb	r1, [r6, #3]	@ zero_extendqisi2
 8830              	.LVL1399:
 8831 362c 2B78     		ldrb	r3, [r5, #0]	@ zero_extendqisi2
 8832 362e 2278     		ldrb	r2, [r4, #0]	@ zero_extendqisi2
 8833 3630 CB18     		adds	r3, r1, r3
 8834 3632 DBB2     		uxtb	r3, r3
 8835              	.LVL1400:
 8836 3634 2B70     		strb	r3, [r5, #0]
 8837 3636 9B18     		adds	r3, r3, r2
 8838              	.LVL1401:
 8839 3638 2370     		strb	r3, [r4, #0]
 8840 363a 0A48     		ldr	r0, .L281+16
 8841 363c FFF7FEFF 		bl	uart_transmit
 8842              	.LVL1402:
 8843              	.LBE619:
 8844 3640 2978     		ldrb	r1, [r5, #0]	@ zero_extendqisi2
 8845 3642 0848     		ldr	r0, .L281+16
 8846 3644 FFF7FEFF 		bl	uart_transmit
 8847 3648 0648     		ldr	r0, .L281+16
 8848 364a 2178     		ldrb	r1, [r4, #0]	@ zero_extendqisi2
 8849 364c FFF7FEFF 		bl	uart_transmit
 8850 3650 1EE0     		b	.L136
 8851              	.L282:
 8852 3652 00BF     		.align	2
 8853              	.L281:
 8854 3654 00000000 		.word	downlink_nb_ovrn
 8855 3658 00000000 		.word	.LANCHOR53
 8856 365c 00000000 		.word	.LANCHOR40
 8857 3660 00000000 		.word	nav_survey_active
 8858 3664 00000000 		.word	uart2
 8859 3668 00000000 		.word	downlink_nb_bytes
 8860 366c 00000000 		.word	downlink_nb_msgs
 8861 3670 00000000 		.word	ck_a
 8862 3674 00000000 		.word	ck_b
 8863 3678 00000000 		.word	nav_survey_east
 8864 367c 00000000 		.word	nav_survey_north
 8865 3680 00000000 		.word	nav_survey_west
 8866 3684 00000000 		.word	nav_survey_south
 8867              	.LVL1403:
 8868              	.L137:
 8869              		.loc 1 422 0 discriminator 207
 8870 3688 994B     		ldr	r3, .L283+8
 8871 368a 1A78     		ldrb	r2, [r3, #0]	@ zero_extendqisi2
 8872 368c 0132     		adds	r2, r2, #1
 8873 368e 1A70     		strb	r2, [r3, #0]
 8874              	.L136:
 8875              		.loc 1 422 0 discriminator 204
 8876 3690 984B     		ldr	r3, .L283+12
 8877 3692 1B78     		ldrb	r3, [r3, #0]	@ zero_extendqisi2
 8878 3694 242B     		cmp	r3, #36
 8879 3696 40F04D81 		bne	.L138
 8880              	.LBB620:
 8881              		.loc 1 422 0 discriminator 208
 8882 369a 974B     		ldr	r3, .L283+16
 8883 369c 9748     		ldr	r0, .L283+20
 8884 369e 1A21     		movs	r1, #26
 8885 36a0 1C68     		ldr	r4, [r3, #0]	@ float
 8886              	.LVL1404:
 8887 36a2 FFF7FEFF 		bl	uart_check_free_space
 8888              	.LVL1405:
 8889 36a6 0028     		cmp	r0, #0
 8890 36a8 00F04081 		beq	.L139
 8891              		.loc 1 422 0 discriminator 210
 8892 36ac 24F00040 		bic	r0, r4, #-2147483648
 8893 36b0 FFF7FEFF 		bl	__aeabi_f2d
 8894 36b4 8CA3     		adr	r3, .L283
 8895 36b6 D3E90023 		ldrd	r2, [r3]
 8896 36ba FFF7FEFF 		bl	__aeabi_ddiv
 8897 36be FFF7FEFF 		bl	__aeabi_d2uiz
 8898 36c2 8F4B     		ldr	r3, .L283+24
 8899 36c4 C7B2     		uxtb	r7, r0
 8900 36c6 1A88     		ldrh	r2, [r3, #0]
 8901              	.LBB621:
 8902 36c8 9921     		movs	r1, #153
 8903              	.LBE621:
 8904 36ca 1A32     		adds	r2, r2, #26
 8905 36cc 1A80     		strh	r2, [r3, #0]	@ movhi
 8906 36ce 8D4B     		ldr	r3, .L283+28
 8907              	.LBB622:
 8908 36d0 8A48     		ldr	r0, .L283+20
 8909              	.LBE622:
 8910 36d2 1A88     		ldrh	r2, [r3, #0]
 8911 36d4 8C4D     		ldr	r5, .L283+32
 8912 36d6 0132     		adds	r2, r2, #1
 8913 36d8 1A80     		strh	r2, [r3, #0]	@ movhi
 8914              	.LBB623:
 8915 36da FFF7FEFF 		bl	uart_transmit
 8916              	.LVL1406:
 8917 36de 1A21     		movs	r1, #26
 8918 36e0 8648     		ldr	r0, .L283+20
 8919              	.LBE623:
 8920 36e2 8A4C     		ldr	r4, .L283+36
 8921              	.LVL1407:
 8922              	.LBB624:
 8923 36e4 FFF7FEFF 		bl	uart_transmit
 8924              	.LBE624:
 8925 36e8 1B23     		movs	r3, #27
 8926 36ea 2B70     		strb	r3, [r5, #0]
 8927 36ec 3523     		movs	r3, #53
 8928 36ee 2370     		strb	r3, [r4, #0]
 8929 36f0 0121     		movs	r1, #1
 8930 36f2 8248     		ldr	r0, .L283+20
 8931 36f4 FFF7FEFF 		bl	uart_transmit
 8932 36f8 2B78     		ldrb	r3, [r5, #0]	@ zero_extendqisi2
 8933 36fa 2278     		ldrb	r2, [r4, #0]	@ zero_extendqisi2
 8934 36fc 0A33     		adds	r3, r3, #10
 8935 36fe DBB2     		uxtb	r3, r3
 8936 3700 2B70     		strb	r3, [r5, #0]
 8937 3702 9B18     		adds	r3, r3, r2
 8938 3704 2370     		strb	r3, [r4, #0]
 8939 3706 0A21     		movs	r1, #10
 8940 3708 7C48     		ldr	r0, .L283+20
 8941 370a FFF7FEFF 		bl	uart_transmit
 8942              	.LBB625:
 8943 370e 804B     		ldr	r3, .L283+40
 8944 3710 2278     		ldrb	r2, [r4, #0]	@ zero_extendqisi2
 8945 3712 1978     		ldrb	r1, [r3, #0]	@ zero_extendqisi2
 8946              	.LVL1408:
 8947 3714 2B78     		ldrb	r3, [r5, #0]	@ zero_extendqisi2
 8948 3716 7948     		ldr	r0, .L283+20
 8949 3718 CB18     		adds	r3, r1, r3
 8950 371a DBB2     		uxtb	r3, r3
 8951              	.LVL1409:
 8952 371c 2B70     		strb	r3, [r5, #0]
 8953 371e 9B18     		adds	r3, r3, r2
 8954              	.LVL1410:
 8955 3720 2370     		strb	r3, [r4, #0]
 8956 3722 FFF7FEFF 		bl	uart_transmit
 8957              	.LVL1411:
 8958              	.LBE625:
 8959              	.LBB626:
 8960 3726 7B4B     		ldr	r3, .L283+44
 8961 3728 2278     		ldrb	r2, [r4, #0]	@ zero_extendqisi2
 8962 372a 1978     		ldrb	r1, [r3, #0]	@ zero_extendqisi2
 8963              	.LVL1412:
 8964 372c 2B78     		ldrb	r3, [r5, #0]	@ zero_extendqisi2
 8965              	.LBE626:
 8966              	.LBB627:
 8967 372e 7A4E     		ldr	r6, .L283+48
 8968              	.LBE627:
 8969              	.LBB628:
 8970 3730 CB18     		adds	r3, r1, r3
 8971 3732 DBB2     		uxtb	r3, r3
 8972              	.LVL1413:
 8973 3734 2B70     		strb	r3, [r5, #0]
 8974 3736 9B18     		adds	r3, r3, r2
 8975              	.LVL1414:
 8976 3738 2370     		strb	r3, [r4, #0]
 8977 373a 7048     		ldr	r0, .L283+20
 8978 373c FFF7FEFF 		bl	uart_transmit
 8979              	.LVL1415:
 8980              	.LBE628:
 8981              	.LBB629:
 8982 3740 3178     		ldrb	r1, [r6, #0]	@ zero_extendqisi2
 8983              	.LVL1416:
 8984 3742 2B78     		ldrb	r3, [r5, #0]	@ zero_extendqisi2
 8985 3744 2278     		ldrb	r2, [r4, #0]	@ zero_extendqisi2
 8986 3746 CB18     		adds	r3, r1, r3
 8987 3748 DBB2     		uxtb	r3, r3
 8988              	.LVL1417:
 8989 374a 2B70     		strb	r3, [r5, #0]
 8990 374c 9B18     		adds	r3, r3, r2
 8991              	.LVL1418:
 8992 374e 2370     		strb	r3, [r4, #0]
 8993 3750 6A48     		ldr	r0, .L283+20
 8994 3752 FFF7FEFF 		bl	uart_transmit
 8995              	.LVL1419:
 8996              	.LBE629:
 8997              	.LBB630:
 8998 3756 7178     		ldrb	r1, [r6, #1]	@ zero_extendqisi2
 8999              	.LVL1420:
 9000 3758 2B78     		ldrb	r3, [r5, #0]	@ zero_extendqisi2
 9001 375a 2278     		ldrb	r2, [r4, #0]	@ zero_extendqisi2
 9002 375c CB18     		adds	r3, r1, r3
 9003 375e DBB2     		uxtb	r3, r3
 9004              	.LVL1421:
 9005 3760 2B70     		strb	r3, [r5, #0]
 9006 3762 9B18     		adds	r3, r3, r2
 9007              	.LVL1422:
 9008 3764 2370     		strb	r3, [r4, #0]
 9009 3766 6548     		ldr	r0, .L283+20
 9010 3768 FFF7FEFF 		bl	uart_transmit
 9011              	.LVL1423:
 9012              	.LBE630:
 9013              	.LBB631:
 9014 376c B178     		ldrb	r1, [r6, #2]	@ zero_extendqisi2
 9015              	.LVL1424:
 9016 376e 2B78     		ldrb	r3, [r5, #0]	@ zero_extendqisi2
 9017 3770 2278     		ldrb	r2, [r4, #0]	@ zero_extendqisi2
 9018 3772 CB18     		adds	r3, r1, r3
 9019 3774 DBB2     		uxtb	r3, r3
 9020              	.LVL1425:
 9021 3776 2B70     		strb	r3, [r5, #0]
 9022 3778 9B18     		adds	r3, r3, r2
 9023              	.LVL1426:
 9024 377a 2370     		strb	r3, [r4, #0]
 9025 377c 5F48     		ldr	r0, .L283+20
 9026 377e FFF7FEFF 		bl	uart_transmit
 9027              	.LVL1427:
 9028              	.LBE631:
 9029              	.LBB632:
 9030 3782 F178     		ldrb	r1, [r6, #3]	@ zero_extendqisi2
 9031              	.LVL1428:
 9032 3784 2B78     		ldrb	r3, [r5, #0]	@ zero_extendqisi2
 9033 3786 2278     		ldrb	r2, [r4, #0]	@ zero_extendqisi2
 9034 3788 CB18     		adds	r3, r1, r3
 9035 378a DBB2     		uxtb	r3, r3
 9036              	.LBE632:
 9037              	.LBB633:
 9038 378c 634E     		ldr	r6, .L283+52
 9039              	.LVL1429:
 9040              	.LBE633:
 9041              	.LBB634:
 9042 378e 2B70     		strb	r3, [r5, #0]
 9043 3790 9B18     		adds	r3, r3, r2
 9044              	.LVL1430:
 9045 3792 2370     		strb	r3, [r4, #0]
 9046 3794 5948     		ldr	r0, .L283+20
 9047 3796 FFF7FEFF 		bl	uart_transmit
 9048              	.LVL1431:
 9049              	.LBE634:
 9050              	.LBB635:
 9051 379a 3178     		ldrb	r1, [r6, #0]	@ zero_extendqisi2
 9052              	.LVL1432:
 9053 379c 2B78     		ldrb	r3, [r5, #0]	@ zero_extendqisi2
 9054 379e 2278     		ldrb	r2, [r4, #0]	@ zero_extendqisi2
 9055 37a0 CB18     		adds	r3, r1, r3
 9056 37a2 DBB2     		uxtb	r3, r3
 9057              	.LVL1433:
 9058 37a4 2B70     		strb	r3, [r5, #0]
 9059 37a6 9B18     		adds	r3, r3, r2
 9060              	.LVL1434:
 9061 37a8 2370     		strb	r3, [r4, #0]
 9062 37aa 5448     		ldr	r0, .L283+20
 9063 37ac FFF7FEFF 		bl	uart_transmit
 9064              	.LVL1435:
 9065              	.LBE635:
 9066              	.LBB636:
 9067 37b0 7178     		ldrb	r1, [r6, #1]	@ zero_extendqisi2
 9068              	.LVL1436:
 9069 37b2 2B78     		ldrb	r3, [r5, #0]	@ zero_extendqisi2
 9070 37b4 2278     		ldrb	r2, [r4, #0]	@ zero_extendqisi2
 9071 37b6 CB18     		adds	r3, r1, r3
 9072 37b8 DBB2     		uxtb	r3, r3
 9073              	.LVL1437:
 9074 37ba 2B70     		strb	r3, [r5, #0]
 9075 37bc 9B18     		adds	r3, r3, r2
 9076              	.LVL1438:
 9077 37be 2370     		strb	r3, [r4, #0]
 9078 37c0 4E48     		ldr	r0, .L283+20
 9079 37c2 FFF7FEFF 		bl	uart_transmit
 9080              	.LVL1439:
 9081              	.LBE636:
 9082              	.LBB637:
 9083 37c6 B178     		ldrb	r1, [r6, #2]	@ zero_extendqisi2
 9084              	.LVL1440:
 9085 37c8 2B78     		ldrb	r3, [r5, #0]	@ zero_extendqisi2
 9086 37ca 2278     		ldrb	r2, [r4, #0]	@ zero_extendqisi2
 9087 37cc CB18     		adds	r3, r1, r3
 9088 37ce DBB2     		uxtb	r3, r3
 9089              	.LVL1441:
 9090 37d0 2B70     		strb	r3, [r5, #0]
 9091 37d2 9B18     		adds	r3, r3, r2
 9092              	.LVL1442:
 9093 37d4 2370     		strb	r3, [r4, #0]
 9094 37d6 4948     		ldr	r0, .L283+20
 9095 37d8 FFF7FEFF 		bl	uart_transmit
 9096              	.LVL1443:
 9097              	.LBE637:
 9098              	.LBB638:
 9099 37dc F178     		ldrb	r1, [r6, #3]	@ zero_extendqisi2
 9100              	.LVL1444:
 9101 37de 2B78     		ldrb	r3, [r5, #0]	@ zero_extendqisi2
 9102 37e0 2278     		ldrb	r2, [r4, #0]	@ zero_extendqisi2
 9103 37e2 CB18     		adds	r3, r1, r3
 9104 37e4 DBB2     		uxtb	r3, r3
 9105              	.LBE638:
 9106              	.LBB639:
 9107 37e6 4E4E     		ldr	r6, .L283+56
 9108              	.LVL1445:
 9109              	.LBE639:
 9110              	.LBB640:
 9111 37e8 2B70     		strb	r3, [r5, #0]
 9112 37ea 9B18     		adds	r3, r3, r2
 9113              	.LVL1446:
 9114 37ec 2370     		strb	r3, [r4, #0]
 9115 37ee 4348     		ldr	r0, .L283+20
 9116 37f0 FFF7FEFF 		bl	uart_transmit
 9117              	.LVL1447:
 9118              	.LBE640:
 9119              	.LBB641:
 9120 37f4 3178     		ldrb	r1, [r6, #0]	@ zero_extendqisi2
 9121              	.LVL1448:
 9122 37f6 2B78     		ldrb	r3, [r5, #0]	@ zero_extendqisi2
 9123 37f8 2278     		ldrb	r2, [r4, #0]	@ zero_extendqisi2
 9124 37fa CB18     		adds	r3, r1, r3
 9125 37fc DBB2     		uxtb	r3, r3
 9126              	.LVL1449:
 9127 37fe 2B70     		strb	r3, [r5, #0]
 9128 3800 9B18     		adds	r3, r3, r2
 9129              	.LVL1450:
 9130 3802 2370     		strb	r3, [r4, #0]
 9131 3804 3D48     		ldr	r0, .L283+20
 9132 3806 FFF7FEFF 		bl	uart_transmit
 9133              	.LVL1451:
 9134              	.LBE641:
 9135              	.LBB642:
 9136 380a 7178     		ldrb	r1, [r6, #1]	@ zero_extendqisi2
 9137              	.LVL1452:
 9138 380c 2B78     		ldrb	r3, [r5, #0]	@ zero_extendqisi2
 9139 380e 2278     		ldrb	r2, [r4, #0]	@ zero_extendqisi2
 9140 3810 CB18     		adds	r3, r1, r3
 9141 3812 DBB2     		uxtb	r3, r3
 9142              	.LVL1453:
 9143 3814 2B70     		strb	r3, [r5, #0]
 9144 3816 9B18     		adds	r3, r3, r2
 9145              	.LVL1454:
 9146 3818 2370     		strb	r3, [r4, #0]
 9147 381a 3848     		ldr	r0, .L283+20
 9148 381c FFF7FEFF 		bl	uart_transmit
 9149              	.LVL1455:
 9150              	.LBE642:
 9151              	.LBB643:
 9152 3820 B178     		ldrb	r1, [r6, #2]	@ zero_extendqisi2
 9153              	.LVL1456:
 9154 3822 2B78     		ldrb	r3, [r5, #0]	@ zero_extendqisi2
 9155 3824 2278     		ldrb	r2, [r4, #0]	@ zero_extendqisi2
 9156 3826 CB18     		adds	r3, r1, r3
 9157 3828 DBB2     		uxtb	r3, r3
 9158              	.LVL1457:
 9159 382a 2B70     		strb	r3, [r5, #0]
 9160 382c 9B18     		adds	r3, r3, r2
 9161              	.LVL1458:
 9162 382e 2370     		strb	r3, [r4, #0]
 9163 3830 3248     		ldr	r0, .L283+20
 9164 3832 FFF7FEFF 		bl	uart_transmit
 9165              	.LVL1459:
 9166              	.LBE643:
 9167              	.LBB644:
 9168 3836 F178     		ldrb	r1, [r6, #3]	@ zero_extendqisi2
 9169              	.LVL1460:
 9170 3838 2B78     		ldrb	r3, [r5, #0]	@ zero_extendqisi2
 9171 383a 2278     		ldrb	r2, [r4, #0]	@ zero_extendqisi2
 9172 383c CB18     		adds	r3, r1, r3
 9173 383e DBB2     		uxtb	r3, r3
 9174              	.LBE644:
 9175              	.LBB645:
 9176 3840 384E     		ldr	r6, .L283+60
 9177              	.LVL1461:
 9178              	.LBE645:
 9179              	.LBB646:
 9180 3842 2B70     		strb	r3, [r5, #0]
 9181 3844 9B18     		adds	r3, r3, r2
 9182              	.LVL1462:
 9183 3846 2370     		strb	r3, [r4, #0]
 9184 3848 2C48     		ldr	r0, .L283+20
 9185 384a FFF7FEFF 		bl	uart_transmit
 9186              	.LVL1463:
 9187              	.LBE646:
 9188              	.LBB647:
 9189 384e 3178     		ldrb	r1, [r6, #0]	@ zero_extendqisi2
 9190              	.LVL1464:
 9191 3850 2B78     		ldrb	r3, [r5, #0]	@ zero_extendqisi2
 9192 3852 2278     		ldrb	r2, [r4, #0]	@ zero_extendqisi2
 9193 3854 CB18     		adds	r3, r1, r3
 9194 3856 DBB2     		uxtb	r3, r3
 9195              	.LVL1465:
 9196 3858 2B70     		strb	r3, [r5, #0]
 9197 385a 9B18     		adds	r3, r3, r2
 9198              	.LVL1466:
 9199 385c 2370     		strb	r3, [r4, #0]
 9200 385e 2748     		ldr	r0, .L283+20
 9201 3860 FFF7FEFF 		bl	uart_transmit
 9202              	.LVL1467:
 9203              	.LBE647:
 9204              	.LBB648:
 9205 3864 7178     		ldrb	r1, [r6, #1]	@ zero_extendqisi2
 9206              	.LVL1468:
 9207 3866 2B78     		ldrb	r3, [r5, #0]	@ zero_extendqisi2
 9208 3868 2278     		ldrb	r2, [r4, #0]	@ zero_extendqisi2
 9209 386a CB18     		adds	r3, r1, r3
 9210 386c DBB2     		uxtb	r3, r3
 9211              	.LVL1469:
 9212 386e 2B70     		strb	r3, [r5, #0]
 9213 3870 9B18     		adds	r3, r3, r2
 9214              	.LVL1470:
 9215 3872 2370     		strb	r3, [r4, #0]
 9216 3874 2148     		ldr	r0, .L283+20
 9217 3876 FFF7FEFF 		bl	uart_transmit
 9218              	.LVL1471:
 9219              	.LBE648:
 9220              	.LBB649:
 9221 387a B178     		ldrb	r1, [r6, #2]	@ zero_extendqisi2
 9222              	.LVL1472:
 9223 387c 2B78     		ldrb	r3, [r5, #0]	@ zero_extendqisi2
 9224 387e 2278     		ldrb	r2, [r4, #0]	@ zero_extendqisi2
 9225 3880 CB18     		adds	r3, r1, r3
 9226 3882 DBB2     		uxtb	r3, r3
 9227              	.LVL1473:
 9228 3884 2B70     		strb	r3, [r5, #0]
 9229 3886 9B18     		adds	r3, r3, r2
 9230              	.LVL1474:
 9231 3888 2370     		strb	r3, [r4, #0]
 9232 388a 1C48     		ldr	r0, .L283+20
 9233 388c FFF7FEFF 		bl	uart_transmit
 9234              	.LVL1475:
 9235              	.LBE649:
 9236              	.LBB650:
 9237 3890 F178     		ldrb	r1, [r6, #3]	@ zero_extendqisi2
 9238              	.LVL1476:
 9239 3892 2B78     		ldrb	r3, [r5, #0]	@ zero_extendqisi2
 9240 3894 2278     		ldrb	r2, [r4, #0]	@ zero_extendqisi2
 9241 3896 CB18     		adds	r3, r1, r3
 9242 3898 DBB2     		uxtb	r3, r3
 9243              	.LVL1477:
 9244 389a 2B70     		strb	r3, [r5, #0]
 9245 389c 9B18     		adds	r3, r3, r2
 9246              	.LVL1478:
 9247 389e 2370     		strb	r3, [r4, #0]
 9248 38a0 1648     		ldr	r0, .L283+20
 9249 38a2 FFF7FEFF 		bl	uart_transmit
 9250              	.LVL1479:
 9251              	.LBE650:
 9252              	.LBB651:
 9253 38a6 2B78     		ldrb	r3, [r5, #0]	@ zero_extendqisi2
 9254 38a8 2278     		ldrb	r2, [r4, #0]	@ zero_extendqisi2
 9255 38aa FB18     		adds	r3, r7, r3
 9256 38ac DBB2     		uxtb	r3, r3
 9257              	.LVL1480:
 9258 38ae 2B70     		strb	r3, [r5, #0]
 9259 38b0 9B18     		adds	r3, r3, r2
 9260              	.LVL1481:
 9261 38b2 2370     		strb	r3, [r4, #0]
 9262 38b4 3946     		mov	r1, r7
 9263 38b6 1148     		ldr	r0, .L283+20
 9264 38b8 FFF7FEFF 		bl	uart_transmit
 9265              	.LBE651:
 9266              	.LBB652:
 9267 38bc 1A4B     		ldr	r3, .L283+64
 9268 38be 2278     		ldrb	r2, [r4, #0]	@ zero_extendqisi2
 9269 38c0 1978     		ldrb	r1, [r3, #0]	@ zero_extendqisi2
 9270              	.LVL1482:
 9271 38c2 2B78     		ldrb	r3, [r5, #0]	@ zero_extendqisi2
 9272 38c4 0D48     		ldr	r0, .L283+20
 9273 38c6 CB18     		adds	r3, r1, r3
 9274 38c8 DBB2     		uxtb	r3, r3
 9275              	.LVL1483:
 9276 38ca 2B70     		strb	r3, [r5, #0]
 9277 38cc 9B18     		adds	r3, r3, r2
 9278              	.LVL1484:
 9279 38ce 2370     		strb	r3, [r4, #0]
 9280 38d0 FFF7FEFF 		bl	uart_transmit
 9281              	.LVL1485:
 9282              	.LBE652:
 9283 38d4 2978     		ldrb	r1, [r5, #0]	@ zero_extendqisi2
 9284 38d6 0948     		ldr	r0, .L283+20
 9285 38d8 FFF7FEFF 		bl	uart_transmit
 9286 38dc 0748     		ldr	r0, .L283+20
 9287 38de 2178     		ldrb	r1, [r4, #0]	@ zero_extendqisi2
 9288 38e0 FFF7FEFF 		bl	uart_transmit
 9289 38e4 26E0     		b	.L138
 9290              	.L284:
 9291 38e6 00BF     		.align	3
 9292              	.L283:
 9293 38e8 182D4454 		.word	1413754136
 9294 38ec FB211940 		.word	1075388923
 9295 38f0 00000000 		.word	downlink_nb_ovrn
 9296 38f4 00000000 		.word	.LANCHOR41
 9297 38f8 00000000 		.word	nav_circle_radians
 9298 38fc 00000000 		.word	uart2
 9299 3900 00000000 		.word	downlink_nb_bytes
 9300 3904 00000000 		.word	downlink_nb_msgs
 9301 3908 00000000 		.word	ck_a
 9302 390c 00000000 		.word	ck_b
 9303 3910 00000000 		.word	nav_block
 9304 3914 00000000 		.word	nav_stage
 9305 3918 00000000 		.word	estimator_x
 9306 391c 00000000 		.word	estimator_y
 9307 3920 00000000 		.word	dist2_to_wp
 9308 3924 00000000 		.word	dist2_to_home
 9309 3928 00000000 		.word	nav_oval_count
 9310              	.LVL1486:
 9311              	.L139:
 9312              		.loc 1 422 0 discriminator 211
 9313 392c 644B     		ldr	r3, .L285
 9314 392e 1A78     		ldrb	r2, [r3, #0]	@ zero_extendqisi2
 9315 3930 0132     		adds	r2, r2, #1
 9316 3932 1A70     		strb	r2, [r3, #0]
 9317              	.LVL1487:
 9318              	.L138:
 9319              	.LBE620:
 9320              		.loc 1 422 0 discriminator 209
 9321 3934 634B     		ldr	r3, .L285+4
 9322 3936 1B78     		ldrb	r3, [r3, #0]	@ zero_extendqisi2
 9323 3938 2A2B     		cmp	r3, #42
 9324 393a 40F0DB80 		bne	.L140
 9325              		.loc 1 422 0 discriminator 212
 9326 393e 624B     		ldr	r3, .L285+8
 9327 3940 1B78     		ldrb	r3, [r3, #0]	@ zero_extendqisi2
 9328 3942 002B     		cmp	r3, #0
 9329 3944 00F0D680 		beq	.L140
 9330              		.loc 1 422 0 discriminator 214
 9331 3948 6048     		ldr	r0, .L285+12
 9332 394a 1221     		movs	r1, #18
 9333 394c FFF7FEFF 		bl	uart_check_free_space
 9334 3950 0028     		cmp	r0, #0
 9335 3952 00F0CB80 		beq	.L141
 9336              		.loc 1 422 0 discriminator 215
 9337 3956 5E4B     		ldr	r3, .L285+16
 9338              	.LBB653:
 9339 3958 9921     		movs	r1, #153
 9340              	.LBE653:
 9341 395a 1A88     		ldrh	r2, [r3, #0]
 9342              	.LBB654:
 9343 395c 5B48     		ldr	r0, .L285+12
 9344              	.LBE654:
 9345 395e 1232     		adds	r2, r2, #18
 9346 3960 1A80     		strh	r2, [r3, #0]	@ movhi
 9347 3962 5C4B     		ldr	r3, .L285+20
 9348 3964 5C4D     		ldr	r5, .L285+24
 9349 3966 1A88     		ldrh	r2, [r3, #0]
 9350 3968 5C4C     		ldr	r4, .L285+28
 9351 396a 0132     		adds	r2, r2, #1
 9352 396c 1A80     		strh	r2, [r3, #0]	@ movhi
 9353              	.LBB655:
 9354 396e FFF7FEFF 		bl	uart_transmit
 9355              	.LVL1488:
 9356 3972 1221     		movs	r1, #18
 9357 3974 5548     		ldr	r0, .L285+12
 9358 3976 FFF7FEFF 		bl	uart_transmit
 9359              	.LBE655:
 9360 397a 1323     		movs	r3, #19
 9361 397c 2B70     		strb	r3, [r5, #0]
 9362 397e 2523     		movs	r3, #37
 9363 3980 2370     		strb	r3, [r4, #0]
 9364 3982 0121     		movs	r1, #1
 9365 3984 5148     		ldr	r0, .L285+12
 9366 3986 FFF7FEFF 		bl	uart_transmit
 9367 398a 2B78     		ldrb	r3, [r5, #0]	@ zero_extendqisi2
 9368 398c 2278     		ldrb	r2, [r4, #0]	@ zero_extendqisi2
 9369 398e 1533     		adds	r3, r3, #21
 9370 3990 DBB2     		uxtb	r3, r3
 9371              	.LBB656:
 9372 3992 534E     		ldr	r6, .L285+32
 9373              	.LBE656:
 9374 3994 2B70     		strb	r3, [r5, #0]
 9375 3996 9B18     		adds	r3, r3, r2
 9376 3998 2370     		strb	r3, [r4, #0]
 9377 399a 1521     		movs	r1, #21
 9378 399c 4B48     		ldr	r0, .L285+12
 9379 399e FFF7FEFF 		bl	uart_transmit
 9380              	.LBB657:
 9381 39a2 3178     		ldrb	r1, [r6, #0]	@ zero_extendqisi2
 9382              	.LVL1489:
 9383 39a4 2B78     		ldrb	r3, [r5, #0]	@ zero_extendqisi2
 9384 39a6 2278     		ldrb	r2, [r4, #0]	@ zero_extendqisi2
 9385 39a8 CB18     		adds	r3, r1, r3
 9386 39aa DBB2     		uxtb	r3, r3
 9387              	.LVL1490:
 9388 39ac 2B70     		strb	r3, [r5, #0]
 9389 39ae 9B18     		adds	r3, r3, r2
 9390              	.LVL1491:
 9391 39b0 2370     		strb	r3, [r4, #0]
 9392 39b2 4648     		ldr	r0, .L285+12
 9393 39b4 FFF7FEFF 		bl	uart_transmit
 9394              	.LVL1492:
 9395              	.LBE657:
 9396              	.LBB658:
 9397 39b8 7178     		ldrb	r1, [r6, #1]	@ zero_extendqisi2
 9398              	.LVL1493:
 9399 39ba 2B78     		ldrb	r3, [r5, #0]	@ zero_extendqisi2
 9400 39bc 2278     		ldrb	r2, [r4, #0]	@ zero_extendqisi2
 9401 39be CB18     		adds	r3, r1, r3
 9402 39c0 DBB2     		uxtb	r3, r3
 9403              	.LVL1494:
 9404 39c2 2B70     		strb	r3, [r5, #0]
 9405 39c4 9B18     		adds	r3, r3, r2
 9406              	.LVL1495:
 9407 39c6 2370     		strb	r3, [r4, #0]
 9408 39c8 4048     		ldr	r0, .L285+12
 9409 39ca FFF7FEFF 		bl	uart_transmit
 9410              	.LVL1496:
 9411              	.LBE658:
 9412              	.LBB659:
 9413 39ce B178     		ldrb	r1, [r6, #2]	@ zero_extendqisi2
 9414              	.LVL1497:
 9415 39d0 2B78     		ldrb	r3, [r5, #0]	@ zero_extendqisi2
 9416 39d2 2278     		ldrb	r2, [r4, #0]	@ zero_extendqisi2
 9417 39d4 CB18     		adds	r3, r1, r3
 9418 39d6 DBB2     		uxtb	r3, r3
 9419              	.LVL1498:
 9420 39d8 2B70     		strb	r3, [r5, #0]
 9421 39da 9B18     		adds	r3, r3, r2
 9422              	.LVL1499:
 9423 39dc 2370     		strb	r3, [r4, #0]
 9424 39de 3B48     		ldr	r0, .L285+12
 9425 39e0 FFF7FEFF 		bl	uart_transmit
 9426              	.LVL1500:
 9427              	.LBE659:
 9428              	.LBB660:
 9429 39e4 F178     		ldrb	r1, [r6, #3]	@ zero_extendqisi2
 9430              	.LVL1501:
 9431 39e6 2B78     		ldrb	r3, [r5, #0]	@ zero_extendqisi2
 9432 39e8 2278     		ldrb	r2, [r4, #0]	@ zero_extendqisi2
 9433 39ea CB18     		adds	r3, r1, r3
 9434 39ec DBB2     		uxtb	r3, r3
 9435              	.LBE660:
 9436              	.LBB661:
 9437 39ee 3D4E     		ldr	r6, .L285+36
 9438              	.LVL1502:
 9439              	.LBE661:
 9440              	.LBB662:
 9441 39f0 2B70     		strb	r3, [r5, #0]
 9442 39f2 9B18     		adds	r3, r3, r2
 9443              	.LVL1503:
 9444 39f4 2370     		strb	r3, [r4, #0]
 9445 39f6 3548     		ldr	r0, .L285+12
 9446 39f8 FFF7FEFF 		bl	uart_transmit
 9447              	.LVL1504:
 9448              	.LBE662:
 9449              	.LBB663:
 9450 39fc 3178     		ldrb	r1, [r6, #0]	@ zero_extendqisi2
 9451              	.LVL1505:
 9452 39fe 2B78     		ldrb	r3, [r5, #0]	@ zero_extendqisi2
 9453 3a00 2278     		ldrb	r2, [r4, #0]	@ zero_extendqisi2
 9454 3a02 CB18     		adds	r3, r1, r3
 9455 3a04 DBB2     		uxtb	r3, r3
 9456              	.LVL1506:
 9457 3a06 2B70     		strb	r3, [r5, #0]
 9458 3a08 9B18     		adds	r3, r3, r2
 9459              	.LVL1507:
 9460 3a0a 2370     		strb	r3, [r4, #0]
 9461 3a0c 2F48     		ldr	r0, .L285+12
 9462 3a0e FFF7FEFF 		bl	uart_transmit
 9463              	.LVL1508:
 9464              	.LBE663:
 9465              	.LBB664:
 9466 3a12 7178     		ldrb	r1, [r6, #1]	@ zero_extendqisi2
 9467              	.LVL1509:
 9468 3a14 2B78     		ldrb	r3, [r5, #0]	@ zero_extendqisi2
 9469 3a16 2278     		ldrb	r2, [r4, #0]	@ zero_extendqisi2
 9470 3a18 CB18     		adds	r3, r1, r3
 9471 3a1a DBB2     		uxtb	r3, r3
 9472              	.LVL1510:
 9473 3a1c 2B70     		strb	r3, [r5, #0]
 9474 3a1e 9B18     		adds	r3, r3, r2
 9475              	.LVL1511:
 9476 3a20 2370     		strb	r3, [r4, #0]
 9477 3a22 2A48     		ldr	r0, .L285+12
 9478 3a24 FFF7FEFF 		bl	uart_transmit
 9479              	.LVL1512:
 9480              	.LBE664:
 9481              	.LBB665:
 9482 3a28 B178     		ldrb	r1, [r6, #2]	@ zero_extendqisi2
 9483              	.LVL1513:
 9484 3a2a 2B78     		ldrb	r3, [r5, #0]	@ zero_extendqisi2
 9485 3a2c 2278     		ldrb	r2, [r4, #0]	@ zero_extendqisi2
 9486 3a2e CB18     		adds	r3, r1, r3
 9487 3a30 DBB2     		uxtb	r3, r3
 9488              	.LVL1514:
 9489 3a32 2B70     		strb	r3, [r5, #0]
 9490 3a34 9B18     		adds	r3, r3, r2
 9491              	.LVL1515:
 9492 3a36 2370     		strb	r3, [r4, #0]
 9493 3a38 2448     		ldr	r0, .L285+12
 9494 3a3a FFF7FEFF 		bl	uart_transmit
 9495              	.LVL1516:
 9496              	.LBE665:
 9497              	.LBB666:
 9498 3a3e F178     		ldrb	r1, [r6, #3]	@ zero_extendqisi2
 9499              	.LVL1517:
 9500 3a40 2B78     		ldrb	r3, [r5, #0]	@ zero_extendqisi2
 9501 3a42 2278     		ldrb	r2, [r4, #0]	@ zero_extendqisi2
 9502 3a44 CB18     		adds	r3, r1, r3
 9503 3a46 DBB2     		uxtb	r3, r3
 9504              	.LBE666:
 9505              	.LBB667:
 9506 3a48 274E     		ldr	r6, .L285+40
 9507              	.LVL1518:
 9508              	.LBE667:
 9509              	.LBB668:
 9510 3a4a 2B70     		strb	r3, [r5, #0]
 9511 3a4c 9B18     		adds	r3, r3, r2
 9512              	.LVL1519:
 9513 3a4e 2370     		strb	r3, [r4, #0]
 9514 3a50 1E48     		ldr	r0, .L285+12
 9515 3a52 FFF7FEFF 		bl	uart_transmit
 9516              	.LVL1520:
 9517              	.LBE668:
 9518              	.LBB669:
 9519 3a56 3178     		ldrb	r1, [r6, #0]	@ zero_extendqisi2
 9520              	.LVL1521:
 9521 3a58 2B78     		ldrb	r3, [r5, #0]	@ zero_extendqisi2
 9522 3a5a 2278     		ldrb	r2, [r4, #0]	@ zero_extendqisi2
 9523 3a5c CB18     		adds	r3, r1, r3
 9524 3a5e DBB2     		uxtb	r3, r3
 9525              	.LVL1522:
 9526 3a60 2B70     		strb	r3, [r5, #0]
 9527 3a62 9B18     		adds	r3, r3, r2
 9528              	.LVL1523:
 9529 3a64 2370     		strb	r3, [r4, #0]
 9530 3a66 1948     		ldr	r0, .L285+12
 9531 3a68 FFF7FEFF 		bl	uart_transmit
 9532              	.LVL1524:
 9533              	.LBE669:
 9534              	.LBB670:
 9535 3a6c 7178     		ldrb	r1, [r6, #1]	@ zero_extendqisi2
 9536              	.LVL1525:
 9537 3a6e 2B78     		ldrb	r3, [r5, #0]	@ zero_extendqisi2
 9538 3a70 2278     		ldrb	r2, [r4, #0]	@ zero_extendqisi2
 9539 3a72 CB18     		adds	r3, r1, r3
 9540 3a74 DBB2     		uxtb	r3, r3
 9541              	.LVL1526:
 9542 3a76 2B70     		strb	r3, [r5, #0]
 9543 3a78 9B18     		adds	r3, r3, r2
 9544              	.LVL1527:
 9545 3a7a 2370     		strb	r3, [r4, #0]
 9546 3a7c 1348     		ldr	r0, .L285+12
 9547 3a7e FFF7FEFF 		bl	uart_transmit
 9548              	.LVL1528:
 9549              	.LBE670:
 9550              	.LBB671:
 9551 3a82 B178     		ldrb	r1, [r6, #2]	@ zero_extendqisi2
 9552              	.LVL1529:
 9553 3a84 2B78     		ldrb	r3, [r5, #0]	@ zero_extendqisi2
 9554 3a86 2278     		ldrb	r2, [r4, #0]	@ zero_extendqisi2
 9555 3a88 CB18     		adds	r3, r1, r3
 9556 3a8a DBB2     		uxtb	r3, r3
 9557              	.LVL1530:
 9558 3a8c 2B70     		strb	r3, [r5, #0]
 9559 3a8e 9B18     		adds	r3, r3, r2
 9560              	.LVL1531:
 9561 3a90 2370     		strb	r3, [r4, #0]
 9562 3a92 0E48     		ldr	r0, .L285+12
 9563 3a94 FFF7FEFF 		bl	uart_transmit
 9564              	.LVL1532:
 9565              	.LBE671:
 9566              	.LBB672:
 9567 3a98 F178     		ldrb	r1, [r6, #3]	@ zero_extendqisi2
 9568              	.LVL1533:
 9569 3a9a 2B78     		ldrb	r3, [r5, #0]	@ zero_extendqisi2
 9570 3a9c 2278     		ldrb	r2, [r4, #0]	@ zero_extendqisi2
 9571 3a9e CB18     		adds	r3, r1, r3
 9572 3aa0 DBB2     		uxtb	r3, r3
 9573              	.LVL1534:
 9574 3aa2 2B70     		strb	r3, [r5, #0]
 9575 3aa4 9B18     		adds	r3, r3, r2
 9576              	.LVL1535:
 9577 3aa6 2370     		strb	r3, [r4, #0]
 9578 3aa8 0848     		ldr	r0, .L285+12
 9579 3aaa FFF7FEFF 		bl	uart_transmit
 9580              	.LVL1536:
 9581              	.LBE672:
 9582 3aae 2978     		ldrb	r1, [r5, #0]	@ zero_extendqisi2
 9583 3ab0 0648     		ldr	r0, .L285+12
 9584 3ab2 FFF7FEFF 		bl	uart_transmit
 9585 3ab6 0548     		ldr	r0, .L285+12
 9586 3ab8 2178     		ldrb	r1, [r4, #0]	@ zero_extendqisi2
 9587 3aba FFF7FEFF 		bl	uart_transmit
 9588 3abe 19E0     		b	.L140
 9589              	.L286:
 9590              		.align	2
 9591              	.L285:
 9592 3ac0 00000000 		.word	downlink_nb_ovrn
 9593 3ac4 00000000 		.word	.LANCHOR42
 9594 3ac8 00000000 		.word	nav_in_circle
 9595 3acc 00000000 		.word	uart2
 9596 3ad0 00000000 		.word	downlink_nb_bytes
 9597 3ad4 00000000 		.word	downlink_nb_msgs
 9598 3ad8 00000000 		.word	ck_a
 9599 3adc 00000000 		.word	ck_b
 9600 3ae0 00000000 		.word	nav_circle_x
 9601 3ae4 00000000 		.word	nav_circle_y
 9602 3ae8 00000000 		.word	nav_circle_radius
 9603              	.LVL1537:
 9604              	.L141:
 9605              		.loc 1 422 0 discriminator 216
 9606 3aec 7B4B     		ldr	r3, .L287
 9607 3aee 1A78     		ldrb	r2, [r3, #0]	@ zero_extendqisi2
 9608 3af0 0132     		adds	r2, r2, #1
 9609 3af2 1A70     		strb	r2, [r3, #0]
 9610              	.L140:
 9611              		.loc 1 422 0 discriminator 213
 9612 3af4 7A4B     		ldr	r3, .L287+4
 9613 3af6 1B78     		ldrb	r3, [r3, #0]	@ zero_extendqisi2
 9614 3af8 302B     		cmp	r3, #48
 9615 3afa 40F00B81 		bne	.L142
 9616              		.loc 1 422 0 discriminator 217
 9617 3afe 794B     		ldr	r3, .L287+8
 9618 3b00 1B78     		ldrb	r3, [r3, #0]	@ zero_extendqisi2
 9619 3b02 002B     		cmp	r3, #0
 9620 3b04 00F00681 		beq	.L142
 9621              		.loc 1 422 0 discriminator 219
 9622 3b08 7748     		ldr	r0, .L287+12
 9623 3b0a 1621     		movs	r1, #22
 9624 3b0c FFF7FEFF 		bl	uart_check_free_space
 9625 3b10 0028     		cmp	r0, #0
 9626 3b12 00F0FB80 		beq	.L143
 9627              		.loc 1 422 0 discriminator 220
 9628 3b16 754B     		ldr	r3, .L287+16
 9629              	.LBB673:
 9630 3b18 9921     		movs	r1, #153
 9631              	.LBE673:
 9632 3b1a 1A88     		ldrh	r2, [r3, #0]
 9633              	.LBB674:
 9634 3b1c 7248     		ldr	r0, .L287+12
 9635              	.LBE674:
 9636 3b1e 1632     		adds	r2, r2, #22
 9637 3b20 1A80     		strh	r2, [r3, #0]	@ movhi
 9638 3b22 734B     		ldr	r3, .L287+20
 9639 3b24 734D     		ldr	r5, .L287+24
 9640 3b26 1A88     		ldrh	r2, [r3, #0]
 9641 3b28 734C     		ldr	r4, .L287+28
 9642 3b2a 0132     		adds	r2, r2, #1
 9643 3b2c 1A80     		strh	r2, [r3, #0]	@ movhi
 9644              	.LBB675:
 9645 3b2e FFF7FEFF 		bl	uart_transmit
 9646              	.LVL1538:
 9647 3b32 1621     		movs	r1, #22
 9648 3b34 6C48     		ldr	r0, .L287+12
 9649 3b36 FFF7FEFF 		bl	uart_transmit
 9650              	.LBE675:
 9651 3b3a 1723     		movs	r3, #23
 9652 3b3c 2B70     		strb	r3, [r5, #0]
 9653 3b3e 2D23     		movs	r3, #45
 9654 3b40 2370     		strb	r3, [r4, #0]
 9655 3b42 0121     		movs	r1, #1
 9656 3b44 6848     		ldr	r0, .L287+12
 9657 3b46 FFF7FEFF 		bl	uart_transmit
 9658 3b4a 2B78     		ldrb	r3, [r5, #0]	@ zero_extendqisi2
 9659 3b4c 2278     		ldrb	r2, [r4, #0]	@ zero_extendqisi2
 9660 3b4e 1633     		adds	r3, r3, #22
 9661 3b50 DBB2     		uxtb	r3, r3
 9662              	.LBB676:
 9663 3b52 6A4E     		ldr	r6, .L287+32
 9664              	.LBE676:
 9665 3b54 2B70     		strb	r3, [r5, #0]
 9666 3b56 9B18     		adds	r3, r3, r2
 9667 3b58 2370     		strb	r3, [r4, #0]
 9668 3b5a 1621     		movs	r1, #22
 9669 3b5c 6248     		ldr	r0, .L287+12
 9670 3b5e FFF7FEFF 		bl	uart_transmit
 9671              	.LBB677:
 9672 3b62 3178     		ldrb	r1, [r6, #0]	@ zero_extendqisi2
 9673              	.LVL1539:
 9674 3b64 2B78     		ldrb	r3, [r5, #0]	@ zero_extendqisi2
 9675 3b66 2278     		ldrb	r2, [r4, #0]	@ zero_extendqisi2
 9676 3b68 CB18     		adds	r3, r1, r3
 9677 3b6a DBB2     		uxtb	r3, r3
 9678              	.LVL1540:
 9679 3b6c 2B70     		strb	r3, [r5, #0]
 9680 3b6e 9B18     		adds	r3, r3, r2
 9681              	.LVL1541:
 9682 3b70 2370     		strb	r3, [r4, #0]
 9683 3b72 5D48     		ldr	r0, .L287+12
 9684 3b74 FFF7FEFF 		bl	uart_transmit
 9685              	.LVL1542:
 9686              	.LBE677:
 9687              	.LBB678:
 9688 3b78 7178     		ldrb	r1, [r6, #1]	@ zero_extendqisi2
 9689              	.LVL1543:
 9690 3b7a 2B78     		ldrb	r3, [r5, #0]	@ zero_extendqisi2
 9691 3b7c 2278     		ldrb	r2, [r4, #0]	@ zero_extendqisi2
 9692 3b7e CB18     		adds	r3, r1, r3
 9693 3b80 DBB2     		uxtb	r3, r3
 9694              	.LVL1544:
 9695 3b82 2B70     		strb	r3, [r5, #0]
 9696 3b84 9B18     		adds	r3, r3, r2
 9697              	.LVL1545:
 9698 3b86 2370     		strb	r3, [r4, #0]
 9699 3b88 5748     		ldr	r0, .L287+12
 9700 3b8a FFF7FEFF 		bl	uart_transmit
 9701              	.LVL1546:
 9702              	.LBE678:
 9703              	.LBB679:
 9704 3b8e B178     		ldrb	r1, [r6, #2]	@ zero_extendqisi2
 9705              	.LVL1547:
 9706 3b90 2B78     		ldrb	r3, [r5, #0]	@ zero_extendqisi2
 9707 3b92 2278     		ldrb	r2, [r4, #0]	@ zero_extendqisi2
 9708 3b94 CB18     		adds	r3, r1, r3
 9709 3b96 DBB2     		uxtb	r3, r3
 9710              	.LVL1548:
 9711 3b98 2B70     		strb	r3, [r5, #0]
 9712 3b9a 9B18     		adds	r3, r3, r2
 9713              	.LVL1549:
 9714 3b9c 2370     		strb	r3, [r4, #0]
 9715 3b9e 5248     		ldr	r0, .L287+12
 9716 3ba0 FFF7FEFF 		bl	uart_transmit
 9717              	.LVL1550:
 9718              	.LBE679:
 9719              	.LBB680:
 9720 3ba4 F178     		ldrb	r1, [r6, #3]	@ zero_extendqisi2
 9721              	.LVL1551:
 9722 3ba6 2B78     		ldrb	r3, [r5, #0]	@ zero_extendqisi2
 9723 3ba8 2278     		ldrb	r2, [r4, #0]	@ zero_extendqisi2
 9724 3baa CB18     		adds	r3, r1, r3
 9725 3bac DBB2     		uxtb	r3, r3
 9726              	.LBE680:
 9727              	.LBB681:
 9728 3bae 544E     		ldr	r6, .L287+36
 9729              	.LVL1552:
 9730              	.LBE681:
 9731              	.LBB682:
 9732 3bb0 2B70     		strb	r3, [r5, #0]
 9733 3bb2 9B18     		adds	r3, r3, r2
 9734              	.LVL1553:
 9735 3bb4 2370     		strb	r3, [r4, #0]
 9736 3bb6 4C48     		ldr	r0, .L287+12
 9737 3bb8 FFF7FEFF 		bl	uart_transmit
 9738              	.LVL1554:
 9739              	.LBE682:
 9740              	.LBB683:
 9741 3bbc 3178     		ldrb	r1, [r6, #0]	@ zero_extendqisi2
 9742              	.LVL1555:
 9743 3bbe 2B78     		ldrb	r3, [r5, #0]	@ zero_extendqisi2
 9744 3bc0 2278     		ldrb	r2, [r4, #0]	@ zero_extendqisi2
 9745 3bc2 CB18     		adds	r3, r1, r3
 9746 3bc4 DBB2     		uxtb	r3, r3
 9747              	.LVL1556:
 9748 3bc6 2B70     		strb	r3, [r5, #0]
 9749 3bc8 9B18     		adds	r3, r3, r2
 9750              	.LVL1557:
 9751 3bca 2370     		strb	r3, [r4, #0]
 9752 3bcc 4648     		ldr	r0, .L287+12
 9753 3bce FFF7FEFF 		bl	uart_transmit
 9754              	.LVL1558:
 9755              	.LBE683:
 9756              	.LBB684:
 9757 3bd2 7178     		ldrb	r1, [r6, #1]	@ zero_extendqisi2
 9758              	.LVL1559:
 9759 3bd4 2B78     		ldrb	r3, [r5, #0]	@ zero_extendqisi2
 9760 3bd6 2278     		ldrb	r2, [r4, #0]	@ zero_extendqisi2
 9761 3bd8 CB18     		adds	r3, r1, r3
 9762 3bda DBB2     		uxtb	r3, r3
 9763              	.LVL1560:
 9764 3bdc 2B70     		strb	r3, [r5, #0]
 9765 3bde 9B18     		adds	r3, r3, r2
 9766              	.LVL1561:
 9767 3be0 2370     		strb	r3, [r4, #0]
 9768 3be2 4148     		ldr	r0, .L287+12
 9769 3be4 FFF7FEFF 		bl	uart_transmit
 9770              	.LVL1562:
 9771              	.LBE684:
 9772              	.LBB685:
 9773 3be8 B178     		ldrb	r1, [r6, #2]	@ zero_extendqisi2
 9774              	.LVL1563:
 9775 3bea 2B78     		ldrb	r3, [r5, #0]	@ zero_extendqisi2
 9776 3bec 2278     		ldrb	r2, [r4, #0]	@ zero_extendqisi2
 9777 3bee CB18     		adds	r3, r1, r3
 9778 3bf0 DBB2     		uxtb	r3, r3
 9779              	.LVL1564:
 9780 3bf2 2B70     		strb	r3, [r5, #0]
 9781 3bf4 9B18     		adds	r3, r3, r2
 9782              	.LVL1565:
 9783 3bf6 2370     		strb	r3, [r4, #0]
 9784 3bf8 3B48     		ldr	r0, .L287+12
 9785 3bfa FFF7FEFF 		bl	uart_transmit
 9786              	.LVL1566:
 9787              	.LBE685:
 9788              	.LBB686:
 9789 3bfe F178     		ldrb	r1, [r6, #3]	@ zero_extendqisi2
 9790              	.LVL1567:
 9791 3c00 2B78     		ldrb	r3, [r5, #0]	@ zero_extendqisi2
 9792 3c02 2278     		ldrb	r2, [r4, #0]	@ zero_extendqisi2
 9793 3c04 CB18     		adds	r3, r1, r3
 9794 3c06 DBB2     		uxtb	r3, r3
 9795              	.LBE686:
 9796              	.LBB687:
 9797 3c08 3E4E     		ldr	r6, .L287+40
 9798              	.LVL1568:
 9799              	.LBE687:
 9800              	.LBB688:
 9801 3c0a 2B70     		strb	r3, [r5, #0]
 9802 3c0c 9B18     		adds	r3, r3, r2
 9803              	.LVL1569:
 9804 3c0e 2370     		strb	r3, [r4, #0]
 9805 3c10 3548     		ldr	r0, .L287+12
 9806 3c12 FFF7FEFF 		bl	uart_transmit
 9807              	.LVL1570:
 9808              	.LBE688:
 9809              	.LBB689:
 9810 3c16 3178     		ldrb	r1, [r6, #0]	@ zero_extendqisi2
 9811              	.LVL1571:
 9812 3c18 2B78     		ldrb	r3, [r5, #0]	@ zero_extendqisi2
 9813 3c1a 2278     		ldrb	r2, [r4, #0]	@ zero_extendqisi2
 9814 3c1c CB18     		adds	r3, r1, r3
 9815 3c1e DBB2     		uxtb	r3, r3
 9816              	.LVL1572:
 9817 3c20 2B70     		strb	r3, [r5, #0]
 9818 3c22 9B18     		adds	r3, r3, r2
 9819              	.LVL1573:
 9820 3c24 2370     		strb	r3, [r4, #0]
 9821 3c26 3048     		ldr	r0, .L287+12
 9822 3c28 FFF7FEFF 		bl	uart_transmit
 9823              	.LVL1574:
 9824              	.LBE689:
 9825              	.LBB690:
 9826 3c2c 7178     		ldrb	r1, [r6, #1]	@ zero_extendqisi2
 9827              	.LVL1575:
 9828 3c2e 2B78     		ldrb	r3, [r5, #0]	@ zero_extendqisi2
 9829 3c30 2278     		ldrb	r2, [r4, #0]	@ zero_extendqisi2
 9830 3c32 CB18     		adds	r3, r1, r3
 9831 3c34 DBB2     		uxtb	r3, r3
 9832              	.LVL1576:
 9833 3c36 2B70     		strb	r3, [r5, #0]
 9834 3c38 9B18     		adds	r3, r3, r2
 9835              	.LVL1577:
 9836 3c3a 2370     		strb	r3, [r4, #0]
 9837 3c3c 2A48     		ldr	r0, .L287+12
 9838 3c3e FFF7FEFF 		bl	uart_transmit
 9839              	.LVL1578:
 9840              	.LBE690:
 9841              	.LBB691:
 9842 3c42 B178     		ldrb	r1, [r6, #2]	@ zero_extendqisi2
 9843              	.LVL1579:
 9844 3c44 2B78     		ldrb	r3, [r5, #0]	@ zero_extendqisi2
 9845 3c46 2278     		ldrb	r2, [r4, #0]	@ zero_extendqisi2
 9846 3c48 CB18     		adds	r3, r1, r3
 9847 3c4a DBB2     		uxtb	r3, r3
 9848              	.LVL1580:
 9849 3c4c 2B70     		strb	r3, [r5, #0]
 9850 3c4e 9B18     		adds	r3, r3, r2
 9851              	.LVL1581:
 9852 3c50 2370     		strb	r3, [r4, #0]
 9853 3c52 2548     		ldr	r0, .L287+12
 9854 3c54 FFF7FEFF 		bl	uart_transmit
 9855              	.LVL1582:
 9856              	.LBE691:
 9857              	.LBB692:
 9858 3c58 F178     		ldrb	r1, [r6, #3]	@ zero_extendqisi2
 9859              	.LVL1583:
 9860 3c5a 2B78     		ldrb	r3, [r5, #0]	@ zero_extendqisi2
 9861 3c5c 2278     		ldrb	r2, [r4, #0]	@ zero_extendqisi2
 9862 3c5e CB18     		adds	r3, r1, r3
 9863 3c60 DBB2     		uxtb	r3, r3
 9864              	.LBE692:
 9865              	.LBB693:
 9866 3c62 294E     		ldr	r6, .L287+44
 9867              	.LVL1584:
 9868              	.LBE693:
 9869              	.LBB694:
 9870 3c64 2B70     		strb	r3, [r5, #0]
 9871 3c66 9B18     		adds	r3, r3, r2
 9872              	.LVL1585:
 9873 3c68 2370     		strb	r3, [r4, #0]
 9874 3c6a 1F48     		ldr	r0, .L287+12
 9875 3c6c FFF7FEFF 		bl	uart_transmit
 9876              	.LVL1586:
 9877              	.LBE694:
 9878              	.LBB695:
 9879 3c70 3178     		ldrb	r1, [r6, #0]	@ zero_extendqisi2
 9880              	.LVL1587:
 9881 3c72 2B78     		ldrb	r3, [r5, #0]	@ zero_extendqisi2
 9882 3c74 2278     		ldrb	r2, [r4, #0]	@ zero_extendqisi2
 9883 3c76 CB18     		adds	r3, r1, r3
 9884 3c78 DBB2     		uxtb	r3, r3
 9885              	.LVL1588:
 9886 3c7a 2B70     		strb	r3, [r5, #0]
 9887 3c7c 9B18     		adds	r3, r3, r2
 9888              	.LVL1589:
 9889 3c7e 2370     		strb	r3, [r4, #0]
 9890 3c80 1948     		ldr	r0, .L287+12
 9891 3c82 FFF7FEFF 		bl	uart_transmit
 9892              	.LVL1590:
 9893              	.LBE695:
 9894              	.LBB696:
 9895 3c86 7178     		ldrb	r1, [r6, #1]	@ zero_extendqisi2
 9896              	.LVL1591:
 9897 3c88 2B78     		ldrb	r3, [r5, #0]	@ zero_extendqisi2
 9898 3c8a 2278     		ldrb	r2, [r4, #0]	@ zero_extendqisi2
 9899 3c8c CB18     		adds	r3, r1, r3
 9900 3c8e DBB2     		uxtb	r3, r3
 9901              	.LVL1592:
 9902 3c90 2B70     		strb	r3, [r5, #0]
 9903 3c92 9B18     		adds	r3, r3, r2
 9904              	.LVL1593:
 9905 3c94 2370     		strb	r3, [r4, #0]
 9906 3c96 1448     		ldr	r0, .L287+12
 9907 3c98 FFF7FEFF 		bl	uart_transmit
 9908              	.LVL1594:
 9909              	.LBE696:
 9910              	.LBB697:
 9911 3c9c B178     		ldrb	r1, [r6, #2]	@ zero_extendqisi2
 9912              	.LVL1595:
 9913 3c9e 2B78     		ldrb	r3, [r5, #0]	@ zero_extendqisi2
 9914 3ca0 2278     		ldrb	r2, [r4, #0]	@ zero_extendqisi2
 9915 3ca2 CB18     		adds	r3, r1, r3
 9916 3ca4 DBB2     		uxtb	r3, r3
 9917              	.LVL1596:
 9918 3ca6 2B70     		strb	r3, [r5, #0]
 9919 3ca8 9B18     		adds	r3, r3, r2
 9920              	.LVL1597:
 9921 3caa 2370     		strb	r3, [r4, #0]
 9922 3cac 0E48     		ldr	r0, .L287+12
 9923 3cae FFF7FEFF 		bl	uart_transmit
 9924              	.LVL1598:
 9925              	.LBE697:
 9926              	.LBB698:
 9927 3cb2 F178     		ldrb	r1, [r6, #3]	@ zero_extendqisi2
 9928              	.LVL1599:
 9929 3cb4 2B78     		ldrb	r3, [r5, #0]	@ zero_extendqisi2
 9930 3cb6 2278     		ldrb	r2, [r4, #0]	@ zero_extendqisi2
 9931 3cb8 CB18     		adds	r3, r1, r3
 9932 3cba DBB2     		uxtb	r3, r3
 9933              	.LVL1600:
 9934 3cbc 2B70     		strb	r3, [r5, #0]
 9935 3cbe 9B18     		adds	r3, r3, r2
 9936              	.LVL1601:
 9937 3cc0 2370     		strb	r3, [r4, #0]
 9938 3cc2 0948     		ldr	r0, .L287+12
 9939 3cc4 FFF7FEFF 		bl	uart_transmit
 9940              	.LVL1602:
 9941              	.LBE698:
 9942 3cc8 2978     		ldrb	r1, [r5, #0]	@ zero_extendqisi2
 9943 3cca 0748     		ldr	r0, .L287+12
 9944 3ccc FFF7FEFF 		bl	uart_transmit
 9945 3cd0 0548     		ldr	r0, .L287+12
 9946 3cd2 2178     		ldrb	r1, [r4, #0]	@ zero_extendqisi2
 9947 3cd4 FFF7FEFF 		bl	uart_transmit
 9948 3cd8 1CE0     		b	.L142
 9949              	.L288:
 9950 3cda 00BF     		.align	2
 9951              	.L287:
 9952 3cdc 00000000 		.word	downlink_nb_ovrn
 9953 3ce0 00000000 		.word	.LANCHOR43
 9954 3ce4 00000000 		.word	nav_in_segment
 9955 3ce8 00000000 		.word	uart2
 9956 3cec 00000000 		.word	downlink_nb_bytes
 9957 3cf0 00000000 		.word	downlink_nb_msgs
 9958 3cf4 00000000 		.word	ck_a
 9959 3cf8 00000000 		.word	ck_b
 9960 3cfc 00000000 		.word	nav_segment_x_1
 9961 3d00 00000000 		.word	nav_segment_y_1
 9962 3d04 00000000 		.word	nav_segment_x_2
 9963 3d08 00000000 		.word	nav_segment_y_2
 9964              	.LVL1603:
 9965              	.L143:
 9966              		.loc 1 422 0 discriminator 221
 9967 3d0c 624B     		ldr	r3, .L289
 9968 3d0e 1A78     		ldrb	r2, [r3, #0]	@ zero_extendqisi2
 9969 3d10 0132     		adds	r2, r2, #1
 9970 3d12 1A70     		strb	r2, [r3, #0]
 9971              	.L142:
 9972              		.loc 1 422 0 discriminator 218
 9973 3d14 614B     		ldr	r3, .L289+4
 9974 3d16 1B78     		ldrb	r3, [r3, #0]	@ zero_extendqisi2
 9975 3d18 362B     		cmp	r3, #54
 9976 3d1a 40F0D580 		bne	.L144
 9977              		.loc 1 422 0 discriminator 222
 9978 3d1e 6048     		ldr	r0, .L289+8
 9979 3d20 1221     		movs	r1, #18
 9980 3d22 FFF7FEFF 		bl	uart_check_free_space
 9981 3d26 0028     		cmp	r0, #0
 9982 3d28 00F0CA80 		beq	.L145
 9983              		.loc 1 422 0 discriminator 224
 9984 3d2c 5D4B     		ldr	r3, .L289+12
 9985              	.LBB699:
 9986 3d2e 9921     		movs	r1, #153
 9987              	.LBE699:
 9988 3d30 1A88     		ldrh	r2, [r3, #0]
 9989              	.LBB700:
 9990 3d32 5B48     		ldr	r0, .L289+8
 9991              	.LBE700:
 9992 3d34 1232     		adds	r2, r2, #18
 9993 3d36 1A80     		strh	r2, [r3, #0]	@ movhi
 9994 3d38 5B4B     		ldr	r3, .L289+16
 9995 3d3a 5C4D     		ldr	r5, .L289+20
 9996 3d3c 1A88     		ldrh	r2, [r3, #0]
 9997 3d3e 5C4C     		ldr	r4, .L289+24
 9998 3d40 0132     		adds	r2, r2, #1
 9999 3d42 1A80     		strh	r2, [r3, #0]	@ movhi
 10000              	.LBB701:
 10001 3d44 FFF7FEFF 		bl	uart_transmit
 10002              	.LVL1604:
 10003 3d48 1221     		movs	r1, #18
 10004 3d4a 5548     		ldr	r0, .L289+8
 10005 3d4c FFF7FEFF 		bl	uart_transmit
 10006              	.LBE701:
 10007 3d50 1323     		movs	r3, #19
 10008 3d52 2B70     		strb	r3, [r5, #0]
 10009 3d54 2523     		movs	r3, #37
 10010 3d56 2370     		strb	r3, [r4, #0]
 10011 3d58 0121     		movs	r1, #1
 10012 3d5a 5148     		ldr	r0, .L289+8
 10013 3d5c FFF7FEFF 		bl	uart_transmit
 10014 3d60 2B78     		ldrb	r3, [r5, #0]	@ zero_extendqisi2
 10015 3d62 2278     		ldrb	r2, [r4, #0]	@ zero_extendqisi2
 10016 3d64 0633     		adds	r3, r3, #6
 10017 3d66 DBB2     		uxtb	r3, r3
 10018              	.LBB702:
 10019 3d68 524E     		ldr	r6, .L289+28
 10020              	.LBE702:
 10021 3d6a 2B70     		strb	r3, [r5, #0]
 10022 3d6c 9B18     		adds	r3, r3, r2
 10023 3d6e 2370     		strb	r3, [r4, #0]
 10024 3d70 0621     		movs	r1, #6
 10025 3d72 4B48     		ldr	r0, .L289+8
 10026 3d74 FFF7FEFF 		bl	uart_transmit
 10027              	.LBB703:
 10028 3d78 3178     		ldrb	r1, [r6, #0]	@ zero_extendqisi2
 10029              	.LVL1605:
 10030 3d7a 2B78     		ldrb	r3, [r5, #0]	@ zero_extendqisi2
 10031 3d7c 2278     		ldrb	r2, [r4, #0]	@ zero_extendqisi2
 10032 3d7e CB18     		adds	r3, r1, r3
 10033 3d80 DBB2     		uxtb	r3, r3
 10034              	.LVL1606:
 10035 3d82 2B70     		strb	r3, [r5, #0]
 10036 3d84 9B18     		adds	r3, r3, r2
 10037              	.LVL1607:
 10038 3d86 2370     		strb	r3, [r4, #0]
 10039 3d88 4548     		ldr	r0, .L289+8
 10040 3d8a FFF7FEFF 		bl	uart_transmit
 10041              	.LVL1608:
 10042              	.LBE703:
 10043              	.LBB704:
 10044 3d8e 7178     		ldrb	r1, [r6, #1]	@ zero_extendqisi2
 10045              	.LVL1609:
 10046 3d90 2B78     		ldrb	r3, [r5, #0]	@ zero_extendqisi2
 10047 3d92 2278     		ldrb	r2, [r4, #0]	@ zero_extendqisi2
 10048 3d94 CB18     		adds	r3, r1, r3
 10049 3d96 DBB2     		uxtb	r3, r3
 10050              	.LVL1610:
 10051 3d98 2B70     		strb	r3, [r5, #0]
 10052 3d9a 9B18     		adds	r3, r3, r2
 10053              	.LVL1611:
 10054 3d9c 2370     		strb	r3, [r4, #0]
 10055 3d9e 4048     		ldr	r0, .L289+8
 10056 3da0 FFF7FEFF 		bl	uart_transmit
 10057              	.LVL1612:
 10058              	.LBE704:
 10059              	.LBB705:
 10060 3da4 B178     		ldrb	r1, [r6, #2]	@ zero_extendqisi2
 10061              	.LVL1613:
 10062 3da6 2B78     		ldrb	r3, [r5, #0]	@ zero_extendqisi2
 10063 3da8 2278     		ldrb	r2, [r4, #0]	@ zero_extendqisi2
 10064 3daa CB18     		adds	r3, r1, r3
 10065 3dac DBB2     		uxtb	r3, r3
 10066              	.LVL1614:
 10067 3dae 2B70     		strb	r3, [r5, #0]
 10068 3db0 9B18     		adds	r3, r3, r2
 10069              	.LVL1615:
 10070 3db2 2370     		strb	r3, [r4, #0]
 10071 3db4 3A48     		ldr	r0, .L289+8
 10072 3db6 FFF7FEFF 		bl	uart_transmit
 10073              	.LVL1616:
 10074              	.LBE705:
 10075              	.LBB706:
 10076 3dba F178     		ldrb	r1, [r6, #3]	@ zero_extendqisi2
 10077              	.LVL1617:
 10078 3dbc 2B78     		ldrb	r3, [r5, #0]	@ zero_extendqisi2
 10079 3dbe 2278     		ldrb	r2, [r4, #0]	@ zero_extendqisi2
 10080 3dc0 CB18     		adds	r3, r1, r3
 10081 3dc2 DBB2     		uxtb	r3, r3
 10082              	.LBE706:
 10083              	.LBB707:
 10084 3dc4 3C4E     		ldr	r6, .L289+32
 10085              	.LVL1618:
 10086              	.LBE707:
 10087              	.LBB708:
 10088 3dc6 2B70     		strb	r3, [r5, #0]
 10089 3dc8 9B18     		adds	r3, r3, r2
 10090              	.LVL1619:
 10091 3dca 2370     		strb	r3, [r4, #0]
 10092 3dcc 3448     		ldr	r0, .L289+8
 10093 3dce FFF7FEFF 		bl	uart_transmit
 10094              	.LVL1620:
 10095              	.LBE708:
 10096              	.LBB709:
 10097 3dd2 3178     		ldrb	r1, [r6, #0]	@ zero_extendqisi2
 10098              	.LVL1621:
 10099 3dd4 2B78     		ldrb	r3, [r5, #0]	@ zero_extendqisi2
 10100 3dd6 2278     		ldrb	r2, [r4, #0]	@ zero_extendqisi2
 10101 3dd8 CB18     		adds	r3, r1, r3
 10102 3dda DBB2     		uxtb	r3, r3
 10103              	.LVL1622:
 10104 3ddc 2B70     		strb	r3, [r5, #0]
 10105 3dde 9B18     		adds	r3, r3, r2
 10106              	.LVL1623:
 10107 3de0 2370     		strb	r3, [r4, #0]
 10108 3de2 2F48     		ldr	r0, .L289+8
 10109 3de4 FFF7FEFF 		bl	uart_transmit
 10110              	.LVL1624:
 10111              	.LBE709:
 10112              	.LBB710:
 10113 3de8 7178     		ldrb	r1, [r6, #1]	@ zero_extendqisi2
 10114              	.LVL1625:
 10115 3dea 2B78     		ldrb	r3, [r5, #0]	@ zero_extendqisi2
 10116 3dec 2278     		ldrb	r2, [r4, #0]	@ zero_extendqisi2
 10117 3dee CB18     		adds	r3, r1, r3
 10118 3df0 DBB2     		uxtb	r3, r3
 10119              	.LVL1626:
 10120 3df2 2B70     		strb	r3, [r5, #0]
 10121 3df4 9B18     		adds	r3, r3, r2
 10122              	.LVL1627:
 10123 3df6 2370     		strb	r3, [r4, #0]
 10124 3df8 2948     		ldr	r0, .L289+8
 10125 3dfa FFF7FEFF 		bl	uart_transmit
 10126              	.LVL1628:
 10127              	.LBE710:
 10128              	.LBB711:
 10129 3dfe B178     		ldrb	r1, [r6, #2]	@ zero_extendqisi2
 10130              	.LVL1629:
 10131 3e00 2B78     		ldrb	r3, [r5, #0]	@ zero_extendqisi2
 10132 3e02 2278     		ldrb	r2, [r4, #0]	@ zero_extendqisi2
 10133 3e04 CB18     		adds	r3, r1, r3
 10134 3e06 DBB2     		uxtb	r3, r3
 10135              	.LVL1630:
 10136 3e08 2B70     		strb	r3, [r5, #0]
 10137 3e0a 9B18     		adds	r3, r3, r2
 10138              	.LVL1631:
 10139 3e0c 2370     		strb	r3, [r4, #0]
 10140 3e0e 2448     		ldr	r0, .L289+8
 10141 3e10 FFF7FEFF 		bl	uart_transmit
 10142              	.LVL1632:
 10143              	.LBE711:
 10144              	.LBB712:
 10145 3e14 F178     		ldrb	r1, [r6, #3]	@ zero_extendqisi2
 10146              	.LVL1633:
 10147 3e16 2B78     		ldrb	r3, [r5, #0]	@ zero_extendqisi2
 10148 3e18 2278     		ldrb	r2, [r4, #0]	@ zero_extendqisi2
 10149 3e1a CB18     		adds	r3, r1, r3
 10150 3e1c DBB2     		uxtb	r3, r3
 10151              	.LBE712:
 10152              	.LBB713:
 10153 3e1e 274E     		ldr	r6, .L289+36
 10154              	.LVL1634:
 10155              	.LBE713:
 10156              	.LBB714:
 10157 3e20 2B70     		strb	r3, [r5, #0]
 10158 3e22 9B18     		adds	r3, r3, r2
 10159              	.LVL1635:
 10160 3e24 2370     		strb	r3, [r4, #0]
 10161 3e26 1E48     		ldr	r0, .L289+8
 10162 3e28 FFF7FEFF 		bl	uart_transmit
 10163              	.LVL1636:
 10164              	.LBE714:
 10165              	.LBB715:
 10166 3e2c 3178     		ldrb	r1, [r6, #0]	@ zero_extendqisi2
 10167              	.LVL1637:
 10168 3e2e 2B78     		ldrb	r3, [r5, #0]	@ zero_extendqisi2
 10169 3e30 2278     		ldrb	r2, [r4, #0]	@ zero_extendqisi2
 10170 3e32 CB18     		adds	r3, r1, r3
 10171 3e34 DBB2     		uxtb	r3, r3
 10172              	.LVL1638:
 10173 3e36 2B70     		strb	r3, [r5, #0]
 10174 3e38 9B18     		adds	r3, r3, r2
 10175              	.LVL1639:
 10176 3e3a 2370     		strb	r3, [r4, #0]
 10177 3e3c 1848     		ldr	r0, .L289+8
 10178 3e3e FFF7FEFF 		bl	uart_transmit
 10179              	.LVL1640:
 10180              	.LBE715:
 10181              	.LBB716:
 10182 3e42 7178     		ldrb	r1, [r6, #1]	@ zero_extendqisi2
 10183              	.LVL1641:
 10184 3e44 2B78     		ldrb	r3, [r5, #0]	@ zero_extendqisi2
 10185 3e46 2278     		ldrb	r2, [r4, #0]	@ zero_extendqisi2
 10186 3e48 CB18     		adds	r3, r1, r3
 10187 3e4a DBB2     		uxtb	r3, r3
 10188              	.LVL1642:
 10189 3e4c 2B70     		strb	r3, [r5, #0]
 10190 3e4e 9B18     		adds	r3, r3, r2
 10191              	.LVL1643:
 10192 3e50 2370     		strb	r3, [r4, #0]
 10193 3e52 1348     		ldr	r0, .L289+8
 10194 3e54 FFF7FEFF 		bl	uart_transmit
 10195              	.LVL1644:
 10196              	.LBE716:
 10197              	.LBB717:
 10198 3e58 B178     		ldrb	r1, [r6, #2]	@ zero_extendqisi2
 10199              	.LVL1645:
 10200 3e5a 2B78     		ldrb	r3, [r5, #0]	@ zero_extendqisi2
 10201 3e5c 2278     		ldrb	r2, [r4, #0]	@ zero_extendqisi2
 10202 3e5e CB18     		adds	r3, r1, r3
 10203 3e60 DBB2     		uxtb	r3, r3
 10204              	.LVL1646:
 10205 3e62 2B70     		strb	r3, [r5, #0]
 10206 3e64 9B18     		adds	r3, r3, r2
 10207              	.LVL1647:
 10208 3e66 2370     		strb	r3, [r4, #0]
 10209 3e68 0D48     		ldr	r0, .L289+8
 10210 3e6a FFF7FEFF 		bl	uart_transmit
 10211              	.LVL1648:
 10212              	.LBE717:
 10213              	.LBB718:
 10214 3e6e F178     		ldrb	r1, [r6, #3]	@ zero_extendqisi2
 10215              	.LVL1649:
 10216 3e70 2B78     		ldrb	r3, [r5, #0]	@ zero_extendqisi2
 10217 3e72 2278     		ldrb	r2, [r4, #0]	@ zero_extendqisi2
 10218 3e74 CB18     		adds	r3, r1, r3
 10219 3e76 DBB2     		uxtb	r3, r3
 10220              	.LVL1650:
 10221 3e78 2B70     		strb	r3, [r5, #0]
 10222 3e7a 9B18     		adds	r3, r3, r2
 10223              	.LVL1651:
 10224 3e7c 2370     		strb	r3, [r4, #0]
 10225 3e7e 0848     		ldr	r0, .L289+8
 10226 3e80 FFF7FEFF 		bl	uart_transmit
 10227              	.LVL1652:
 10228              	.LBE718:
 10229 3e84 2978     		ldrb	r1, [r5, #0]	@ zero_extendqisi2
 10230 3e86 0648     		ldr	r0, .L289+8
 10231 3e88 FFF7FEFF 		bl	uart_transmit
 10232 3e8c 0448     		ldr	r0, .L289+8
 10233 3e8e 2178     		ldrb	r1, [r4, #0]	@ zero_extendqisi2
 10234 3e90 FFF7FEFF 		bl	uart_transmit
 10235 3e94 18E0     		b	.L144
 10236              	.L290:
 10237 3e96 00BF     		.align	2
 10238              	.L289:
 10239 3e98 00000000 		.word	downlink_nb_ovrn
 10240 3e9c 00000000 		.word	.LANCHOR44
 10241 3ea0 00000000 		.word	uart2
 10242 3ea4 00000000 		.word	downlink_nb_bytes
 10243 3ea8 00000000 		.word	downlink_nb_msgs
 10244 3eac 00000000 		.word	ck_a
 10245 3eb0 00000000 		.word	ck_b
 10246 3eb4 00000000 		.word	estimator_phi
 10247 3eb8 00000000 		.word	estimator_psi
 10248 3ebc 00000000 		.word	estimator_theta
 10249              	.LVL1653:
 10250              	.L145:
 10251              		.loc 1 422 0 discriminator 225
 10252 3ec0 9C4B     		ldr	r3, .L291
 10253 3ec2 1A78     		ldrb	r2, [r3, #0]	@ zero_extendqisi2
 10254 3ec4 0132     		adds	r2, r2, #1
 10255 3ec6 1A70     		strb	r2, [r3, #0]
 10256              	.L144:
 10257              		.loc 1 422 0 discriminator 223
 10258 3ec8 9B4B     		ldr	r3, .L291+4
 10259 3eca 1B78     		ldrb	r3, [r3, #0]	@ zero_extendqisi2
 10260 3ecc 3C2B     		cmp	r3, #60
 10261 3ece 40F08F81 		bne	.L146
 10262              		.loc 1 422 0 discriminator 226
 10263 3ed2 9A48     		ldr	r0, .L291+8
 10264 3ed4 2221     		movs	r1, #34
 10265 3ed6 FFF7FEFF 		bl	uart_check_free_space
 10266 3eda 0028     		cmp	r0, #0
 10267 3edc 00F08481 		beq	.L147
 10268              		.loc 1 422 0 discriminator 228
 10269 3ee0 974B     		ldr	r3, .L291+12
 10270              	.LBB719:
 10271 3ee2 9921     		movs	r1, #153
 10272              	.LBE719:
 10273 3ee4 1A88     		ldrh	r2, [r3, #0]
 10274              	.LBB720:
 10275 3ee6 9548     		ldr	r0, .L291+8
 10276              	.LBE720:
 10277 3ee8 2232     		adds	r2, r2, #34
 10278 3eea 1A80     		strh	r2, [r3, #0]	@ movhi
 10279 3eec 954B     		ldr	r3, .L291+16
 10280 3eee 964D     		ldr	r5, .L291+20
 10281 3ef0 1A88     		ldrh	r2, [r3, #0]
 10282 3ef2 964C     		ldr	r4, .L291+24
 10283 3ef4 0132     		adds	r2, r2, #1
 10284 3ef6 1A80     		strh	r2, [r3, #0]	@ movhi
 10285              	.LBB721:
 10286 3ef8 FFF7FEFF 		bl	uart_transmit
 10287              	.LVL1654:
 10288 3efc 2221     		movs	r1, #34
 10289 3efe 8F48     		ldr	r0, .L291+8
 10290 3f00 FFF7FEFF 		bl	uart_transmit
 10291              	.LBE721:
 10292 3f04 2323     		movs	r3, #35
 10293 3f06 2B70     		strb	r3, [r5, #0]
 10294 3f08 4523     		movs	r3, #69
 10295 3f0a 2370     		strb	r3, [r4, #0]
 10296 3f0c 0121     		movs	r1, #1
 10297 3f0e 8B48     		ldr	r0, .L291+8
 10298 3f10 FFF7FEFF 		bl	uart_transmit
 10299 3f14 2B78     		ldrb	r3, [r5, #0]	@ zero_extendqisi2
 10300 3f16 2278     		ldrb	r2, [r4, #0]	@ zero_extendqisi2
 10301 3f18 1033     		adds	r3, r3, #16
 10302 3f1a DBB2     		uxtb	r3, r3
 10303              	.LBB722:
 10304 3f1c 8C4E     		ldr	r6, .L291+28
 10305              	.LBE722:
 10306 3f1e 2B70     		strb	r3, [r5, #0]
 10307 3f20 9B18     		adds	r3, r3, r2
 10308 3f22 2370     		strb	r3, [r4, #0]
 10309 3f24 1021     		movs	r1, #16
 10310 3f26 8548     		ldr	r0, .L291+8
 10311 3f28 FFF7FEFF 		bl	uart_transmit
 10312              	.LBB723:
 10313 3f2c 3178     		ldrb	r1, [r6, #0]	@ zero_extendqisi2
 10314              	.LVL1655:
 10315 3f2e 2B78     		ldrb	r3, [r5, #0]	@ zero_extendqisi2
 10316 3f30 2278     		ldrb	r2, [r4, #0]	@ zero_extendqisi2
 10317 3f32 CB18     		adds	r3, r1, r3
 10318 3f34 DBB2     		uxtb	r3, r3
 10319              	.LVL1656:
 10320 3f36 2B70     		strb	r3, [r5, #0]
 10321 3f38 9B18     		adds	r3, r3, r2
 10322              	.LVL1657:
 10323 3f3a 2370     		strb	r3, [r4, #0]
 10324 3f3c 7F48     		ldr	r0, .L291+8
 10325 3f3e FFF7FEFF 		bl	uart_transmit
 10326              	.LVL1658:
 10327              	.LBE723:
 10328              	.LBB724:
 10329 3f42 7178     		ldrb	r1, [r6, #1]	@ zero_extendqisi2
 10330              	.LVL1659:
 10331 3f44 2B78     		ldrb	r3, [r5, #0]	@ zero_extendqisi2
 10332 3f46 2278     		ldrb	r2, [r4, #0]	@ zero_extendqisi2
 10333 3f48 CB18     		adds	r3, r1, r3
 10334 3f4a DBB2     		uxtb	r3, r3
 10335              	.LVL1660:
 10336 3f4c 2B70     		strb	r3, [r5, #0]
 10337 3f4e 9B18     		adds	r3, r3, r2
 10338              	.LVL1661:
 10339 3f50 2370     		strb	r3, [r4, #0]
 10340 3f52 7A48     		ldr	r0, .L291+8
 10341 3f54 FFF7FEFF 		bl	uart_transmit
 10342              	.LVL1662:
 10343              	.LBE724:
 10344              	.LBB725:
 10345 3f58 B178     		ldrb	r1, [r6, #2]	@ zero_extendqisi2
 10346              	.LVL1663:
 10347 3f5a 2B78     		ldrb	r3, [r5, #0]	@ zero_extendqisi2
 10348 3f5c 2278     		ldrb	r2, [r4, #0]	@ zero_extendqisi2
 10349 3f5e CB18     		adds	r3, r1, r3
 10350 3f60 DBB2     		uxtb	r3, r3
 10351              	.LVL1664:
 10352 3f62 2B70     		strb	r3, [r5, #0]
 10353 3f64 9B18     		adds	r3, r3, r2
 10354              	.LVL1665:
 10355 3f66 2370     		strb	r3, [r4, #0]
 10356 3f68 7448     		ldr	r0, .L291+8
 10357 3f6a FFF7FEFF 		bl	uart_transmit
 10358              	.LVL1666:
 10359              	.LBE725:
 10360              	.LBB726:
 10361 3f6e F178     		ldrb	r1, [r6, #3]	@ zero_extendqisi2
 10362              	.LVL1667:
 10363 3f70 2B78     		ldrb	r3, [r5, #0]	@ zero_extendqisi2
 10364 3f72 2278     		ldrb	r2, [r4, #0]	@ zero_extendqisi2
 10365 3f74 CB18     		adds	r3, r1, r3
 10366 3f76 DBB2     		uxtb	r3, r3
 10367              	.LBE726:
 10368              	.LBB727:
 10369 3f78 764E     		ldr	r6, .L291+32
 10370              	.LVL1668:
 10371              	.LBE727:
 10372              	.LBB728:
 10373 3f7a 2B70     		strb	r3, [r5, #0]
 10374 3f7c 9B18     		adds	r3, r3, r2
 10375              	.LVL1669:
 10376 3f7e 2370     		strb	r3, [r4, #0]
 10377 3f80 6E48     		ldr	r0, .L291+8
 10378 3f82 FFF7FEFF 		bl	uart_transmit
 10379              	.LVL1670:
 10380              	.LBE728:
 10381              	.LBB729:
 10382 3f86 3178     		ldrb	r1, [r6, #0]	@ zero_extendqisi2
 10383              	.LVL1671:
 10384 3f88 2B78     		ldrb	r3, [r5, #0]	@ zero_extendqisi2
 10385 3f8a 2278     		ldrb	r2, [r4, #0]	@ zero_extendqisi2
 10386 3f8c CB18     		adds	r3, r1, r3
 10387 3f8e DBB2     		uxtb	r3, r3
 10388              	.LVL1672:
 10389 3f90 2B70     		strb	r3, [r5, #0]
 10390 3f92 9B18     		adds	r3, r3, r2
 10391              	.LVL1673:
 10392 3f94 2370     		strb	r3, [r4, #0]
 10393 3f96 6948     		ldr	r0, .L291+8
 10394 3f98 FFF7FEFF 		bl	uart_transmit
 10395              	.LVL1674:
 10396              	.LBE729:
 10397              	.LBB730:
 10398 3f9c 7178     		ldrb	r1, [r6, #1]	@ zero_extendqisi2
 10399              	.LVL1675:
 10400 3f9e 2B78     		ldrb	r3, [r5, #0]	@ zero_extendqisi2
 10401 3fa0 2278     		ldrb	r2, [r4, #0]	@ zero_extendqisi2
 10402 3fa2 CB18     		adds	r3, r1, r3
 10403 3fa4 DBB2     		uxtb	r3, r3
 10404              	.LVL1676:
 10405 3fa6 2B70     		strb	r3, [r5, #0]
 10406 3fa8 9B18     		adds	r3, r3, r2
 10407              	.LVL1677:
 10408 3faa 2370     		strb	r3, [r4, #0]
 10409 3fac 6348     		ldr	r0, .L291+8
 10410 3fae FFF7FEFF 		bl	uart_transmit
 10411              	.LVL1678:
 10412              	.LBE730:
 10413              	.LBB731:
 10414 3fb2 B178     		ldrb	r1, [r6, #2]	@ zero_extendqisi2
 10415              	.LVL1679:
 10416 3fb4 2B78     		ldrb	r3, [r5, #0]	@ zero_extendqisi2
 10417 3fb6 2278     		ldrb	r2, [r4, #0]	@ zero_extendqisi2
 10418 3fb8 CB18     		adds	r3, r1, r3
 10419 3fba DBB2     		uxtb	r3, r3
 10420              	.LVL1680:
 10421 3fbc 2B70     		strb	r3, [r5, #0]
 10422 3fbe 9B18     		adds	r3, r3, r2
 10423              	.LVL1681:
 10424 3fc0 2370     		strb	r3, [r4, #0]
 10425 3fc2 5E48     		ldr	r0, .L291+8
 10426 3fc4 FFF7FEFF 		bl	uart_transmit
 10427              	.LVL1682:
 10428              	.LBE731:
 10429              	.LBB732:
 10430 3fc8 F178     		ldrb	r1, [r6, #3]	@ zero_extendqisi2
 10431              	.LVL1683:
 10432 3fca 2B78     		ldrb	r3, [r5, #0]	@ zero_extendqisi2
 10433 3fcc 2278     		ldrb	r2, [r4, #0]	@ zero_extendqisi2
 10434 3fce CB18     		adds	r3, r1, r3
 10435 3fd0 DBB2     		uxtb	r3, r3
 10436              	.LBE732:
 10437              	.LBB733:
 10438 3fd2 614E     		ldr	r6, .L291+36
 10439              	.LVL1684:
 10440              	.LBE733:
 10441              	.LBB734:
 10442 3fd4 2B70     		strb	r3, [r5, #0]
 10443 3fd6 9B18     		adds	r3, r3, r2
 10444              	.LVL1685:
 10445 3fd8 2370     		strb	r3, [r4, #0]
 10446 3fda 5848     		ldr	r0, .L291+8
 10447 3fdc FFF7FEFF 		bl	uart_transmit
 10448              	.LVL1686:
 10449              	.LBE734:
 10450              	.LBB735:
 10451 3fe0 3178     		ldrb	r1, [r6, #0]	@ zero_extendqisi2
 10452              	.LVL1687:
 10453 3fe2 2B78     		ldrb	r3, [r5, #0]	@ zero_extendqisi2
 10454 3fe4 2278     		ldrb	r2, [r4, #0]	@ zero_extendqisi2
 10455 3fe6 CB18     		adds	r3, r1, r3
 10456 3fe8 DBB2     		uxtb	r3, r3
 10457              	.LVL1688:
 10458 3fea 2B70     		strb	r3, [r5, #0]
 10459 3fec 9B18     		adds	r3, r3, r2
 10460              	.LVL1689:
 10461 3fee 2370     		strb	r3, [r4, #0]
 10462 3ff0 5248     		ldr	r0, .L291+8
 10463 3ff2 FFF7FEFF 		bl	uart_transmit
 10464              	.LVL1690:
 10465              	.LBE735:
 10466              	.LBB736:
 10467 3ff6 7178     		ldrb	r1, [r6, #1]	@ zero_extendqisi2
 10468              	.LVL1691:
 10469 3ff8 2B78     		ldrb	r3, [r5, #0]	@ zero_extendqisi2
 10470 3ffa 2278     		ldrb	r2, [r4, #0]	@ zero_extendqisi2
 10471 3ffc CB18     		adds	r3, r1, r3
 10472 3ffe DBB2     		uxtb	r3, r3
 10473              	.LVL1692:
 10474 4000 2B70     		strb	r3, [r5, #0]
 10475 4002 9B18     		adds	r3, r3, r2
 10476              	.LVL1693:
 10477 4004 2370     		strb	r3, [r4, #0]
 10478 4006 4D48     		ldr	r0, .L291+8
 10479 4008 FFF7FEFF 		bl	uart_transmit
 10480              	.LVL1694:
 10481              	.LBE736:
 10482              	.LBB737:
 10483 400c B178     		ldrb	r1, [r6, #2]	@ zero_extendqisi2
 10484              	.LVL1695:
 10485 400e 2B78     		ldrb	r3, [r5, #0]	@ zero_extendqisi2
 10486 4010 2278     		ldrb	r2, [r4, #0]	@ zero_extendqisi2
 10487 4012 CB18     		adds	r3, r1, r3
 10488 4014 DBB2     		uxtb	r3, r3
 10489              	.LVL1696:
 10490 4016 2B70     		strb	r3, [r5, #0]
 10491 4018 9B18     		adds	r3, r3, r2
 10492              	.LVL1697:
 10493 401a 2370     		strb	r3, [r4, #0]
 10494 401c 4748     		ldr	r0, .L291+8
 10495 401e FFF7FEFF 		bl	uart_transmit
 10496              	.LVL1698:
 10497              	.LBE737:
 10498              	.LBB738:
 10499 4022 F178     		ldrb	r1, [r6, #3]	@ zero_extendqisi2
 10500              	.LVL1699:
 10501 4024 2B78     		ldrb	r3, [r5, #0]	@ zero_extendqisi2
 10502 4026 2278     		ldrb	r2, [r4, #0]	@ zero_extendqisi2
 10503 4028 CB18     		adds	r3, r1, r3
 10504 402a DBB2     		uxtb	r3, r3
 10505              	.LBE738:
 10506              	.LBB739:
 10507 402c 4B4E     		ldr	r6, .L291+40
 10508              	.LVL1700:
 10509              	.LBE739:
 10510              	.LBB740:
 10511 402e 2B70     		strb	r3, [r5, #0]
 10512 4030 9B18     		adds	r3, r3, r2
 10513              	.LVL1701:
 10514 4032 2370     		strb	r3, [r4, #0]
 10515 4034 4148     		ldr	r0, .L291+8
 10516 4036 FFF7FEFF 		bl	uart_transmit
 10517              	.LVL1702:
 10518              	.LBE740:
 10519              	.LBB741:
 10520 403a 3178     		ldrb	r1, [r6, #0]	@ zero_extendqisi2
 10521              	.LVL1703:
 10522 403c 2B78     		ldrb	r3, [r5, #0]	@ zero_extendqisi2
 10523 403e 2278     		ldrb	r2, [r4, #0]	@ zero_extendqisi2
 10524 4040 CB18     		adds	r3, r1, r3
 10525 4042 DBB2     		uxtb	r3, r3
 10526              	.LVL1704:
 10527 4044 2B70     		strb	r3, [r5, #0]
 10528 4046 9B18     		adds	r3, r3, r2
 10529              	.LVL1705:
 10530 4048 2370     		strb	r3, [r4, #0]
 10531 404a 3C48     		ldr	r0, .L291+8
 10532 404c FFF7FEFF 		bl	uart_transmit
 10533              	.LVL1706:
 10534              	.LBE741:
 10535              	.LBB742:
 10536 4050 7178     		ldrb	r1, [r6, #1]	@ zero_extendqisi2
 10537              	.LVL1707:
 10538 4052 2B78     		ldrb	r3, [r5, #0]	@ zero_extendqisi2
 10539 4054 2278     		ldrb	r2, [r4, #0]	@ zero_extendqisi2
 10540 4056 CB18     		adds	r3, r1, r3
 10541 4058 DBB2     		uxtb	r3, r3
 10542              	.LVL1708:
 10543 405a 2B70     		strb	r3, [r5, #0]
 10544 405c 9B18     		adds	r3, r3, r2
 10545              	.LVL1709:
 10546 405e 2370     		strb	r3, [r4, #0]
 10547 4060 3648     		ldr	r0, .L291+8
 10548 4062 FFF7FEFF 		bl	uart_transmit
 10549              	.LVL1710:
 10550              	.LBE742:
 10551              	.LBB743:
 10552 4066 B178     		ldrb	r1, [r6, #2]	@ zero_extendqisi2
 10553              	.LVL1711:
 10554 4068 2B78     		ldrb	r3, [r5, #0]	@ zero_extendqisi2
 10555 406a 2278     		ldrb	r2, [r4, #0]	@ zero_extendqisi2
 10556 406c CB18     		adds	r3, r1, r3
 10557 406e DBB2     		uxtb	r3, r3
 10558              	.LVL1712:
 10559 4070 2B70     		strb	r3, [r5, #0]
 10560 4072 9B18     		adds	r3, r3, r2
 10561              	.LVL1713:
 10562 4074 2370     		strb	r3, [r4, #0]
 10563 4076 3148     		ldr	r0, .L291+8
 10564 4078 FFF7FEFF 		bl	uart_transmit
 10565              	.LVL1714:
 10566              	.LBE743:
 10567              	.LBB744:
 10568 407c F178     		ldrb	r1, [r6, #3]	@ zero_extendqisi2
 10569              	.LVL1715:
 10570 407e 2B78     		ldrb	r3, [r5, #0]	@ zero_extendqisi2
 10571 4080 2278     		ldrb	r2, [r4, #0]	@ zero_extendqisi2
 10572 4082 CB18     		adds	r3, r1, r3
 10573 4084 DBB2     		uxtb	r3, r3
 10574              	.LBE744:
 10575              	.LBB745:
 10576 4086 364E     		ldr	r6, .L291+44
 10577              	.LVL1716:
 10578              	.LBE745:
 10579              	.LBB746:
 10580 4088 2B70     		strb	r3, [r5, #0]
 10581 408a 9B18     		adds	r3, r3, r2
 10582              	.LVL1717:
 10583 408c 2370     		strb	r3, [r4, #0]
 10584 408e 2B48     		ldr	r0, .L291+8
 10585 4090 FFF7FEFF 		bl	uart_transmit
 10586              	.LVL1718:
 10587              	.LBE746:
 10588              	.LBB747:
 10589 4094 3178     		ldrb	r1, [r6, #0]	@ zero_extendqisi2
 10590              	.LVL1719:
 10591 4096 2B78     		ldrb	r3, [r5, #0]	@ zero_extendqisi2
 10592 4098 2278     		ldrb	r2, [r4, #0]	@ zero_extendqisi2
 10593 409a CB18     		adds	r3, r1, r3
 10594 409c DBB2     		uxtb	r3, r3
 10595              	.LVL1720:
 10596 409e 2B70     		strb	r3, [r5, #0]
 10597 40a0 9B18     		adds	r3, r3, r2
 10598              	.LVL1721:
 10599 40a2 2370     		strb	r3, [r4, #0]
 10600 40a4 2548     		ldr	r0, .L291+8
 10601 40a6 FFF7FEFF 		bl	uart_transmit
 10602              	.LVL1722:
 10603              	.LBE747:
 10604              	.LBB748:
 10605 40aa 7178     		ldrb	r1, [r6, #1]	@ zero_extendqisi2
 10606              	.LVL1723:
 10607 40ac 2B78     		ldrb	r3, [r5, #0]	@ zero_extendqisi2
 10608 40ae 2278     		ldrb	r2, [r4, #0]	@ zero_extendqisi2
 10609 40b0 CB18     		adds	r3, r1, r3
 10610 40b2 DBB2     		uxtb	r3, r3
 10611              	.LVL1724:
 10612 40b4 2B70     		strb	r3, [r5, #0]
 10613 40b6 9B18     		adds	r3, r3, r2
 10614              	.LVL1725:
 10615 40b8 2370     		strb	r3, [r4, #0]
 10616 40ba 2048     		ldr	r0, .L291+8
 10617 40bc FFF7FEFF 		bl	uart_transmit
 10618              	.LVL1726:
 10619              	.LBE748:
 10620              	.LBB749:
 10621 40c0 B178     		ldrb	r1, [r6, #2]	@ zero_extendqisi2
 10622              	.LVL1727:
 10623 40c2 2B78     		ldrb	r3, [r5, #0]	@ zero_extendqisi2
 10624 40c4 2278     		ldrb	r2, [r4, #0]	@ zero_extendqisi2
 10625 40c6 CB18     		adds	r3, r1, r3
 10626 40c8 DBB2     		uxtb	r3, r3
 10627              	.LVL1728:
 10628 40ca 2B70     		strb	r3, [r5, #0]
 10629 40cc 9B18     		adds	r3, r3, r2
 10630              	.LVL1729:
 10631 40ce 2370     		strb	r3, [r4, #0]
 10632 40d0 1A48     		ldr	r0, .L291+8
 10633 40d2 FFF7FEFF 		bl	uart_transmit
 10634              	.LVL1730:
 10635              	.LBE749:
 10636              	.LBB750:
 10637 40d6 F178     		ldrb	r1, [r6, #3]	@ zero_extendqisi2
 10638              	.LVL1731:
 10639 40d8 2B78     		ldrb	r3, [r5, #0]	@ zero_extendqisi2
 10640 40da 2278     		ldrb	r2, [r4, #0]	@ zero_extendqisi2
 10641 40dc CB18     		adds	r3, r1, r3
 10642 40de DBB2     		uxtb	r3, r3
 10643              	.LBE750:
 10644              	.LBB751:
 10645 40e0 204E     		ldr	r6, .L291+48
 10646              	.LVL1732:
 10647              	.LBE751:
 10648              	.LBB752:
 10649 40e2 2B70     		strb	r3, [r5, #0]
 10650 40e4 9B18     		adds	r3, r3, r2
 10651              	.LVL1733:
 10652 40e6 2370     		strb	r3, [r4, #0]
 10653 40e8 1448     		ldr	r0, .L291+8
 10654 40ea FFF7FEFF 		bl	uart_transmit
 10655              	.LVL1734:
 10656              	.LBE752:
 10657              	.LBB753:
 10658 40ee 3178     		ldrb	r1, [r6, #0]	@ zero_extendqisi2
 10659              	.LVL1735:
 10660 40f0 2B78     		ldrb	r3, [r5, #0]	@ zero_extendqisi2
 10661 40f2 2278     		ldrb	r2, [r4, #0]	@ zero_extendqisi2
 10662 40f4 CB18     		adds	r3, r1, r3
 10663 40f6 DBB2     		uxtb	r3, r3
 10664              	.LVL1736:
 10665 40f8 2B70     		strb	r3, [r5, #0]
 10666 40fa 9B18     		adds	r3, r3, r2
 10667              	.LVL1737:
 10668 40fc 2370     		strb	r3, [r4, #0]
 10669 40fe 0F48     		ldr	r0, .L291+8
 10670 4100 FFF7FEFF 		bl	uart_transmit
 10671              	.LVL1738:
 10672              	.LBE753:
 10673              	.LBB754:
 10674 4104 7178     		ldrb	r1, [r6, #1]	@ zero_extendqisi2
 10675              	.LVL1739:
 10676 4106 2B78     		ldrb	r3, [r5, #0]	@ zero_extendqisi2
 10677 4108 2278     		ldrb	r2, [r4, #0]	@ zero_extendqisi2
 10678 410a CB18     		adds	r3, r1, r3
 10679 410c DBB2     		uxtb	r3, r3
 10680              	.LVL1740:
 10681 410e 2B70     		strb	r3, [r5, #0]
 10682 4110 9B18     		adds	r3, r3, r2
 10683              	.LVL1741:
 10684 4112 2370     		strb	r3, [r4, #0]
 10685 4114 0948     		ldr	r0, .L291+8
 10686 4116 FFF7FEFF 		bl	uart_transmit
 10687              	.LVL1742:
 10688              	.LBE754:
 10689              	.LBB755:
 10690 411a B178     		ldrb	r1, [r6, #2]	@ zero_extendqisi2
 10691              	.LVL1743:
 10692 411c 2B78     		ldrb	r3, [r5, #0]	@ zero_extendqisi2
 10693 411e 2278     		ldrb	r2, [r4, #0]	@ zero_extendqisi2
 10694 4120 CB18     		adds	r3, r1, r3
 10695 4122 DBB2     		uxtb	r3, r3
 10696              	.LVL1744:
 10697 4124 2B70     		strb	r3, [r5, #0]
 10698 4126 9B18     		adds	r3, r3, r2
 10699              	.LVL1745:
 10700 4128 2370     		strb	r3, [r4, #0]
 10701 412a 0448     		ldr	r0, .L291+8
 10702 412c FFF7FEFF 		bl	uart_transmit
 10703              	.LVL1746:
 10704              	.LBE755:
 10705              	.LBB756:
 10706 4130 F178     		ldrb	r1, [r6, #3]	@ zero_extendqisi2
 10707 4132 19E0     		b	.L292
 10708              	.L293:
 10709              		.align	2
 10710              	.L291:
 10711 4134 00000000 		.word	downlink_nb_ovrn
 10712 4138 00000000 		.word	.LANCHOR45
 10713 413c 00000000 		.word	uart2
 10714 4140 00000000 		.word	downlink_nb_bytes
 10715 4144 00000000 		.word	downlink_nb_msgs
 10716 4148 00000000 		.word	ck_a
 10717 414c 00000000 		.word	ck_b
 10718 4150 00000000 		.word	h_ctl_roll_setpoint
 10719 4154 00000000 		.word	h_ctl_pitch_loop_setpoint
 10720 4158 00000000 		.word	h_ctl_course_setpoint
 10721 415c 00000000 		.word	desired_x
 10722 4160 00000000 		.word	desired_y
 10723 4164 00000000 		.word	v_ctl_altitude_setpoint
 10724              	.L292:
 10725              	.LVL1747:
 10726 4168 2B78     		ldrb	r3, [r5, #0]	@ zero_extendqisi2
 10727 416a 2278     		ldrb	r2, [r4, #0]	@ zero_extendqisi2
 10728 416c CB18     		adds	r3, r1, r3
 10729 416e DBB2     		uxtb	r3, r3
 10730              	.LBE756:
 10731              	.LBB757:
 10732 4170 874E     		ldr	r6, .L294
 10733              	.LVL1748:
 10734              	.LBE757:
 10735              	.LBB758:
 10736 4172 2B70     		strb	r3, [r5, #0]
 10737 4174 9B18     		adds	r3, r3, r2
 10738              	.LVL1749:
 10739 4176 2370     		strb	r3, [r4, #0]
 10740 4178 8648     		ldr	r0, .L294+4
 10741 417a FFF7FEFF 		bl	uart_transmit
 10742              	.LVL1750:
 10743              	.LBE758:
 10744              	.LBB759:
 10745 417e 3178     		ldrb	r1, [r6, #0]	@ zero_extendqisi2
 10746              	.LVL1751:
 10747 4180 2B78     		ldrb	r3, [r5, #0]	@ zero_extendqisi2
 10748 4182 2278     		ldrb	r2, [r4, #0]	@ zero_extendqisi2
 10749 4184 CB18     		adds	r3, r1, r3
 10750 4186 DBB2     		uxtb	r3, r3
 10751              	.LVL1752:
 10752 4188 2B70     		strb	r3, [r5, #0]
 10753 418a 9B18     		adds	r3, r3, r2
 10754              	.LVL1753:
 10755 418c 2370     		strb	r3, [r4, #0]
 10756 418e 8148     		ldr	r0, .L294+4
 10757 4190 FFF7FEFF 		bl	uart_transmit
 10758              	.LVL1754:
 10759              	.LBE759:
 10760              	.LBB760:
 10761 4194 7178     		ldrb	r1, [r6, #1]	@ zero_extendqisi2
 10762              	.LVL1755:
 10763 4196 2B78     		ldrb	r3, [r5, #0]	@ zero_extendqisi2
 10764 4198 2278     		ldrb	r2, [r4, #0]	@ zero_extendqisi2
 10765 419a CB18     		adds	r3, r1, r3
 10766 419c DBB2     		uxtb	r3, r3
 10767              	.LVL1756:
 10768 419e 2B70     		strb	r3, [r5, #0]
 10769 41a0 9B18     		adds	r3, r3, r2
 10770              	.LVL1757:
 10771 41a2 2370     		strb	r3, [r4, #0]
 10772 41a4 7B48     		ldr	r0, .L294+4
 10773 41a6 FFF7FEFF 		bl	uart_transmit
 10774              	.LVL1758:
 10775              	.LBE760:
 10776              	.LBB761:
 10777 41aa B178     		ldrb	r1, [r6, #2]	@ zero_extendqisi2
 10778              	.LVL1759:
 10779 41ac 2B78     		ldrb	r3, [r5, #0]	@ zero_extendqisi2
 10780 41ae 2278     		ldrb	r2, [r4, #0]	@ zero_extendqisi2
 10781 41b0 CB18     		adds	r3, r1, r3
 10782 41b2 DBB2     		uxtb	r3, r3
 10783              	.LVL1760:
 10784 41b4 2B70     		strb	r3, [r5, #0]
 10785 41b6 9B18     		adds	r3, r3, r2
 10786              	.LVL1761:
 10787 41b8 2370     		strb	r3, [r4, #0]
 10788 41ba 7648     		ldr	r0, .L294+4
 10789 41bc FFF7FEFF 		bl	uart_transmit
 10790              	.LVL1762:
 10791              	.LBE761:
 10792              	.LBB762:
 10793 41c0 F178     		ldrb	r1, [r6, #3]	@ zero_extendqisi2
 10794              	.LVL1763:
 10795 41c2 2B78     		ldrb	r3, [r5, #0]	@ zero_extendqisi2
 10796 41c4 2278     		ldrb	r2, [r4, #0]	@ zero_extendqisi2
 10797 41c6 CB18     		adds	r3, r1, r3
 10798 41c8 DBB2     		uxtb	r3, r3
 10799              	.LVL1764:
 10800 41ca 2B70     		strb	r3, [r5, #0]
 10801 41cc 9B18     		adds	r3, r3, r2
 10802              	.LVL1765:
 10803 41ce 2370     		strb	r3, [r4, #0]
 10804 41d0 7048     		ldr	r0, .L294+4
 10805 41d2 FFF7FEFF 		bl	uart_transmit
 10806              	.LVL1766:
 10807              	.LBE762:
 10808 41d6 2978     		ldrb	r1, [r5, #0]	@ zero_extendqisi2
 10809 41d8 6E48     		ldr	r0, .L294+4
 10810 41da FFF7FEFF 		bl	uart_transmit
 10811 41de 6D48     		ldr	r0, .L294+4
 10812 41e0 2178     		ldrb	r1, [r4, #0]	@ zero_extendqisi2
 10813 41e2 FFF7FEFF 		bl	uart_transmit
 10814 41e6 03E0     		b	.L146
 10815              	.LVL1767:
 10816              	.L147:
 10817              		.loc 1 422 0 discriminator 229
 10818 41e8 6B4B     		ldr	r3, .L294+8
 10819 41ea 1A78     		ldrb	r2, [r3, #0]	@ zero_extendqisi2
 10820 41ec 0132     		adds	r2, r2, #1
 10821 41ee 1A70     		strb	r2, [r3, #0]
 10822              	.L146:
 10823              		.loc 1 422 0 discriminator 227
 10824 41f0 6A4B     		ldr	r3, .L294+12
 10825 41f2 1B88     		ldrh	r3, [r3, #0]
 10826 41f4 422B     		cmp	r3, #66
 10827 41f6 4FD1     		bne	.L148
 10828              		.loc 1 422 0 discriminator 230
 10829 41f8 6648     		ldr	r0, .L294+4
 10830 41fa 1721     		movs	r1, #23
 10831 41fc FFF7FEFF 		bl	uart_check_free_space
 10832 4200 0028     		cmp	r0, #0
 10833 4202 00F0F381 		beq	.L158
 10834              		.loc 1 422 0 discriminator 232
 10835 4206 664B     		ldr	r3, .L294+16
 10836              	.LBB763:
 10837 4208 6248     		ldr	r0, .L294+4
 10838              	.LBE763:
 10839 420a 1A88     		ldrh	r2, [r3, #0]
 10840              	.LBB764:
 10841 420c 9921     		movs	r1, #153
 10842              	.LBE764:
 10843 420e 1732     		adds	r2, r2, #23
 10844 4210 1A80     		strh	r2, [r3, #0]	@ movhi
 10845 4212 644B     		ldr	r3, .L294+20
 10846 4214 644D     		ldr	r5, .L294+24
 10847 4216 1A88     		ldrh	r2, [r3, #0]
 10848 4218 644C     		ldr	r4, .L294+28
 10849 421a 0132     		adds	r2, r2, #1
 10850 421c 1A80     		strh	r2, [r3, #0]	@ movhi
 10851              	.LBB765:
 10852 421e FFF7FEFF 		bl	uart_transmit
 10853              	.LVL1768:
 10854 4222 5C48     		ldr	r0, .L294+4
 10855 4224 1721     		movs	r1, #23
 10856 4226 FFF7FEFF 		bl	uart_transmit
 10857              	.LBE765:
 10858 422a 1823     		movs	r3, #24
 10859 422c 2B70     		strb	r3, [r5, #0]
 10860 422e 2F23     		movs	r3, #47
 10861 4230 2370     		strb	r3, [r4, #0]
 10862 4232 5848     		ldr	r0, .L294+4
 10863 4234 0121     		movs	r1, #1
 10864 4236 FFF7FEFF 		bl	uart_transmit
 10865 423a 2B78     		ldrb	r3, [r5, #0]	@ zero_extendqisi2
 10866 423c 2278     		ldrb	r2, [r4, #0]	@ zero_extendqisi2
 10867 423e 0233     		adds	r3, r3, #2
 10868 4240 DBB2     		uxtb	r3, r3
 10869 4242 2B70     		strb	r3, [r5, #0]
 10870 4244 9B18     		adds	r3, r3, r2
 10871 4246 2370     		strb	r3, [r4, #0]
 10872 4248 5248     		ldr	r0, .L294+4
 10873 424a 0221     		movs	r1, #2
 10874 424c FFF7FEFF 		bl	uart_transmit
 10875              	.LBB766:
 10876 4250 2B78     		ldrb	r3, [r5, #0]	@ zero_extendqisi2
 10877 4252 2278     		ldrb	r2, [r4, #0]	@ zero_extendqisi2
 10878 4254 1033     		adds	r3, r3, #16
 10879 4256 DBB2     		uxtb	r3, r3
 10880 4258 2B70     		strb	r3, [r5, #0]
 10881 425a 9B18     		adds	r3, r3, r2
 10882 425c 2370     		strb	r3, [r4, #0]
 10883 425e 4D48     		ldr	r0, .L294+4
 10884 4260 1021     		movs	r1, #16
 10885 4262 FFF7FEFF 		bl	uart_transmit
 10886              	.LVL1769:
 10887              	.LBB767:
 10888 4266 524F     		ldr	r7, .L294+32
 10889              	.LBE767:
 10890 4268 0026     		movs	r6, #0
 10891              	.LVL1770:
 10892              	.L150:
 10893              	.LBB768:
 10894              		.loc 1 422 0 discriminator 235
 10895 426a F15D     		ldrb	r1, [r6, r7]	@ zero_extendqisi2
 10896              	.LVL1771:
 10897 426c 2B78     		ldrb	r3, [r5, #0]	@ zero_extendqisi2
 10898 426e 2278     		ldrb	r2, [r4, #0]	@ zero_extendqisi2
 10899 4270 CB18     		adds	r3, r1, r3
 10900 4272 DBB2     		uxtb	r3, r3
 10901              	.LVL1772:
 10902 4274 2B70     		strb	r3, [r5, #0]
 10903 4276 9B18     		adds	r3, r3, r2
 10904              	.LVL1773:
 10905 4278 2370     		strb	r3, [r4, #0]
 10906 427a 4648     		ldr	r0, .L294+4
 10907 427c 0136     		adds	r6, r6, #1
 10908 427e FFF7FEFF 		bl	uart_transmit
 10909              	.LVL1774:
 10910              	.LBE768:
 10911 4282 102E     		cmp	r6, #16
 10912 4284 F1D1     		bne	.L150
 10913              	.LBE766:
 10914              		.loc 1 422 0 discriminator 236
 10915 4286 484B     		ldr	r3, .L294+24
 10916 4288 4248     		ldr	r0, .L294+4
 10917 428a 1978     		ldrb	r1, [r3, #0]	@ zero_extendqisi2
 10918 428c FFF7FEFF 		bl	uart_transmit
 10919 4290 464B     		ldr	r3, .L294+28
 10920 4292 4048     		ldr	r0, .L294+4
 10921 4294 1978     		ldrb	r1, [r3, #0]	@ zero_extendqisi2
 10922 4296 78E0     		b	.L221
 10923              	.LVL1775:
 10924              	.L148:
 10925              		.loc 1 422 0 discriminator 231
 10926 4298 482B     		cmp	r3, #72
 10927 429a 40F09580 		bne	.L152
 10928              	.LVL1776:
 10929              	.LBB769:
 10930              		.loc 1 422 0 discriminator 237
 10931 429e 3D48     		ldr	r0, .L294+4
 10932 42a0 0C21     		movs	r1, #12
 10933 42a2 FFF7FEFF 		bl	uart_check_free_space
 10934 42a6 0028     		cmp	r0, #0
 10935 42a8 00F0A081 		beq	.L158
 10936              		.loc 1 422 0 discriminator 239
 10937 42ac 3C4B     		ldr	r3, .L294+16
 10938              	.LBB770:
 10939 42ae 3948     		ldr	r0, .L294+4
 10940              	.LBE770:
 10941 42b0 1A88     		ldrh	r2, [r3, #0]
 10942              	.LBB771:
 10943 42b2 9921     		movs	r1, #153
 10944              	.LBE771:
 10945 42b4 0C32     		adds	r2, r2, #12
 10946 42b6 1A80     		strh	r2, [r3, #0]	@ movhi
 10947 42b8 3A4B     		ldr	r3, .L294+20
 10948 42ba 3B4D     		ldr	r5, .L294+24
 10949 42bc 1A88     		ldrh	r2, [r3, #0]
 10950 42be 3B4C     		ldr	r4, .L294+28
 10951 42c0 0132     		adds	r2, r2, #1
 10952 42c2 1A80     		strh	r2, [r3, #0]	@ movhi
 10953              	.LBB772:
 10954 42c4 FFF7FEFF 		bl	uart_transmit
 10955              	.LVL1777:
 10956 42c8 3248     		ldr	r0, .L294+4
 10957 42ca 0C21     		movs	r1, #12
 10958 42cc FFF7FEFF 		bl	uart_transmit
 10959              	.LBE772:
 10960 42d0 0D23     		movs	r3, #13
 10961 42d2 2B70     		strb	r3, [r5, #0]
 10962 42d4 1923     		movs	r3, #25
 10963 42d6 2370     		strb	r3, [r4, #0]
 10964 42d8 2E48     		ldr	r0, .L294+4
 10965 42da 0121     		movs	r1, #1
 10966 42dc FFF7FEFF 		bl	uart_transmit
 10967 42e0 2B78     		ldrb	r3, [r5, #0]	@ zero_extendqisi2
 10968 42e2 2278     		ldrb	r2, [r4, #0]	@ zero_extendqisi2
 10969 42e4 0B33     		adds	r3, r3, #11
 10970 42e6 DBB2     		uxtb	r3, r3
 10971 42e8 2B70     		strb	r3, [r5, #0]
 10972 42ea 9B18     		adds	r3, r3, r2
 10973 42ec 2370     		strb	r3, [r4, #0]
 10974 42ee 2948     		ldr	r0, .L294+4
 10975 42f0 0B21     		movs	r1, #11
 10976 42f2 FFF7FEFF 		bl	uart_transmit
 10977              	.LBB773:
 10978 42f6 2F4B     		ldr	r3, .L294+36
 10979 42f8 2278     		ldrb	r2, [r4, #0]	@ zero_extendqisi2
 10980 42fa 1978     		ldrb	r1, [r3, #0]	@ zero_extendqisi2
 10981              	.LVL1778:
 10982 42fc 2B78     		ldrb	r3, [r5, #0]	@ zero_extendqisi2
 10983 42fe 2548     		ldr	r0, .L294+4
 10984 4300 CB18     		adds	r3, r1, r3
 10985 4302 DBB2     		uxtb	r3, r3
 10986              	.LVL1779:
 10987 4304 2B70     		strb	r3, [r5, #0]
 10988 4306 9B18     		adds	r3, r3, r2
 10989              	.LVL1780:
 10990 4308 2370     		strb	r3, [r4, #0]
 10991 430a FFF7FEFF 		bl	uart_transmit
 10992              	.LVL1781:
 10993              	.LBE773:
 10994              	.LBB774:
 10995 430e 2A4B     		ldr	r3, .L294+40
 10996 4310 2278     		ldrb	r2, [r4, #0]	@ zero_extendqisi2
 10997 4312 1978     		ldrb	r1, [r3, #0]	@ zero_extendqisi2
 10998              	.LVL1782:
 10999 4314 2B78     		ldrb	r3, [r5, #0]	@ zero_extendqisi2
 11000 4316 1F48     		ldr	r0, .L294+4
 11001 4318 CB18     		adds	r3, r1, r3
 11002 431a DBB2     		uxtb	r3, r3
 11003              	.LVL1783:
 11004 431c 2B70     		strb	r3, [r5, #0]
 11005 431e 9B18     		adds	r3, r3, r2
 11006              	.LVL1784:
 11007 4320 2370     		strb	r3, [r4, #0]
 11008 4322 FFF7FEFF 		bl	uart_transmit
 11009              	.LVL1785:
 11010              	.LBE774:
 11011              	.LBB775:
 11012 4326 254B     		ldr	r3, .L294+44
 11013 4328 2278     		ldrb	r2, [r4, #0]	@ zero_extendqisi2
 11014 432a 1978     		ldrb	r1, [r3, #0]	@ zero_extendqisi2
 11015              	.LVL1786:
 11016 432c 2B78     		ldrb	r3, [r5, #0]	@ zero_extendqisi2
 11017 432e 1948     		ldr	r0, .L294+4
 11018 4330 CB18     		adds	r3, r1, r3
 11019 4332 DBB2     		uxtb	r3, r3
 11020              	.LVL1787:
 11021 4334 2B70     		strb	r3, [r5, #0]
 11022 4336 9B18     		adds	r3, r3, r2
 11023              	.LVL1788:
 11024 4338 2370     		strb	r3, [r4, #0]
 11025 433a FFF7FEFF 		bl	uart_transmit
 11026              	.LVL1789:
 11027              	.LBE775:
 11028              	.LBB776:
 11029 433e 204B     		ldr	r3, .L294+48
 11030 4340 2278     		ldrb	r2, [r4, #0]	@ zero_extendqisi2
 11031 4342 1978     		ldrb	r1, [r3, #0]	@ zero_extendqisi2
 11032              	.LVL1790:
 11033 4344 2B78     		ldrb	r3, [r5, #0]	@ zero_extendqisi2
 11034 4346 1348     		ldr	r0, .L294+4
 11035 4348 CB18     		adds	r3, r1, r3
 11036 434a DBB2     		uxtb	r3, r3
 11037              	.LVL1791:
 11038 434c 2B70     		strb	r3, [r5, #0]
 11039 434e 9B18     		adds	r3, r3, r2
 11040              	.LVL1792:
 11041 4350 2370     		strb	r3, [r4, #0]
 11042 4352 FFF7FEFF 		bl	uart_transmit
 11043              	.LVL1793:
 11044              	.LBE776:
 11045              	.LBB777:
 11046 4356 2278     		ldrb	r2, [r4, #0]	@ zero_extendqisi2
 11047 4358 2B78     		ldrb	r3, [r5, #0]	@ zero_extendqisi2
 11048 435a 0021     		movs	r1, #0
 11049 435c D318     		adds	r3, r2, r3
 11050 435e 2370     		strb	r3, [r4, #0]
 11051 4360 0C48     		ldr	r0, .L294+4
 11052 4362 FFF7FEFF 		bl	uart_transmit
 11053              	.LBE777:
 11054              	.LBB778:
 11055 4366 174B     		ldr	r3, .L294+52
 11056 4368 1978     		ldrb	r1, [r3, #0]	@ zero_extendqisi2
 11057              	.LVL1794:
 11058              	.L227:
 11059 436a 2B78     		ldrb	r3, [r5, #0]	@ zero_extendqisi2
 11060 436c 2278     		ldrb	r2, [r4, #0]	@ zero_extendqisi2
 11061 436e CB18     		adds	r3, r1, r3
 11062 4370 DBB2     		uxtb	r3, r3
 11063              	.LVL1795:
 11064 4372 2B70     		strb	r3, [r5, #0]
 11065 4374 9B18     		adds	r3, r3, r2
 11066              	.LVL1796:
 11067 4376 2370     		strb	r3, [r4, #0]
 11068 4378 0648     		ldr	r0, .L294+4
 11069 437a FFF7FEFF 		bl	uart_transmit
 11070              	.LVL1797:
 11071              	.LBE778:
 11072 437e 0548     		ldr	r0, .L294+4
 11073 4380 2978     		ldrb	r1, [r5, #0]	@ zero_extendqisi2
 11074 4382 FFF7FEFF 		bl	uart_transmit
 11075 4386 0348     		ldr	r0, .L294+4
 11076 4388 2178     		ldrb	r1, [r4, #0]	@ zero_extendqisi2
 11077              	.L221:
 11078 438a FFF7FEFF 		bl	uart_transmit
 11079 438e 31E1     		b	.L151
 11080              	.L295:
 11081              		.align	2
 11082              	.L294:
 11083 4390 00000000 		.word	v_ctl_climb_setpoint
 11084 4394 00000000 		.word	uart2
 11085 4398 00000000 		.word	downlink_nb_ovrn
 11086 439c 00000000 		.word	.LANCHOR46
 11087 43a0 00000000 		.word	downlink_nb_bytes
 11088 43a4 00000000 		.word	downlink_nb_msgs
 11089 43a8 00000000 		.word	ck_a
 11090 43ac 00000000 		.word	ck_b
 11091 43b0 00000000 		.word	.LC0
 11092 43b4 00000000 		.word	.LANCHOR29
 11093 43b8 00000000 		.word	v_ctl_mode
 11094 43bc 00000000 		.word	.LANCHOR31
 11095 43c0 00000000 		.word	horizontal_mode
 11096 43c4 00000000 		.word	.LANCHOR32
 11097              	.LVL1798:
 11098              	.L152:
 11099              	.LBE769:
 11100              		.loc 1 422 0 discriminator 238
 11101 43c8 4E2B     		cmp	r3, #78
 11102 43ca 54D1     		bne	.L154
 11103              	.LVL1799:
 11104              	.LBB779:
 11105              		.loc 1 422 0 discriminator 241
 11106 43cc 7F4B     		ldr	r3, .L296
 11107 43ce 8048     		ldr	r0, .L296+4
 11108 43d0 93F89860 		ldrb	r6, [r3, #152]	@ zero_extendqisi2
 11109 43d4 7F4B     		ldr	r3, .L296+8
 11110 43d6 002E     		cmp	r6, #0
 11111 43d8 0CBF     		ite	eq
 11112 43da 0226     		moveq	r6, #2
 11113 43dc 0326     		movne	r6, #3
 11114              	.LVL1800:
 11115 43de 1B78     		ldrb	r3, [r3, #0]	@ zero_extendqisi2
 11116 43e0 0921     		movs	r1, #9
 11117 43e2 0A2B     		cmp	r3, #10
 11118 43e4 88BF     		it	hi
 11119 43e6 0526     		movhi	r6, #5
 11120              	.LVL1801:
 11121 43e8 0023     		movs	r3, #0
 11122 43ea ADF81C30 		strh	r3, [sp, #28]	@ movhi
 11123              	.LVL1802:
 11124 43ee FFF7FEFF 		bl	uart_check_free_space
 11125 43f2 0028     		cmp	r0, #0
 11126 43f4 00F0FA80 		beq	.L158
 11127              		.loc 1 422 0 discriminator 247
 11128 43f8 774B     		ldr	r3, .L296+12
 11129              	.LBB780:
 11130 43fa 7548     		ldr	r0, .L296+4
 11131              	.LBE780:
 11132 43fc 1A88     		ldrh	r2, [r3, #0]
 11133              	.LBB781:
 11134 43fe 9921     		movs	r1, #153
 11135              	.LBE781:
 11136 4400 0932     		adds	r2, r2, #9
 11137 4402 1A80     		strh	r2, [r3, #0]	@ movhi
 11138 4404 754B     		ldr	r3, .L296+16
 11139 4406 764D     		ldr	r5, .L296+20
 11140 4408 1A88     		ldrh	r2, [r3, #0]
 11141 440a 764C     		ldr	r4, .L296+24
 11142 440c 0132     		adds	r2, r2, #1
 11143 440e 1A80     		strh	r2, [r3, #0]	@ movhi
 11144              	.LBB782:
 11145 4410 FFF7FEFF 		bl	uart_transmit
 11146              	.LVL1803:
 11147 4414 6E48     		ldr	r0, .L296+4
 11148 4416 0921     		movs	r1, #9
 11149 4418 FFF7FEFF 		bl	uart_transmit
 11150              	.LBE782:
 11151 441c 0A23     		movs	r3, #10
 11152 441e 2B70     		strb	r3, [r5, #0]
 11153 4420 1323     		movs	r3, #19
 11154 4422 2370     		strb	r3, [r4, #0]
 11155 4424 6A48     		ldr	r0, .L296+4
 11156 4426 0121     		movs	r1, #1
 11157 4428 FFF7FEFF 		bl	uart_transmit
 11158 442c 2B78     		ldrb	r3, [r5, #0]	@ zero_extendqisi2
 11159 442e 2278     		ldrb	r2, [r4, #0]	@ zero_extendqisi2
 11160 4430 183B     		subs	r3, r3, #24
 11161 4432 DBB2     		uxtb	r3, r3
 11162 4434 2B70     		strb	r3, [r5, #0]
 11163 4436 9B18     		adds	r3, r3, r2
 11164 4438 2370     		strb	r3, [r4, #0]
 11165 443a 6548     		ldr	r0, .L296+4
 11166 443c E821     		movs	r1, #232
 11167 443e FFF7FEFF 		bl	uart_transmit
 11168              	.LVL1804:
 11169              	.LBB783:
 11170 4442 2B78     		ldrb	r3, [r5, #0]	@ zero_extendqisi2
 11171 4444 2278     		ldrb	r2, [r4, #0]	@ zero_extendqisi2
 11172 4446 F318     		adds	r3, r6, r3
 11173 4448 DBB2     		uxtb	r3, r3
 11174              	.LVL1805:
 11175 444a 2B70     		strb	r3, [r5, #0]
 11176 444c 9B18     		adds	r3, r3, r2
 11177              	.LVL1806:
 11178 444e 2370     		strb	r3, [r4, #0]
 11179 4450 5F48     		ldr	r0, .L296+4
 11180 4452 3146     		mov	r1, r6
 11181 4454 FFF7FEFF 		bl	uart_transmit
 11182              	.LBE783:
 11183              	.LBB784:
 11184 4458 9DF81C10 		ldrb	r1, [sp, #28]	@ zero_extendqisi2
 11185              	.LVL1807:
 11186 445c 2B78     		ldrb	r3, [r5, #0]	@ zero_extendqisi2
 11187 445e 2278     		ldrb	r2, [r4, #0]	@ zero_extendqisi2
 11188 4460 CB18     		adds	r3, r1, r3
 11189 4462 DBB2     		uxtb	r3, r3
 11190              	.LVL1808:
 11191 4464 2B70     		strb	r3, [r5, #0]
 11192 4466 9B18     		adds	r3, r3, r2
 11193              	.LVL1809:
 11194 4468 2370     		strb	r3, [r4, #0]
 11195 446a 5948     		ldr	r0, .L296+4
 11196 446c FFF7FEFF 		bl	uart_transmit
 11197              	.LVL1810:
 11198              	.LBE784:
 11199              	.LBB785:
 11200 4470 9DF81D10 		ldrb	r1, [sp, #29]	@ zero_extendqisi2
 11201              	.LVL1811:
 11202 4474 79E7     		b	.L227
 11203              	.LVL1812:
 11204              	.L154:
 11205              	.LBE785:
 11206              	.LBE779:
 11207              		.loc 1 422 0 discriminator 242
 11208 4476 542B     		cmp	r3, #84
 11209 4478 40F0BC80 		bne	.L151
 11210              		.loc 1 422 0 discriminator 249
 11211 447c 5448     		ldr	r0, .L296+4
 11212 447e 1121     		movs	r1, #17
 11213 4480 FFF7FEFF 		bl	uart_check_free_space
 11214 4484 0028     		cmp	r0, #0
 11215 4486 00F0B180 		beq	.L158
 11216              		.loc 1 422 0 discriminator 251
 11217 448a 534B     		ldr	r3, .L296+12
 11218              	.LBB786:
 11219 448c 5048     		ldr	r0, .L296+4
 11220              	.LBE786:
 11221 448e 1A88     		ldrh	r2, [r3, #0]
 11222              	.LBB787:
 11223 4490 9921     		movs	r1, #153
 11224              	.LBE787:
 11225 4492 1132     		adds	r2, r2, #17
 11226 4494 1A80     		strh	r2, [r3, #0]	@ movhi
 11227 4496 514B     		ldr	r3, .L296+16
 11228 4498 514D     		ldr	r5, .L296+20
 11229 449a 1A88     		ldrh	r2, [r3, #0]
 11230 449c 514C     		ldr	r4, .L296+24
 11231 449e 0132     		adds	r2, r2, #1
 11232 44a0 1A80     		strh	r2, [r3, #0]	@ movhi
 11233              	.LBB788:
 11234 44a2 FFF7FEFF 		bl	uart_transmit
 11235              	.LVL1813:
 11236 44a6 4A48     		ldr	r0, .L296+4
 11237 44a8 1121     		movs	r1, #17
 11238 44aa FFF7FEFF 		bl	uart_transmit
 11239              	.LBE788:
 11240 44ae 1223     		movs	r3, #18
 11241 44b0 2B70     		strb	r3, [r5, #0]
 11242 44b2 2323     		movs	r3, #35
 11243 44b4 2370     		strb	r3, [r4, #0]
 11244 44b6 4648     		ldr	r0, .L296+4
 11245 44b8 0121     		movs	r1, #1
 11246 44ba FFF7FEFF 		bl	uart_transmit
 11247 44be 2B78     		ldrb	r3, [r5, #0]	@ zero_extendqisi2
 11248 44c0 2278     		ldrb	r2, [r4, #0]	@ zero_extendqisi2
 11249 44c2 1133     		adds	r3, r3, #17
 11250 44c4 DBB2     		uxtb	r3, r3
 11251              	.LBB789:
 11252 44c6 484E     		ldr	r6, .L296+28
 11253              	.LBE789:
 11254 44c8 2B70     		strb	r3, [r5, #0]
 11255 44ca 9B18     		adds	r3, r3, r2
 11256 44cc 2370     		strb	r3, [r4, #0]
 11257 44ce 4048     		ldr	r0, .L296+4
 11258 44d0 1121     		movs	r1, #17
 11259 44d2 FFF7FEFF 		bl	uart_transmit
 11260              	.LBB790:
 11261 44d6 96F84C10 		ldrb	r1, [r6, #76]	@ zero_extendqisi2
 11262              	.LVL1814:
 11263 44da 2B78     		ldrb	r3, [r5, #0]	@ zero_extendqisi2
 11264 44dc 2278     		ldrb	r2, [r4, #0]	@ zero_extendqisi2
 11265 44de CB18     		adds	r3, r1, r3
 11266 44e0 DBB2     		uxtb	r3, r3
 11267              	.LVL1815:
 11268 44e2 2B70     		strb	r3, [r5, #0]
 11269 44e4 9B18     		adds	r3, r3, r2
 11270              	.LVL1816:
 11271 44e6 2370     		strb	r3, [r4, #0]
 11272 44e8 3948     		ldr	r0, .L296+4
 11273 44ea FFF7FEFF 		bl	uart_transmit
 11274              	.LVL1817:
 11275              	.LBE790:
 11276              	.LBB791:
 11277 44ee 96F84D10 		ldrb	r1, [r6, #77]	@ zero_extendqisi2
 11278              	.LVL1818:
 11279 44f2 2B78     		ldrb	r3, [r5, #0]	@ zero_extendqisi2
 11280 44f4 2278     		ldrb	r2, [r4, #0]	@ zero_extendqisi2
 11281 44f6 CB18     		adds	r3, r1, r3
 11282 44f8 DBB2     		uxtb	r3, r3
 11283              	.LVL1819:
 11284 44fa 2B70     		strb	r3, [r5, #0]
 11285 44fc 9B18     		adds	r3, r3, r2
 11286              	.LVL1820:
 11287 44fe 2370     		strb	r3, [r4, #0]
 11288 4500 3348     		ldr	r0, .L296+4
 11289 4502 FFF7FEFF 		bl	uart_transmit
 11290              	.LVL1821:
 11291              	.LBE791:
 11292              	.LBB792:
 11293 4506 96F84E10 		ldrb	r1, [r6, #78]	@ zero_extendqisi2
 11294              	.LVL1822:
 11295 450a 2B78     		ldrb	r3, [r5, #0]	@ zero_extendqisi2
 11296 450c 2278     		ldrb	r2, [r4, #0]	@ zero_extendqisi2
 11297 450e CB18     		adds	r3, r1, r3
 11298 4510 DBB2     		uxtb	r3, r3
 11299              	.LVL1823:
 11300 4512 2B70     		strb	r3, [r5, #0]
 11301 4514 9B18     		adds	r3, r3, r2
 11302              	.LVL1824:
 11303 4516 2370     		strb	r3, [r4, #0]
 11304 4518 2D48     		ldr	r0, .L296+4
 11305 451a FFF7FEFF 		bl	uart_transmit
 11306              	.LVL1825:
 11307              	.LBE792:
 11308              	.LBB793:
 11309 451e 96F84F10 		ldrb	r1, [r6, #79]	@ zero_extendqisi2
 11310              	.LVL1826:
 11311 4522 2B78     		ldrb	r3, [r5, #0]	@ zero_extendqisi2
 11312 4524 2278     		ldrb	r2, [r4, #0]	@ zero_extendqisi2
 11313 4526 CB18     		adds	r3, r1, r3
 11314 4528 DBB2     		uxtb	r3, r3
 11315              	.LVL1827:
 11316 452a 2B70     		strb	r3, [r5, #0]
 11317 452c 9B18     		adds	r3, r3, r2
 11318              	.LVL1828:
 11319 452e 2370     		strb	r3, [r4, #0]
 11320 4530 2748     		ldr	r0, .L296+4
 11321 4532 FFF7FEFF 		bl	uart_transmit
 11322              	.LVL1829:
 11323              	.LBE793:
 11324              	.LBB794:
 11325 4536 96F85010 		ldrb	r1, [r6, #80]	@ zero_extendqisi2
 11326              	.LVL1830:
 11327 453a 2B78     		ldrb	r3, [r5, #0]	@ zero_extendqisi2
 11328 453c 2278     		ldrb	r2, [r4, #0]	@ zero_extendqisi2
 11329 453e CB18     		adds	r3, r1, r3
 11330 4540 DBB2     		uxtb	r3, r3
 11331              	.LVL1831:
 11332 4542 2B70     		strb	r3, [r5, #0]
 11333 4544 9B18     		adds	r3, r3, r2
 11334              	.LVL1832:
 11335 4546 2370     		strb	r3, [r4, #0]
 11336 4548 2148     		ldr	r0, .L296+4
 11337 454a FFF7FEFF 		bl	uart_transmit
 11338              	.LVL1833:
 11339              	.LBE794:
 11340              	.LBB795:
 11341 454e 96F85110 		ldrb	r1, [r6, #81]	@ zero_extendqisi2
 11342              	.LVL1834:
 11343 4552 2B78     		ldrb	r3, [r5, #0]	@ zero_extendqisi2
 11344 4554 2278     		ldrb	r2, [r4, #0]	@ zero_extendqisi2
 11345 4556 CB18     		adds	r3, r1, r3
 11346 4558 DBB2     		uxtb	r3, r3
 11347              	.LVL1835:
 11348 455a 2B70     		strb	r3, [r5, #0]
 11349 455c 9B18     		adds	r3, r3, r2
 11350              	.LVL1836:
 11351 455e 2370     		strb	r3, [r4, #0]
 11352 4560 1B48     		ldr	r0, .L296+4
 11353 4562 FFF7FEFF 		bl	uart_transmit
 11354              	.LVL1837:
 11355              	.LBE795:
 11356              	.LBB796:
 11357 4566 96F85210 		ldrb	r1, [r6, #82]	@ zero_extendqisi2
 11358              	.LVL1838:
 11359 456a 2B78     		ldrb	r3, [r5, #0]	@ zero_extendqisi2
 11360 456c 2278     		ldrb	r2, [r4, #0]	@ zero_extendqisi2
 11361 456e CB18     		adds	r3, r1, r3
 11362 4570 DBB2     		uxtb	r3, r3
 11363              	.LVL1839:
 11364 4572 2B70     		strb	r3, [r5, #0]
 11365 4574 9B18     		adds	r3, r3, r2
 11366              	.LVL1840:
 11367 4576 2370     		strb	r3, [r4, #0]
 11368 4578 1548     		ldr	r0, .L296+4
 11369 457a FFF7FEFF 		bl	uart_transmit
 11370              	.LVL1841:
 11371              	.LBE796:
 11372              	.LBB797:
 11373 457e 96F85310 		ldrb	r1, [r6, #83]	@ zero_extendqisi2
 11374              	.LVL1842:
 11375 4582 2B78     		ldrb	r3, [r5, #0]	@ zero_extendqisi2
 11376 4584 2278     		ldrb	r2, [r4, #0]	@ zero_extendqisi2
 11377 4586 CB18     		adds	r3, r1, r3
 11378 4588 DBB2     		uxtb	r3, r3
 11379              	.LVL1843:
 11380 458a 2B70     		strb	r3, [r5, #0]
 11381 458c 9B18     		adds	r3, r3, r2
 11382              	.LVL1844:
 11383 458e 2370     		strb	r3, [r4, #0]
 11384 4590 0F48     		ldr	r0, .L296+4
 11385 4592 FFF7FEFF 		bl	uart_transmit
 11386              	.LVL1845:
 11387              	.LBE797:
 11388              	.LBB798:
 11389 4596 96F85810 		ldrb	r1, [r6, #88]	@ zero_extendqisi2
 11390              	.LVL1846:
 11391 459a 2B78     		ldrb	r3, [r5, #0]	@ zero_extendqisi2
 11392 459c 2278     		ldrb	r2, [r4, #0]	@ zero_extendqisi2
 11393 459e CB18     		adds	r3, r1, r3
 11394 45a0 DBB2     		uxtb	r3, r3
 11395              	.LVL1847:
 11396 45a2 2B70     		strb	r3, [r5, #0]
 11397 45a4 9B18     		adds	r3, r3, r2
 11398              	.LVL1848:
 11399 45a6 2370     		strb	r3, [r4, #0]
 11400 45a8 0948     		ldr	r0, .L296+4
 11401 45aa FFF7FEFF 		bl	uart_transmit
 11402              	.LVL1849:
 11403              	.LBE798:
 11404              	.LBB799:
 11405 45ae 96F85910 		ldrb	r1, [r6, #89]	@ zero_extendqisi2
 11406              	.LVL1850:
 11407 45b2 2B78     		ldrb	r3, [r5, #0]	@ zero_extendqisi2
 11408 45b4 2278     		ldrb	r2, [r4, #0]	@ zero_extendqisi2
 11409 45b6 CB18     		adds	r3, r1, r3
 11410 45b8 DBB2     		uxtb	r3, r3
 11411              	.LVL1851:
 11412 45ba 2B70     		strb	r3, [r5, #0]
 11413 45bc 9B18     		adds	r3, r3, r2
 11414              	.LVL1852:
 11415 45be 2370     		strb	r3, [r4, #0]
 11416 45c0 0348     		ldr	r0, .L296+4
 11417 45c2 FFF7FEFF 		bl	uart_transmit
 11418              	.LVL1853:
 11419              	.LBE799:
 11420              	.LBB800:
 11421 45c6 96F85A10 		ldrb	r1, [r6, #90]	@ zero_extendqisi2
 11422              	.LVL1854:
 11423 45ca CEE6     		b	.L227
 11424              	.L297:
 11425              		.align	2
 11426              	.L296:
 11427 45cc 00000000 		.word	ahrs
 11428 45d0 00000000 		.word	uart2
 11429 45d4 00000000 		.word	.LANCHOR33
 11430 45d8 00000000 		.word	downlink_nb_bytes
 11431 45dc 00000000 		.word	downlink_nb_msgs
 11432 45e0 00000000 		.word	ck_a
 11433 45e4 00000000 		.word	ck_b
 11434 45e8 00000000 		.word	gps
 11435              	.LVL1855:
 11436              	.L158:
 11437              	.LBE800:
 11438              		.loc 1 422 0 discriminator 252
 11439 45ec 744B     		ldr	r3, .L298+8
 11440 45ee 1A78     		ldrb	r2, [r3, #0]	@ zero_extendqisi2
 11441 45f0 0132     		adds	r2, r2, #1
 11442 45f2 1A70     		strb	r2, [r3, #0]
 11443              	.L151:
 11444              		.loc 1 422 0 discriminator 250
 11445 45f4 734B     		ldr	r3, .L298+12
 11446 45f6 1B88     		ldrh	r3, [r3, #0]
 11447 45f8 5A2B     		cmp	r3, #90
 11448 45fa 5BD1     		bne	.L159
 11449              		.loc 1 422 0 discriminator 253
 11450 45fc 7248     		ldr	r0, .L298+16
 11451 45fe 0B21     		movs	r1, #11
 11452 4600 FFF7FEFF 		bl	uart_check_free_space
 11453 4604 0028     		cmp	r0, #0
 11454 4606 00F0EF80 		beq	.L162
 11455              		.loc 1 422 0 discriminator 255
 11456 460a 704B     		ldr	r3, .L298+20
 11457              	.LBB801:
 11458 460c 6E48     		ldr	r0, .L298+16
 11459              	.LBE801:
 11460 460e 1A88     		ldrh	r2, [r3, #0]
 11461              	.LBB802:
 11462 4610 9921     		movs	r1, #153
 11463              	.LBE802:
 11464 4612 0B32     		adds	r2, r2, #11
 11465 4614 1A80     		strh	r2, [r3, #0]	@ movhi
 11466 4616 6E4B     		ldr	r3, .L298+24
 11467 4618 6E4D     		ldr	r5, .L298+28
 11468 461a 1A88     		ldrh	r2, [r3, #0]
 11469 461c 6E4C     		ldr	r4, .L298+32
 11470 461e 0132     		adds	r2, r2, #1
 11471 4620 1A80     		strh	r2, [r3, #0]	@ movhi
 11472              	.LBB803:
 11473 4622 FFF7FEFF 		bl	uart_transmit
 11474              	.LVL1856:
 11475 4626 6848     		ldr	r0, .L298+16
 11476 4628 0B21     		movs	r1, #11
 11477 462a FFF7FEFF 		bl	uart_transmit
 11478              	.LBE803:
 11479 462e 0C23     		movs	r3, #12
 11480 4630 2B70     		strb	r3, [r5, #0]
 11481 4632 1723     		movs	r3, #23
 11482 4634 2370     		strb	r3, [r4, #0]
 11483 4636 6448     		ldr	r0, .L298+16
 11484 4638 0121     		movs	r1, #1
 11485 463a FFF7FEFF 		bl	uart_transmit
 11486 463e 2B78     		ldrb	r3, [r5, #0]	@ zero_extendqisi2
 11487 4640 2278     		ldrb	r2, [r4, #0]	@ zero_extendqisi2
 11488 4642 0E33     		adds	r3, r3, #14
 11489 4644 DBB2     		uxtb	r3, r3
 11490              	.LBB804:
 11491 4646 654E     		ldr	r6, .L298+36
 11492              	.LBE804:
 11493 4648 2B70     		strb	r3, [r5, #0]
 11494 464a 9B18     		adds	r3, r3, r2
 11495 464c 2370     		strb	r3, [r4, #0]
 11496 464e 5E48     		ldr	r0, .L298+16
 11497 4650 0E21     		movs	r1, #14
 11498 4652 FFF7FEFF 		bl	uart_transmit
 11499              	.LBB805:
 11500 4656 3178     		ldrb	r1, [r6, #0]	@ zero_extendqisi2
 11501              	.LVL1857:
 11502 4658 2B78     		ldrb	r3, [r5, #0]	@ zero_extendqisi2
 11503 465a 2278     		ldrb	r2, [r4, #0]	@ zero_extendqisi2
 11504 465c CB18     		adds	r3, r1, r3
 11505 465e DBB2     		uxtb	r3, r3
 11506              	.LVL1858:
 11507 4660 2B70     		strb	r3, [r5, #0]
 11508 4662 9B18     		adds	r3, r3, r2
 11509              	.LVL1859:
 11510 4664 2370     		strb	r3, [r4, #0]
 11511 4666 5848     		ldr	r0, .L298+16
 11512 4668 FFF7FEFF 		bl	uart_transmit
 11513              	.LVL1860:
 11514              	.LBE805:
 11515              	.LBB806:
 11516 466c 7178     		ldrb	r1, [r6, #1]	@ zero_extendqisi2
 11517              	.LVL1861:
 11518 466e 2B78     		ldrb	r3, [r5, #0]	@ zero_extendqisi2
 11519 4670 2278     		ldrb	r2, [r4, #0]	@ zero_extendqisi2
 11520 4672 CB18     		adds	r3, r1, r3
 11521 4674 DBB2     		uxtb	r3, r3
 11522              	.LVL1862:
 11523 4676 2B70     		strb	r3, [r5, #0]
 11524 4678 9B18     		adds	r3, r3, r2
 11525              	.LVL1863:
 11526 467a 2370     		strb	r3, [r4, #0]
 11527 467c 5248     		ldr	r0, .L298+16
 11528 467e FFF7FEFF 		bl	uart_transmit
 11529              	.LVL1864:
 11530              	.LBE806:
 11531              	.LBB807:
 11532 4682 B178     		ldrb	r1, [r6, #2]	@ zero_extendqisi2
 11533              	.LVL1865:
 11534 4684 2B78     		ldrb	r3, [r5, #0]	@ zero_extendqisi2
 11535 4686 2278     		ldrb	r2, [r4, #0]	@ zero_extendqisi2
 11536 4688 CB18     		adds	r3, r1, r3
 11537 468a DBB2     		uxtb	r3, r3
 11538              	.LVL1866:
 11539 468c 2B70     		strb	r3, [r5, #0]
 11540 468e 9B18     		adds	r3, r3, r2
 11541              	.LVL1867:
 11542 4690 2370     		strb	r3, [r4, #0]
 11543 4692 4D48     		ldr	r0, .L298+16
 11544 4694 FFF7FEFF 		bl	uart_transmit
 11545              	.LVL1868:
 11546              	.LBE807:
 11547              	.LBB808:
 11548 4698 F178     		ldrb	r1, [r6, #3]	@ zero_extendqisi2
 11549              	.LVL1869:
 11550 469a 2B78     		ldrb	r3, [r5, #0]	@ zero_extendqisi2
 11551 469c 2278     		ldrb	r2, [r4, #0]	@ zero_extendqisi2
 11552 469e CB18     		adds	r3, r1, r3
 11553 46a0 DBB2     		uxtb	r3, r3
 11554              	.LVL1870:
 11555 46a2 2B70     		strb	r3, [r5, #0]
 11556 46a4 9B18     		adds	r3, r3, r2
 11557              	.LVL1871:
 11558 46a6 2370     		strb	r3, [r4, #0]
 11559 46a8 4748     		ldr	r0, .L298+16
 11560 46aa FFF7FEFF 		bl	uart_transmit
 11561              	.LVL1872:
 11562              	.LBE808:
 11563              	.LBB809:
 11564 46ae 4C4B     		ldr	r3, .L298+40
 11565 46b0 1978     		ldrb	r1, [r3, #0]	@ zero_extendqisi2
 11566              	.LVL1873:
 11567 46b2 6DE0     		b	.L222
 11568              	.LVL1874:
 11569              	.L159:
 11570              	.LBE809:
 11571              		.loc 1 422 0 discriminator 254
 11572 46b4 602B     		cmp	r3, #96
 11573 46b6 40F09B80 		bne	.L161
 11574              	.LBB810:
 11575              		.loc 1 422 0 discriminator 257
 11576 46ba 4A4D     		ldr	r5, .L298+44
 11577 46bc 434C     		ldr	r4, .L298+20
 11578 46be 2888     		ldrh	r0, [r5, #0]
 11579 46c0 2688     		ldrh	r6, [r4, #0]
 11580 46c2 301A     		subs	r0, r6, r0
 11581 46c4 FFF7FEFF 		bl	__aeabi_i2d
 11582 46c8 3BA3     		adr	r3, .L298
 11583 46ca D3E90023 		ldrd	r2, [r3]
 11584 46ce FFF7FEFF 		bl	__aeabi_ddiv
 11585 46d2 FFF7FEFF 		bl	__aeabi_d2uiz
 11586 46d6 2E80     		strh	r6, [r5, #0]	@ movhi
 11587 46d8 ADF81C00 		strh	r0, [sp, #28]	@ movhi
 11588              	.LVL1875:
 11589 46dc 0B21     		movs	r1, #11
 11590 46de 3A48     		ldr	r0, .L298+16
 11591 46e0 FFF7FEFF 		bl	uart_check_free_space
 11592 46e4 0028     		cmp	r0, #0
 11593 46e6 7FD0     		beq	.L162
 11594              		.loc 1 422 0 discriminator 259
 11595 46e8 2388     		ldrh	r3, [r4, #0]
 11596 46ea 394E     		ldr	r6, .L298+24
 11597 46ec 0B33     		adds	r3, r3, #11
 11598 46ee 2380     		strh	r3, [r4, #0]	@ movhi
 11599 46f0 3388     		ldrh	r3, [r6, #0]
 11600              	.LBB811:
 11601 46f2 3548     		ldr	r0, .L298+16
 11602              	.LBE811:
 11603 46f4 0133     		adds	r3, r3, #1
 11604 46f6 3380     		strh	r3, [r6, #0]	@ movhi
 11605              	.LBB812:
 11606 46f8 9921     		movs	r1, #153
 11607              	.LBE812:
 11608 46fa 364D     		ldr	r5, .L298+28
 11609              	.LBB813:
 11610 46fc FFF7FEFF 		bl	uart_transmit
 11611              	.LVL1876:
 11612 4700 3148     		ldr	r0, .L298+16
 11613 4702 0B21     		movs	r1, #11
 11614              	.LBE813:
 11615 4704 344C     		ldr	r4, .L298+32
 11616              	.LBB814:
 11617 4706 FFF7FEFF 		bl	uart_transmit
 11618              	.LBE814:
 11619 470a 0C23     		movs	r3, #12
 11620 470c 2B70     		strb	r3, [r5, #0]
 11621 470e 1723     		movs	r3, #23
 11622 4710 2370     		strb	r3, [r4, #0]
 11623 4712 2D48     		ldr	r0, .L298+16
 11624 4714 0121     		movs	r1, #1
 11625 4716 FFF7FEFF 		bl	uart_transmit
 11626 471a 2B78     		ldrb	r3, [r5, #0]	@ zero_extendqisi2
 11627 471c 2278     		ldrb	r2, [r4, #0]	@ zero_extendqisi2
 11628 471e 1E33     		adds	r3, r3, #30
 11629 4720 DBB2     		uxtb	r3, r3
 11630 4722 2B70     		strb	r3, [r5, #0]
 11631 4724 9B18     		adds	r3, r3, r2
 11632 4726 2370     		strb	r3, [r4, #0]
 11633 4728 2748     		ldr	r0, .L298+16
 11634 472a 1E21     		movs	r1, #30
 11635 472c FFF7FEFF 		bl	uart_transmit
 11636              	.LBB815:
 11637 4730 234B     		ldr	r3, .L298+8
 11638 4732 2278     		ldrb	r2, [r4, #0]	@ zero_extendqisi2
 11639 4734 1978     		ldrb	r1, [r3, #0]	@ zero_extendqisi2
 11640              	.LVL1877:
 11641 4736 2B78     		ldrb	r3, [r5, #0]	@ zero_extendqisi2
 11642 4738 2348     		ldr	r0, .L298+16
 11643 473a CB18     		adds	r3, r1, r3
 11644 473c DBB2     		uxtb	r3, r3
 11645              	.LVL1878:
 11646 473e 2B70     		strb	r3, [r5, #0]
 11647 4740 9B18     		adds	r3, r3, r2
 11648              	.LVL1879:
 11649 4742 2370     		strb	r3, [r4, #0]
 11650 4744 FFF7FEFF 		bl	uart_transmit
 11651              	.LVL1880:
 11652              	.LBE815:
 11653              	.LBB816:
 11654 4748 9DF81C10 		ldrb	r1, [sp, #28]	@ zero_extendqisi2
 11655              	.LVL1881:
 11656 474c 2B78     		ldrb	r3, [r5, #0]	@ zero_extendqisi2
 11657 474e 2278     		ldrb	r2, [r4, #0]	@ zero_extendqisi2
 11658 4750 CB18     		adds	r3, r1, r3
 11659 4752 DBB2     		uxtb	r3, r3
 11660              	.LVL1882:
 11661 4754 2B70     		strb	r3, [r5, #0]
 11662 4756 9B18     		adds	r3, r3, r2
 11663              	.LVL1883:
 11664 4758 2370     		strb	r3, [r4, #0]
 11665 475a 1B48     		ldr	r0, .L298+16
 11666 475c FFF7FEFF 		bl	uart_transmit
 11667              	.LVL1884:
 11668              	.LBE816:
 11669              	.LBB817:
 11670 4760 9DF81D10 		ldrb	r1, [sp, #29]	@ zero_extendqisi2
 11671              	.LVL1885:
 11672 4764 2B78     		ldrb	r3, [r5, #0]	@ zero_extendqisi2
 11673 4766 2278     		ldrb	r2, [r4, #0]	@ zero_extendqisi2
 11674 4768 CB18     		adds	r3, r1, r3
 11675 476a DBB2     		uxtb	r3, r3
 11676              	.LVL1886:
 11677 476c 2B70     		strb	r3, [r5, #0]
 11678 476e 9B18     		adds	r3, r3, r2
 11679              	.LVL1887:
 11680 4770 2370     		strb	r3, [r4, #0]
 11681 4772 1548     		ldr	r0, .L298+16
 11682 4774 FFF7FEFF 		bl	uart_transmit
 11683              	.LVL1888:
 11684              	.LBE817:
 11685              	.LBB818:
 11686 4778 3178     		ldrb	r1, [r6, #0]	@ zero_extendqisi2
 11687              	.LVL1889:
 11688 477a 2B78     		ldrb	r3, [r5, #0]	@ zero_extendqisi2
 11689 477c 2278     		ldrb	r2, [r4, #0]	@ zero_extendqisi2
 11690 477e CB18     		adds	r3, r1, r3
 11691 4780 DBB2     		uxtb	r3, r3
 11692              	.LVL1890:
 11693 4782 2B70     		strb	r3, [r5, #0]
 11694 4784 9B18     		adds	r3, r3, r2
 11695              	.LVL1891:
 11696 4786 2370     		strb	r3, [r4, #0]
 11697 4788 0F48     		ldr	r0, .L298+16
 11698 478a FFF7FEFF 		bl	uart_transmit
 11699              	.LVL1892:
 11700              	.LBE818:
 11701              	.LBB819:
 11702 478e 7178     		ldrb	r1, [r6, #1]	@ zero_extendqisi2
 11703              	.LVL1893:
 11704              	.L222:
 11705 4790 2B78     		ldrb	r3, [r5, #0]	@ zero_extendqisi2
 11706 4792 2278     		ldrb	r2, [r4, #0]	@ zero_extendqisi2
 11707 4794 CB18     		adds	r3, r1, r3
 11708 4796 DBB2     		uxtb	r3, r3
 11709              	.LVL1894:
 11710 4798 2B70     		strb	r3, [r5, #0]
 11711 479a 9B18     		adds	r3, r3, r2
 11712              	.LVL1895:
 11713 479c 2370     		strb	r3, [r4, #0]
 11714 479e 0A48     		ldr	r0, .L298+16
 11715 47a0 FFF7FEFF 		bl	uart_transmit
 11716              	.LVL1896:
 11717              	.LBE819:
 11718 47a4 2978     		ldrb	r1, [r5, #0]	@ zero_extendqisi2
 11719 47a6 0848     		ldr	r0, .L298+16
 11720 47a8 FFF7FEFF 		bl	uart_transmit
 11721 47ac 0648     		ldr	r0, .L298+16
 11722 47ae 2178     		ldrb	r1, [r4, #0]	@ zero_extendqisi2
 11723 47b0 FFF7FEFF 		bl	uart_transmit
 11724 47b4 1CE0     		b	.L161
 11725              	.L299:
 11726 47b6 00BF     		.align	3
 11727              	.L298:
 11728 47b8 66666666 		.word	1717986918
 11729 47bc 66661440 		.word	1075078758
 11730 47c0 00000000 		.word	downlink_nb_ovrn
 11731 47c4 00000000 		.word	.LANCHOR47
 11732 47c8 00000000 		.word	uart2
 11733 47cc 00000000 		.word	downlink_nb_bytes
 11734 47d0 00000000 		.word	downlink_nb_msgs
 11735 47d4 00000000 		.word	ck_a
 11736 47d8 00000000 		.word	ck_b
 11737 47dc 00000000 		.word	v_ctl_auto_throttle_sum_err
 11738 47e0 00000000 		.word	v_ctl_auto_throttle_submode
 11739 47e4 00000000 		.word	.LANCHOR54
 11740              	.L162:
 11741              		.loc 1 422 0 discriminator 260
 11742 47e8 514B     		ldr	r3, .L300
 11743 47ea 1A78     		ldrb	r2, [r3, #0]	@ zero_extendqisi2
 11744 47ec 0132     		adds	r2, r2, #1
 11745 47ee 1A70     		strb	r2, [r3, #0]
 11746              	.L161:
 11747              	.LBE810:
 11748              		.loc 1 422 0 discriminator 258
 11749 47f0 504B     		ldr	r3, .L300+4
 11750 47f2 1B88     		ldrh	r3, [r3, #0]
 11751 47f4 6C2B     		cmp	r3, #108
 11752 47f6 40F0B380 		bne	.L163
 11753              		.loc 1 422 0 discriminator 262
 11754 47fa 4F48     		ldr	r0, .L300+8
 11755 47fc 0F21     		movs	r1, #15
 11756 47fe FFF7FEFF 		bl	uart_check_free_space
 11757 4802 0028     		cmp	r0, #0
 11758 4804 00F0A880 		beq	.L164
 11759              		.loc 1 422 0 discriminator 264
 11760 4808 4C4B     		ldr	r3, .L300+12
 11761              	.LBB820:
 11762 480a 9921     		movs	r1, #153
 11763              	.LBE820:
 11764 480c 1A88     		ldrh	r2, [r3, #0]
 11765              	.LBB821:
 11766 480e 4A48     		ldr	r0, .L300+8
 11767              	.LBE821:
 11768 4810 0F32     		adds	r2, r2, #15
 11769 4812 1A80     		strh	r2, [r3, #0]	@ movhi
 11770 4814 4A4B     		ldr	r3, .L300+16
 11771 4816 4B4D     		ldr	r5, .L300+20
 11772 4818 1A88     		ldrh	r2, [r3, #0]
 11773 481a 4B4C     		ldr	r4, .L300+24
 11774 481c 0132     		adds	r2, r2, #1
 11775 481e 1A80     		strh	r2, [r3, #0]	@ movhi
 11776              	.LBB822:
 11777 4820 FFF7FEFF 		bl	uart_transmit
 11778              	.LVL1897:
 11779 4824 0F21     		movs	r1, #15
 11780 4826 4448     		ldr	r0, .L300+8
 11781 4828 FFF7FEFF 		bl	uart_transmit
 11782              	.LBE822:
 11783 482c 1023     		movs	r3, #16
 11784 482e 2B70     		strb	r3, [r5, #0]
 11785 4830 1F23     		movs	r3, #31
 11786 4832 2370     		strb	r3, [r4, #0]
 11787 4834 0121     		movs	r1, #1
 11788 4836 4048     		ldr	r0, .L300+8
 11789 4838 FFF7FEFF 		bl	uart_transmit
 11790 483c 2B78     		ldrb	r3, [r5, #0]	@ zero_extendqisi2
 11791 483e 2278     		ldrb	r2, [r4, #0]	@ zero_extendqisi2
 11792 4840 0933     		adds	r3, r3, #9
 11793 4842 DBB2     		uxtb	r3, r3
 11794              	.LBB823:
 11795 4844 414E     		ldr	r6, .L300+28
 11796              	.LBE823:
 11797 4846 2B70     		strb	r3, [r5, #0]
 11798 4848 9B18     		adds	r3, r3, r2
 11799 484a 2370     		strb	r3, [r4, #0]
 11800 484c 0921     		movs	r1, #9
 11801 484e 3A48     		ldr	r0, .L300+8
 11802 4850 FFF7FEFF 		bl	uart_transmit
 11803              	.LBB824:
 11804 4854 3178     		ldrb	r1, [r6, #0]	@ zero_extendqisi2
 11805              	.LVL1898:
 11806 4856 2B78     		ldrb	r3, [r5, #0]	@ zero_extendqisi2
 11807 4858 2278     		ldrb	r2, [r4, #0]	@ zero_extendqisi2
 11808 485a CB18     		adds	r3, r1, r3
 11809 485c DBB2     		uxtb	r3, r3
 11810              	.LVL1899:
 11811 485e 2B70     		strb	r3, [r5, #0]
 11812 4860 9B18     		adds	r3, r3, r2
 11813              	.LVL1900:
 11814 4862 2370     		strb	r3, [r4, #0]
 11815 4864 3448     		ldr	r0, .L300+8
 11816 4866 FFF7FEFF 		bl	uart_transmit
 11817              	.LVL1901:
 11818              	.LBE824:
 11819              	.LBB825:
 11820 486a 7178     		ldrb	r1, [r6, #1]	@ zero_extendqisi2
 11821              	.LVL1902:
 11822 486c 2B78     		ldrb	r3, [r5, #0]	@ zero_extendqisi2
 11823 486e 2278     		ldrb	r2, [r4, #0]	@ zero_extendqisi2
 11824 4870 CB18     		adds	r3, r1, r3
 11825 4872 DBB2     		uxtb	r3, r3
 11826              	.LVL1903:
 11827 4874 2B70     		strb	r3, [r5, #0]
 11828 4876 9B18     		adds	r3, r3, r2
 11829              	.LVL1904:
 11830 4878 2370     		strb	r3, [r4, #0]
 11831 487a 2F48     		ldr	r0, .L300+8
 11832 487c FFF7FEFF 		bl	uart_transmit
 11833              	.LVL1905:
 11834              	.LBE825:
 11835              	.LBB826:
 11836 4880 B178     		ldrb	r1, [r6, #2]	@ zero_extendqisi2
 11837              	.LVL1906:
 11838 4882 2B78     		ldrb	r3, [r5, #0]	@ zero_extendqisi2
 11839 4884 2278     		ldrb	r2, [r4, #0]	@ zero_extendqisi2
 11840 4886 CB18     		adds	r3, r1, r3
 11841 4888 DBB2     		uxtb	r3, r3
 11842              	.LVL1907:
 11843 488a 2B70     		strb	r3, [r5, #0]
 11844 488c 9B18     		adds	r3, r3, r2
 11845              	.LVL1908:
 11846 488e 2370     		strb	r3, [r4, #0]
 11847 4890 2948     		ldr	r0, .L300+8
 11848 4892 FFF7FEFF 		bl	uart_transmit
 11849              	.LVL1909:
 11850              	.LBE826:
 11851              	.LBB827:
 11852 4896 F178     		ldrb	r1, [r6, #3]	@ zero_extendqisi2
 11853              	.LVL1910:
 11854 4898 2B78     		ldrb	r3, [r5, #0]	@ zero_extendqisi2
 11855 489a 2278     		ldrb	r2, [r4, #0]	@ zero_extendqisi2
 11856 489c CB18     		adds	r3, r1, r3
 11857 489e DBB2     		uxtb	r3, r3
 11858              	.LBE827:
 11859              	.LBB828:
 11860 48a0 2B4E     		ldr	r6, .L300+32
 11861              	.LVL1911:
 11862              	.LBE828:
 11863              	.LBB829:
 11864 48a2 2B70     		strb	r3, [r5, #0]
 11865 48a4 9B18     		adds	r3, r3, r2
 11866              	.LVL1912:
 11867 48a6 2370     		strb	r3, [r4, #0]
 11868 48a8 2348     		ldr	r0, .L300+8
 11869 48aa FFF7FEFF 		bl	uart_transmit
 11870              	.LVL1913:
 11871              	.LBE829:
 11872              	.LBB830:
 11873 48ae 3178     		ldrb	r1, [r6, #0]	@ zero_extendqisi2
 11874              	.LVL1914:
 11875 48b0 2B78     		ldrb	r3, [r5, #0]	@ zero_extendqisi2
 11876 48b2 2278     		ldrb	r2, [r4, #0]	@ zero_extendqisi2
 11877 48b4 CB18     		adds	r3, r1, r3
 11878 48b6 DBB2     		uxtb	r3, r3
 11879              	.LVL1915:
 11880 48b8 2B70     		strb	r3, [r5, #0]
 11881 48ba 9B18     		adds	r3, r3, r2
 11882              	.LVL1916:
 11883 48bc 2370     		strb	r3, [r4, #0]
 11884 48be 1E48     		ldr	r0, .L300+8
 11885 48c0 FFF7FEFF 		bl	uart_transmit
 11886              	.LVL1917:
 11887              	.LBE830:
 11888              	.LBB831:
 11889 48c4 7178     		ldrb	r1, [r6, #1]	@ zero_extendqisi2
 11890              	.LVL1918:
 11891 48c6 2B78     		ldrb	r3, [r5, #0]	@ zero_extendqisi2
 11892 48c8 2278     		ldrb	r2, [r4, #0]	@ zero_extendqisi2
 11893 48ca CB18     		adds	r3, r1, r3
 11894 48cc DBB2     		uxtb	r3, r3
 11895              	.LVL1919:
 11896 48ce 2B70     		strb	r3, [r5, #0]
 11897 48d0 9B18     		adds	r3, r3, r2
 11898              	.LVL1920:
 11899 48d2 2370     		strb	r3, [r4, #0]
 11900 48d4 1848     		ldr	r0, .L300+8
 11901 48d6 FFF7FEFF 		bl	uart_transmit
 11902              	.LVL1921:
 11903              	.LBE831:
 11904              	.LBB832:
 11905 48da B178     		ldrb	r1, [r6, #2]	@ zero_extendqisi2
 11906              	.LVL1922:
 11907 48dc 2B78     		ldrb	r3, [r5, #0]	@ zero_extendqisi2
 11908 48de 2278     		ldrb	r2, [r4, #0]	@ zero_extendqisi2
 11909 48e0 CB18     		adds	r3, r1, r3
 11910 48e2 DBB2     		uxtb	r3, r3
 11911              	.LVL1923:
 11912 48e4 2B70     		strb	r3, [r5, #0]
 11913 48e6 9B18     		adds	r3, r3, r2
 11914              	.LVL1924:
 11915 48e8 2370     		strb	r3, [r4, #0]
 11916 48ea 1348     		ldr	r0, .L300+8
 11917 48ec FFF7FEFF 		bl	uart_transmit
 11918              	.LVL1925:
 11919              	.LBE832:
 11920              	.LBB833:
 11921 48f0 F178     		ldrb	r1, [r6, #3]	@ zero_extendqisi2
 11922              	.LVL1926:
 11923 48f2 2B78     		ldrb	r3, [r5, #0]	@ zero_extendqisi2
 11924 48f4 2278     		ldrb	r2, [r4, #0]	@ zero_extendqisi2
 11925 48f6 CB18     		adds	r3, r1, r3
 11926 48f8 DBB2     		uxtb	r3, r3
 11927              	.LVL1927:
 11928 48fa 2B70     		strb	r3, [r5, #0]
 11929 48fc 9B18     		adds	r3, r3, r2
 11930              	.LVL1928:
 11931 48fe 2370     		strb	r3, [r4, #0]
 11932 4900 0D48     		ldr	r0, .L300+8
 11933 4902 FFF7FEFF 		bl	uart_transmit
 11934              	.LVL1929:
 11935              	.LBE833:
 11936              	.LBB834:
 11937 4906 134B     		ldr	r3, .L300+36
 11938 4908 2278     		ldrb	r2, [r4, #0]	@ zero_extendqisi2
 11939 490a 1978     		ldrb	r1, [r3, #0]	@ zero_extendqisi2
 11940              	.LVL1930:
 11941 490c 2B78     		ldrb	r3, [r5, #0]	@ zero_extendqisi2
 11942 490e 0A48     		ldr	r0, .L300+8
 11943 4910 CB18     		adds	r3, r1, r3
 11944 4912 DBB2     		uxtb	r3, r3
 11945              	.LVL1931:
 11946 4914 2B70     		strb	r3, [r5, #0]
 11947 4916 9B18     		adds	r3, r3, r2
 11948              	.LVL1932:
 11949 4918 2370     		strb	r3, [r4, #0]
 11950 491a FFF7FEFF 		bl	uart_transmit
 11951              	.LVL1933:
 11952              	.LBE834:
 11953 491e 2978     		ldrb	r1, [r5, #0]	@ zero_extendqisi2
 11954 4920 0548     		ldr	r0, .L300+8
 11955 4922 FFF7FEFF 		bl	uart_transmit
 11956 4926 0448     		ldr	r0, .L300+8
 11957 4928 2178     		ldrb	r1, [r4, #0]	@ zero_extendqisi2
 11958 492a FFF7FEFF 		bl	uart_transmit
 11959 492e 17E0     		b	.L163
 11960              	.L301:
 11961              		.align	2
 11962              	.L300:
 11963 4930 00000000 		.word	downlink_nb_ovrn
 11964 4934 00000000 		.word	.LANCHOR49
 11965 4938 00000000 		.word	uart2
 11966 493c 00000000 		.word	downlink_nb_bytes
 11967 4940 00000000 		.word	downlink_nb_msgs
 11968 4944 00000000 		.word	ck_a
 11969 4948 00000000 		.word	ck_b
 11970 494c 00000000 		.word	nav_utm_east0
 11971 4950 00000000 		.word	nav_utm_north0
 11972 4954 00000000 		.word	nav_utm_zone0
 11973              	.LVL1934:
 11974              	.L164:
 11975              		.loc 1 422 0 discriminator 265
 11976 4958 734B     		ldr	r3, .L302
 11977 495a 1A78     		ldrb	r2, [r3, #0]	@ zero_extendqisi2
 11978 495c 0132     		adds	r2, r2, #1
 11979 495e 1A70     		strb	r2, [r3, #0]
 11980              	.L163:
 11981              		.loc 1 422 0 discriminator 263
 11982 4960 724B     		ldr	r3, .L302+4
 11983 4962 1B88     		ldrh	r3, [r3, #0]
 11984 4964 722B     		cmp	r3, #114
 11985 4966 40F0F380 		bne	.L87
 11986              	.LBB835:
 11987              		.loc 1 422 0 discriminator 266
 11988 496a 714C     		ldr	r4, .L302+8
 11989 496c 2068     		ldr	r0, [r4, #0]
 11990 496e FFF7FEFF 		bl	__aeabi_i2f
 11991 4972 4FF06651 		mov	r1, #964689920
 11992 4976 FFF7FEFF 		bl	__aeabi_fmul
 11993 497a 0190     		str	r0, [sp, #4]	@ float
 11994 497c 6068     		ldr	r0, [r4, #4]
 11995 497e FFF7FEFF 		bl	__aeabi_i2f
 11996 4982 4FF06651 		mov	r1, #964689920
 11997 4986 FFF7FEFF 		bl	__aeabi_fmul
 11998 498a 0290     		str	r0, [sp, #8]	@ float
 11999 498c A068     		ldr	r0, [r4, #8]
 12000 498e FFF7FEFF 		bl	__aeabi_i2f
 12001 4992 4FF06651 		mov	r1, #964689920
 12002 4996 FFF7FEFF 		bl	__aeabi_fmul
 12003 499a 1221     		movs	r1, #18
 12004 499c 0390     		str	r0, [sp, #12]	@ float
 12005 499e 6548     		ldr	r0, .L302+12
 12006 49a0 FFF7FEFF 		bl	uart_check_free_space
 12007 49a4 0028     		cmp	r0, #0
 12008 49a6 00F0CF80 		beq	.L165
 12009              		.loc 1 422 0 discriminator 267
 12010 49aa 634B     		ldr	r3, .L302+16
 12011              	.LBB836:
 12012 49ac 9921     		movs	r1, #153
 12013              	.LBE836:
 12014 49ae 1A88     		ldrh	r2, [r3, #0]
 12015              	.LBB837:
 12016 49b0 6048     		ldr	r0, .L302+12
 12017              	.LBE837:
 12018 49b2 1232     		adds	r2, r2, #18
 12019 49b4 1A80     		strh	r2, [r3, #0]	@ movhi
 12020 49b6 614B     		ldr	r3, .L302+20
 12021 49b8 614D     		ldr	r5, .L302+24
 12022 49ba 1A88     		ldrh	r2, [r3, #0]
 12023 49bc 614C     		ldr	r4, .L302+28
 12024 49be 0132     		adds	r2, r2, #1
 12025 49c0 1A80     		strh	r2, [r3, #0]	@ movhi
 12026              	.LBB838:
 12027 49c2 FFF7FEFF 		bl	uart_transmit
 12028              	.LVL1935:
 12029 49c6 1221     		movs	r1, #18
 12030 49c8 5A48     		ldr	r0, .L302+12
 12031 49ca FFF7FEFF 		bl	uart_transmit
 12032              	.LBE838:
 12033 49ce 1323     		movs	r3, #19
 12034 49d0 2B70     		strb	r3, [r5, #0]
 12035 49d2 2523     		movs	r3, #37
 12036 49d4 2370     		strb	r3, [r4, #0]
 12037 49d6 0121     		movs	r1, #1
 12038 49d8 5648     		ldr	r0, .L302+12
 12039 49da FFF7FEFF 		bl	uart_transmit
 12040 49de 2B78     		ldrb	r3, [r5, #0]	@ zero_extendqisi2
 12041 49e0 2278     		ldrb	r2, [r4, #0]	@ zero_extendqisi2
 12042 49e2 383B     		subs	r3, r3, #56
 12043 49e4 DBB2     		uxtb	r3, r3
 12044 49e6 2B70     		strb	r3, [r5, #0]
 12045 49e8 9B18     		adds	r3, r3, r2
 12046 49ea 2370     		strb	r3, [r4, #0]
 12047 49ec C821     		movs	r1, #200
 12048 49ee 5148     		ldr	r0, .L302+12
 12049 49f0 FFF7FEFF 		bl	uart_transmit
 12050              	.LBB839:
 12051 49f4 9DF80410 		ldrb	r1, [sp, #4]	@ zero_extendqisi2
 12052              	.LVL1936:
 12053 49f8 2B78     		ldrb	r3, [r5, #0]	@ zero_extendqisi2
 12054 49fa 2278     		ldrb	r2, [r4, #0]	@ zero_extendqisi2
 12055 49fc CB18     		adds	r3, r1, r3
 12056 49fe DBB2     		uxtb	r3, r3
 12057              	.LVL1937:
 12058 4a00 2B70     		strb	r3, [r5, #0]
 12059 4a02 9B18     		adds	r3, r3, r2
 12060              	.LVL1938:
 12061 4a04 2370     		strb	r3, [r4, #0]
 12062 4a06 4B48     		ldr	r0, .L302+12
 12063 4a08 FFF7FEFF 		bl	uart_transmit
 12064              	.LVL1939:
 12065              	.LBE839:
 12066              	.LBB840:
 12067 4a0c 9DF80510 		ldrb	r1, [sp, #5]	@ zero_extendqisi2
 12068              	.LVL1940:
 12069 4a10 2B78     		ldrb	r3, [r5, #0]	@ zero_extendqisi2
 12070 4a12 2278     		ldrb	r2, [r4, #0]	@ zero_extendqisi2
 12071 4a14 CB18     		adds	r3, r1, r3
 12072 4a16 DBB2     		uxtb	r3, r3
 12073              	.LVL1941:
 12074 4a18 2B70     		strb	r3, [r5, #0]
 12075 4a1a 9B18     		adds	r3, r3, r2
 12076              	.LVL1942:
 12077 4a1c 2370     		strb	r3, [r4, #0]
 12078 4a1e 4548     		ldr	r0, .L302+12
 12079 4a20 FFF7FEFF 		bl	uart_transmit
 12080              	.LVL1943:
 12081              	.LBE840:
 12082              	.LBB841:
 12083 4a24 9DF80610 		ldrb	r1, [sp, #6]	@ zero_extendqisi2
 12084              	.LVL1944:
 12085 4a28 2B78     		ldrb	r3, [r5, #0]	@ zero_extendqisi2
 12086 4a2a 2278     		ldrb	r2, [r4, #0]	@ zero_extendqisi2
 12087 4a2c CB18     		adds	r3, r1, r3
 12088 4a2e DBB2     		uxtb	r3, r3
 12089              	.LVL1945:
 12090 4a30 2B70     		strb	r3, [r5, #0]
 12091 4a32 9B18     		adds	r3, r3, r2
 12092              	.LVL1946:
 12093 4a34 2370     		strb	r3, [r4, #0]
 12094 4a36 3F48     		ldr	r0, .L302+12
 12095 4a38 FFF7FEFF 		bl	uart_transmit
 12096              	.LVL1947:
 12097              	.LBE841:
 12098              	.LBB842:
 12099 4a3c 9DF80710 		ldrb	r1, [sp, #7]	@ zero_extendqisi2
 12100              	.LVL1948:
 12101 4a40 2B78     		ldrb	r3, [r5, #0]	@ zero_extendqisi2
 12102 4a42 2278     		ldrb	r2, [r4, #0]	@ zero_extendqisi2
 12103 4a44 CB18     		adds	r3, r1, r3
 12104 4a46 DBB2     		uxtb	r3, r3
 12105              	.LVL1949:
 12106 4a48 2B70     		strb	r3, [r5, #0]
 12107 4a4a 9B18     		adds	r3, r3, r2
 12108              	.LVL1950:
 12109 4a4c 2370     		strb	r3, [r4, #0]
 12110 4a4e 3948     		ldr	r0, .L302+12
 12111 4a50 FFF7FEFF 		bl	uart_transmit
 12112              	.LVL1951:
 12113              	.LBE842:
 12114              	.LBB843:
 12115 4a54 9DF80810 		ldrb	r1, [sp, #8]	@ zero_extendqisi2
 12116              	.LVL1952:
 12117 4a58 2B78     		ldrb	r3, [r5, #0]	@ zero_extendqisi2
 12118 4a5a 2278     		ldrb	r2, [r4, #0]	@ zero_extendqisi2
 12119 4a5c CB18     		adds	r3, r1, r3
 12120 4a5e DBB2     		uxtb	r3, r3
 12121              	.LVL1953:
 12122 4a60 2B70     		strb	r3, [r5, #0]
 12123 4a62 9B18     		adds	r3, r3, r2
 12124              	.LVL1954:
 12125 4a64 2370     		strb	r3, [r4, #0]
 12126 4a66 3348     		ldr	r0, .L302+12
 12127 4a68 FFF7FEFF 		bl	uart_transmit
 12128              	.LVL1955:
 12129              	.LBE843:
 12130              	.LBB844:
 12131 4a6c 9DF80910 		ldrb	r1, [sp, #9]	@ zero_extendqisi2
 12132              	.LVL1956:
 12133 4a70 2B78     		ldrb	r3, [r5, #0]	@ zero_extendqisi2
 12134 4a72 2278     		ldrb	r2, [r4, #0]	@ zero_extendqisi2
 12135 4a74 CB18     		adds	r3, r1, r3
 12136 4a76 DBB2     		uxtb	r3, r3
 12137              	.LVL1957:
 12138 4a78 2B70     		strb	r3, [r5, #0]
 12139 4a7a 9B18     		adds	r3, r3, r2
 12140              	.LVL1958:
 12141 4a7c 2370     		strb	r3, [r4, #0]
 12142 4a7e 2D48     		ldr	r0, .L302+12
 12143 4a80 FFF7FEFF 		bl	uart_transmit
 12144              	.LVL1959:
 12145              	.LBE844:
 12146              	.LBB845:
 12147 4a84 9DF80A10 		ldrb	r1, [sp, #10]	@ zero_extendqisi2
 12148              	.LVL1960:
 12149 4a88 2B78     		ldrb	r3, [r5, #0]	@ zero_extendqisi2
 12150 4a8a 2278     		ldrb	r2, [r4, #0]	@ zero_extendqisi2
 12151 4a8c CB18     		adds	r3, r1, r3
 12152 4a8e DBB2     		uxtb	r3, r3
 12153              	.LVL1961:
 12154 4a90 2B70     		strb	r3, [r5, #0]
 12155 4a92 9B18     		adds	r3, r3, r2
 12156              	.LVL1962:
 12157 4a94 2370     		strb	r3, [r4, #0]
 12158 4a96 2748     		ldr	r0, .L302+12
 12159 4a98 FFF7FEFF 		bl	uart_transmit
 12160              	.LVL1963:
 12161              	.LBE845:
 12162              	.LBB846:
 12163 4a9c 9DF80B10 		ldrb	r1, [sp, #11]	@ zero_extendqisi2
 12164              	.LVL1964:
 12165 4aa0 2B78     		ldrb	r3, [r5, #0]	@ zero_extendqisi2
 12166 4aa2 2278     		ldrb	r2, [r4, #0]	@ zero_extendqisi2
 12167 4aa4 CB18     		adds	r3, r1, r3
 12168 4aa6 DBB2     		uxtb	r3, r3
 12169              	.LVL1965:
 12170 4aa8 2B70     		strb	r3, [r5, #0]
 12171 4aaa 9B18     		adds	r3, r3, r2
 12172              	.LVL1966:
 12173 4aac 2370     		strb	r3, [r4, #0]
 12174 4aae 2148     		ldr	r0, .L302+12
 12175 4ab0 FFF7FEFF 		bl	uart_transmit
 12176              	.LVL1967:
 12177              	.LBE846:
 12178              	.LBB847:
 12179 4ab4 9DF80C10 		ldrb	r1, [sp, #12]	@ zero_extendqisi2
 12180              	.LVL1968:
 12181 4ab8 2B78     		ldrb	r3, [r5, #0]	@ zero_extendqisi2
 12182 4aba 2278     		ldrb	r2, [r4, #0]	@ zero_extendqisi2
 12183 4abc CB18     		adds	r3, r1, r3
 12184 4abe DBB2     		uxtb	r3, r3
 12185              	.LVL1969:
 12186 4ac0 2B70     		strb	r3, [r5, #0]
 12187 4ac2 9B18     		adds	r3, r3, r2
 12188              	.LVL1970:
 12189 4ac4 2370     		strb	r3, [r4, #0]
 12190 4ac6 1B48     		ldr	r0, .L302+12
 12191 4ac8 FFF7FEFF 		bl	uart_transmit
 12192              	.LVL1971:
 12193              	.LBE847:
 12194              	.LBB848:
 12195 4acc 9DF80D10 		ldrb	r1, [sp, #13]	@ zero_extendqisi2
 12196              	.LVL1972:
 12197 4ad0 2B78     		ldrb	r3, [r5, #0]	@ zero_extendqisi2
 12198 4ad2 2278     		ldrb	r2, [r4, #0]	@ zero_extendqisi2
 12199 4ad4 CB18     		adds	r3, r1, r3
 12200 4ad6 DBB2     		uxtb	r3, r3
 12201              	.LVL1973:
 12202 4ad8 2B70     		strb	r3, [r5, #0]
 12203 4ada 9B18     		adds	r3, r3, r2
 12204              	.LVL1974:
 12205 4adc 2370     		strb	r3, [r4, #0]
 12206 4ade 1548     		ldr	r0, .L302+12
 12207 4ae0 FFF7FEFF 		bl	uart_transmit
 12208              	.LVL1975:
 12209              	.LBE848:
 12210              	.LBB849:
 12211 4ae4 9DF80E10 		ldrb	r1, [sp, #14]	@ zero_extendqisi2
 12212              	.LVL1976:
 12213 4ae8 2B78     		ldrb	r3, [r5, #0]	@ zero_extendqisi2
 12214 4aea 2278     		ldrb	r2, [r4, #0]	@ zero_extendqisi2
 12215 4aec CB18     		adds	r3, r1, r3
 12216 4aee DBB2     		uxtb	r3, r3
 12217              	.LVL1977:
 12218 4af0 2B70     		strb	r3, [r5, #0]
 12219 4af2 9B18     		adds	r3, r3, r2
 12220              	.LVL1978:
 12221 4af4 2370     		strb	r3, [r4, #0]
 12222 4af6 0F48     		ldr	r0, .L302+12
 12223 4af8 FFF7FEFF 		bl	uart_transmit
 12224              	.LVL1979:
 12225              	.LBE849:
 12226              	.LBB850:
 12227 4afc 9DF80F10 		ldrb	r1, [sp, #15]	@ zero_extendqisi2
 12228              	.LVL1980:
 12229 4b00 2B78     		ldrb	r3, [r5, #0]	@ zero_extendqisi2
 12230 4b02 2278     		ldrb	r2, [r4, #0]	@ zero_extendqisi2
 12231 4b04 CB18     		adds	r3, r1, r3
 12232 4b06 DBB2     		uxtb	r3, r3
 12233              	.LVL1981:
 12234 4b08 2B70     		strb	r3, [r5, #0]
 12235 4b0a 9B18     		adds	r3, r3, r2
 12236              	.LVL1982:
 12237 4b0c 2370     		strb	r3, [r4, #0]
 12238 4b0e 0948     		ldr	r0, .L302+12
 12239 4b10 FFF7FEFF 		bl	uart_transmit
 12240              	.LVL1983:
 12241              	.LBE850:
 12242 4b14 2978     		ldrb	r1, [r5, #0]	@ zero_extendqisi2
 12243 4b16 0748     		ldr	r0, .L302+12
 12244 4b18 FFF7FEFF 		bl	uart_transmit
 12245 4b1c 0548     		ldr	r0, .L302+12
 12246 4b1e 2178     		ldrb	r1, [r4, #0]	@ zero_extendqisi2
 12247 4b20 FFF7FEFF 		bl	uart_transmit
 12248 4b24 14E0     		b	.L87
 12249              	.L303:
 12250 4b26 00BF     		.align	2
 12251              	.L302:
 12252 4b28 00000000 		.word	downlink_nb_ovrn
 12253 4b2c 00000000 		.word	.LANCHOR50
 12254 4b30 00000000 		.word	imu
 12255 4b34 00000000 		.word	uart2
 12256 4b38 00000000 		.word	downlink_nb_bytes
 12257 4b3c 00000000 		.word	downlink_nb_msgs
 12258 4b40 00000000 		.word	ck_a
 12259 4b44 00000000 		.word	ck_b
 12260              	.LVL1984:
 12261              	.L165:
 12262              		.loc 1 422 0 discriminator 268
 12263 4b48 5B4B     		ldr	r3, .L304
 12264 4b4a 1A78     		ldrb	r2, [r3, #0]	@ zero_extendqisi2
 12265 4b4c 0132     		adds	r2, r2, #1
 12266 4b4e 1A70     		strb	r2, [r3, #0]
 12267              	.L87:
 12268              	.LBE835:
 12269              	.LBE483:
 12270              		.loc 1 422 0 discriminator 121
 12271 4b50 5A4B     		ldr	r3, .L304+4
 12272 4b52 1B78     		ldrb	r3, [r3, #0]	@ zero_extendqisi2
 12273 4b54 022B     		cmp	r3, #2
 12274 4b56 41F0AF81 		bne	.L4
 12275              	.LBB851:
 12276              		.loc 1 422 0 discriminator 269
 12277 4b5a 594B     		ldr	r3, .L304+8
 12278 4b5c 1A88     		ldrh	r2, [r3, #0]
 12279 4b5e 0132     		adds	r2, r2, #1
 12280 4b60 92B2     		uxth	r2, r2
 12281 4b62 B2F5967F 		cmp	r2, #300
 12282 4b66 1A80     		strh	r2, [r3, #0]	@ movhi
 12283 4b68 01D3     		bcc	.L166
 12284              		.loc 1 422 0 discriminator 270
 12285 4b6a 0022     		movs	r2, #0
 12286 4b6c 1A80     		strh	r2, [r3, #0]	@ movhi
 12287              	.L166:
 12288              		.loc 1 422 0 discriminator 271
 12289 4b6e 554B     		ldr	r3, .L304+12
 12290 4b70 1A88     		ldrh	r2, [r3, #0]
 12291 4b72 0132     		adds	r2, r2, #1
 12292 4b74 92B2     		uxth	r2, r2
 12293 4b76 B2F5997F 		cmp	r2, #306
 12294 4b7a 1A80     		strh	r2, [r3, #0]	@ movhi
 12295 4b7c 01D3     		bcc	.L167
 12296              		.loc 1 422 0 discriminator 272
 12297 4b7e 0022     		movs	r2, #0
 12298 4b80 1A80     		strh	r2, [r3, #0]	@ movhi
 12299              	.L167:
 12300              		.loc 1 422 0 discriminator 273
 12301 4b82 514B     		ldr	r3, .L304+16
 12302 4b84 1A88     		ldrh	r2, [r3, #0]
 12303 4b86 0132     		adds	r2, r2, #1
 12304 4b88 92B2     		uxth	r2, r2
 12305 4b8a B2F59F7F 		cmp	r2, #318
 12306 4b8e 1A80     		strh	r2, [r3, #0]	@ movhi
 12307 4b90 01D3     		bcc	.L168
 12308              		.loc 1 422 0 discriminator 274
 12309 4b92 0022     		movs	r2, #0
 12310 4b94 1A80     		strh	r2, [r3, #0]	@ movhi
 12311              	.L168:
 12312              		.loc 1 422 0 discriminator 275
 12313 4b96 4D4B     		ldr	r3, .L304+20
 12314 4b98 1A88     		ldrh	r2, [r3, #0]
 12315 4b9a 0132     		adds	r2, r2, #1
 12316 4b9c 92B2     		uxth	r2, r2
 12317 4b9e B2F5A27F 		cmp	r2, #324
 12318 4ba2 1A80     		strh	r2, [r3, #0]	@ movhi
 12319 4ba4 01D3     		bcc	.L169
 12320              		.loc 1 422 0 discriminator 276
 12321 4ba6 0022     		movs	r2, #0
 12322 4ba8 1A80     		strh	r2, [r3, #0]	@ movhi
 12323              	.L169:
 12324              		.loc 1 422 0 discriminator 277
 12325 4baa 494B     		ldr	r3, .L304+24
 12326 4bac 1A88     		ldrh	r2, [r3, #0]
 12327 4bae 0132     		adds	r2, r2, #1
 12328 4bb0 92B2     		uxth	r2, r2
 12329 4bb2 B2F5A57F 		cmp	r2, #330
 12330 4bb6 1A80     		strh	r2, [r3, #0]	@ movhi
 12331 4bb8 01D3     		bcc	.L170
 12332              		.loc 1 422 0 discriminator 278
 12333 4bba 0022     		movs	r2, #0
 12334 4bbc 1A80     		strh	r2, [r3, #0]	@ movhi
 12335              	.L170:
 12336              		.loc 1 422 0 discriminator 279
 12337 4bbe 454B     		ldr	r3, .L304+28
 12338 4bc0 1A88     		ldrh	r2, [r3, #0]
 12339 4bc2 0132     		adds	r2, r2, #1
 12340 4bc4 92B2     		uxth	r2, r2
 12341 4bc6 B2F5AB7F 		cmp	r2, #342
 12342 4bca 1A80     		strh	r2, [r3, #0]	@ movhi
 12343 4bcc 01D3     		bcc	.L171
 12344              		.loc 1 422 0 discriminator 280
 12345 4bce 0022     		movs	r2, #0
 12346 4bd0 1A80     		strh	r2, [r3, #0]	@ movhi
 12347              	.L171:
 12348              		.loc 1 422 0 discriminator 281
 12349 4bd2 414B     		ldr	r3, .L304+32
 12350 4bd4 1A88     		ldrh	r2, [r3, #0]
 12351 4bd6 0132     		adds	r2, r2, #1
 12352 4bd8 92B2     		uxth	r2, r2
 12353 4bda B2F5D27F 		cmp	r2, #420
 12354 4bde 1A80     		strh	r2, [r3, #0]	@ movhi
 12355 4be0 01D3     		bcc	.L172
 12356              		.loc 1 422 0 discriminator 282
 12357 4be2 0022     		movs	r2, #0
 12358 4be4 1A80     		strh	r2, [r3, #0]	@ movhi
 12359              	.L172:
 12360              		.loc 1 422 0 discriminator 283
 12361 4be6 3D4B     		ldr	r3, .L304+36
 12362 4be8 40F25D21 		movw	r1, #605
 12363 4bec 1A88     		ldrh	r2, [r3, #0]
 12364 4bee 0132     		adds	r2, r2, #1
 12365 4bf0 92B2     		uxth	r2, r2
 12366 4bf2 8A42     		cmp	r2, r1
 12367 4bf4 1A80     		strh	r2, [r3, #0]	@ movhi
 12368 4bf6 01D9     		bls	.L173
 12369              		.loc 1 422 0 discriminator 284
 12370 4bf8 0022     		movs	r2, #0
 12371 4bfa 1A80     		strh	r2, [r3, #0]	@ movhi
 12372              	.L173:
 12373              		.loc 1 422 0 discriminator 285
 12374 4bfc 384B     		ldr	r3, .L304+40
 12375 4bfe 1A88     		ldrh	r2, [r3, #0]
 12376 4c00 0132     		adds	r2, r2, #1
 12377 4c02 92B2     		uxth	r2, r2
 12378 4c04 B2F5197F 		cmp	r2, #612
 12379 4c08 1A80     		strh	r2, [r3, #0]	@ movhi
 12380 4c0a 01D3     		bcc	.L174
 12381              		.loc 1 422 0 discriminator 286
 12382 4c0c 0022     		movs	r2, #0
 12383 4c0e 1A80     		strh	r2, [r3, #0]	@ movhi
 12384              	.L174:
 12385              		.loc 1 422 0 discriminator 287
 12386 4c10 2B4B     		ldr	r3, .L304+8
 12387 4c12 1E88     		ldrh	r6, [r3, #0]
 12388 4c14 002E     		cmp	r6, #0
 12389 4c16 75D1     		bne	.L175
 12390              		.loc 1 422 0 discriminator 288
 12391 4c18 3248     		ldr	r0, .L304+44
 12392 4c1a 1721     		movs	r1, #23
 12393 4c1c FFF7FEFF 		bl	uart_check_free_space
 12394 4c20 0028     		cmp	r0, #0
 12395 4c22 6BD0     		beq	.L176
 12396              		.loc 1 422 0 discriminator 290
 12397 4c24 304B     		ldr	r3, .L304+48
 12398              	.LBB852:
 12399 4c26 2F48     		ldr	r0, .L304+44
 12400              	.LBE852:
 12401 4c28 1A88     		ldrh	r2, [r3, #0]
 12402              	.LBB853:
 12403 4c2a 9921     		movs	r1, #153
 12404              	.LBE853:
 12405 4c2c 1732     		adds	r2, r2, #23
 12406 4c2e 1A80     		strh	r2, [r3, #0]	@ movhi
 12407 4c30 2E4B     		ldr	r3, .L304+52
 12408 4c32 2F4D     		ldr	r5, .L304+56
 12409 4c34 1A88     		ldrh	r2, [r3, #0]
 12410 4c36 2F4C     		ldr	r4, .L304+60
 12411 4c38 0132     		adds	r2, r2, #1
 12412 4c3a 1A80     		strh	r2, [r3, #0]	@ movhi
 12413              	.LBB854:
 12414 4c3c FFF7FEFF 		bl	uart_transmit
 12415              	.LVL1985:
 12416 4c40 2848     		ldr	r0, .L304+44
 12417 4c42 1721     		movs	r1, #23
 12418 4c44 FFF7FEFF 		bl	uart_transmit
 12419              	.LBE854:
 12420 4c48 1823     		movs	r3, #24
 12421 4c4a 2B70     		strb	r3, [r5, #0]
 12422 4c4c 2F23     		movs	r3, #47
 12423 4c4e 2370     		strb	r3, [r4, #0]
 12424 4c50 2448     		ldr	r0, .L304+44
 12425 4c52 0121     		movs	r1, #1
 12426 4c54 FFF7FEFF 		bl	uart_transmit
 12427 4c58 2B78     		ldrb	r3, [r5, #0]	@ zero_extendqisi2
 12428 4c5a 2278     		ldrb	r2, [r4, #0]	@ zero_extendqisi2
 12429 4c5c 0233     		adds	r3, r3, #2
 12430 4c5e DBB2     		uxtb	r3, r3
 12431 4c60 2B70     		strb	r3, [r5, #0]
 12432 4c62 9B18     		adds	r3, r3, r2
 12433 4c64 2370     		strb	r3, [r4, #0]
 12434 4c66 1F48     		ldr	r0, .L304+44
 12435 4c68 0221     		movs	r1, #2
 12436 4c6a FFF7FEFF 		bl	uart_transmit
 12437              	.LBB855:
 12438 4c6e 2B78     		ldrb	r3, [r5, #0]	@ zero_extendqisi2
 12439 4c70 2278     		ldrb	r2, [r4, #0]	@ zero_extendqisi2
 12440 4c72 1033     		adds	r3, r3, #16
 12441 4c74 DBB2     		uxtb	r3, r3
 12442 4c76 2B70     		strb	r3, [r5, #0]
 12443 4c78 9B18     		adds	r3, r3, r2
 12444 4c7a 2370     		strb	r3, [r4, #0]
 12445 4c7c 1948     		ldr	r0, .L304+44
 12446 4c7e 1021     		movs	r1, #16
 12447 4c80 FFF7FEFF 		bl	uart_transmit
 12448              	.LVL1986:
 12449              	.LBB856:
 12450 4c84 1C4F     		ldr	r7, .L304+64
 12451              	.LVL1987:
 12452              	.L177:
 12453              		.loc 1 422 0 discriminator 293
 12454 4c86 F15D     		ldrb	r1, [r6, r7]	@ zero_extendqisi2
 12455              	.LVL1988:
 12456 4c88 2B78     		ldrb	r3, [r5, #0]	@ zero_extendqisi2
 12457 4c8a 2278     		ldrb	r2, [r4, #0]	@ zero_extendqisi2
 12458 4c8c CB18     		adds	r3, r1, r3
 12459 4c8e DBB2     		uxtb	r3, r3
 12460              	.LVL1989:
 12461 4c90 2B70     		strb	r3, [r5, #0]
 12462 4c92 9B18     		adds	r3, r3, r2
 12463              	.LVL1990:
 12464 4c94 2370     		strb	r3, [r4, #0]
 12465 4c96 1348     		ldr	r0, .L304+44
 12466 4c98 0136     		adds	r6, r6, #1
 12467 4c9a FFF7FEFF 		bl	uart_transmit
 12468              	.LVL1991:
 12469              	.LBE856:
 12470 4c9e 102E     		cmp	r6, #16
 12471 4ca0 F1D1     		bne	.L177
 12472              	.LBE855:
 12473              		.loc 1 422 0 discriminator 294
 12474 4ca2 134B     		ldr	r3, .L304+56
 12475 4ca4 0F48     		ldr	r0, .L304+44
 12476 4ca6 1978     		ldrb	r1, [r3, #0]	@ zero_extendqisi2
 12477 4ca8 FFF7FEFF 		bl	uart_transmit
 12478 4cac 114B     		ldr	r3, .L304+60
 12479 4cae 0D48     		ldr	r0, .L304+44
 12480 4cb0 1978     		ldrb	r1, [r3, #0]	@ zero_extendqisi2
 12481 4cb2 FFF7FEFF 		bl	uart_transmit
 12482 4cb6 25E0     		b	.L175
 12483              	.L305:
 12484              		.align	2
 12485              	.L304:
 12486 4cb8 00000000 		.word	downlink_nb_ovrn
 12487 4cbc 00000000 		.word	telemetry_mode_Ap
 12488 4cc0 00000000 		.word	.LANCHOR55
 12489 4cc4 00000000 		.word	.LANCHOR56
 12490 4cc8 00000000 		.word	.LANCHOR57
 12491 4ccc 00000000 		.word	.LANCHOR58
 12492 4cd0 00000000 		.word	.LANCHOR59
 12493 4cd4 00000000 		.word	.LANCHOR60
 12494 4cd8 00000000 		.word	.LANCHOR61
 12495 4cdc 00000000 		.word	.LANCHOR62
 12496 4ce0 00000000 		.word	.LANCHOR63
 12497 4ce4 00000000 		.word	uart2
 12498 4ce8 00000000 		.word	downlink_nb_bytes
 12499 4cec 00000000 		.word	downlink_nb_msgs
 12500 4cf0 00000000 		.word	ck_a
 12501 4cf4 00000000 		.word	ck_b
 12502 4cf8 00000000 		.word	.LC0
 12503              	.LVL1992:
 12504              	.L176:
 12505              		.loc 1 422 0 discriminator 291
 12506 4cfc A84B     		ldr	r3, .L306+16
 12507 4cfe 1A78     		ldrb	r2, [r3, #0]	@ zero_extendqisi2
 12508 4d00 0132     		adds	r2, r2, #1
 12509 4d02 1A70     		strb	r2, [r3, #0]
 12510              	.L175:
 12511              		.loc 1 422 0 discriminator 289
 12512 4d04 A74B     		ldr	r3, .L306+20
 12513 4d06 1B88     		ldrh	r3, [r3, #0]
 12514 4d08 062B     		cmp	r3, #6
 12515 4d0a 40F08982 		bne	.L178
 12516              	.LBB857:
 12517              		.loc 1 422 0 discriminator 295
 12518 4d0e A64C     		ldr	r4, .L306+24
 12519 4d10 236C     		ldr	r3, [r4, #64]
 12520 4d12 A06C     		ldr	r0, [r4, #72]
 12521 4d14 5B42     		negs	r3, r3
 12522 4d16 ADF81C30 		strh	r3, [sp, #28]	@ movhi
 12523              	.LVL1993:
 12524 4d1a FFF7FEFF 		bl	__aeabi_i2d
 12525 4d1e 9CA3     		adr	r3, .L306
 12526 4d20 D3E90023 		ldrd	r2, [r3]
 12527 4d24 FFF7FEFF 		bl	__aeabi_dmul
 12528 4d28 9BA3     		adr	r3, .L306+8
 12529 4d2a D3E90023 		ldrd	r2, [r3]
 12530 4d2e FFF7FEFF 		bl	__aeabi_ddiv
 12531 4d32 FFF7FEFF 		bl	__aeabi_d2iz
 12532 4d36 2121     		movs	r1, #33
 12533 4d38 ADF81E00 		strh	r0, [sp, #30]	@ movhi
 12534              	.LVL1994:
 12535 4d3c 9B48     		ldr	r0, .L306+28
 12536 4d3e FFF7FEFF 		bl	uart_check_free_space
 12537 4d42 0028     		cmp	r0, #0
 12538 4d44 00F08481 		beq	.L179
 12539              		.loc 1 422 0 discriminator 297
 12540 4d48 994B     		ldr	r3, .L306+32
 12541              	.LBB858:
 12542 4d4a 9921     		movs	r1, #153
 12543              	.LBE858:
 12544 4d4c 1A88     		ldrh	r2, [r3, #0]
 12545              	.LBB859:
 12546 4d4e 9748     		ldr	r0, .L306+28
 12547              	.LBE859:
 12548 4d50 2132     		adds	r2, r2, #33
 12549 4d52 1A80     		strh	r2, [r3, #0]	@ movhi
 12550 4d54 974B     		ldr	r3, .L306+36
 12551 4d56 984E     		ldr	r6, .L306+40
 12552 4d58 1A88     		ldrh	r2, [r3, #0]
 12553 4d5a 984D     		ldr	r5, .L306+44
 12554 4d5c 0132     		adds	r2, r2, #1
 12555 4d5e 1A80     		strh	r2, [r3, #0]	@ movhi
 12556              	.LBB860:
 12557 4d60 FFF7FEFF 		bl	uart_transmit
 12558              	.LVL1995:
 12559 4d64 2121     		movs	r1, #33
 12560 4d66 9148     		ldr	r0, .L306+28
 12561 4d68 FFF7FEFF 		bl	uart_transmit
 12562              	.LBE860:
 12563 4d6c 2223     		movs	r3, #34
 12564 4d6e 3370     		strb	r3, [r6, #0]
 12565 4d70 4323     		movs	r3, #67
 12566 4d72 2B70     		strb	r3, [r5, #0]
 12567 4d74 0121     		movs	r1, #1
 12568 4d76 8D48     		ldr	r0, .L306+28
 12569 4d78 FFF7FEFF 		bl	uart_transmit
 12570 4d7c 3378     		ldrb	r3, [r6, #0]	@ zero_extendqisi2
 12571 4d7e 2A78     		ldrb	r2, [r5, #0]	@ zero_extendqisi2
 12572 4d80 0833     		adds	r3, r3, #8
 12573 4d82 DBB2     		uxtb	r3, r3
 12574 4d84 3370     		strb	r3, [r6, #0]
 12575 4d86 9B18     		adds	r3, r3, r2
 12576 4d88 2B70     		strb	r3, [r5, #0]
 12577 4d8a 0821     		movs	r1, #8
 12578 4d8c 8748     		ldr	r0, .L306+28
 12579 4d8e FFF7FEFF 		bl	uart_transmit
 12580              	.LBB861:
 12581 4d92 94F85B10 		ldrb	r1, [r4, #91]	@ zero_extendqisi2
 12582              	.LVL1996:
 12583 4d96 3378     		ldrb	r3, [r6, #0]	@ zero_extendqisi2
 12584 4d98 2A78     		ldrb	r2, [r5, #0]	@ zero_extendqisi2
 12585 4d9a CB18     		adds	r3, r1, r3
 12586 4d9c DBB2     		uxtb	r3, r3
 12587              	.LVL1997:
 12588 4d9e 3370     		strb	r3, [r6, #0]
 12589 4da0 9B18     		adds	r3, r3, r2
 12590              	.LVL1998:
 12591 4da2 2B70     		strb	r3, [r5, #0]
 12592 4da4 8148     		ldr	r0, .L306+28
 12593 4da6 FFF7FEFF 		bl	uart_transmit
 12594              	.LVL1999:
 12595              	.LBE861:
 12596              	.LBB862:
 12597 4daa 217F     		ldrb	r1, [r4, #28]	@ zero_extendqisi2
 12598              	.LVL2000:
 12599 4dac 3378     		ldrb	r3, [r6, #0]	@ zero_extendqisi2
 12600 4dae 2A78     		ldrb	r2, [r5, #0]	@ zero_extendqisi2
 12601 4db0 CB18     		adds	r3, r1, r3
 12602 4db2 DBB2     		uxtb	r3, r3
 12603              	.LVL2001:
 12604 4db4 3370     		strb	r3, [r6, #0]
 12605 4db6 9B18     		adds	r3, r3, r2
 12606              	.LVL2002:
 12607 4db8 2B70     		strb	r3, [r5, #0]
 12608 4dba 7C48     		ldr	r0, .L306+28
 12609 4dbc FFF7FEFF 		bl	uart_transmit
 12610              	.LVL2003:
 12611              	.LBE862:
 12612              	.LBB863:
 12613 4dc0 617F     		ldrb	r1, [r4, #29]	@ zero_extendqisi2
 12614              	.LVL2004:
 12615 4dc2 3378     		ldrb	r3, [r6, #0]	@ zero_extendqisi2
 12616 4dc4 2A78     		ldrb	r2, [r5, #0]	@ zero_extendqisi2
 12617 4dc6 CB18     		adds	r3, r1, r3
 12618 4dc8 DBB2     		uxtb	r3, r3
 12619              	.LVL2005:
 12620 4dca 3370     		strb	r3, [r6, #0]
 12621 4dcc 9B18     		adds	r3, r3, r2
 12622              	.LVL2006:
 12623 4dce 2B70     		strb	r3, [r5, #0]
 12624 4dd0 7648     		ldr	r0, .L306+28
 12625 4dd2 FFF7FEFF 		bl	uart_transmit
 12626              	.LVL2007:
 12627              	.LBE863:
 12628              	.LBB864:
 12629 4dd6 A17F     		ldrb	r1, [r4, #30]	@ zero_extendqisi2
 12630              	.LVL2008:
 12631 4dd8 3378     		ldrb	r3, [r6, #0]	@ zero_extendqisi2
 12632 4dda 2A78     		ldrb	r2, [r5, #0]	@ zero_extendqisi2
 12633 4ddc CB18     		adds	r3, r1, r3
 12634 4dde DBB2     		uxtb	r3, r3
 12635              	.LVL2009:
 12636 4de0 3370     		strb	r3, [r6, #0]
 12637 4de2 9B18     		adds	r3, r3, r2
 12638              	.LVL2010:
 12639 4de4 2B70     		strb	r3, [r5, #0]
 12640 4de6 7148     		ldr	r0, .L306+28
 12641 4de8 FFF7FEFF 		bl	uart_transmit
 12642              	.LVL2011:
 12643              	.LBE864:
 12644              	.LBB865:
 12645 4dec E17F     		ldrb	r1, [r4, #31]	@ zero_extendqisi2
 12646              	.LVL2012:
 12647 4dee 3378     		ldrb	r3, [r6, #0]	@ zero_extendqisi2
 12648 4df0 2A78     		ldrb	r2, [r5, #0]	@ zero_extendqisi2
 12649 4df2 CB18     		adds	r3, r1, r3
 12650 4df4 DBB2     		uxtb	r3, r3
 12651              	.LVL2013:
 12652 4df6 3370     		strb	r3, [r6, #0]
 12653 4df8 9B18     		adds	r3, r3, r2
 12654              	.LVL2014:
 12655 4dfa 2B70     		strb	r3, [r5, #0]
 12656 4dfc 6B48     		ldr	r0, .L306+28
 12657 4dfe FFF7FEFF 		bl	uart_transmit
 12658              	.LVL2015:
 12659              	.LBE865:
 12660              	.LBB866:
 12661 4e02 217E     		ldrb	r1, [r4, #24]	@ zero_extendqisi2
 12662              	.LVL2016:
 12663 4e04 3378     		ldrb	r3, [r6, #0]	@ zero_extendqisi2
 12664 4e06 2A78     		ldrb	r2, [r5, #0]	@ zero_extendqisi2
 12665 4e08 CB18     		adds	r3, r1, r3
 12666 4e0a DBB2     		uxtb	r3, r3
 12667              	.LVL2017:
 12668 4e0c 3370     		strb	r3, [r6, #0]
 12669 4e0e 9B18     		adds	r3, r3, r2
 12670              	.LVL2018:
 12671 4e10 2B70     		strb	r3, [r5, #0]
 12672 4e12 6648     		ldr	r0, .L306+28
 12673 4e14 FFF7FEFF 		bl	uart_transmit
 12674              	.LVL2019:
 12675              	.LBE866:
 12676              	.LBB867:
 12677 4e18 617E     		ldrb	r1, [r4, #25]	@ zero_extendqisi2
 12678              	.LVL2020:
 12679 4e1a 3378     		ldrb	r3, [r6, #0]	@ zero_extendqisi2
 12680 4e1c 2A78     		ldrb	r2, [r5, #0]	@ zero_extendqisi2
 12681 4e1e CB18     		adds	r3, r1, r3
 12682 4e20 DBB2     		uxtb	r3, r3
 12683              	.LVL2021:
 12684 4e22 3370     		strb	r3, [r6, #0]
 12685 4e24 9B18     		adds	r3, r3, r2
 12686              	.LVL2022:
 12687 4e26 2B70     		strb	r3, [r5, #0]
 12688 4e28 6048     		ldr	r0, .L306+28
 12689 4e2a FFF7FEFF 		bl	uart_transmit
 12690              	.LVL2023:
 12691              	.LBE867:
 12692              	.LBB868:
 12693 4e2e A17E     		ldrb	r1, [r4, #26]	@ zero_extendqisi2
 12694              	.LVL2024:
 12695 4e30 3378     		ldrb	r3, [r6, #0]	@ zero_extendqisi2
 12696 4e32 2A78     		ldrb	r2, [r5, #0]	@ zero_extendqisi2
 12697 4e34 CB18     		adds	r3, r1, r3
 12698 4e36 DBB2     		uxtb	r3, r3
 12699              	.LVL2025:
 12700 4e38 3370     		strb	r3, [r6, #0]
 12701 4e3a 9B18     		adds	r3, r3, r2
 12702              	.LVL2026:
 12703 4e3c 2B70     		strb	r3, [r5, #0]
 12704 4e3e 5B48     		ldr	r0, .L306+28
 12705 4e40 FFF7FEFF 		bl	uart_transmit
 12706              	.LVL2027:
 12707              	.LBE868:
 12708              	.LBB869:
 12709 4e44 E17E     		ldrb	r1, [r4, #27]	@ zero_extendqisi2
 12710              	.LVL2028:
 12711 4e46 3378     		ldrb	r3, [r6, #0]	@ zero_extendqisi2
 12712 4e48 2A78     		ldrb	r2, [r5, #0]	@ zero_extendqisi2
 12713 4e4a CB18     		adds	r3, r1, r3
 12714 4e4c DBB2     		uxtb	r3, r3
 12715              	.LVL2029:
 12716 4e4e 3370     		strb	r3, [r6, #0]
 12717 4e50 9B18     		adds	r3, r3, r2
 12718              	.LVL2030:
 12719 4e52 2B70     		strb	r3, [r5, #0]
 12720 4e54 5548     		ldr	r0, .L306+28
 12721 4e56 FFF7FEFF 		bl	uart_transmit
 12722              	.LVL2031:
 12723              	.LBE869:
 12724              	.LBB870:
 12725 4e5a 9DF81E10 		ldrb	r1, [sp, #30]	@ zero_extendqisi2
 12726              	.LVL2032:
 12727 4e5e 3378     		ldrb	r3, [r6, #0]	@ zero_extendqisi2
 12728 4e60 2A78     		ldrb	r2, [r5, #0]	@ zero_extendqisi2
 12729 4e62 CB18     		adds	r3, r1, r3
 12730 4e64 DBB2     		uxtb	r3, r3
 12731              	.LVL2033:
 12732 4e66 3370     		strb	r3, [r6, #0]
 12733 4e68 9B18     		adds	r3, r3, r2
 12734              	.LVL2034:
 12735 4e6a 2B70     		strb	r3, [r5, #0]
 12736 4e6c 4F48     		ldr	r0, .L306+28
 12737 4e6e FFF7FEFF 		bl	uart_transmit
 12738              	.LVL2035:
 12739              	.LBE870:
 12740              	.LBB871:
 12741 4e72 9DF81F10 		ldrb	r1, [sp, #31]	@ zero_extendqisi2
 12742              	.LVL2036:
 12743 4e76 3378     		ldrb	r3, [r6, #0]	@ zero_extendqisi2
 12744 4e78 2A78     		ldrb	r2, [r5, #0]	@ zero_extendqisi2
 12745 4e7a CB18     		adds	r3, r1, r3
 12746 4e7c DBB2     		uxtb	r3, r3
 12747              	.LVL2037:
 12748 4e7e 3370     		strb	r3, [r6, #0]
 12749 4e80 9B18     		adds	r3, r3, r2
 12750              	.LVL2038:
 12751 4e82 2B70     		strb	r3, [r5, #0]
 12752 4e84 4948     		ldr	r0, .L306+28
 12753 4e86 FFF7FEFF 		bl	uart_transmit
 12754              	.LVL2039:
 12755              	.LBE871:
 12756              	.LBB872:
 12757 4e8a 94F82810 		ldrb	r1, [r4, #40]	@ zero_extendqisi2
 12758              	.LVL2040:
 12759 4e8e 3378     		ldrb	r3, [r6, #0]	@ zero_extendqisi2
 12760 4e90 2A78     		ldrb	r2, [r5, #0]	@ zero_extendqisi2
 12761 4e92 CB18     		adds	r3, r1, r3
 12762 4e94 DBB2     		uxtb	r3, r3
 12763              	.LVL2041:
 12764 4e96 3370     		strb	r3, [r6, #0]
 12765 4e98 9B18     		adds	r3, r3, r2
 12766              	.LVL2042:
 12767 4e9a 2B70     		strb	r3, [r5, #0]
 12768 4e9c 4348     		ldr	r0, .L306+28
 12769 4e9e FFF7FEFF 		bl	uart_transmit
 12770              	.LVL2043:
 12771              	.LBE872:
 12772              	.LBB873:
 12773 4ea2 94F82910 		ldrb	r1, [r4, #41]	@ zero_extendqisi2
 12774              	.LVL2044:
 12775 4ea6 3378     		ldrb	r3, [r6, #0]	@ zero_extendqisi2
 12776 4ea8 2A78     		ldrb	r2, [r5, #0]	@ zero_extendqisi2
 12777 4eaa CB18     		adds	r3, r1, r3
 12778 4eac DBB2     		uxtb	r3, r3
 12779              	.LVL2045:
 12780 4eae 3370     		strb	r3, [r6, #0]
 12781 4eb0 9B18     		adds	r3, r3, r2
 12782              	.LVL2046:
 12783 4eb2 2B70     		strb	r3, [r5, #0]
 12784 4eb4 3D48     		ldr	r0, .L306+28
 12785 4eb6 FFF7FEFF 		bl	uart_transmit
 12786              	.LVL2047:
 12787              	.LBE873:
 12788              	.LBB874:
 12789 4eba 94F82A10 		ldrb	r1, [r4, #42]	@ zero_extendqisi2
 12790              	.LVL2048:
 12791 4ebe 3378     		ldrb	r3, [r6, #0]	@ zero_extendqisi2
 12792 4ec0 2A78     		ldrb	r2, [r5, #0]	@ zero_extendqisi2
 12793 4ec2 CB18     		adds	r3, r1, r3
 12794 4ec4 DBB2     		uxtb	r3, r3
 12795              	.LVL2049:
 12796 4ec6 3370     		strb	r3, [r6, #0]
 12797 4ec8 9B18     		adds	r3, r3, r2
 12798              	.LVL2050:
 12799 4eca 2B70     		strb	r3, [r5, #0]
 12800 4ecc 3748     		ldr	r0, .L306+28
 12801 4ece FFF7FEFF 		bl	uart_transmit
 12802              	.LVL2051:
 12803              	.LBE874:
 12804              	.LBB875:
 12805 4ed2 94F82B10 		ldrb	r1, [r4, #43]	@ zero_extendqisi2
 12806              	.LVL2052:
 12807 4ed6 3378     		ldrb	r3, [r6, #0]	@ zero_extendqisi2
 12808 4ed8 2A78     		ldrb	r2, [r5, #0]	@ zero_extendqisi2
 12809 4eda CB18     		adds	r3, r1, r3
 12810 4edc DBB2     		uxtb	r3, r3
 12811              	.LVL2053:
 12812 4ede 3370     		strb	r3, [r6, #0]
 12813 4ee0 9B18     		adds	r3, r3, r2
 12814              	.LVL2054:
 12815 4ee2 2B70     		strb	r3, [r5, #0]
 12816 4ee4 3148     		ldr	r0, .L306+28
 12817 4ee6 FFF7FEFF 		bl	uart_transmit
 12818              	.LVL2055:
 12819              	.LBE875:
 12820              	.LBB876:
 12821 4eea 94F84410 		ldrb	r1, [r4, #68]	@ zero_extendqisi2
 12822              	.LVL2056:
 12823 4eee 3378     		ldrb	r3, [r6, #0]	@ zero_extendqisi2
 12824 4ef0 2A78     		ldrb	r2, [r5, #0]	@ zero_extendqisi2
 12825 4ef2 CB18     		adds	r3, r1, r3
 12826 4ef4 DBB2     		uxtb	r3, r3
 12827              	.LVL2057:
 12828 4ef6 3370     		strb	r3, [r6, #0]
 12829 4ef8 9B18     		adds	r3, r3, r2
 12830              	.LVL2058:
 12831 4efa 2B70     		strb	r3, [r5, #0]
 12832 4efc 2B48     		ldr	r0, .L306+28
 12833 4efe FFF7FEFF 		bl	uart_transmit
 12834              	.LVL2059:
 12835              	.LBE876:
 12836              	.LBB877:
 12837 4f02 94F84510 		ldrb	r1, [r4, #69]	@ zero_extendqisi2
 12838              	.LVL2060:
 12839 4f06 3378     		ldrb	r3, [r6, #0]	@ zero_extendqisi2
 12840 4f08 2A78     		ldrb	r2, [r5, #0]	@ zero_extendqisi2
 12841 4f0a CB18     		adds	r3, r1, r3
 12842 4f0c DBB2     		uxtb	r3, r3
 12843              	.LVL2061:
 12844 4f0e 3370     		strb	r3, [r6, #0]
 12845 4f10 9B18     		adds	r3, r3, r2
 12846              	.LVL2062:
 12847 4f12 2B70     		strb	r3, [r5, #0]
 12848 4f14 2548     		ldr	r0, .L306+28
 12849 4f16 FFF7FEFF 		bl	uart_transmit
 12850              	.LVL2063:
 12851              	.LBE877:
 12852              	.LBB878:
 12853 4f1a 9DF81C10 		ldrb	r1, [sp, #28]	@ zero_extendqisi2
 12854              	.LVL2064:
 12855 4f1e 3378     		ldrb	r3, [r6, #0]	@ zero_extendqisi2
 12856 4f20 2A78     		ldrb	r2, [r5, #0]	@ zero_extendqisi2
 12857 4f22 CB18     		adds	r3, r1, r3
 12858 4f24 DBB2     		uxtb	r3, r3
 12859              	.LVL2065:
 12860 4f26 3370     		strb	r3, [r6, #0]
 12861 4f28 9B18     		adds	r3, r3, r2
 12862              	.LVL2066:
 12863 4f2a 2B70     		strb	r3, [r5, #0]
 12864 4f2c 1F48     		ldr	r0, .L306+28
 12865 4f2e FFF7FEFF 		bl	uart_transmit
 12866              	.LVL2067:
 12867              	.LBE878:
 12868              	.LBB879:
 12869 4f32 9DF81D10 		ldrb	r1, [sp, #29]	@ zero_extendqisi2
 12870              	.LVL2068:
 12871 4f36 3378     		ldrb	r3, [r6, #0]	@ zero_extendqisi2
 12872 4f38 2A78     		ldrb	r2, [r5, #0]	@ zero_extendqisi2
 12873 4f3a CB18     		adds	r3, r1, r3
 12874 4f3c DBB2     		uxtb	r3, r3
 12875              	.LVL2069:
 12876 4f3e 3370     		strb	r3, [r6, #0]
 12877 4f40 9B18     		adds	r3, r3, r2
 12878              	.LVL2070:
 12879 4f42 2B70     		strb	r3, [r5, #0]
 12880 4f44 1948     		ldr	r0, .L306+28
 12881 4f46 FFF7FEFF 		bl	uart_transmit
 12882              	.LVL2071:
 12883              	.LBE879:
 12884              	.LBB880:
 12885 4f4a 94F85C10 		ldrb	r1, [r4, #92]	@ zero_extendqisi2
 12886              	.LVL2072:
 12887 4f4e 3378     		ldrb	r3, [r6, #0]	@ zero_extendqisi2
 12888 4f50 2A78     		ldrb	r2, [r5, #0]	@ zero_extendqisi2
 12889 4f52 CB18     		adds	r3, r1, r3
 12890 4f54 DBB2     		uxtb	r3, r3
 12891              	.LVL2073:
 12892 4f56 3370     		strb	r3, [r6, #0]
 12893 4f58 9B18     		adds	r3, r3, r2
 12894              	.LVL2074:
 12895 4f5a 2B70     		strb	r3, [r5, #0]
 12896 4f5c 1348     		ldr	r0, .L306+28
 12897 4f5e FFF7FEFF 		bl	uart_transmit
 12898              	.LVL2075:
 12899              	.LBE880:
 12900              	.LBB881:
 12901 4f62 94F85D10 		ldrb	r1, [r4, #93]	@ zero_extendqisi2
 12902              	.LVL2076:
 12903 4f66 3378     		ldrb	r3, [r6, #0]	@ zero_extendqisi2
 12904 4f68 2A78     		ldrb	r2, [r5, #0]	@ zero_extendqisi2
 12905 4f6a CB18     		adds	r3, r1, r3
 12906 4f6c DBB2     		uxtb	r3, r3
 12907              	.LVL2077:
 12908 4f6e 3370     		strb	r3, [r6, #0]
 12909 4f70 9B18     		adds	r3, r3, r2
 12910              	.LVL2078:
 12911 4f72 2B70     		strb	r3, [r5, #0]
 12912 4f74 0D48     		ldr	r0, .L306+28
 12913 4f76 FFF7FEFF 		bl	uart_transmit
 12914              	.LVL2079:
 12915              	.LBE881:
 12916              	.LBB882:
 12917 4f7a 94F86010 		ldrb	r1, [r4, #96]	@ zero_extendqisi2
 12918              	.LVL2080:
 12919 4f7e 3378     		ldrb	r3, [r6, #0]	@ zero_extendqisi2
 12920 4f80 2A78     		ldrb	r2, [r5, #0]	@ zero_extendqisi2
 12921 4f82 CB18     		adds	r3, r1, r3
 12922 4f84 DBB2     		uxtb	r3, r3
 12923              	.LVL2081:
 12924 4f86 3370     		strb	r3, [r6, #0]
 12925 4f88 9B18     		adds	r3, r3, r2
 12926              	.LVL2082:
 12927 4f8a 2B70     		strb	r3, [r5, #0]
 12928 4f8c 18E0     		b	.L307
 12929              	.L308:
 12930 4f8e 00BF     		.align	3
 12931              	.L306:
 12932 4f90 F8C1631A 		.word	442745336
 12933 4f94 DCA54C40 		.word	1078765020
 12934 4f98 00000000 		.word	0
 12935 4f9c 80842E41 		.word	1093567616
 12936 4fa0 00000000 		.word	downlink_nb_ovrn
 12937 4fa4 00000000 		.word	.LANCHOR56
 12938 4fa8 00000000 		.word	gps
 12939 4fac 00000000 		.word	uart2
 12940 4fb0 00000000 		.word	downlink_nb_bytes
 12941 4fb4 00000000 		.word	downlink_nb_msgs
 12942 4fb8 00000000 		.word	ck_a
 12943 4fbc 00000000 		.word	ck_b
 12944              	.L307:
 12945 4fc0 8B48     		ldr	r0, .L309
 12946 4fc2 FFF7FEFF 		bl	uart_transmit
 12947              	.LVL2083:
 12948              	.LBE882:
 12949              	.LBB883:
 12950 4fc6 94F86110 		ldrb	r1, [r4, #97]	@ zero_extendqisi2
 12951              	.LVL2084:
 12952 4fca 3378     		ldrb	r3, [r6, #0]	@ zero_extendqisi2
 12953 4fcc 2A78     		ldrb	r2, [r5, #0]	@ zero_extendqisi2
 12954 4fce CB18     		adds	r3, r1, r3
 12955 4fd0 DBB2     		uxtb	r3, r3
 12956              	.LVL2085:
 12957 4fd2 3370     		strb	r3, [r6, #0]
 12958 4fd4 9B18     		adds	r3, r3, r2
 12959              	.LVL2086:
 12960 4fd6 2B70     		strb	r3, [r5, #0]
 12961 4fd8 8548     		ldr	r0, .L309
 12962 4fda FFF7FEFF 		bl	uart_transmit
 12963              	.LVL2087:
 12964              	.LBE883:
 12965              	.LBB884:
 12966 4fde 94F86210 		ldrb	r1, [r4, #98]	@ zero_extendqisi2
 12967              	.LVL2088:
 12968 4fe2 3378     		ldrb	r3, [r6, #0]	@ zero_extendqisi2
 12969 4fe4 2A78     		ldrb	r2, [r5, #0]	@ zero_extendqisi2
 12970 4fe6 CB18     		adds	r3, r1, r3
 12971 4fe8 DBB2     		uxtb	r3, r3
 12972              	.LVL2089:
 12973 4fea 3370     		strb	r3, [r6, #0]
 12974 4fec 9B18     		adds	r3, r3, r2
 12975              	.LVL2090:
 12976 4fee 2B70     		strb	r3, [r5, #0]
 12977 4ff0 7F48     		ldr	r0, .L309
 12978 4ff2 FFF7FEFF 		bl	uart_transmit
 12979              	.LVL2091:
 12980              	.LBE884:
 12981              	.LBB885:
 12982 4ff6 94F86310 		ldrb	r1, [r4, #99]	@ zero_extendqisi2
 12983              	.LVL2092:
 12984 4ffa 3378     		ldrb	r3, [r6, #0]	@ zero_extendqisi2
 12985 4ffc 2A78     		ldrb	r2, [r5, #0]	@ zero_extendqisi2
 12986 4ffe CB18     		adds	r3, r1, r3
 12987 5000 DBB2     		uxtb	r3, r3
 12988              	.LVL2093:
 12989 5002 3370     		strb	r3, [r6, #0]
 12990 5004 9B18     		adds	r3, r3, r2
 12991              	.LVL2094:
 12992 5006 2B70     		strb	r3, [r5, #0]
 12993 5008 7948     		ldr	r0, .L309
 12994 500a FFF7FEFF 		bl	uart_transmit
 12995              	.LVL2095:
 12996              	.LBE885:
 12997              	.LBB886:
 12998 500e 94F82410 		ldrb	r1, [r4, #36]	@ zero_extendqisi2
 12999              	.LVL2096:
 13000 5012 3378     		ldrb	r3, [r6, #0]	@ zero_extendqisi2
 13001 5014 2A78     		ldrb	r2, [r5, #0]	@ zero_extendqisi2
 13002 5016 CB18     		adds	r3, r1, r3
 13003 5018 DBB2     		uxtb	r3, r3
 13004              	.LVL2097:
 13005 501a 3370     		strb	r3, [r6, #0]
 13006 501c 9B18     		adds	r3, r3, r2
 13007              	.LVL2098:
 13008 501e 2B70     		strb	r3, [r5, #0]
 13009 5020 7348     		ldr	r0, .L309
 13010 5022 FFF7FEFF 		bl	uart_transmit
 13011              	.LVL2099:
 13012              	.LBE886:
 13013              	.LBB887:
 13014 5026 734B     		ldr	r3, .L309+4
 13015 5028 2A78     		ldrb	r2, [r5, #0]	@ zero_extendqisi2
 13016 502a 1978     		ldrb	r1, [r3, #0]	@ zero_extendqisi2
 13017              	.LVL2100:
 13018 502c 3378     		ldrb	r3, [r6, #0]	@ zero_extendqisi2
 13019 502e 7048     		ldr	r0, .L309
 13020 5030 CB18     		adds	r3, r1, r3
 13021 5032 DBB2     		uxtb	r3, r3
 13022              	.LVL2101:
 13023 5034 3370     		strb	r3, [r6, #0]
 13024 5036 9B18     		adds	r3, r3, r2
 13025              	.LVL2102:
 13026 5038 2B70     		strb	r3, [r5, #0]
 13027 503a FFF7FEFF 		bl	uart_transmit
 13028              	.LVL2103:
 13029              	.LBE887:
 13030 503e 3178     		ldrb	r1, [r6, #0]	@ zero_extendqisi2
 13031 5040 6B48     		ldr	r0, .L309
 13032 5042 FFF7FEFF 		bl	uart_transmit
 13033 5046 6A48     		ldr	r0, .L309
 13034 5048 2978     		ldrb	r1, [r5, #0]	@ zero_extendqisi2
 13035 504a FFF7FEFF 		bl	uart_transmit
 13036 504e 03E0     		b	.L180
 13037              	.LVL2104:
 13038              	.L179:
 13039              		.loc 1 422 0 discriminator 298
 13040 5050 694B     		ldr	r3, .L309+8
 13041 5052 1A78     		ldrb	r2, [r3, #0]	@ zero_extendqisi2
 13042 5054 0132     		adds	r2, r2, #1
 13043 5056 1A70     		strb	r2, [r3, #0]
 13044              	.L180:
 13045              		.loc 1 422 0 discriminator 299
 13046 5058 684A     		ldr	r2, .L309+12
 13047 505a 92F85B30 		ldrb	r3, [r2, #91]	@ zero_extendqisi2
 13048 505e 032B     		cmp	r3, #3
 13049 5060 644B     		ldr	r3, .L309+4
 13050 5062 06D0     		beq	.L181
 13051              		.loc 1 422 0 discriminator 300
 13052 5064 1878     		ldrb	r0, [r3, #0]	@ zero_extendqisi2
 13053 5066 92F86410 		ldrb	r1, [r2, #100]	@ zero_extendqisi2
 13054 506a 8842     		cmp	r0, r1
 13055 506c 01D3     		bcc	.L181
 13056              		.loc 1 422 0 discriminator 302
 13057 506e 0021     		movs	r1, #0
 13058 5070 1970     		strb	r1, [r3, #0]
 13059              	.L181:
 13060              		.loc 1 422 0 discriminator 301
 13061 5072 92F86420 		ldrb	r2, [r2, #100]	@ zero_extendqisi2
 13062 5076 1B78     		ldrb	r3, [r3, #0]	@ zero_extendqisi2
 13063 5078 B3EB420F 		cmp	r3, r2, lsl #1
 13064 507c 02DB     		blt	.L182
 13065              		.loc 1 422 0 discriminator 303
 13066 507e 5D4B     		ldr	r3, .L309+4
 13067 5080 0021     		movs	r1, #0
 13068 5082 1970     		strb	r1, [r3, #0]
 13069              	.L182:
 13070              		.loc 1 422 0 discriminator 304
 13071 5084 5B4E     		ldr	r6, .L309+4
 13072 5086 3378     		ldrb	r3, [r6, #0]	@ zero_extendqisi2
 13073 5088 9342     		cmp	r3, r2
 13074 508a 80F0C580 		bcs	.L183
 13075              		.loc 1 422 0 discriminator 305
 13076 508e 5B4F     		ldr	r7, .L309+12
 13077 5090 07EBC303 		add	r3, r7, r3, lsl #3
 13078 5094 93F86930 		ldrb	r3, [r3, #105]	@ zero_extendqisi2
 13079 5098 002B     		cmp	r3, #0
 13080 509a 00F0BD80 		beq	.L183
 13081              		.loc 1 422 0 discriminator 307
 13082 509e 5448     		ldr	r0, .L309
 13083 50a0 0E21     		movs	r1, #14
 13084 50a2 FFF7FEFF 		bl	uart_check_free_space
 13085 50a6 0028     		cmp	r0, #0
 13086 50a8 00F0B280 		beq	.L184
 13087              		.loc 1 422 0 discriminator 308
 13088 50ac 544B     		ldr	r3, .L309+16
 13089              	.LBB888:
 13090 50ae 9921     		movs	r1, #153
 13091              	.LBE888:
 13092 50b0 1A88     		ldrh	r2, [r3, #0]
 13093              	.LBB889:
 13094 50b2 4F48     		ldr	r0, .L309
 13095              	.LBE889:
 13096 50b4 0E32     		adds	r2, r2, #14
 13097 50b6 1A80     		strh	r2, [r3, #0]	@ movhi
 13098 50b8 524B     		ldr	r3, .L309+20
 13099 50ba 534D     		ldr	r5, .L309+24
 13100 50bc 1A88     		ldrh	r2, [r3, #0]
 13101 50be 534C     		ldr	r4, .L309+28
 13102 50c0 0132     		adds	r2, r2, #1
 13103 50c2 1A80     		strh	r2, [r3, #0]	@ movhi
 13104              	.LBB890:
 13105 50c4 FFF7FEFF 		bl	uart_transmit
 13106              	.LVL2105:
 13107 50c8 0E21     		movs	r1, #14
 13108 50ca 4948     		ldr	r0, .L309
 13109 50cc FFF7FEFF 		bl	uart_transmit
 13110              	.LBE890:
 13111 50d0 0F23     		movs	r3, #15
 13112 50d2 2B70     		strb	r3, [r5, #0]
 13113 50d4 1D23     		movs	r3, #29
 13114 50d6 2370     		strb	r3, [r4, #0]
 13115 50d8 0121     		movs	r1, #1
 13116 50da 4548     		ldr	r0, .L309
 13117 50dc FFF7FEFF 		bl	uart_transmit
 13118 50e0 2B78     		ldrb	r3, [r5, #0]	@ zero_extendqisi2
 13119 50e2 2278     		ldrb	r2, [r4, #0]	@ zero_extendqisi2
 13120 50e4 1933     		adds	r3, r3, #25
 13121 50e6 DBB2     		uxtb	r3, r3
 13122 50e8 2B70     		strb	r3, [r5, #0]
 13123 50ea 9B18     		adds	r3, r3, r2
 13124 50ec 2370     		strb	r3, [r4, #0]
 13125 50ee 1921     		movs	r1, #25
 13126 50f0 3F48     		ldr	r0, .L309
 13127 50f2 FFF7FEFF 		bl	uart_transmit
 13128              	.LBB891:
 13129 50f6 3178     		ldrb	r1, [r6, #0]	@ zero_extendqisi2
 13130              	.LVL2106:
 13131 50f8 2B78     		ldrb	r3, [r5, #0]	@ zero_extendqisi2
 13132 50fa 2278     		ldrb	r2, [r4, #0]	@ zero_extendqisi2
 13133 50fc CB18     		adds	r3, r1, r3
 13134 50fe DBB2     		uxtb	r3, r3
 13135              	.LVL2107:
 13136 5100 2B70     		strb	r3, [r5, #0]
 13137 5102 9B18     		adds	r3, r3, r2
 13138              	.LVL2108:
 13139 5104 2370     		strb	r3, [r4, #0]
 13140 5106 3A48     		ldr	r0, .L309
 13141 5108 FFF7FEFF 		bl	uart_transmit
 13142              	.LVL2109:
 13143              	.LBE891:
 13144              	.LBB892:
 13145 510c 3378     		ldrb	r3, [r6, #0]	@ zero_extendqisi2
 13146 510e 2278     		ldrb	r2, [r4, #0]	@ zero_extendqisi2
 13147 5110 07EBC303 		add	r3, r7, r3, lsl #3
 13148 5114 93F86610 		ldrb	r1, [r3, #102]	@ zero_extendqisi2
 13149              	.LVL2110:
 13150 5118 2B78     		ldrb	r3, [r5, #0]	@ zero_extendqisi2
 13151 511a 3548     		ldr	r0, .L309
 13152 511c CB18     		adds	r3, r1, r3
 13153 511e DBB2     		uxtb	r3, r3
 13154              	.LVL2111:
 13155 5120 2B70     		strb	r3, [r5, #0]
 13156 5122 9B18     		adds	r3, r3, r2
 13157              	.LVL2112:
 13158 5124 2370     		strb	r3, [r4, #0]
 13159 5126 FFF7FEFF 		bl	uart_transmit
 13160              	.LVL2113:
 13161              	.LBE892:
 13162              	.LBB893:
 13163 512a 3378     		ldrb	r3, [r6, #0]	@ zero_extendqisi2
 13164 512c 2278     		ldrb	r2, [r4, #0]	@ zero_extendqisi2
 13165 512e 07EBC303 		add	r3, r7, r3, lsl #3
 13166 5132 93F86710 		ldrb	r1, [r3, #103]	@ zero_extendqisi2
 13167              	.LVL2114:
 13168 5136 2B78     		ldrb	r3, [r5, #0]	@ zero_extendqisi2
 13169 5138 2D48     		ldr	r0, .L309
 13170 513a CB18     		adds	r3, r1, r3
 13171 513c DBB2     		uxtb	r3, r3
 13172              	.LVL2115:
 13173 513e 2B70     		strb	r3, [r5, #0]
 13174 5140 9B18     		adds	r3, r3, r2
 13175              	.LVL2116:
 13176 5142 2370     		strb	r3, [r4, #0]
 13177 5144 FFF7FEFF 		bl	uart_transmit
 13178              	.LVL2117:
 13179              	.LBE893:
 13180              	.LBB894:
 13181 5148 3378     		ldrb	r3, [r6, #0]	@ zero_extendqisi2
 13182 514a 2278     		ldrb	r2, [r4, #0]	@ zero_extendqisi2
 13183 514c 07EBC303 		add	r3, r7, r3, lsl #3
 13184 5150 93F86810 		ldrb	r1, [r3, #104]	@ zero_extendqisi2
 13185              	.LVL2118:
 13186 5154 2B78     		ldrb	r3, [r5, #0]	@ zero_extendqisi2
 13187 5156 2648     		ldr	r0, .L309
 13188 5158 CB18     		adds	r3, r1, r3
 13189 515a DBB2     		uxtb	r3, r3
 13190              	.LVL2119:
 13191 515c 2B70     		strb	r3, [r5, #0]
 13192 515e 9B18     		adds	r3, r3, r2
 13193              	.LVL2120:
 13194 5160 2370     		strb	r3, [r4, #0]
 13195 5162 FFF7FEFF 		bl	uart_transmit
 13196              	.LVL2121:
 13197              	.LBE894:
 13198              	.LBB895:
 13199 5166 3378     		ldrb	r3, [r6, #0]	@ zero_extendqisi2
 13200 5168 2278     		ldrb	r2, [r4, #0]	@ zero_extendqisi2
 13201 516a 07EBC303 		add	r3, r7, r3, lsl #3
 13202 516e 93F86910 		ldrb	r1, [r3, #105]	@ zero_extendqisi2
 13203              	.LVL2122:
 13204 5172 2B78     		ldrb	r3, [r5, #0]	@ zero_extendqisi2
 13205 5174 1E48     		ldr	r0, .L309
 13206 5176 CB18     		adds	r3, r1, r3
 13207 5178 DBB2     		uxtb	r3, r3
 13208              	.LVL2123:
 13209 517a 2B70     		strb	r3, [r5, #0]
 13210 517c 9B18     		adds	r3, r3, r2
 13211              	.LVL2124:
 13212 517e 2370     		strb	r3, [r4, #0]
 13213 5180 FFF7FEFF 		bl	uart_transmit
 13214              	.LVL2125:
 13215              	.LBE895:
 13216              	.LBB896:
 13217 5184 3378     		ldrb	r3, [r6, #0]	@ zero_extendqisi2
 13218 5186 2278     		ldrb	r2, [r4, #0]	@ zero_extendqisi2
 13219 5188 07EBC303 		add	r3, r7, r3, lsl #3
 13220 518c 93F86A10 		ldrb	r1, [r3, #106]	@ zero_extendqisi2
 13221              	.LVL2126:
 13222 5190 2B78     		ldrb	r3, [r5, #0]	@ zero_extendqisi2
 13223 5192 1748     		ldr	r0, .L309
 13224 5194 CB18     		adds	r3, r1, r3
 13225 5196 DBB2     		uxtb	r3, r3
 13226              	.LVL2127:
 13227 5198 2B70     		strb	r3, [r5, #0]
 13228 519a 9B18     		adds	r3, r3, r2
 13229              	.LVL2128:
 13230 519c 2370     		strb	r3, [r4, #0]
 13231 519e FFF7FEFF 		bl	uart_transmit
 13232              	.LVL2129:
 13233              	.LBE896:
 13234              	.LBB897:
 13235 51a2 3378     		ldrb	r3, [r6, #0]	@ zero_extendqisi2
 13236 51a4 0C37     		adds	r7, r7, #12
 13237 51a6 0C33     		adds	r3, r3, #12
 13238 51a8 17F83310 		ldrb	r1, [r7, r3, lsl #3]	@ zero_extendqisi2
 13239              	.LVL2130:
 13240 51ac 2B78     		ldrb	r3, [r5, #0]	@ zero_extendqisi2
 13241 51ae 2278     		ldrb	r2, [r4, #0]	@ zero_extendqisi2
 13242 51b0 CB18     		adds	r3, r1, r3
 13243 51b2 DBB2     		uxtb	r3, r3
 13244              	.LVL2131:
 13245 51b4 2B70     		strb	r3, [r5, #0]
 13246 51b6 9B18     		adds	r3, r3, r2
 13247              	.LVL2132:
 13248 51b8 2370     		strb	r3, [r4, #0]
 13249 51ba 0D48     		ldr	r0, .L309
 13250 51bc FFF7FEFF 		bl	uart_transmit
 13251              	.LVL2133:
 13252              	.LBE897:
 13253              	.LBB898:
 13254 51c0 3378     		ldrb	r3, [r6, #0]	@ zero_extendqisi2
 13255 51c2 2278     		ldrb	r2, [r4, #0]	@ zero_extendqisi2
 13256 51c4 07EBC307 		add	r7, r7, r3, lsl #3
 13257 51c8 97F86110 		ldrb	r1, [r7, #97]	@ zero_extendqisi2
 13258              	.LVL2134:
 13259 51cc 2B78     		ldrb	r3, [r5, #0]	@ zero_extendqisi2
 13260 51ce 0848     		ldr	r0, .L309
 13261 51d0 CB18     		adds	r3, r1, r3
 13262 51d2 DBB2     		uxtb	r3, r3
 13263              	.LVL2135:
 13264 51d4 2B70     		strb	r3, [r5, #0]
 13265 51d6 9B18     		adds	r3, r3, r2
 13266              	.LVL2136:
 13267 51d8 2370     		strb	r3, [r4, #0]
 13268 51da FFF7FEFF 		bl	uart_transmit
 13269              	.LVL2137:
 13270              	.LBE898:
 13271 51de 2978     		ldrb	r1, [r5, #0]	@ zero_extendqisi2
 13272 51e0 0348     		ldr	r0, .L309
 13273 51e2 FFF7FEFF 		bl	uart_transmit
 13274 51e6 0248     		ldr	r0, .L309
 13275 51e8 2178     		ldrb	r1, [r4, #0]	@ zero_extendqisi2
 13276 51ea FFF7FEFF 		bl	uart_transmit
 13277 51ee 13E0     		b	.L183
 13278              	.L310:
 13279              		.align	2
 13280              	.L309:
 13281 51f0 00000000 		.word	uart2
 13282 51f4 00000000 		.word	.LANCHOR64
 13283 51f8 00000000 		.word	downlink_nb_ovrn
 13284 51fc 00000000 		.word	gps
 13285 5200 00000000 		.word	downlink_nb_bytes
 13286 5204 00000000 		.word	downlink_nb_msgs
 13287 5208 00000000 		.word	ck_a
 13288 520c 00000000 		.word	ck_b
 13289              	.LVL2138:
 13290              	.L184:
 13291              		.loc 1 422 0 discriminator 309
 13292 5210 4D4B     		ldr	r3, .L311
 13293 5212 1A78     		ldrb	r2, [r3, #0]	@ zero_extendqisi2
 13294 5214 0132     		adds	r2, r2, #1
 13295 5216 1A70     		strb	r2, [r3, #0]
 13296              	.L183:
 13297              		.loc 1 422 0 discriminator 306
 13298 5218 4C4B     		ldr	r3, .L311+4
 13299 521a 1A78     		ldrb	r2, [r3, #0]	@ zero_extendqisi2
 13300 521c 0132     		adds	r2, r2, #1
 13301 521e 1A70     		strb	r2, [r3, #0]
 13302              	.L178:
 13303              	.LBE857:
 13304              		.loc 1 422 0 discriminator 296
 13305 5220 4B4B     		ldr	r3, .L311+8
 13306 5222 1B88     		ldrh	r3, [r3, #0]
 13307 5224 0C2B     		cmp	r3, #12
 13308 5226 40F0A780 		bne	.L185
 13309              		.loc 1 422 0 discriminator 310
 13310 522a 4A48     		ldr	r0, .L311+12
 13311 522c 0E21     		movs	r1, #14
 13312 522e FFF7FEFF 		bl	uart_check_free_space
 13313 5232 0028     		cmp	r0, #0
 13314 5234 00F09C80 		beq	.L186
 13315              		.loc 1 422 0 discriminator 312
 13316 5238 474B     		ldr	r3, .L311+16
 13317              	.LBB899:
 13318 523a 9921     		movs	r1, #153
 13319              	.LBE899:
 13320 523c 1A88     		ldrh	r2, [r3, #0]
 13321              	.LBB900:
 13322 523e 4548     		ldr	r0, .L311+12
 13323              	.LBE900:
 13324 5240 0E32     		adds	r2, r2, #14
 13325 5242 1A80     		strh	r2, [r3, #0]	@ movhi
 13326 5244 454B     		ldr	r3, .L311+20
 13327 5246 464D     		ldr	r5, .L311+24
 13328 5248 1A88     		ldrh	r2, [r3, #0]
 13329 524a 464C     		ldr	r4, .L311+28
 13330 524c 0132     		adds	r2, r2, #1
 13331 524e 1A80     		strh	r2, [r3, #0]	@ movhi
 13332              	.LBB901:
 13333 5250 FFF7FEFF 		bl	uart_transmit
 13334              	.LVL2139:
 13335 5254 0E21     		movs	r1, #14
 13336 5256 3F48     		ldr	r0, .L311+12
 13337 5258 FFF7FEFF 		bl	uart_transmit
 13338              	.LBE901:
 13339 525c 0F23     		movs	r3, #15
 13340 525e 2B70     		strb	r3, [r5, #0]
 13341 5260 1D23     		movs	r3, #29
 13342 5262 2370     		strb	r3, [r4, #0]
 13343 5264 0121     		movs	r1, #1
 13344 5266 3B48     		ldr	r0, .L311+12
 13345 5268 FFF7FEFF 		bl	uart_transmit
 13346 526c 2B78     		ldrb	r3, [r5, #0]	@ zero_extendqisi2
 13347 526e 2278     		ldrb	r2, [r4, #0]	@ zero_extendqisi2
 13348 5270 2A33     		adds	r3, r3, #42
 13349 5272 DBB2     		uxtb	r3, r3
 13350              	.LBB902:
 13351 5274 3C4E     		ldr	r6, .L311+32
 13352              	.LBE902:
 13353 5276 2B70     		strb	r3, [r5, #0]
 13354 5278 9B18     		adds	r3, r3, r2
 13355 527a 2370     		strb	r3, [r4, #0]
 13356 527c 2A21     		movs	r1, #42
 13357 527e 3548     		ldr	r0, .L311+12
 13358 5280 FFF7FEFF 		bl	uart_transmit
 13359              	.LBB903:
 13360 5284 3178     		ldrb	r1, [r6, #0]	@ zero_extendqisi2
 13361              	.LVL2140:
 13362 5286 2B78     		ldrb	r3, [r5, #0]	@ zero_extendqisi2
 13363 5288 2278     		ldrb	r2, [r4, #0]	@ zero_extendqisi2
 13364 528a CB18     		adds	r3, r1, r3
 13365 528c DBB2     		uxtb	r3, r3
 13366              	.LVL2141:
 13367 528e 2B70     		strb	r3, [r5, #0]
 13368 5290 9B18     		adds	r3, r3, r2
 13369              	.LVL2142:
 13370 5292 2370     		strb	r3, [r4, #0]
 13371 5294 2F48     		ldr	r0, .L311+12
 13372 5296 FFF7FEFF 		bl	uart_transmit
 13373              	.LVL2143:
 13374              	.LBE903:
 13375              	.LBB904:
 13376 529a 7178     		ldrb	r1, [r6, #1]	@ zero_extendqisi2
 13377              	.LVL2144:
 13378 529c 2B78     		ldrb	r3, [r5, #0]	@ zero_extendqisi2
 13379 529e 2278     		ldrb	r2, [r4, #0]	@ zero_extendqisi2
 13380 52a0 CB18     		adds	r3, r1, r3
 13381 52a2 DBB2     		uxtb	r3, r3
 13382              	.LVL2145:
 13383 52a4 2B70     		strb	r3, [r5, #0]
 13384 52a6 9B18     		adds	r3, r3, r2
 13385              	.LVL2146:
 13386 52a8 2370     		strb	r3, [r4, #0]
 13387 52aa 2A48     		ldr	r0, .L311+12
 13388 52ac FFF7FEFF 		bl	uart_transmit
 13389              	.LVL2147:
 13390              	.LBE904:
 13391              	.LBB905:
 13392 52b0 B178     		ldrb	r1, [r6, #2]	@ zero_extendqisi2
 13393              	.LVL2148:
 13394 52b2 2B78     		ldrb	r3, [r5, #0]	@ zero_extendqisi2
 13395 52b4 2278     		ldrb	r2, [r4, #0]	@ zero_extendqisi2
 13396 52b6 CB18     		adds	r3, r1, r3
 13397 52b8 DBB2     		uxtb	r3, r3
 13398              	.LVL2149:
 13399 52ba 2B70     		strb	r3, [r5, #0]
 13400 52bc 9B18     		adds	r3, r3, r2
 13401              	.LVL2150:
 13402 52be 2370     		strb	r3, [r4, #0]
 13403 52c0 2448     		ldr	r0, .L311+12
 13404 52c2 FFF7FEFF 		bl	uart_transmit
 13405              	.LVL2151:
 13406              	.LBE905:
 13407              	.LBB906:
 13408 52c6 F178     		ldrb	r1, [r6, #3]	@ zero_extendqisi2
 13409              	.LVL2152:
 13410 52c8 2B78     		ldrb	r3, [r5, #0]	@ zero_extendqisi2
 13411 52ca 2278     		ldrb	r2, [r4, #0]	@ zero_extendqisi2
 13412 52cc CB18     		adds	r3, r1, r3
 13413 52ce DBB2     		uxtb	r3, r3
 13414              	.LBE906:
 13415              	.LBB907:
 13416 52d0 264E     		ldr	r6, .L311+36
 13417              	.LVL2153:
 13418              	.LBE907:
 13419              	.LBB908:
 13420 52d2 2B70     		strb	r3, [r5, #0]
 13421 52d4 9B18     		adds	r3, r3, r2
 13422              	.LVL2154:
 13423 52d6 2370     		strb	r3, [r4, #0]
 13424 52d8 1E48     		ldr	r0, .L311+12
 13425 52da FFF7FEFF 		bl	uart_transmit
 13426              	.LVL2155:
 13427              	.LBE908:
 13428              	.LBB909:
 13429 52de 3178     		ldrb	r1, [r6, #0]	@ zero_extendqisi2
 13430              	.LVL2156:
 13431 52e0 2B78     		ldrb	r3, [r5, #0]	@ zero_extendqisi2
 13432 52e2 2278     		ldrb	r2, [r4, #0]	@ zero_extendqisi2
 13433 52e4 CB18     		adds	r3, r1, r3
 13434 52e6 DBB2     		uxtb	r3, r3
 13435              	.LVL2157:
 13436 52e8 2B70     		strb	r3, [r5, #0]
 13437 52ea 9B18     		adds	r3, r3, r2
 13438              	.LVL2158:
 13439 52ec 2370     		strb	r3, [r4, #0]
 13440 52ee 1948     		ldr	r0, .L311+12
 13441 52f0 FFF7FEFF 		bl	uart_transmit
 13442              	.LVL2159:
 13443              	.LBE909:
 13444              	.LBB910:
 13445 52f4 7178     		ldrb	r1, [r6, #1]	@ zero_extendqisi2
 13446              	.LVL2160:
 13447 52f6 2B78     		ldrb	r3, [r5, #0]	@ zero_extendqisi2
 13448 52f8 2278     		ldrb	r2, [r4, #0]	@ zero_extendqisi2
 13449 52fa CB18     		adds	r3, r1, r3
 13450 52fc DBB2     		uxtb	r3, r3
 13451              	.LVL2161:
 13452 52fe 2B70     		strb	r3, [r5, #0]
 13453 5300 9B18     		adds	r3, r3, r2
 13454              	.LVL2162:
 13455 5302 2370     		strb	r3, [r4, #0]
 13456 5304 1348     		ldr	r0, .L311+12
 13457 5306 FFF7FEFF 		bl	uart_transmit
 13458              	.LVL2163:
 13459              	.LBE910:
 13460              	.LBB911:
 13461 530a B178     		ldrb	r1, [r6, #2]	@ zero_extendqisi2
 13462              	.LVL2164:
 13463 530c 2B78     		ldrb	r3, [r5, #0]	@ zero_extendqisi2
 13464 530e 2278     		ldrb	r2, [r4, #0]	@ zero_extendqisi2
 13465 5310 CB18     		adds	r3, r1, r3
 13466 5312 DBB2     		uxtb	r3, r3
 13467              	.LVL2165:
 13468 5314 2B70     		strb	r3, [r5, #0]
 13469 5316 9B18     		adds	r3, r3, r2
 13470              	.LVL2166:
 13471 5318 2370     		strb	r3, [r4, #0]
 13472 531a 0E48     		ldr	r0, .L311+12
 13473 531c FFF7FEFF 		bl	uart_transmit
 13474              	.LVL2167:
 13475              	.LBE911:
 13476              	.LBB912:
 13477 5320 F178     		ldrb	r1, [r6, #3]	@ zero_extendqisi2
 13478              	.LVL2168:
 13479 5322 2B78     		ldrb	r3, [r5, #0]	@ zero_extendqisi2
 13480 5324 2278     		ldrb	r2, [r4, #0]	@ zero_extendqisi2
 13481 5326 CB18     		adds	r3, r1, r3
 13482 5328 DBB2     		uxtb	r3, r3
 13483              	.LVL2169:
 13484 532a 2B70     		strb	r3, [r5, #0]
 13485 532c 9B18     		adds	r3, r3, r2
 13486              	.LVL2170:
 13487 532e 2370     		strb	r3, [r4, #0]
 13488 5330 0848     		ldr	r0, .L311+12
 13489 5332 FFF7FEFF 		bl	uart_transmit
 13490              	.LVL2171:
 13491              	.LBE912:
 13492 5336 2978     		ldrb	r1, [r5, #0]	@ zero_extendqisi2
 13493 5338 0648     		ldr	r0, .L311+12
 13494 533a FFF7FEFF 		bl	uart_transmit
 13495 533e 0548     		ldr	r0, .L311+12
 13496 5340 2178     		ldrb	r1, [r4, #0]	@ zero_extendqisi2
 13497 5342 FFF7FEFF 		bl	uart_transmit
 13498 5346 17E0     		b	.L185
 13499              	.L312:
 13500              		.align	2
 13501              	.L311:
 13502 5348 00000000 		.word	downlink_nb_ovrn
 13503 534c 00000000 		.word	.LANCHOR64
 13504 5350 00000000 		.word	.LANCHOR57
 13505 5354 00000000 		.word	uart2
 13506 5358 00000000 		.word	downlink_nb_bytes
 13507 535c 00000000 		.word	downlink_nb_msgs
 13508 5360 00000000 		.word	ck_a
 13509 5364 00000000 		.word	ck_b
 13510 5368 00000000 		.word	estimator_z
 13511 536c 00000000 		.word	estimator_z_dot
 13512              	.LVL2172:
 13513              	.L186:
 13514              		.loc 1 422 0 discriminator 313
 13515 5370 994B     		ldr	r3, .L313+8
 13516 5372 1A78     		ldrb	r2, [r3, #0]	@ zero_extendqisi2
 13517 5374 0132     		adds	r2, r2, #1
 13518 5376 1A70     		strb	r2, [r3, #0]
 13519              	.L185:
 13520              		.loc 1 422 0 discriminator 311
 13521 5378 984B     		ldr	r3, .L313+12
 13522 537a 1B88     		ldrh	r3, [r3, #0]
 13523 537c 122B     		cmp	r3, #18
 13524 537e 40F04D81 		bne	.L187
 13525              	.LBB913:
 13526              		.loc 1 422 0 discriminator 314
 13527 5382 974B     		ldr	r3, .L313+16
 13528 5384 9748     		ldr	r0, .L313+20
 13529 5386 1A21     		movs	r1, #26
 13530 5388 1C68     		ldr	r4, [r3, #0]	@ float
 13531              	.LVL2173:
 13532 538a FFF7FEFF 		bl	uart_check_free_space
 13533              	.LVL2174:
 13534 538e 0028     		cmp	r0, #0
 13535 5390 00F04081 		beq	.L188
 13536              		.loc 1 422 0 discriminator 316
 13537 5394 24F00040 		bic	r0, r4, #-2147483648
 13538 5398 FFF7FEFF 		bl	__aeabi_f2d
 13539 539c 8CA3     		adr	r3, .L313
 13540 539e D3E90023 		ldrd	r2, [r3]
 13541 53a2 FFF7FEFF 		bl	__aeabi_ddiv
 13542 53a6 FFF7FEFF 		bl	__aeabi_d2uiz
 13543 53aa 8F4B     		ldr	r3, .L313+24
 13544 53ac C7B2     		uxtb	r7, r0
 13545 53ae 1A88     		ldrh	r2, [r3, #0]
 13546              	.LBB914:
 13547 53b0 9921     		movs	r1, #153
 13548              	.LBE914:
 13549 53b2 1A32     		adds	r2, r2, #26
 13550 53b4 1A80     		strh	r2, [r3, #0]	@ movhi
 13551 53b6 8D4B     		ldr	r3, .L313+28
 13552              	.LBB915:
 13553 53b8 8A48     		ldr	r0, .L313+20
 13554              	.LBE915:
 13555 53ba 1A88     		ldrh	r2, [r3, #0]
 13556 53bc 8C4D     		ldr	r5, .L313+32
 13557 53be 0132     		adds	r2, r2, #1
 13558 53c0 1A80     		strh	r2, [r3, #0]	@ movhi
 13559              	.LBB916:
 13560 53c2 FFF7FEFF 		bl	uart_transmit
 13561              	.LVL2175:
 13562 53c6 1A21     		movs	r1, #26
 13563 53c8 8648     		ldr	r0, .L313+20
 13564              	.LBE916:
 13565 53ca 8A4C     		ldr	r4, .L313+36
 13566              	.LVL2176:
 13567              	.LBB917:
 13568 53cc FFF7FEFF 		bl	uart_transmit
 13569              	.LBE917:
 13570 53d0 1B23     		movs	r3, #27
 13571 53d2 2B70     		strb	r3, [r5, #0]
 13572 53d4 3523     		movs	r3, #53
 13573 53d6 2370     		strb	r3, [r4, #0]
 13574 53d8 0121     		movs	r1, #1
 13575 53da 8248     		ldr	r0, .L313+20
 13576 53dc FFF7FEFF 		bl	uart_transmit
 13577 53e0 2B78     		ldrb	r3, [r5, #0]	@ zero_extendqisi2
 13578 53e2 2278     		ldrb	r2, [r4, #0]	@ zero_extendqisi2
 13579 53e4 0A33     		adds	r3, r3, #10
 13580 53e6 DBB2     		uxtb	r3, r3
 13581 53e8 2B70     		strb	r3, [r5, #0]
 13582 53ea 9B18     		adds	r3, r3, r2
 13583 53ec 2370     		strb	r3, [r4, #0]
 13584 53ee 0A21     		movs	r1, #10
 13585 53f0 7C48     		ldr	r0, .L313+20
 13586 53f2 FFF7FEFF 		bl	uart_transmit
 13587              	.LBB918:
 13588 53f6 804B     		ldr	r3, .L313+40
 13589 53f8 2278     		ldrb	r2, [r4, #0]	@ zero_extendqisi2
 13590 53fa 1978     		ldrb	r1, [r3, #0]	@ zero_extendqisi2
 13591              	.LVL2177:
 13592 53fc 2B78     		ldrb	r3, [r5, #0]	@ zero_extendqisi2
 13593 53fe 7948     		ldr	r0, .L313+20
 13594 5400 CB18     		adds	r3, r1, r3
 13595 5402 DBB2     		uxtb	r3, r3
 13596              	.LVL2178:
 13597 5404 2B70     		strb	r3, [r5, #0]
 13598 5406 9B18     		adds	r3, r3, r2
 13599              	.LVL2179:
 13600 5408 2370     		strb	r3, [r4, #0]
 13601 540a FFF7FEFF 		bl	uart_transmit
 13602              	.LVL2180:
 13603              	.LBE918:
 13604              	.LBB919:
 13605 540e 7B4B     		ldr	r3, .L313+44
 13606 5410 2278     		ldrb	r2, [r4, #0]	@ zero_extendqisi2
 13607 5412 1978     		ldrb	r1, [r3, #0]	@ zero_extendqisi2
 13608              	.LVL2181:
 13609 5414 2B78     		ldrb	r3, [r5, #0]	@ zero_extendqisi2
 13610              	.LBE919:
 13611              	.LBB920:
 13612 5416 7A4E     		ldr	r6, .L313+48
 13613              	.LBE920:
 13614              	.LBB921:
 13615 5418 CB18     		adds	r3, r1, r3
 13616 541a DBB2     		uxtb	r3, r3
 13617              	.LVL2182:
 13618 541c 2B70     		strb	r3, [r5, #0]
 13619 541e 9B18     		adds	r3, r3, r2
 13620              	.LVL2183:
 13621 5420 2370     		strb	r3, [r4, #0]
 13622 5422 7048     		ldr	r0, .L313+20
 13623 5424 FFF7FEFF 		bl	uart_transmit
 13624              	.LVL2184:
 13625              	.LBE921:
 13626              	.LBB922:
 13627 5428 3178     		ldrb	r1, [r6, #0]	@ zero_extendqisi2
 13628              	.LVL2185:
 13629 542a 2B78     		ldrb	r3, [r5, #0]	@ zero_extendqisi2
 13630 542c 2278     		ldrb	r2, [r4, #0]	@ zero_extendqisi2
 13631 542e CB18     		adds	r3, r1, r3
 13632 5430 DBB2     		uxtb	r3, r3
 13633              	.LVL2186:
 13634 5432 2B70     		strb	r3, [r5, #0]
 13635 5434 9B18     		adds	r3, r3, r2
 13636              	.LVL2187:
 13637 5436 2370     		strb	r3, [r4, #0]
 13638 5438 6A48     		ldr	r0, .L313+20
 13639 543a FFF7FEFF 		bl	uart_transmit
 13640              	.LVL2188:
 13641              	.LBE922:
 13642              	.LBB923:
 13643 543e 7178     		ldrb	r1, [r6, #1]	@ zero_extendqisi2
 13644              	.LVL2189:
 13645 5440 2B78     		ldrb	r3, [r5, #0]	@ zero_extendqisi2
 13646 5442 2278     		ldrb	r2, [r4, #0]	@ zero_extendqisi2
 13647 5444 CB18     		adds	r3, r1, r3
 13648 5446 DBB2     		uxtb	r3, r3
 13649              	.LVL2190:
 13650 5448 2B70     		strb	r3, [r5, #0]
 13651 544a 9B18     		adds	r3, r3, r2
 13652              	.LVL2191:
 13653 544c 2370     		strb	r3, [r4, #0]
 13654 544e 6548     		ldr	r0, .L313+20
 13655 5450 FFF7FEFF 		bl	uart_transmit
 13656              	.LVL2192:
 13657              	.LBE923:
 13658              	.LBB924:
 13659 5454 B178     		ldrb	r1, [r6, #2]	@ zero_extendqisi2
 13660              	.LVL2193:
 13661 5456 2B78     		ldrb	r3, [r5, #0]	@ zero_extendqisi2
 13662 5458 2278     		ldrb	r2, [r4, #0]	@ zero_extendqisi2
 13663 545a CB18     		adds	r3, r1, r3
 13664 545c DBB2     		uxtb	r3, r3
 13665              	.LVL2194:
 13666 545e 2B70     		strb	r3, [r5, #0]
 13667 5460 9B18     		adds	r3, r3, r2
 13668              	.LVL2195:
 13669 5462 2370     		strb	r3, [r4, #0]
 13670 5464 5F48     		ldr	r0, .L313+20
 13671 5466 FFF7FEFF 		bl	uart_transmit
 13672              	.LVL2196:
 13673              	.LBE924:
 13674              	.LBB925:
 13675 546a F178     		ldrb	r1, [r6, #3]	@ zero_extendqisi2
 13676              	.LVL2197:
 13677 546c 2B78     		ldrb	r3, [r5, #0]	@ zero_extendqisi2
 13678 546e 2278     		ldrb	r2, [r4, #0]	@ zero_extendqisi2
 13679 5470 CB18     		adds	r3, r1, r3
 13680 5472 DBB2     		uxtb	r3, r3
 13681              	.LBE925:
 13682              	.LBB926:
 13683 5474 634E     		ldr	r6, .L313+52
 13684              	.LVL2198:
 13685              	.LBE926:
 13686              	.LBB927:
 13687 5476 2B70     		strb	r3, [r5, #0]
 13688 5478 9B18     		adds	r3, r3, r2
 13689              	.LVL2199:
 13690 547a 2370     		strb	r3, [r4, #0]
 13691 547c 5948     		ldr	r0, .L313+20
 13692 547e FFF7FEFF 		bl	uart_transmit
 13693              	.LVL2200:
 13694              	.LBE927:
 13695              	.LBB928:
 13696 5482 3178     		ldrb	r1, [r6, #0]	@ zero_extendqisi2
 13697              	.LVL2201:
 13698 5484 2B78     		ldrb	r3, [r5, #0]	@ zero_extendqisi2
 13699 5486 2278     		ldrb	r2, [r4, #0]	@ zero_extendqisi2
 13700 5488 CB18     		adds	r3, r1, r3
 13701 548a DBB2     		uxtb	r3, r3
 13702              	.LVL2202:
 13703 548c 2B70     		strb	r3, [r5, #0]
 13704 548e 9B18     		adds	r3, r3, r2
 13705              	.LVL2203:
 13706 5490 2370     		strb	r3, [r4, #0]
 13707 5492 5448     		ldr	r0, .L313+20
 13708 5494 FFF7FEFF 		bl	uart_transmit
 13709              	.LVL2204:
 13710              	.LBE928:
 13711              	.LBB929:
 13712 5498 7178     		ldrb	r1, [r6, #1]	@ zero_extendqisi2
 13713              	.LVL2205:
 13714 549a 2B78     		ldrb	r3, [r5, #0]	@ zero_extendqisi2
 13715 549c 2278     		ldrb	r2, [r4, #0]	@ zero_extendqisi2
 13716 549e CB18     		adds	r3, r1, r3
 13717 54a0 DBB2     		uxtb	r3, r3
 13718              	.LVL2206:
 13719 54a2 2B70     		strb	r3, [r5, #0]
 13720 54a4 9B18     		adds	r3, r3, r2
 13721              	.LVL2207:
 13722 54a6 2370     		strb	r3, [r4, #0]
 13723 54a8 4E48     		ldr	r0, .L313+20
 13724 54aa FFF7FEFF 		bl	uart_transmit
 13725              	.LVL2208:
 13726              	.LBE929:
 13727              	.LBB930:
 13728 54ae B178     		ldrb	r1, [r6, #2]	@ zero_extendqisi2
 13729              	.LVL2209:
 13730 54b0 2B78     		ldrb	r3, [r5, #0]	@ zero_extendqisi2
 13731 54b2 2278     		ldrb	r2, [r4, #0]	@ zero_extendqisi2
 13732 54b4 CB18     		adds	r3, r1, r3
 13733 54b6 DBB2     		uxtb	r3, r3
 13734              	.LVL2210:
 13735 54b8 2B70     		strb	r3, [r5, #0]
 13736 54ba 9B18     		adds	r3, r3, r2
 13737              	.LVL2211:
 13738 54bc 2370     		strb	r3, [r4, #0]
 13739 54be 4948     		ldr	r0, .L313+20
 13740 54c0 FFF7FEFF 		bl	uart_transmit
 13741              	.LVL2212:
 13742              	.LBE930:
 13743              	.LBB931:
 13744 54c4 F178     		ldrb	r1, [r6, #3]	@ zero_extendqisi2
 13745              	.LVL2213:
 13746 54c6 2B78     		ldrb	r3, [r5, #0]	@ zero_extendqisi2
 13747 54c8 2278     		ldrb	r2, [r4, #0]	@ zero_extendqisi2
 13748 54ca CB18     		adds	r3, r1, r3
 13749 54cc DBB2     		uxtb	r3, r3
 13750              	.LBE931:
 13751              	.LBB932:
 13752 54ce 4E4E     		ldr	r6, .L313+56
 13753              	.LVL2214:
 13754              	.LBE932:
 13755              	.LBB933:
 13756 54d0 2B70     		strb	r3, [r5, #0]
 13757 54d2 9B18     		adds	r3, r3, r2
 13758              	.LVL2215:
 13759 54d4 2370     		strb	r3, [r4, #0]
 13760 54d6 4348     		ldr	r0, .L313+20
 13761 54d8 FFF7FEFF 		bl	uart_transmit
 13762              	.LVL2216:
 13763              	.LBE933:
 13764              	.LBB934:
 13765 54dc 3178     		ldrb	r1, [r6, #0]	@ zero_extendqisi2
 13766              	.LVL2217:
 13767 54de 2B78     		ldrb	r3, [r5, #0]	@ zero_extendqisi2
 13768 54e0 2278     		ldrb	r2, [r4, #0]	@ zero_extendqisi2
 13769 54e2 CB18     		adds	r3, r1, r3
 13770 54e4 DBB2     		uxtb	r3, r3
 13771              	.LVL2218:
 13772 54e6 2B70     		strb	r3, [r5, #0]
 13773 54e8 9B18     		adds	r3, r3, r2
 13774              	.LVL2219:
 13775 54ea 2370     		strb	r3, [r4, #0]
 13776 54ec 3D48     		ldr	r0, .L313+20
 13777 54ee FFF7FEFF 		bl	uart_transmit
 13778              	.LVL2220:
 13779              	.LBE934:
 13780              	.LBB935:
 13781 54f2 7178     		ldrb	r1, [r6, #1]	@ zero_extendqisi2
 13782              	.LVL2221:
 13783 54f4 2B78     		ldrb	r3, [r5, #0]	@ zero_extendqisi2
 13784 54f6 2278     		ldrb	r2, [r4, #0]	@ zero_extendqisi2
 13785 54f8 CB18     		adds	r3, r1, r3
 13786 54fa DBB2     		uxtb	r3, r3
 13787              	.LVL2222:
 13788 54fc 2B70     		strb	r3, [r5, #0]
 13789 54fe 9B18     		adds	r3, r3, r2
 13790              	.LVL2223:
 13791 5500 2370     		strb	r3, [r4, #0]
 13792 5502 3848     		ldr	r0, .L313+20
 13793 5504 FFF7FEFF 		bl	uart_transmit
 13794              	.LVL2224:
 13795              	.LBE935:
 13796              	.LBB936:
 13797 5508 B178     		ldrb	r1, [r6, #2]	@ zero_extendqisi2
 13798              	.LVL2225:
 13799 550a 2B78     		ldrb	r3, [r5, #0]	@ zero_extendqisi2
 13800 550c 2278     		ldrb	r2, [r4, #0]	@ zero_extendqisi2
 13801 550e CB18     		adds	r3, r1, r3
 13802 5510 DBB2     		uxtb	r3, r3
 13803              	.LVL2226:
 13804 5512 2B70     		strb	r3, [r5, #0]
 13805 5514 9B18     		adds	r3, r3, r2
 13806              	.LVL2227:
 13807 5516 2370     		strb	r3, [r4, #0]
 13808 5518 3248     		ldr	r0, .L313+20
 13809 551a FFF7FEFF 		bl	uart_transmit
 13810              	.LVL2228:
 13811              	.LBE936:
 13812              	.LBB937:
 13813 551e F178     		ldrb	r1, [r6, #3]	@ zero_extendqisi2
 13814              	.LVL2229:
 13815 5520 2B78     		ldrb	r3, [r5, #0]	@ zero_extendqisi2
 13816 5522 2278     		ldrb	r2, [r4, #0]	@ zero_extendqisi2
 13817 5524 CB18     		adds	r3, r1, r3
 13818 5526 DBB2     		uxtb	r3, r3
 13819              	.LBE937:
 13820              	.LBB938:
 13821 5528 384E     		ldr	r6, .L313+60
 13822              	.LVL2230:
 13823              	.LBE938:
 13824              	.LBB939:
 13825 552a 2B70     		strb	r3, [r5, #0]
 13826 552c 9B18     		adds	r3, r3, r2
 13827              	.LVL2231:
 13828 552e 2370     		strb	r3, [r4, #0]
 13829 5530 2C48     		ldr	r0, .L313+20
 13830 5532 FFF7FEFF 		bl	uart_transmit
 13831              	.LVL2232:
 13832              	.LBE939:
 13833              	.LBB940:
 13834 5536 3178     		ldrb	r1, [r6, #0]	@ zero_extendqisi2
 13835              	.LVL2233:
 13836 5538 2B78     		ldrb	r3, [r5, #0]	@ zero_extendqisi2
 13837 553a 2278     		ldrb	r2, [r4, #0]	@ zero_extendqisi2
 13838 553c CB18     		adds	r3, r1, r3
 13839 553e DBB2     		uxtb	r3, r3
 13840              	.LVL2234:
 13841 5540 2B70     		strb	r3, [r5, #0]
 13842 5542 9B18     		adds	r3, r3, r2
 13843              	.LVL2235:
 13844 5544 2370     		strb	r3, [r4, #0]
 13845 5546 2748     		ldr	r0, .L313+20
 13846 5548 FFF7FEFF 		bl	uart_transmit
 13847              	.LVL2236:
 13848              	.LBE940:
 13849              	.LBB941:
 13850 554c 7178     		ldrb	r1, [r6, #1]	@ zero_extendqisi2
 13851              	.LVL2237:
 13852 554e 2B78     		ldrb	r3, [r5, #0]	@ zero_extendqisi2
 13853 5550 2278     		ldrb	r2, [r4, #0]	@ zero_extendqisi2
 13854 5552 CB18     		adds	r3, r1, r3
 13855 5554 DBB2     		uxtb	r3, r3
 13856              	.LVL2238:
 13857 5556 2B70     		strb	r3, [r5, #0]
 13858 5558 9B18     		adds	r3, r3, r2
 13859              	.LVL2239:
 13860 555a 2370     		strb	r3, [r4, #0]
 13861 555c 2148     		ldr	r0, .L313+20
 13862 555e FFF7FEFF 		bl	uart_transmit
 13863              	.LVL2240:
 13864              	.LBE941:
 13865              	.LBB942:
 13866 5562 B178     		ldrb	r1, [r6, #2]	@ zero_extendqisi2
 13867              	.LVL2241:
 13868 5564 2B78     		ldrb	r3, [r5, #0]	@ zero_extendqisi2
 13869 5566 2278     		ldrb	r2, [r4, #0]	@ zero_extendqisi2
 13870 5568 CB18     		adds	r3, r1, r3
 13871 556a DBB2     		uxtb	r3, r3
 13872              	.LVL2242:
 13873 556c 2B70     		strb	r3, [r5, #0]
 13874 556e 9B18     		adds	r3, r3, r2
 13875              	.LVL2243:
 13876 5570 2370     		strb	r3, [r4, #0]
 13877 5572 1C48     		ldr	r0, .L313+20
 13878 5574 FFF7FEFF 		bl	uart_transmit
 13879              	.LVL2244:
 13880              	.LBE942:
 13881              	.LBB943:
 13882 5578 F178     		ldrb	r1, [r6, #3]	@ zero_extendqisi2
 13883              	.LVL2245:
 13884 557a 2B78     		ldrb	r3, [r5, #0]	@ zero_extendqisi2
 13885 557c 2278     		ldrb	r2, [r4, #0]	@ zero_extendqisi2
 13886 557e CB18     		adds	r3, r1, r3
 13887 5580 DBB2     		uxtb	r3, r3
 13888              	.LVL2246:
 13889 5582 2B70     		strb	r3, [r5, #0]
 13890 5584 9B18     		adds	r3, r3, r2
 13891              	.LVL2247:
 13892 5586 2370     		strb	r3, [r4, #0]
 13893 5588 1648     		ldr	r0, .L313+20
 13894 558a FFF7FEFF 		bl	uart_transmit
 13895              	.LVL2248:
 13896              	.LBE943:
 13897              	.LBB944:
 13898 558e 2B78     		ldrb	r3, [r5, #0]	@ zero_extendqisi2
 13899 5590 2278     		ldrb	r2, [r4, #0]	@ zero_extendqisi2
 13900 5592 FB18     		adds	r3, r7, r3
 13901 5594 DBB2     		uxtb	r3, r3
 13902              	.LVL2249:
 13903 5596 2B70     		strb	r3, [r5, #0]
 13904 5598 9B18     		adds	r3, r3, r2
 13905              	.LVL2250:
 13906 559a 2370     		strb	r3, [r4, #0]
 13907 559c 3946     		mov	r1, r7
 13908 559e 1148     		ldr	r0, .L313+20
 13909 55a0 FFF7FEFF 		bl	uart_transmit
 13910              	.LBE944:
 13911              	.LBB945:
 13912 55a4 1A4B     		ldr	r3, .L313+64
 13913 55a6 2278     		ldrb	r2, [r4, #0]	@ zero_extendqisi2
 13914 55a8 1978     		ldrb	r1, [r3, #0]	@ zero_extendqisi2
 13915              	.LVL2251:
 13916 55aa 2B78     		ldrb	r3, [r5, #0]	@ zero_extendqisi2
 13917 55ac 0D48     		ldr	r0, .L313+20
 13918 55ae CB18     		adds	r3, r1, r3
 13919 55b0 DBB2     		uxtb	r3, r3
 13920              	.LVL2252:
 13921 55b2 2B70     		strb	r3, [r5, #0]
 13922 55b4 9B18     		adds	r3, r3, r2
 13923              	.LVL2253:
 13924 55b6 2370     		strb	r3, [r4, #0]
 13925 55b8 FFF7FEFF 		bl	uart_transmit
 13926              	.LVL2254:
 13927              	.LBE945:
 13928 55bc 2978     		ldrb	r1, [r5, #0]	@ zero_extendqisi2
 13929 55be 0948     		ldr	r0, .L313+20
 13930 55c0 FFF7FEFF 		bl	uart_transmit
 13931 55c4 0748     		ldr	r0, .L313+20
 13932 55c6 2178     		ldrb	r1, [r4, #0]	@ zero_extendqisi2
 13933 55c8 FFF7FEFF 		bl	uart_transmit
 13934 55cc 26E0     		b	.L187
 13935              	.L314:
 13936 55ce 00BF     		.align	3
 13937              	.L313:
 13938 55d0 182D4454 		.word	1413754136
 13939 55d4 FB211940 		.word	1075388923
 13940 55d8 00000000 		.word	downlink_nb_ovrn
 13941 55dc 00000000 		.word	.LANCHOR58
 13942 55e0 00000000 		.word	nav_circle_radians
 13943 55e4 00000000 		.word	uart2
 13944 55e8 00000000 		.word	downlink_nb_bytes
 13945 55ec 00000000 		.word	downlink_nb_msgs
 13946 55f0 00000000 		.word	ck_a
 13947 55f4 00000000 		.word	ck_b
 13948 55f8 00000000 		.word	nav_block
 13949 55fc 00000000 		.word	nav_stage
 13950 5600 00000000 		.word	estimator_x
 13951 5604 00000000 		.word	estimator_y
 13952 5608 00000000 		.word	dist2_to_wp
 13953 560c 00000000 		.word	dist2_to_home
 13954 5610 00000000 		.word	nav_oval_count
 13955              	.LVL2255:
 13956              	.L188:
 13957              		.loc 1 422 0 discriminator 317
 13958 5614 864B     		ldr	r3, .L315+8
 13959 5616 1A78     		ldrb	r2, [r3, #0]	@ zero_extendqisi2
 13960 5618 0132     		adds	r2, r2, #1
 13961 561a 1A70     		strb	r2, [r3, #0]
 13962              	.LVL2256:
 13963              	.L187:
 13964              	.LBE913:
 13965              		.loc 1 422 0 discriminator 315
 13966 561c 854B     		ldr	r3, .L315+12
 13967 561e 1B88     		ldrh	r3, [r3, #0]
 13968 5620 182B     		cmp	r3, #24
 13969 5622 7BD1     		bne	.L189
 13970              	.LVL2257:
 13971              	.LBB946:
 13972              		.loc 1 422 0 discriminator 318
 13973 5624 8448     		ldr	r0, .L315+16
 13974 5626 0C21     		movs	r1, #12
 13975 5628 FFF7FEFF 		bl	uart_check_free_space
 13976 562c 0028     		cmp	r0, #0
 13977 562e 71D0     		beq	.L190
 13978              		.loc 1 422 0 discriminator 320
 13979 5630 824B     		ldr	r3, .L315+20
 13980              	.LBB947:
 13981 5632 9921     		movs	r1, #153
 13982              	.LBE947:
 13983 5634 1A88     		ldrh	r2, [r3, #0]
 13984              	.LBB948:
 13985 5636 8048     		ldr	r0, .L315+16
 13986              	.LBE948:
 13987 5638 0C32     		adds	r2, r2, #12
 13988 563a 1A80     		strh	r2, [r3, #0]	@ movhi
 13989 563c 804B     		ldr	r3, .L315+24
 13990 563e 814D     		ldr	r5, .L315+28
 13991 5640 1A88     		ldrh	r2, [r3, #0]
 13992 5642 814C     		ldr	r4, .L315+32
 13993 5644 0132     		adds	r2, r2, #1
 13994 5646 1A80     		strh	r2, [r3, #0]	@ movhi
 13995              	.LBB949:
 13996 5648 FFF7FEFF 		bl	uart_transmit
 13997              	.LVL2258:
 13998 564c 0C21     		movs	r1, #12
 13999 564e 7A48     		ldr	r0, .L315+16
 14000 5650 FFF7FEFF 		bl	uart_transmit
 14001              	.LBE949:
 14002 5654 0D23     		movs	r3, #13
 14003 5656 2B70     		strb	r3, [r5, #0]
 14004 5658 1923     		movs	r3, #25
 14005 565a 2370     		strb	r3, [r4, #0]
 14006 565c 0121     		movs	r1, #1
 14007 565e 7648     		ldr	r0, .L315+16
 14008 5660 FFF7FEFF 		bl	uart_transmit
 14009 5664 2B78     		ldrb	r3, [r5, #0]	@ zero_extendqisi2
 14010 5666 2278     		ldrb	r2, [r4, #0]	@ zero_extendqisi2
 14011 5668 0B33     		adds	r3, r3, #11
 14012 566a DBB2     		uxtb	r3, r3
 14013 566c 2B70     		strb	r3, [r5, #0]
 14014 566e 9B18     		adds	r3, r3, r2
 14015 5670 2370     		strb	r3, [r4, #0]
 14016 5672 0B21     		movs	r1, #11
 14017 5674 7048     		ldr	r0, .L315+16
 14018 5676 FFF7FEFF 		bl	uart_transmit
 14019              	.LBB950:
 14020 567a 744B     		ldr	r3, .L315+36
 14021 567c 2278     		ldrb	r2, [r4, #0]	@ zero_extendqisi2
 14022 567e 1978     		ldrb	r1, [r3, #0]	@ zero_extendqisi2
 14023              	.LVL2259:
 14024 5680 2B78     		ldrb	r3, [r5, #0]	@ zero_extendqisi2
 14025 5682 6D48     		ldr	r0, .L315+16
 14026 5684 CB18     		adds	r3, r1, r3
 14027 5686 DBB2     		uxtb	r3, r3
 14028              	.LVL2260:
 14029 5688 2B70     		strb	r3, [r5, #0]
 14030 568a 9B18     		adds	r3, r3, r2
 14031              	.LVL2261:
 14032 568c 2370     		strb	r3, [r4, #0]
 14033 568e FFF7FEFF 		bl	uart_transmit
 14034              	.LVL2262:
 14035              	.LBE950:
 14036              	.LBB951:
 14037 5692 6F4B     		ldr	r3, .L315+40
 14038 5694 2278     		ldrb	r2, [r4, #0]	@ zero_extendqisi2
 14039 5696 1978     		ldrb	r1, [r3, #0]	@ zero_extendqisi2
 14040              	.LVL2263:
 14041 5698 2B78     		ldrb	r3, [r5, #0]	@ zero_extendqisi2
 14042 569a 6748     		ldr	r0, .L315+16
 14043 569c CB18     		adds	r3, r1, r3
 14044 569e DBB2     		uxtb	r3, r3
 14045              	.LVL2264:
 14046 56a0 2B70     		strb	r3, [r5, #0]
 14047 56a2 9B18     		adds	r3, r3, r2
 14048              	.LVL2265:
 14049 56a4 2370     		strb	r3, [r4, #0]
 14050 56a6 FFF7FEFF 		bl	uart_transmit
 14051              	.LVL2266:
 14052              	.LBE951:
 14053              	.LBB952:
 14054 56aa 6A4B     		ldr	r3, .L315+44
 14055 56ac 2278     		ldrb	r2, [r4, #0]	@ zero_extendqisi2
 14056 56ae 1978     		ldrb	r1, [r3, #0]	@ zero_extendqisi2
 14057              	.LVL2267:
 14058 56b0 2B78     		ldrb	r3, [r5, #0]	@ zero_extendqisi2
 14059 56b2 6148     		ldr	r0, .L315+16
 14060 56b4 CB18     		adds	r3, r1, r3
 14061 56b6 DBB2     		uxtb	r3, r3
 14062              	.LVL2268:
 14063 56b8 2B70     		strb	r3, [r5, #0]
 14064 56ba 9B18     		adds	r3, r3, r2
 14065              	.LVL2269:
 14066 56bc 2370     		strb	r3, [r4, #0]
 14067 56be FFF7FEFF 		bl	uart_transmit
 14068              	.LVL2270:
 14069              	.LBE952:
 14070              	.LBB953:
 14071 56c2 654B     		ldr	r3, .L315+48
 14072 56c4 2278     		ldrb	r2, [r4, #0]	@ zero_extendqisi2
 14073 56c6 1978     		ldrb	r1, [r3, #0]	@ zero_extendqisi2
 14074              	.LVL2271:
 14075 56c8 2B78     		ldrb	r3, [r5, #0]	@ zero_extendqisi2
 14076 56ca 5B48     		ldr	r0, .L315+16
 14077 56cc CB18     		adds	r3, r1, r3
 14078 56ce DBB2     		uxtb	r3, r3
 14079              	.LVL2272:
 14080 56d0 2B70     		strb	r3, [r5, #0]
 14081 56d2 9B18     		adds	r3, r3, r2
 14082              	.LVL2273:
 14083 56d4 2370     		strb	r3, [r4, #0]
 14084 56d6 FFF7FEFF 		bl	uart_transmit
 14085              	.LVL2274:
 14086              	.LBE953:
 14087              	.LBB954:
 14088 56da 2278     		ldrb	r2, [r4, #0]	@ zero_extendqisi2
 14089 56dc 2B78     		ldrb	r3, [r5, #0]	@ zero_extendqisi2
 14090 56de 0021     		movs	r1, #0
 14091 56e0 D318     		adds	r3, r2, r3
 14092 56e2 2370     		strb	r3, [r4, #0]
 14093 56e4 5448     		ldr	r0, .L315+16
 14094 56e6 FFF7FEFF 		bl	uart_transmit
 14095              	.LBE954:
 14096              	.LBB955:
 14097 56ea 5C4B     		ldr	r3, .L315+52
 14098 56ec 2278     		ldrb	r2, [r4, #0]	@ zero_extendqisi2
 14099 56ee 1978     		ldrb	r1, [r3, #0]	@ zero_extendqisi2
 14100              	.LVL2275:
 14101 56f0 2B78     		ldrb	r3, [r5, #0]	@ zero_extendqisi2
 14102 56f2 5148     		ldr	r0, .L315+16
 14103 56f4 CB18     		adds	r3, r1, r3
 14104 56f6 DBB2     		uxtb	r3, r3
 14105              	.LVL2276:
 14106 56f8 2B70     		strb	r3, [r5, #0]
 14107 56fa 9B18     		adds	r3, r3, r2
 14108              	.LVL2277:
 14109 56fc 2370     		strb	r3, [r4, #0]
 14110 56fe FFF7FEFF 		bl	uart_transmit
 14111              	.LVL2278:
 14112              	.LBE955:
 14113 5702 2978     		ldrb	r1, [r5, #0]	@ zero_extendqisi2
 14114 5704 4C48     		ldr	r0, .L315+16
 14115 5706 FFF7FEFF 		bl	uart_transmit
 14116 570a 4B48     		ldr	r0, .L315+16
 14117 570c 2178     		ldrb	r1, [r4, #0]	@ zero_extendqisi2
 14118 570e FFF7FEFF 		bl	uart_transmit
 14119 5712 03E0     		b	.L189
 14120              	.LVL2279:
 14121              	.L190:
 14122              		.loc 1 422 0 discriminator 321
 14123 5714 464B     		ldr	r3, .L315+8
 14124 5716 1A78     		ldrb	r2, [r3, #0]	@ zero_extendqisi2
 14125 5718 0132     		adds	r2, r2, #1
 14126 571a 1A70     		strb	r2, [r3, #0]
 14127              	.LVL2280:
 14128              	.L189:
 14129              	.LBE946:
 14130              		.loc 1 422 0 discriminator 319
 14131 571c 504B     		ldr	r3, .L315+56
 14132 571e 1D88     		ldrh	r5, [r3, #0]
 14133 5720 1E2D     		cmp	r5, #30
 14134 5722 40F0A580 		bne	.L191
 14135              	.LBB956:
 14136              		.loc 1 422 0 discriminator 322
 14137 5726 4F4E     		ldr	r6, .L315+60
 14138 5728 444C     		ldr	r4, .L315+20
 14139 572a 3088     		ldrh	r0, [r6, #0]
 14140 572c 2788     		ldrh	r7, [r4, #0]
 14141 572e 381A     		subs	r0, r7, r0
 14142 5730 FFF7FEFF 		bl	__aeabi_i2d
 14143 5734 3CA3     		adr	r3, .L315
 14144 5736 D3E90023 		ldrd	r2, [r3]
 14145 573a FFF7FEFF 		bl	__aeabi_ddiv
 14146 573e FFF7FEFF 		bl	__aeabi_d2uiz
 14147 5742 3780     		strh	r7, [r6, #0]	@ movhi
 14148 5744 ADF81E00 		strh	r0, [sp, #30]	@ movhi
 14149              	.LVL2281:
 14150 5748 0B21     		movs	r1, #11
 14151 574a 3B48     		ldr	r0, .L315+16
 14152 574c FFF7FEFF 		bl	uart_check_free_space
 14153 5750 0028     		cmp	r0, #0
 14154 5752 00F08980 		beq	.L192
 14155              		.loc 1 422 0 discriminator 324
 14156 5756 2388     		ldrh	r3, [r4, #0]
 14157 5758 394F     		ldr	r7, .L315+24
 14158 575a 0B33     		adds	r3, r3, #11
 14159 575c 2380     		strh	r3, [r4, #0]	@ movhi
 14160 575e 3B88     		ldrh	r3, [r7, #0]
 14161              	.LBB957:
 14162 5760 9921     		movs	r1, #153
 14163              	.LBE957:
 14164 5762 0133     		adds	r3, r3, #1
 14165 5764 3B80     		strh	r3, [r7, #0]	@ movhi
 14166              	.LBB958:
 14167 5766 3448     		ldr	r0, .L315+16
 14168              	.LBE958:
 14169 5768 364E     		ldr	r6, .L315+28
 14170              	.LBB959:
 14171 576a FFF7FEFF 		bl	uart_transmit
 14172              	.LVL2282:
 14173 576e 0B21     		movs	r1, #11
 14174 5770 3148     		ldr	r0, .L315+16
 14175              	.LBE959:
 14176 5772 354C     		ldr	r4, .L315+32
 14177              	.LBB960:
 14178 5774 FFF7FEFF 		bl	uart_transmit
 14179              	.LBE960:
 14180 5778 0C23     		movs	r3, #12
 14181 577a 3370     		strb	r3, [r6, #0]
 14182 577c 1723     		movs	r3, #23
 14183 577e 2370     		strb	r3, [r4, #0]
 14184 5780 0121     		movs	r1, #1
 14185 5782 2D48     		ldr	r0, .L315+16
 14186 5784 FFF7FEFF 		bl	uart_transmit
 14187 5788 3378     		ldrb	r3, [r6, #0]	@ zero_extendqisi2
 14188 578a 2278     		ldrb	r2, [r4, #0]	@ zero_extendqisi2
 14189 578c 1E33     		adds	r3, r3, #30
 14190 578e DBB2     		uxtb	r3, r3
 14191 5790 3370     		strb	r3, [r6, #0]
 14192 5792 9B18     		adds	r3, r3, r2
 14193 5794 2370     		strb	r3, [r4, #0]
 14194 5796 2946     		mov	r1, r5
 14195 5798 2748     		ldr	r0, .L315+16
 14196 579a FFF7FEFF 		bl	uart_transmit
 14197              	.LBB961:
 14198 579e 244B     		ldr	r3, .L315+8
 14199 57a0 2278     		ldrb	r2, [r4, #0]	@ zero_extendqisi2
 14200 57a2 1978     		ldrb	r1, [r3, #0]	@ zero_extendqisi2
 14201              	.LVL2283:
 14202 57a4 3378     		ldrb	r3, [r6, #0]	@ zero_extendqisi2
 14203 57a6 2448     		ldr	r0, .L315+16
 14204 57a8 CB18     		adds	r3, r1, r3
 14205 57aa DBB2     		uxtb	r3, r3
 14206              	.LVL2284:
 14207 57ac 3370     		strb	r3, [r6, #0]
 14208 57ae 9B18     		adds	r3, r3, r2
 14209              	.LVL2285:
 14210 57b0 2370     		strb	r3, [r4, #0]
 14211 57b2 FFF7FEFF 		bl	uart_transmit
 14212              	.LVL2286:
 14213              	.LBE961:
 14214              	.LBB962:
 14215 57b6 9DF81E10 		ldrb	r1, [sp, #30]	@ zero_extendqisi2
 14216              	.LVL2287:
 14217 57ba 3378     		ldrb	r3, [r6, #0]	@ zero_extendqisi2
 14218 57bc 2278     		ldrb	r2, [r4, #0]	@ zero_extendqisi2
 14219 57be CB18     		adds	r3, r1, r3
 14220 57c0 DBB2     		uxtb	r3, r3
 14221              	.LVL2288:
 14222 57c2 3370     		strb	r3, [r6, #0]
 14223 57c4 9B18     		adds	r3, r3, r2
 14224              	.LVL2289:
 14225 57c6 2370     		strb	r3, [r4, #0]
 14226 57c8 1B48     		ldr	r0, .L315+16
 14227 57ca FFF7FEFF 		bl	uart_transmit
 14228              	.LVL2290:
 14229              	.LBE962:
 14230              	.LBB963:
 14231 57ce 9DF81F10 		ldrb	r1, [sp, #31]	@ zero_extendqisi2
 14232              	.LVL2291:
 14233 57d2 3378     		ldrb	r3, [r6, #0]	@ zero_extendqisi2
 14234 57d4 2278     		ldrb	r2, [r4, #0]	@ zero_extendqisi2
 14235 57d6 CB18     		adds	r3, r1, r3
 14236 57d8 DBB2     		uxtb	r3, r3
 14237              	.LVL2292:
 14238 57da 3370     		strb	r3, [r6, #0]
 14239 57dc 9B18     		adds	r3, r3, r2
 14240              	.LVL2293:
 14241 57de 2370     		strb	r3, [r4, #0]
 14242 57e0 1548     		ldr	r0, .L315+16
 14243 57e2 FFF7FEFF 		bl	uart_transmit
 14244              	.LVL2294:
 14245              	.LBE963:
 14246              	.LBB964:
 14247 57e6 3978     		ldrb	r1, [r7, #0]	@ zero_extendqisi2
 14248              	.LVL2295:
 14249 57e8 3378     		ldrb	r3, [r6, #0]	@ zero_extendqisi2
 14250 57ea 2278     		ldrb	r2, [r4, #0]	@ zero_extendqisi2
 14251 57ec CB18     		adds	r3, r1, r3
 14252 57ee DBB2     		uxtb	r3, r3
 14253              	.LVL2296:
 14254 57f0 3370     		strb	r3, [r6, #0]
 14255 57f2 9B18     		adds	r3, r3, r2
 14256              	.LVL2297:
 14257 57f4 2370     		strb	r3, [r4, #0]
 14258 57f6 1048     		ldr	r0, .L315+16
 14259 57f8 FFF7FEFF 		bl	uart_transmit
 14260              	.LVL2298:
 14261              	.LBE964:
 14262              	.LBB965:
 14263 57fc 7978     		ldrb	r1, [r7, #1]	@ zero_extendqisi2
 14264              	.LVL2299:
 14265 57fe 3378     		ldrb	r3, [r6, #0]	@ zero_extendqisi2
 14266 5800 2278     		ldrb	r2, [r4, #0]	@ zero_extendqisi2
 14267 5802 CB18     		adds	r3, r1, r3
 14268 5804 DBB2     		uxtb	r3, r3
 14269              	.LVL2300:
 14270 5806 3370     		strb	r3, [r6, #0]
 14271 5808 9B18     		adds	r3, r3, r2
 14272              	.LVL2301:
 14273 580a 2370     		strb	r3, [r4, #0]
 14274 580c 0A48     		ldr	r0, .L315+16
 14275 580e FFF7FEFF 		bl	uart_transmit
 14276              	.LVL2302:
 14277              	.LBE965:
 14278 5812 3178     		ldrb	r1, [r6, #0]	@ zero_extendqisi2
 14279 5814 0848     		ldr	r0, .L315+16
 14280 5816 FFF7FEFF 		bl	uart_transmit
 14281 581a 0748     		ldr	r0, .L315+16
 14282 581c 2178     		ldrb	r1, [r4, #0]	@ zero_extendqisi2
 14283 581e FFF7FEFF 		bl	uart_transmit
 14284 5822 25E0     		b	.L191
 14285              	.L316:
 14286 5824 AFF30080 		.align	3
 14287              	.L315:
 14288 5828 66666666 		.word	1717986918
 14289 582c 66661440 		.word	1075078758
 14290 5830 00000000 		.word	downlink_nb_ovrn
 14291 5834 00000000 		.word	.LANCHOR59
 14292 5838 00000000 		.word	uart2
 14293 583c 00000000 		.word	downlink_nb_bytes
 14294 5840 00000000 		.word	downlink_nb_msgs
 14295 5844 00000000 		.word	ck_a
 14296 5848 00000000 		.word	ck_b
 14297 584c 00000000 		.word	.LANCHOR29
 14298 5850 00000000 		.word	v_ctl_mode
 14299 5854 00000000 		.word	.LANCHOR31
 14300 5858 00000000 		.word	horizontal_mode
 14301 585c 00000000 		.word	.LANCHOR32
 14302 5860 00000000 		.word	.LANCHOR60
 14303 5864 00000000 		.word	.LANCHOR65
 14304              	.LVL2303:
 14305              	.L192:
 14306              		.loc 1 422 0 discriminator 325
 14307 5868 364B     		ldr	r3, .L317
 14308 586a 1A78     		ldrb	r2, [r3, #0]	@ zero_extendqisi2
 14309 586c 0132     		adds	r2, r2, #1
 14310 586e 1A70     		strb	r2, [r3, #0]
 14311              	.L191:
 14312              	.LBE956:
 14313              		.loc 1 422 0 discriminator 323
 14314 5870 354B     		ldr	r3, .L317+4
 14315 5872 1B88     		ldrh	r3, [r3, #0]
 14316 5874 242B     		cmp	r3, #36
 14317 5876 7BD1     		bne	.L193
 14318              	.LVL2304:
 14319              	.LBB966:
 14320              		.loc 1 422 0 discriminator 326
 14321 5878 344B     		ldr	r3, .L317+8
 14322 587a 3548     		ldr	r0, .L317+12
 14323 587c 93F89860 		ldrb	r6, [r3, #152]	@ zero_extendqisi2
 14324 5880 344B     		ldr	r3, .L317+16
 14325 5882 002E     		cmp	r6, #0
 14326 5884 0CBF     		ite	eq
 14327 5886 0226     		moveq	r6, #2
 14328 5888 0326     		movne	r6, #3
 14329              	.LVL2305:
 14330 588a 1B78     		ldrb	r3, [r3, #0]	@ zero_extendqisi2
 14331 588c 0921     		movs	r1, #9
 14332 588e 0A2B     		cmp	r3, #10
 14333 5890 88BF     		it	hi
 14334 5892 0526     		movhi	r6, #5
 14335              	.LVL2306:
 14336 5894 0023     		movs	r3, #0
 14337 5896 ADF81E30 		strh	r3, [sp, #30]	@ movhi
 14338              	.LVL2307:
 14339 589a FFF7FEFF 		bl	uart_check_free_space
 14340 589e 0028     		cmp	r0, #0
 14341 58a0 62D0     		beq	.L196
 14342              		.loc 1 422 0 discriminator 332
 14343 58a2 2D4B     		ldr	r3, .L317+20
 14344              	.LBB967:
 14345 58a4 9921     		movs	r1, #153
 14346              	.LBE967:
 14347 58a6 1A88     		ldrh	r2, [r3, #0]
 14348              	.LBB968:
 14349 58a8 2948     		ldr	r0, .L317+12
 14350              	.LBE968:
 14351 58aa 0932     		adds	r2, r2, #9
 14352 58ac 1A80     		strh	r2, [r3, #0]	@ movhi
 14353 58ae 2B4B     		ldr	r3, .L317+24
 14354 58b0 2B4D     		ldr	r5, .L317+28
 14355 58b2 1A88     		ldrh	r2, [r3, #0]
 14356 58b4 2B4C     		ldr	r4, .L317+32
 14357 58b6 0132     		adds	r2, r2, #1
 14358 58b8 1A80     		strh	r2, [r3, #0]	@ movhi
 14359              	.LBB969:
 14360 58ba FFF7FEFF 		bl	uart_transmit
 14361              	.LVL2308:
 14362 58be 0921     		movs	r1, #9
 14363 58c0 2348     		ldr	r0, .L317+12
 14364 58c2 FFF7FEFF 		bl	uart_transmit
 14365              	.LBE969:
 14366 58c6 0A23     		movs	r3, #10
 14367 58c8 2B70     		strb	r3, [r5, #0]
 14368 58ca 1323     		movs	r3, #19
 14369 58cc 2370     		strb	r3, [r4, #0]
 14370 58ce 0121     		movs	r1, #1
 14371 58d0 1F48     		ldr	r0, .L317+12
 14372 58d2 FFF7FEFF 		bl	uart_transmit
 14373 58d6 2B78     		ldrb	r3, [r5, #0]	@ zero_extendqisi2
 14374 58d8 2278     		ldrb	r2, [r4, #0]	@ zero_extendqisi2
 14375 58da 183B     		subs	r3, r3, #24
 14376 58dc DBB2     		uxtb	r3, r3
 14377 58de 2B70     		strb	r3, [r5, #0]
 14378 58e0 9B18     		adds	r3, r3, r2
 14379 58e2 2370     		strb	r3, [r4, #0]
 14380 58e4 E821     		movs	r1, #232
 14381 58e6 1A48     		ldr	r0, .L317+12
 14382 58e8 FFF7FEFF 		bl	uart_transmit
 14383              	.LVL2309:
 14384              	.LBB970:
 14385 58ec 2B78     		ldrb	r3, [r5, #0]	@ zero_extendqisi2
 14386 58ee 2278     		ldrb	r2, [r4, #0]	@ zero_extendqisi2
 14387 58f0 F318     		adds	r3, r6, r3
 14388 58f2 DBB2     		uxtb	r3, r3
 14389              	.LVL2310:
 14390 58f4 2B70     		strb	r3, [r5, #0]
 14391 58f6 9B18     		adds	r3, r3, r2
 14392              	.LVL2311:
 14393 58f8 2370     		strb	r3, [r4, #0]
 14394 58fa 3146     		mov	r1, r6
 14395 58fc 1448     		ldr	r0, .L317+12
 14396 58fe FFF7FEFF 		bl	uart_transmit
 14397              	.LBE970:
 14398              	.LBB971:
 14399 5902 9DF81E10 		ldrb	r1, [sp, #30]	@ zero_extendqisi2
 14400              	.LVL2312:
 14401 5906 2B78     		ldrb	r3, [r5, #0]	@ zero_extendqisi2
 14402 5908 2278     		ldrb	r2, [r4, #0]	@ zero_extendqisi2
 14403 590a CB18     		adds	r3, r1, r3
 14404 590c DBB2     		uxtb	r3, r3
 14405              	.LVL2313:
 14406 590e 2B70     		strb	r3, [r5, #0]
 14407 5910 9B18     		adds	r3, r3, r2
 14408              	.LVL2314:
 14409 5912 2370     		strb	r3, [r4, #0]
 14410 5914 0E48     		ldr	r0, .L317+12
 14411 5916 FFF7FEFF 		bl	uart_transmit
 14412              	.LVL2315:
 14413              	.LBE971:
 14414              	.LBB972:
 14415 591a 9DF81F10 		ldrb	r1, [sp, #31]	@ zero_extendqisi2
 14416              	.LVL2316:
 14417 591e 2B78     		ldrb	r3, [r5, #0]	@ zero_extendqisi2
 14418 5920 2278     		ldrb	r2, [r4, #0]	@ zero_extendqisi2
 14419 5922 CB18     		adds	r3, r1, r3
 14420 5924 DBB2     		uxtb	r3, r3
 14421              	.LVL2317:
 14422 5926 2B70     		strb	r3, [r5, #0]
 14423 5928 9B18     		adds	r3, r3, r2
 14424              	.LVL2318:
 14425 592a 2370     		strb	r3, [r4, #0]
 14426 592c 0848     		ldr	r0, .L317+12
 14427 592e FFF7FEFF 		bl	uart_transmit
 14428              	.LVL2319:
 14429              	.LBE972:
 14430 5932 2978     		ldrb	r1, [r5, #0]	@ zero_extendqisi2
 14431 5934 0648     		ldr	r0, .L317+12
 14432 5936 FFF7FEFF 		bl	uart_transmit
 14433 593a 0548     		ldr	r0, .L317+12
 14434 593c 2178     		ldrb	r1, [r4, #0]	@ zero_extendqisi2
 14435 593e FFF7FEFF 		bl	uart_transmit
 14436 5942 15E0     		b	.L193
 14437              	.L318:
 14438              		.align	2
 14439              	.L317:
 14440 5944 00000000 		.word	downlink_nb_ovrn
 14441 5948 00000000 		.word	.LANCHOR61
 14442 594c 00000000 		.word	ahrs
 14443 5950 00000000 		.word	uart2
 14444 5954 00000000 		.word	.LANCHOR33
 14445 5958 00000000 		.word	downlink_nb_bytes
 14446 595c 00000000 		.word	downlink_nb_msgs
 14447 5960 00000000 		.word	ck_a
 14448 5964 00000000 		.word	ck_b
 14449              	.LVL2320:
 14450              	.L196:
 14451              		.loc 1 422 0 discriminator 333
 14452 5968 774B     		ldr	r3, .L319
 14453 596a 1A78     		ldrb	r2, [r3, #0]	@ zero_extendqisi2
 14454 596c 0132     		adds	r2, r2, #1
 14455 596e 1A70     		strb	r2, [r3, #0]
 14456              	.LVL2321:
 14457              	.L193:
 14458              	.LBE966:
 14459              		.loc 1 422 0 discriminator 327
 14460 5970 764B     		ldr	r3, .L319+4
 14461 5972 1B88     		ldrh	r3, [r3, #0]
 14462 5974 2A2B     		cmp	r3, #42
 14463 5976 40F00981 		bne	.L197
 14464              	.LBB973:
 14465              		.loc 1 422 0 discriminator 334
 14466 597a 754B     		ldr	r3, .L319+8
 14467 597c 1A68     		ldr	r2, [r3, #0]
 14468 597e 0A23     		movs	r3, #10
 14469 5980 92FBF3F3 		sdiv	r3, r2, r3
 14470 5984 ADF81E30 		strh	r3, [sp, #30]	@ movhi
 14471              	.LVL2322:
 14472              	.LBB974:
 14473 5988 724B     		ldr	r3, .L319+12
 14474 598a 1868     		ldr	r0, [r3, #0]	@ float
 14475 598c FFF7FEFF 		bl	__aeabi_f2iz
 14476 5990 1421     		movs	r1, #20
 14477 5992 ADF81C00 		strh	r0, [sp, #28]	@ movhi
 14478              	.LVL2323:
 14479 5996 7048     		ldr	r0, .L319+16
 14480 5998 FFF7FEFF 		bl	uart_check_free_space
 14481 599c 0028     		cmp	r0, #0
 14482 599e 00F0F180 		beq	.L198
 14483              		.loc 1 422 0 discriminator 336
 14484 59a2 6E4B     		ldr	r3, .L319+20
 14485              	.LBB975:
 14486 59a4 9921     		movs	r1, #153
 14487              	.LBE975:
 14488 59a6 1A88     		ldrh	r2, [r3, #0]
 14489              	.LBB976:
 14490 59a8 6B48     		ldr	r0, .L319+16
 14491              	.LBE976:
 14492 59aa 1432     		adds	r2, r2, #20
 14493 59ac 1A80     		strh	r2, [r3, #0]	@ movhi
 14494 59ae 6C4B     		ldr	r3, .L319+24
 14495 59b0 6C4D     		ldr	r5, .L319+28
 14496 59b2 1A88     		ldrh	r2, [r3, #0]
 14497 59b4 6C4C     		ldr	r4, .L319+32
 14498 59b6 0132     		adds	r2, r2, #1
 14499 59b8 1A80     		strh	r2, [r3, #0]	@ movhi
 14500              	.LBB977:
 14501 59ba FFF7FEFF 		bl	uart_transmit
 14502              	.LVL2324:
 14503 59be 1421     		movs	r1, #20
 14504 59c0 6548     		ldr	r0, .L319+16
 14505 59c2 FFF7FEFF 		bl	uart_transmit
 14506              	.LBE977:
 14507 59c6 1523     		movs	r3, #21
 14508 59c8 2B70     		strb	r3, [r5, #0]
 14509 59ca 2923     		movs	r3, #41
 14510 59cc 2370     		strb	r3, [r4, #0]
 14511 59ce 0121     		movs	r1, #1
 14512 59d0 6148     		ldr	r0, .L319+16
 14513 59d2 FFF7FEFF 		bl	uart_transmit
 14514 59d6 2B78     		ldrb	r3, [r5, #0]	@ zero_extendqisi2
 14515 59d8 2278     		ldrb	r2, [r4, #0]	@ zero_extendqisi2
 14516 59da 0C33     		adds	r3, r3, #12
 14517 59dc DBB2     		uxtb	r3, r3
 14518 59de 2B70     		strb	r3, [r5, #0]
 14519              	.LBB978:
 14520 59e0 624E     		ldr	r6, .L319+36
 14521              	.LBE978:
 14522 59e2 9B18     		adds	r3, r3, r2
 14523 59e4 2370     		strb	r3, [r4, #0]
 14524 59e6 0C21     		movs	r1, #12
 14525 59e8 5B48     		ldr	r0, .L319+16
 14526 59ea FFF7FEFF 		bl	uart_transmit
 14527              	.LBB979:
 14528 59ee 3178     		ldrb	r1, [r6, #0]	@ zero_extendqisi2
 14529              	.LVL2325:
 14530 59f0 2B78     		ldrb	r3, [r5, #0]	@ zero_extendqisi2
 14531 59f2 2278     		ldrb	r2, [r4, #0]	@ zero_extendqisi2
 14532 59f4 CB18     		adds	r3, r1, r3
 14533 59f6 DBB2     		uxtb	r3, r3
 14534              	.LVL2326:
 14535 59f8 2B70     		strb	r3, [r5, #0]
 14536 59fa 9B18     		adds	r3, r3, r2
 14537              	.LVL2327:
 14538 59fc 2370     		strb	r3, [r4, #0]
 14539 59fe 5648     		ldr	r0, .L319+16
 14540 5a00 FFF7FEFF 		bl	uart_transmit
 14541              	.LVL2328:
 14542              	.LBE979:
 14543              	.LBB980:
 14544 5a04 7178     		ldrb	r1, [r6, #1]	@ zero_extendqisi2
 14545              	.LVL2329:
 14546 5a06 2B78     		ldrb	r3, [r5, #0]	@ zero_extendqisi2
 14547 5a08 2278     		ldrb	r2, [r4, #0]	@ zero_extendqisi2
 14548 5a0a CB18     		adds	r3, r1, r3
 14549 5a0c DBB2     		uxtb	r3, r3
 14550              	.LVL2330:
 14551 5a0e 2B70     		strb	r3, [r5, #0]
 14552 5a10 9B18     		adds	r3, r3, r2
 14553              	.LVL2331:
 14554 5a12 2370     		strb	r3, [r4, #0]
 14555 5a14 5048     		ldr	r0, .L319+16
 14556 5a16 FFF7FEFF 		bl	uart_transmit
 14557              	.LVL2332:
 14558              	.LBE980:
 14559              	.LBB981:
 14560 5a1a 554B     		ldr	r3, .L319+40
 14561 5a1c 2278     		ldrb	r2, [r4, #0]	@ zero_extendqisi2
 14562 5a1e 1978     		ldrb	r1, [r3, #0]	@ zero_extendqisi2
 14563              	.LVL2333:
 14564 5a20 2B78     		ldrb	r3, [r5, #0]	@ zero_extendqisi2
 14565 5a22 4D48     		ldr	r0, .L319+16
 14566 5a24 CB18     		adds	r3, r1, r3
 14567 5a26 DBB2     		uxtb	r3, r3
 14568              	.LVL2334:
 14569 5a28 2B70     		strb	r3, [r5, #0]
 14570 5a2a 9B18     		adds	r3, r3, r2
 14571              	.LVL2335:
 14572 5a2c 2370     		strb	r3, [r4, #0]
 14573 5a2e FFF7FEFF 		bl	uart_transmit
 14574              	.LVL2336:
 14575              	.LBE981:
 14576              	.LBB982:
 14577 5a32 9DF81E10 		ldrb	r1, [sp, #30]	@ zero_extendqisi2
 14578              	.LVL2337:
 14579 5a36 2B78     		ldrb	r3, [r5, #0]	@ zero_extendqisi2
 14580 5a38 2278     		ldrb	r2, [r4, #0]	@ zero_extendqisi2
 14581 5a3a CB18     		adds	r3, r1, r3
 14582 5a3c DBB2     		uxtb	r3, r3
 14583              	.LVL2338:
 14584 5a3e 2B70     		strb	r3, [r5, #0]
 14585 5a40 9B18     		adds	r3, r3, r2
 14586              	.LVL2339:
 14587 5a42 2370     		strb	r3, [r4, #0]
 14588 5a44 4448     		ldr	r0, .L319+16
 14589 5a46 FFF7FEFF 		bl	uart_transmit
 14590              	.LVL2340:
 14591              	.LBE982:
 14592              	.LBB983:
 14593 5a4a 9DF81F10 		ldrb	r1, [sp, #31]	@ zero_extendqisi2
 14594              	.LVL2341:
 14595 5a4e 2B78     		ldrb	r3, [r5, #0]	@ zero_extendqisi2
 14596 5a50 2278     		ldrb	r2, [r4, #0]	@ zero_extendqisi2
 14597 5a52 CB18     		adds	r3, r1, r3
 14598 5a54 DBB2     		uxtb	r3, r3
 14599              	.LVL2342:
 14600 5a56 2B70     		strb	r3, [r5, #0]
 14601              	.LBE983:
 14602              	.LBB984:
 14603 5a58 464E     		ldr	r6, .L319+44
 14604              	.LBE984:
 14605              	.LBB985:
 14606 5a5a 9B18     		adds	r3, r3, r2
 14607              	.LVL2343:
 14608 5a5c 2370     		strb	r3, [r4, #0]
 14609 5a5e 3E48     		ldr	r0, .L319+16
 14610 5a60 FFF7FEFF 		bl	uart_transmit
 14611              	.LVL2344:
 14612              	.LBE985:
 14613              	.LBB986:
 14614 5a64 3178     		ldrb	r1, [r6, #0]	@ zero_extendqisi2
 14615              	.LVL2345:
 14616 5a66 2B78     		ldrb	r3, [r5, #0]	@ zero_extendqisi2
 14617 5a68 2278     		ldrb	r2, [r4, #0]	@ zero_extendqisi2
 14618 5a6a CB18     		adds	r3, r1, r3
 14619 5a6c DBB2     		uxtb	r3, r3
 14620              	.LVL2346:
 14621 5a6e 2B70     		strb	r3, [r5, #0]
 14622 5a70 9B18     		adds	r3, r3, r2
 14623              	.LVL2347:
 14624 5a72 2370     		strb	r3, [r4, #0]
 14625 5a74 3848     		ldr	r0, .L319+16
 14626 5a76 FFF7FEFF 		bl	uart_transmit
 14627              	.LVL2348:
 14628              	.LBE986:
 14629              	.LBB987:
 14630 5a7a 7178     		ldrb	r1, [r6, #1]	@ zero_extendqisi2
 14631              	.LVL2349:
 14632 5a7c 2B78     		ldrb	r3, [r5, #0]	@ zero_extendqisi2
 14633 5a7e 2278     		ldrb	r2, [r4, #0]	@ zero_extendqisi2
 14634 5a80 CB18     		adds	r3, r1, r3
 14635 5a82 DBB2     		uxtb	r3, r3
 14636              	.LVL2350:
 14637 5a84 2B70     		strb	r3, [r5, #0]
 14638 5a86 9B18     		adds	r3, r3, r2
 14639              	.LVL2351:
 14640 5a88 2370     		strb	r3, [r4, #0]
 14641 5a8a 3348     		ldr	r0, .L319+16
 14642 5a8c FFF7FEFF 		bl	uart_transmit
 14643              	.LVL2352:
 14644              	.LBE987:
 14645              	.LBB988:
 14646 5a90 394B     		ldr	r3, .L319+48
 14647 5a92 2278     		ldrb	r2, [r4, #0]	@ zero_extendqisi2
 14648 5a94 1978     		ldrb	r1, [r3, #0]	@ zero_extendqisi2
 14649              	.LVL2353:
 14650 5a96 2B78     		ldrb	r3, [r5, #0]	@ zero_extendqisi2
 14651              	.LBE988:
 14652              	.LBB989:
 14653 5a98 384E     		ldr	r6, .L319+52
 14654              	.LBE989:
 14655              	.LBB990:
 14656 5a9a CB18     		adds	r3, r1, r3
 14657 5a9c DBB2     		uxtb	r3, r3
 14658              	.LVL2354:
 14659 5a9e 2B70     		strb	r3, [r5, #0]
 14660 5aa0 9B18     		adds	r3, r3, r2
 14661              	.LVL2355:
 14662 5aa2 2370     		strb	r3, [r4, #0]
 14663 5aa4 2C48     		ldr	r0, .L319+16
 14664 5aa6 FFF7FEFF 		bl	uart_transmit
 14665              	.LVL2356:
 14666              	.LBE990:
 14667              	.LBB991:
 14668 5aaa 3178     		ldrb	r1, [r6, #0]	@ zero_extendqisi2
 14669              	.LVL2357:
 14670 5aac 2B78     		ldrb	r3, [r5, #0]	@ zero_extendqisi2
 14671 5aae 2278     		ldrb	r2, [r4, #0]	@ zero_extendqisi2
 14672 5ab0 CB18     		adds	r3, r1, r3
 14673 5ab2 DBB2     		uxtb	r3, r3
 14674              	.LVL2358:
 14675 5ab4 2B70     		strb	r3, [r5, #0]
 14676 5ab6 9B18     		adds	r3, r3, r2
 14677              	.LVL2359:
 14678 5ab8 2370     		strb	r3, [r4, #0]
 14679 5aba 2748     		ldr	r0, .L319+16
 14680 5abc FFF7FEFF 		bl	uart_transmit
 14681              	.LVL2360:
 14682              	.LBE991:
 14683              	.LBB992:
 14684 5ac0 7178     		ldrb	r1, [r6, #1]	@ zero_extendqisi2
 14685              	.LVL2361:
 14686 5ac2 2B78     		ldrb	r3, [r5, #0]	@ zero_extendqisi2
 14687 5ac4 2278     		ldrb	r2, [r4, #0]	@ zero_extendqisi2
 14688 5ac6 CB18     		adds	r3, r1, r3
 14689 5ac8 DBB2     		uxtb	r3, r3
 14690              	.LVL2362:
 14691 5aca 2B70     		strb	r3, [r5, #0]
 14692              	.LBE992:
 14693              	.LBB993:
 14694 5acc 2C4E     		ldr	r6, .L319+56
 14695              	.LBE993:
 14696              	.LBB994:
 14697 5ace 9B18     		adds	r3, r3, r2
 14698              	.LVL2363:
 14699 5ad0 2370     		strb	r3, [r4, #0]
 14700 5ad2 2148     		ldr	r0, .L319+16
 14701 5ad4 FFF7FEFF 		bl	uart_transmit
 14702              	.LVL2364:
 14703              	.LBE994:
 14704              	.LBB995:
 14705 5ad8 3178     		ldrb	r1, [r6, #0]	@ zero_extendqisi2
 14706              	.LVL2365:
 14707 5ada 2B78     		ldrb	r3, [r5, #0]	@ zero_extendqisi2
 14708 5adc 2278     		ldrb	r2, [r4, #0]	@ zero_extendqisi2
 14709 5ade CB18     		adds	r3, r1, r3
 14710 5ae0 DBB2     		uxtb	r3, r3
 14711              	.LVL2366:
 14712 5ae2 2B70     		strb	r3, [r5, #0]
 14713 5ae4 9B18     		adds	r3, r3, r2
 14714              	.LVL2367:
 14715 5ae6 2370     		strb	r3, [r4, #0]
 14716 5ae8 1B48     		ldr	r0, .L319+16
 14717 5aea FFF7FEFF 		bl	uart_transmit
 14718              	.LVL2368:
 14719              	.LBE995:
 14720              	.LBB996:
 14721 5aee 7178     		ldrb	r1, [r6, #1]	@ zero_extendqisi2
 14722              	.LVL2369:
 14723 5af0 2B78     		ldrb	r3, [r5, #0]	@ zero_extendqisi2
 14724 5af2 2278     		ldrb	r2, [r4, #0]	@ zero_extendqisi2
 14725 5af4 CB18     		adds	r3, r1, r3
 14726 5af6 DBB2     		uxtb	r3, r3
 14727              	.LVL2370:
 14728 5af8 2B70     		strb	r3, [r5, #0]
 14729 5afa 9B18     		adds	r3, r3, r2
 14730              	.LVL2371:
 14731 5afc 2370     		strb	r3, [r4, #0]
 14732 5afe 1648     		ldr	r0, .L319+16
 14733 5b00 FFF7FEFF 		bl	uart_transmit
 14734              	.LVL2372:
 14735              	.LBE996:
 14736              	.LBB997:
 14737 5b04 9DF81C10 		ldrb	r1, [sp, #28]	@ zero_extendqisi2
 14738              	.LVL2373:
 14739 5b08 2B78     		ldrb	r3, [r5, #0]	@ zero_extendqisi2
 14740 5b0a 2278     		ldrb	r2, [r4, #0]	@ zero_extendqisi2
 14741 5b0c CB18     		adds	r3, r1, r3
 14742 5b0e DBB2     		uxtb	r3, r3
 14743              	.LVL2374:
 14744 5b10 2B70     		strb	r3, [r5, #0]
 14745 5b12 9B18     		adds	r3, r3, r2
 14746              	.LVL2375:
 14747 5b14 2370     		strb	r3, [r4, #0]
 14748 5b16 1048     		ldr	r0, .L319+16
 14749 5b18 FFF7FEFF 		bl	uart_transmit
 14750              	.LVL2376:
 14751              	.LBE997:
 14752              	.LBB998:
 14753 5b1c 9DF81D10 		ldrb	r1, [sp, #29]	@ zero_extendqisi2
 14754              	.LVL2377:
 14755 5b20 2B78     		ldrb	r3, [r5, #0]	@ zero_extendqisi2
 14756 5b22 2278     		ldrb	r2, [r4, #0]	@ zero_extendqisi2
 14757 5b24 CB18     		adds	r3, r1, r3
 14758 5b26 DBB2     		uxtb	r3, r3
 14759              	.LVL2378:
 14760 5b28 2B70     		strb	r3, [r5, #0]
 14761 5b2a 9B18     		adds	r3, r3, r2
 14762              	.LVL2379:
 14763 5b2c 2370     		strb	r3, [r4, #0]
 14764 5b2e 0A48     		ldr	r0, .L319+16
 14765 5b30 FFF7FEFF 		bl	uart_transmit
 14766              	.LVL2380:
 14767              	.LBE998:
 14768 5b34 2978     		ldrb	r1, [r5, #0]	@ zero_extendqisi2
 14769 5b36 0848     		ldr	r0, .L319+16
 14770 5b38 FFF7FEFF 		bl	uart_transmit
 14771 5b3c 0648     		ldr	r0, .L319+16
 14772 5b3e 2178     		ldrb	r1, [r4, #0]	@ zero_extendqisi2
 14773 5b40 FFF7FEFF 		bl	uart_transmit
 14774 5b44 22E0     		b	.L197
 14775              	.L320:
 14776 5b46 00BF     		.align	2
 14777              	.L319:
 14778 5b48 00000000 		.word	downlink_nb_ovrn
 14779 5b4c 00000000 		.word	.LANCHOR62
 14780 5b50 00000000 		.word	.LANCHOR24
 14781 5b54 00000000 		.word	.LANCHOR25
 14782 5b58 00000000 		.word	uart2
 14783 5b5c 00000000 		.word	downlink_nb_bytes
 14784 5b60 00000000 		.word	downlink_nb_msgs
 14785 5b64 00000000 		.word	ck_a
 14786 5b68 00000000 		.word	ck_b
 14787 5b6c 00000000 		.word	v_ctl_throttle_slewed
 14788 5b70 00000000 		.word	.LANCHOR26
 14789 5b74 00000000 		.word	estimator_flight_time
 14790 5b78 00000000 		.word	.LANCHOR27
 14791 5b7c 00000000 		.word	block_time
 14792 5b80 00000000 		.word	stage_time
 14793              	.LVL2381:
 14794              	.L198:
 14795              		.loc 1 422 0 discriminator 337
 14796 5b84 9C4B     		ldr	r3, .L321
 14797 5b86 1A78     		ldrb	r2, [r3, #0]	@ zero_extendqisi2
 14798 5b88 0132     		adds	r2, r2, #1
 14799 5b8a 1A70     		strb	r2, [r3, #0]
 14800              	.L197:
 14801              	.LBE974:
 14802              	.LBE973:
 14803              		.loc 1 422 0 discriminator 335
 14804 5b8c 9B4B     		ldr	r3, .L321+4
 14805 5b8e 1B88     		ldrh	r3, [r3, #0]
 14806 5b90 302B     		cmp	r3, #48
 14807 5b92 40F09181 		bne	.L4
 14808              		.loc 1 422 0 discriminator 338
 14809 5b96 9A48     		ldr	r0, .L321+8
 14810 5b98 2221     		movs	r1, #34
 14811 5b9a FFF7FEFF 		bl	uart_check_free_space
 14812 5b9e 0028     		cmp	r0, #0
 14813 5ba0 00F08681 		beq	.L199
 14814              		.loc 1 422 0 discriminator 339
 14815 5ba4 974B     		ldr	r3, .L321+12
 14816              	.LBB999:
 14817 5ba6 9921     		movs	r1, #153
 14818              	.LBE999:
 14819 5ba8 1A88     		ldrh	r2, [r3, #0]
 14820              	.LBB1000:
 14821 5baa 9548     		ldr	r0, .L321+8
 14822              	.LBE1000:
 14823 5bac 2232     		adds	r2, r2, #34
 14824 5bae 1A80     		strh	r2, [r3, #0]	@ movhi
 14825 5bb0 954B     		ldr	r3, .L321+16
 14826 5bb2 964D     		ldr	r5, .L321+20
 14827 5bb4 1A88     		ldrh	r2, [r3, #0]
 14828 5bb6 964C     		ldr	r4, .L321+24
 14829 5bb8 0132     		adds	r2, r2, #1
 14830 5bba 1A80     		strh	r2, [r3, #0]	@ movhi
 14831              	.LBB1001:
 14832 5bbc FFF7FEFF 		bl	uart_transmit
 14833              	.LVL2382:
 14834 5bc0 2221     		movs	r1, #34
 14835 5bc2 8F48     		ldr	r0, .L321+8
 14836 5bc4 FFF7FEFF 		bl	uart_transmit
 14837              	.LBE1001:
 14838 5bc8 2323     		movs	r3, #35
 14839 5bca 2B70     		strb	r3, [r5, #0]
 14840 5bcc 4523     		movs	r3, #69
 14841 5bce 2370     		strb	r3, [r4, #0]
 14842 5bd0 0121     		movs	r1, #1
 14843 5bd2 8B48     		ldr	r0, .L321+8
 14844 5bd4 FFF7FEFF 		bl	uart_transmit
 14845 5bd8 2B78     		ldrb	r3, [r5, #0]	@ zero_extendqisi2
 14846 5bda 2278     		ldrb	r2, [r4, #0]	@ zero_extendqisi2
 14847 5bdc 1033     		adds	r3, r3, #16
 14848 5bde DBB2     		uxtb	r3, r3
 14849              	.LBB1002:
 14850 5be0 8C4E     		ldr	r6, .L321+28
 14851              	.LBE1002:
 14852 5be2 2B70     		strb	r3, [r5, #0]
 14853 5be4 9B18     		adds	r3, r3, r2
 14854 5be6 2370     		strb	r3, [r4, #0]
 14855 5be8 1021     		movs	r1, #16
 14856 5bea 8548     		ldr	r0, .L321+8
 14857 5bec FFF7FEFF 		bl	uart_transmit
 14858              	.LBB1003:
 14859 5bf0 3178     		ldrb	r1, [r6, #0]	@ zero_extendqisi2
 14860              	.LVL2383:
 14861 5bf2 2B78     		ldrb	r3, [r5, #0]	@ zero_extendqisi2
 14862 5bf4 2278     		ldrb	r2, [r4, #0]	@ zero_extendqisi2
 14863 5bf6 CB18     		adds	r3, r1, r3
 14864 5bf8 DBB2     		uxtb	r3, r3
 14865              	.LVL2384:
 14866 5bfa 2B70     		strb	r3, [r5, #0]
 14867 5bfc 9B18     		adds	r3, r3, r2
 14868              	.LVL2385:
 14869 5bfe 2370     		strb	r3, [r4, #0]
 14870 5c00 7F48     		ldr	r0, .L321+8
 14871 5c02 FFF7FEFF 		bl	uart_transmit
 14872              	.LVL2386:
 14873              	.LBE1003:
 14874              	.LBB1004:
 14875 5c06 7178     		ldrb	r1, [r6, #1]	@ zero_extendqisi2
 14876              	.LVL2387:
 14877 5c08 2B78     		ldrb	r3, [r5, #0]	@ zero_extendqisi2
 14878 5c0a 2278     		ldrb	r2, [r4, #0]	@ zero_extendqisi2
 14879 5c0c CB18     		adds	r3, r1, r3
 14880 5c0e DBB2     		uxtb	r3, r3
 14881              	.LVL2388:
 14882 5c10 2B70     		strb	r3, [r5, #0]
 14883 5c12 9B18     		adds	r3, r3, r2
 14884              	.LVL2389:
 14885 5c14 2370     		strb	r3, [r4, #0]
 14886 5c16 7A48     		ldr	r0, .L321+8
 14887 5c18 FFF7FEFF 		bl	uart_transmit
 14888              	.LVL2390:
 14889              	.LBE1004:
 14890              	.LBB1005:
 14891 5c1c B178     		ldrb	r1, [r6, #2]	@ zero_extendqisi2
 14892              	.LVL2391:
 14893 5c1e 2B78     		ldrb	r3, [r5, #0]	@ zero_extendqisi2
 14894 5c20 2278     		ldrb	r2, [r4, #0]	@ zero_extendqisi2
 14895 5c22 CB18     		adds	r3, r1, r3
 14896 5c24 DBB2     		uxtb	r3, r3
 14897              	.LVL2392:
 14898 5c26 2B70     		strb	r3, [r5, #0]
 14899 5c28 9B18     		adds	r3, r3, r2
 14900              	.LVL2393:
 14901 5c2a 2370     		strb	r3, [r4, #0]
 14902 5c2c 7448     		ldr	r0, .L321+8
 14903 5c2e FFF7FEFF 		bl	uart_transmit
 14904              	.LVL2394:
 14905              	.LBE1005:
 14906              	.LBB1006:
 14907 5c32 F178     		ldrb	r1, [r6, #3]	@ zero_extendqisi2
 14908              	.LVL2395:
 14909 5c34 2B78     		ldrb	r3, [r5, #0]	@ zero_extendqisi2
 14910 5c36 2278     		ldrb	r2, [r4, #0]	@ zero_extendqisi2
 14911 5c38 CB18     		adds	r3, r1, r3
 14912 5c3a DBB2     		uxtb	r3, r3
 14913              	.LBE1006:
 14914              	.LBB1007:
 14915 5c3c 764E     		ldr	r6, .L321+32
 14916              	.LVL2396:
 14917              	.LBE1007:
 14918              	.LBB1008:
 14919 5c3e 2B70     		strb	r3, [r5, #0]
 14920 5c40 9B18     		adds	r3, r3, r2
 14921              	.LVL2397:
 14922 5c42 2370     		strb	r3, [r4, #0]
 14923 5c44 6E48     		ldr	r0, .L321+8
 14924 5c46 FFF7FEFF 		bl	uart_transmit
 14925              	.LVL2398:
 14926              	.LBE1008:
 14927              	.LBB1009:
 14928 5c4a 3178     		ldrb	r1, [r6, #0]	@ zero_extendqisi2
 14929              	.LVL2399:
 14930 5c4c 2B78     		ldrb	r3, [r5, #0]	@ zero_extendqisi2
 14931 5c4e 2278     		ldrb	r2, [r4, #0]	@ zero_extendqisi2
 14932 5c50 CB18     		adds	r3, r1, r3
 14933 5c52 DBB2     		uxtb	r3, r3
 14934              	.LVL2400:
 14935 5c54 2B70     		strb	r3, [r5, #0]
 14936 5c56 9B18     		adds	r3, r3, r2
 14937              	.LVL2401:
 14938 5c58 2370     		strb	r3, [r4, #0]
 14939 5c5a 6948     		ldr	r0, .L321+8
 14940 5c5c FFF7FEFF 		bl	uart_transmit
 14941              	.LVL2402:
 14942              	.LBE1009:
 14943              	.LBB1010:
 14944 5c60 7178     		ldrb	r1, [r6, #1]	@ zero_extendqisi2
 14945              	.LVL2403:
 14946 5c62 2B78     		ldrb	r3, [r5, #0]	@ zero_extendqisi2
 14947 5c64 2278     		ldrb	r2, [r4, #0]	@ zero_extendqisi2
 14948 5c66 CB18     		adds	r3, r1, r3
 14949 5c68 DBB2     		uxtb	r3, r3
 14950              	.LVL2404:
 14951 5c6a 2B70     		strb	r3, [r5, #0]
 14952 5c6c 9B18     		adds	r3, r3, r2
 14953              	.LVL2405:
 14954 5c6e 2370     		strb	r3, [r4, #0]
 14955 5c70 6348     		ldr	r0, .L321+8
 14956 5c72 FFF7FEFF 		bl	uart_transmit
 14957              	.LVL2406:
 14958              	.LBE1010:
 14959              	.LBB1011:
 14960 5c76 B178     		ldrb	r1, [r6, #2]	@ zero_extendqisi2
 14961              	.LVL2407:
 14962 5c78 2B78     		ldrb	r3, [r5, #0]	@ zero_extendqisi2
 14963 5c7a 2278     		ldrb	r2, [r4, #0]	@ zero_extendqisi2
 14964 5c7c CB18     		adds	r3, r1, r3
 14965 5c7e DBB2     		uxtb	r3, r3
 14966              	.LVL2408:
 14967 5c80 2B70     		strb	r3, [r5, #0]
 14968 5c82 9B18     		adds	r3, r3, r2
 14969              	.LVL2409:
 14970 5c84 2370     		strb	r3, [r4, #0]
 14971 5c86 5E48     		ldr	r0, .L321+8
 14972 5c88 FFF7FEFF 		bl	uart_transmit
 14973              	.LVL2410:
 14974              	.LBE1011:
 14975              	.LBB1012:
 14976 5c8c F178     		ldrb	r1, [r6, #3]	@ zero_extendqisi2
 14977              	.LVL2411:
 14978 5c8e 2B78     		ldrb	r3, [r5, #0]	@ zero_extendqisi2
 14979 5c90 2278     		ldrb	r2, [r4, #0]	@ zero_extendqisi2
 14980 5c92 CB18     		adds	r3, r1, r3
 14981 5c94 DBB2     		uxtb	r3, r3
 14982              	.LBE1012:
 14983              	.LBB1013:
 14984 5c96 614E     		ldr	r6, .L321+36
 14985              	.LVL2412:
 14986              	.LBE1013:
 14987              	.LBB1014:
 14988 5c98 2B70     		strb	r3, [r5, #0]
 14989 5c9a 9B18     		adds	r3, r3, r2
 14990              	.LVL2413:
 14991 5c9c 2370     		strb	r3, [r4, #0]
 14992 5c9e 5848     		ldr	r0, .L321+8
 14993 5ca0 FFF7FEFF 		bl	uart_transmit
 14994              	.LVL2414:
 14995              	.LBE1014:
 14996              	.LBB1015:
 14997 5ca4 3178     		ldrb	r1, [r6, #0]	@ zero_extendqisi2
 14998              	.LVL2415:
 14999 5ca6 2B78     		ldrb	r3, [r5, #0]	@ zero_extendqisi2
 15000 5ca8 2278     		ldrb	r2, [r4, #0]	@ zero_extendqisi2
 15001 5caa CB18     		adds	r3, r1, r3
 15002 5cac DBB2     		uxtb	r3, r3
 15003              	.LVL2416:
 15004 5cae 2B70     		strb	r3, [r5, #0]
 15005 5cb0 9B18     		adds	r3, r3, r2
 15006              	.LVL2417:
 15007 5cb2 2370     		strb	r3, [r4, #0]
 15008 5cb4 5248     		ldr	r0, .L321+8
 15009 5cb6 FFF7FEFF 		bl	uart_transmit
 15010              	.LVL2418:
 15011              	.LBE1015:
 15012              	.LBB1016:
 15013 5cba 7178     		ldrb	r1, [r6, #1]	@ zero_extendqisi2
 15014              	.LVL2419:
 15015 5cbc 2B78     		ldrb	r3, [r5, #0]	@ zero_extendqisi2
 15016 5cbe 2278     		ldrb	r2, [r4, #0]	@ zero_extendqisi2
 15017 5cc0 CB18     		adds	r3, r1, r3
 15018 5cc2 DBB2     		uxtb	r3, r3
 15019              	.LVL2420:
 15020 5cc4 2B70     		strb	r3, [r5, #0]
 15021 5cc6 9B18     		adds	r3, r3, r2
 15022              	.LVL2421:
 15023 5cc8 2370     		strb	r3, [r4, #0]
 15024 5cca 4D48     		ldr	r0, .L321+8
 15025 5ccc FFF7FEFF 		bl	uart_transmit
 15026              	.LVL2422:
 15027              	.LBE1016:
 15028              	.LBB1017:
 15029 5cd0 B178     		ldrb	r1, [r6, #2]	@ zero_extendqisi2
 15030              	.LVL2423:
 15031 5cd2 2B78     		ldrb	r3, [r5, #0]	@ zero_extendqisi2
 15032 5cd4 2278     		ldrb	r2, [r4, #0]	@ zero_extendqisi2
 15033 5cd6 CB18     		adds	r3, r1, r3
 15034 5cd8 DBB2     		uxtb	r3, r3
 15035              	.LVL2424:
 15036 5cda 2B70     		strb	r3, [r5, #0]
 15037 5cdc 9B18     		adds	r3, r3, r2
 15038              	.LVL2425:
 15039 5cde 2370     		strb	r3, [r4, #0]
 15040 5ce0 4748     		ldr	r0, .L321+8
 15041 5ce2 FFF7FEFF 		bl	uart_transmit
 15042              	.LVL2426:
 15043              	.LBE1017:
 15044              	.LBB1018:
 15045 5ce6 F178     		ldrb	r1, [r6, #3]	@ zero_extendqisi2
 15046              	.LVL2427:
 15047 5ce8 2B78     		ldrb	r3, [r5, #0]	@ zero_extendqisi2
 15048 5cea 2278     		ldrb	r2, [r4, #0]	@ zero_extendqisi2
 15049 5cec CB18     		adds	r3, r1, r3
 15050 5cee DBB2     		uxtb	r3, r3
 15051              	.LBE1018:
 15052              	.LBB1019:
 15053 5cf0 4B4E     		ldr	r6, .L321+40
 15054              	.LVL2428:
 15055              	.LBE1019:
 15056              	.LBB1020:
 15057 5cf2 2B70     		strb	r3, [r5, #0]
 15058 5cf4 9B18     		adds	r3, r3, r2
 15059              	.LVL2429:
 15060 5cf6 2370     		strb	r3, [r4, #0]
 15061 5cf8 4148     		ldr	r0, .L321+8
 15062 5cfa FFF7FEFF 		bl	uart_transmit
 15063              	.LVL2430:
 15064              	.LBE1020:
 15065              	.LBB1021:
 15066 5cfe 3178     		ldrb	r1, [r6, #0]	@ zero_extendqisi2
 15067              	.LVL2431:
 15068 5d00 2B78     		ldrb	r3, [r5, #0]	@ zero_extendqisi2
 15069 5d02 2278     		ldrb	r2, [r4, #0]	@ zero_extendqisi2
 15070 5d04 CB18     		adds	r3, r1, r3
 15071 5d06 DBB2     		uxtb	r3, r3
 15072              	.LVL2432:
 15073 5d08 2B70     		strb	r3, [r5, #0]
 15074 5d0a 9B18     		adds	r3, r3, r2
 15075              	.LVL2433:
 15076 5d0c 2370     		strb	r3, [r4, #0]
 15077 5d0e 3C48     		ldr	r0, .L321+8
 15078 5d10 FFF7FEFF 		bl	uart_transmit
 15079              	.LVL2434:
 15080              	.LBE1021:
 15081              	.LBB1022:
 15082 5d14 7178     		ldrb	r1, [r6, #1]	@ zero_extendqisi2
 15083              	.LVL2435:
 15084 5d16 2B78     		ldrb	r3, [r5, #0]	@ zero_extendqisi2
 15085 5d18 2278     		ldrb	r2, [r4, #0]	@ zero_extendqisi2
 15086 5d1a CB18     		adds	r3, r1, r3
 15087 5d1c DBB2     		uxtb	r3, r3
 15088              	.LVL2436:
 15089 5d1e 2B70     		strb	r3, [r5, #0]
 15090 5d20 9B18     		adds	r3, r3, r2
 15091              	.LVL2437:
 15092 5d22 2370     		strb	r3, [r4, #0]
 15093 5d24 3648     		ldr	r0, .L321+8
 15094 5d26 FFF7FEFF 		bl	uart_transmit
 15095              	.LVL2438:
 15096              	.LBE1022:
 15097              	.LBB1023:
 15098 5d2a B178     		ldrb	r1, [r6, #2]	@ zero_extendqisi2
 15099              	.LVL2439:
 15100 5d2c 2B78     		ldrb	r3, [r5, #0]	@ zero_extendqisi2
 15101 5d2e 2278     		ldrb	r2, [r4, #0]	@ zero_extendqisi2
 15102 5d30 CB18     		adds	r3, r1, r3
 15103 5d32 DBB2     		uxtb	r3, r3
 15104              	.LVL2440:
 15105 5d34 2B70     		strb	r3, [r5, #0]
 15106 5d36 9B18     		adds	r3, r3, r2
 15107              	.LVL2441:
 15108 5d38 2370     		strb	r3, [r4, #0]
 15109 5d3a 3148     		ldr	r0, .L321+8
 15110 5d3c FFF7FEFF 		bl	uart_transmit
 15111              	.LVL2442:
 15112              	.LBE1023:
 15113              	.LBB1024:
 15114 5d40 F178     		ldrb	r1, [r6, #3]	@ zero_extendqisi2
 15115              	.LVL2443:
 15116 5d42 2B78     		ldrb	r3, [r5, #0]	@ zero_extendqisi2
 15117 5d44 2278     		ldrb	r2, [r4, #0]	@ zero_extendqisi2
 15118 5d46 CB18     		adds	r3, r1, r3
 15119 5d48 DBB2     		uxtb	r3, r3
 15120              	.LBE1024:
 15121              	.LBB1025:
 15122 5d4a 364E     		ldr	r6, .L321+44
 15123              	.LVL2444:
 15124              	.LBE1025:
 15125              	.LBB1026:
 15126 5d4c 2B70     		strb	r3, [r5, #0]
 15127 5d4e 9B18     		adds	r3, r3, r2
 15128              	.LVL2445:
 15129 5d50 2370     		strb	r3, [r4, #0]
 15130 5d52 2B48     		ldr	r0, .L321+8
 15131 5d54 FFF7FEFF 		bl	uart_transmit
 15132              	.LVL2446:
 15133              	.LBE1026:
 15134              	.LBB1027:
 15135 5d58 3178     		ldrb	r1, [r6, #0]	@ zero_extendqisi2
 15136              	.LVL2447:
 15137 5d5a 2B78     		ldrb	r3, [r5, #0]	@ zero_extendqisi2
 15138 5d5c 2278     		ldrb	r2, [r4, #0]	@ zero_extendqisi2
 15139 5d5e CB18     		adds	r3, r1, r3
 15140 5d60 DBB2     		uxtb	r3, r3
 15141              	.LVL2448:
 15142 5d62 2B70     		strb	r3, [r5, #0]
 15143 5d64 9B18     		adds	r3, r3, r2
 15144              	.LVL2449:
 15145 5d66 2370     		strb	r3, [r4, #0]
 15146 5d68 2548     		ldr	r0, .L321+8
 15147 5d6a FFF7FEFF 		bl	uart_transmit
 15148              	.LVL2450:
 15149              	.LBE1027:
 15150              	.LBB1028:
 15151 5d6e 7178     		ldrb	r1, [r6, #1]	@ zero_extendqisi2
 15152              	.LVL2451:
 15153 5d70 2B78     		ldrb	r3, [r5, #0]	@ zero_extendqisi2
 15154 5d72 2278     		ldrb	r2, [r4, #0]	@ zero_extendqisi2
 15155 5d74 CB18     		adds	r3, r1, r3
 15156 5d76 DBB2     		uxtb	r3, r3
 15157              	.LVL2452:
 15158 5d78 2B70     		strb	r3, [r5, #0]
 15159 5d7a 9B18     		adds	r3, r3, r2
 15160              	.LVL2453:
 15161 5d7c 2370     		strb	r3, [r4, #0]
 15162 5d7e 2048     		ldr	r0, .L321+8
 15163 5d80 FFF7FEFF 		bl	uart_transmit
 15164              	.LVL2454:
 15165              	.LBE1028:
 15166              	.LBB1029:
 15167 5d84 B178     		ldrb	r1, [r6, #2]	@ zero_extendqisi2
 15168              	.LVL2455:
 15169 5d86 2B78     		ldrb	r3, [r5, #0]	@ zero_extendqisi2
 15170 5d88 2278     		ldrb	r2, [r4, #0]	@ zero_extendqisi2
 15171 5d8a CB18     		adds	r3, r1, r3
 15172 5d8c DBB2     		uxtb	r3, r3
 15173              	.LVL2456:
 15174 5d8e 2B70     		strb	r3, [r5, #0]
 15175 5d90 9B18     		adds	r3, r3, r2
 15176              	.LVL2457:
 15177 5d92 2370     		strb	r3, [r4, #0]
 15178 5d94 1A48     		ldr	r0, .L321+8
 15179 5d96 FFF7FEFF 		bl	uart_transmit
 15180              	.LVL2458:
 15181              	.LBE1029:
 15182              	.LBB1030:
 15183 5d9a F178     		ldrb	r1, [r6, #3]	@ zero_extendqisi2
 15184              	.LVL2459:
 15185 5d9c 2B78     		ldrb	r3, [r5, #0]	@ zero_extendqisi2
 15186 5d9e 2278     		ldrb	r2, [r4, #0]	@ zero_extendqisi2
 15187 5da0 CB18     		adds	r3, r1, r3
 15188 5da2 DBB2     		uxtb	r3, r3
 15189              	.LBE1030:
 15190              	.LBB1031:
 15191 5da4 204E     		ldr	r6, .L321+48
 15192              	.LVL2460:
 15193              	.LBE1031:
 15194              	.LBB1032:
 15195 5da6 2B70     		strb	r3, [r5, #0]
 15196 5da8 9B18     		adds	r3, r3, r2
 15197              	.LVL2461:
 15198 5daa 2370     		strb	r3, [r4, #0]
 15199 5dac 1448     		ldr	r0, .L321+8
 15200 5dae FFF7FEFF 		bl	uart_transmit
 15201              	.LVL2462:
 15202              	.LBE1032:
 15203              	.LBB1033:
 15204 5db2 3178     		ldrb	r1, [r6, #0]	@ zero_extendqisi2
 15205              	.LVL2463:
 15206 5db4 2B78     		ldrb	r3, [r5, #0]	@ zero_extendqisi2
 15207 5db6 2278     		ldrb	r2, [r4, #0]	@ zero_extendqisi2
 15208 5db8 CB18     		adds	r3, r1, r3
 15209 5dba DBB2     		uxtb	r3, r3
 15210              	.LVL2464:
 15211 5dbc 2B70     		strb	r3, [r5, #0]
 15212 5dbe 9B18     		adds	r3, r3, r2
 15213              	.LVL2465:
 15214 5dc0 2370     		strb	r3, [r4, #0]
 15215 5dc2 0F48     		ldr	r0, .L321+8
 15216 5dc4 FFF7FEFF 		bl	uart_transmit
 15217              	.LVL2466:
 15218              	.LBE1033:
 15219              	.LBB1034:
 15220 5dc8 7178     		ldrb	r1, [r6, #1]	@ zero_extendqisi2
 15221              	.LVL2467:
 15222 5dca 2B78     		ldrb	r3, [r5, #0]	@ zero_extendqisi2
 15223 5dcc 2278     		ldrb	r2, [r4, #0]	@ zero_extendqisi2
 15224 5dce CB18     		adds	r3, r1, r3
 15225 5dd0 DBB2     		uxtb	r3, r3
 15226              	.LVL2468:
 15227 5dd2 2B70     		strb	r3, [r5, #0]
 15228 5dd4 9B18     		adds	r3, r3, r2
 15229              	.LVL2469:
 15230 5dd6 2370     		strb	r3, [r4, #0]
 15231 5dd8 0948     		ldr	r0, .L321+8
 15232 5dda FFF7FEFF 		bl	uart_transmit
 15233              	.LVL2470:
 15234              	.LBE1034:
 15235              	.LBB1035:
 15236 5dde B178     		ldrb	r1, [r6, #2]	@ zero_extendqisi2
 15237              	.LVL2471:
 15238 5de0 2B78     		ldrb	r3, [r5, #0]	@ zero_extendqisi2
 15239 5de2 2278     		ldrb	r2, [r4, #0]	@ zero_extendqisi2
 15240 5de4 CB18     		adds	r3, r1, r3
 15241 5de6 DBB2     		uxtb	r3, r3
 15242              	.LVL2472:
 15243 5de8 2B70     		strb	r3, [r5, #0]
 15244 5dea 9B18     		adds	r3, r3, r2
 15245              	.LVL2473:
 15246 5dec 2370     		strb	r3, [r4, #0]
 15247 5dee 0448     		ldr	r0, .L321+8
 15248 5df0 FFF7FEFF 		bl	uart_transmit
 15249              	.LVL2474:
 15250              	.LBE1035:
 15251              	.LBB1036:
 15252 5df4 F178     		ldrb	r1, [r6, #3]	@ zero_extendqisi2
 15253 5df6 19E0     		b	.L322
 15254              	.L323:
 15255              		.align	2
 15256              	.L321:
 15257 5df8 00000000 		.word	downlink_nb_ovrn
 15258 5dfc 00000000 		.word	.LANCHOR63
 15259 5e00 00000000 		.word	uart2
 15260 5e04 00000000 		.word	downlink_nb_bytes
 15261 5e08 00000000 		.word	downlink_nb_msgs
 15262 5e0c 00000000 		.word	ck_a
 15263 5e10 00000000 		.word	ck_b
 15264 5e14 00000000 		.word	h_ctl_roll_setpoint
 15265 5e18 00000000 		.word	h_ctl_pitch_loop_setpoint
 15266 5e1c 00000000 		.word	h_ctl_course_setpoint
 15267 5e20 00000000 		.word	desired_x
 15268 5e24 00000000 		.word	desired_y
 15269 5e28 00000000 		.word	v_ctl_altitude_setpoint
 15270              	.L322:
 15271              	.LVL2475:
 15272 5e2c 2B78     		ldrb	r3, [r5, #0]	@ zero_extendqisi2
 15273 5e2e 2278     		ldrb	r2, [r4, #0]	@ zero_extendqisi2
 15274 5e30 CB18     		adds	r3, r1, r3
 15275 5e32 DBB2     		uxtb	r3, r3
 15276              	.LBE1036:
 15277              	.LBB1037:
 15278 5e34 224E     		ldr	r6, .L324
 15279              	.LVL2476:
 15280              	.LBE1037:
 15281              	.LBB1038:
 15282 5e36 2B70     		strb	r3, [r5, #0]
 15283 5e38 9B18     		adds	r3, r3, r2
 15284              	.LVL2477:
 15285 5e3a 2370     		strb	r3, [r4, #0]
 15286 5e3c 2148     		ldr	r0, .L324+4
 15287 5e3e FFF7FEFF 		bl	uart_transmit
 15288              	.LVL2478:
 15289              	.LBE1038:
 15290              	.LBB1039:
 15291 5e42 3178     		ldrb	r1, [r6, #0]	@ zero_extendqisi2
 15292              	.LVL2479:
 15293 5e44 2B78     		ldrb	r3, [r5, #0]	@ zero_extendqisi2
 15294 5e46 2278     		ldrb	r2, [r4, #0]	@ zero_extendqisi2
 15295 5e48 CB18     		adds	r3, r1, r3
 15296 5e4a DBB2     		uxtb	r3, r3
 15297              	.LVL2480:
 15298 5e4c 2B70     		strb	r3, [r5, #0]
 15299 5e4e 9B18     		adds	r3, r3, r2
 15300              	.LVL2481:
 15301 5e50 2370     		strb	r3, [r4, #0]
 15302 5e52 1C48     		ldr	r0, .L324+4
 15303 5e54 FFF7FEFF 		bl	uart_transmit
 15304              	.LVL2482:
 15305              	.LBE1039:
 15306              	.LBB1040:
 15307 5e58 7178     		ldrb	r1, [r6, #1]	@ zero_extendqisi2
 15308              	.LVL2483:
 15309 5e5a 2B78     		ldrb	r3, [r5, #0]	@ zero_extendqisi2
 15310 5e5c 2278     		ldrb	r2, [r4, #0]	@ zero_extendqisi2
 15311 5e5e CB18     		adds	r3, r1, r3
 15312 5e60 DBB2     		uxtb	r3, r3
 15313              	.LVL2484:
 15314 5e62 2B70     		strb	r3, [r5, #0]
 15315 5e64 9B18     		adds	r3, r3, r2
 15316              	.LVL2485:
 15317 5e66 2370     		strb	r3, [r4, #0]
 15318 5e68 1648     		ldr	r0, .L324+4
 15319 5e6a FFF7FEFF 		bl	uart_transmit
 15320              	.LVL2486:
 15321              	.LBE1040:
 15322              	.LBB1041:
 15323 5e6e B178     		ldrb	r1, [r6, #2]	@ zero_extendqisi2
 15324              	.LVL2487:
 15325 5e70 2B78     		ldrb	r3, [r5, #0]	@ zero_extendqisi2
 15326 5e72 2278     		ldrb	r2, [r4, #0]	@ zero_extendqisi2
 15327 5e74 CB18     		adds	r3, r1, r3
 15328 5e76 DBB2     		uxtb	r3, r3
 15329              	.LVL2488:
 15330 5e78 2B70     		strb	r3, [r5, #0]
 15331 5e7a 9B18     		adds	r3, r3, r2
 15332              	.LVL2489:
 15333 5e7c 2370     		strb	r3, [r4, #0]
 15334 5e7e 1148     		ldr	r0, .L324+4
 15335 5e80 FFF7FEFF 		bl	uart_transmit
 15336              	.LVL2490:
 15337              	.LBE1041:
 15338              	.LBB1042:
 15339 5e84 F178     		ldrb	r1, [r6, #3]	@ zero_extendqisi2
 15340              	.LVL2491:
 15341 5e86 2B78     		ldrb	r3, [r5, #0]	@ zero_extendqisi2
 15342 5e88 2278     		ldrb	r2, [r4, #0]	@ zero_extendqisi2
 15343 5e8a CB18     		adds	r3, r1, r3
 15344 5e8c DBB2     		uxtb	r3, r3
 15345              	.LVL2492:
 15346 5e8e 2B70     		strb	r3, [r5, #0]
 15347 5e90 9B18     		adds	r3, r3, r2
 15348              	.LVL2493:
 15349 5e92 2370     		strb	r3, [r4, #0]
 15350 5e94 0B48     		ldr	r0, .L324+4
 15351 5e96 FFF7FEFF 		bl	uart_transmit
 15352              	.LVL2494:
 15353              	.LBE1042:
 15354 5e9a 2978     		ldrb	r1, [r5, #0]	@ zero_extendqisi2
 15355 5e9c 0948     		ldr	r0, .L324+4
 15356 5e9e FFF7FEFF 		bl	uart_transmit
 15357 5ea2 0848     		ldr	r0, .L324+4
 15358 5ea4 2178     		ldrb	r1, [r4, #0]	@ zero_extendqisi2
 15359              	.LBE851:
 423:firmwares/fixedwing/main_ap.c ****   }
 424:firmwares/fixedwing/main_ap.c **** }
 15360              		.loc 1 424 0 is_stmt 1 discriminator 339
 15361 5ea6 08B0     		add	sp, sp, #32
 15362 5ea8 BDE8F041 		pop	{r4, r5, r6, r7, r8, lr}
 15363              	.LBB1043:
 422:firmwares/fixedwing/main_ap.c ****     PeriodicSendAp(DefaultChannel, DefaultDevice);
 15364              		.loc 1 422 0 discriminator 339
 15365 5eac FFF7FEBF 		b	uart_transmit
 15366              	.LVL2495:
 15367              	.L199:
 422:firmwares/fixedwing/main_ap.c ****     PeriodicSendAp(DefaultChannel, DefaultDevice);
 15368              		.loc 1 422 0 is_stmt 0 discriminator 340
 15369 5eb0 054B     		ldr	r3, .L324+8
 15370 5eb2 1A78     		ldrb	r2, [r3, #0]	@ zero_extendqisi2
 15371 5eb4 0132     		adds	r2, r2, #1
 15372              	.L223:
 15373 5eb6 1A70     		strb	r2, [r3, #0]
 15374              	.L4:
 15375              	.LBE1043:
 15376              		.loc 1 424 0 is_stmt 1
 15377 5eb8 08B0     		add	sp, sp, #32
 15378 5eba BDE8F081 		pop	{r4, r5, r6, r7, r8, pc}
 15379              	.L325:
 15380 5ebe 00BF     		.align	2
 15381              	.L324:
 15382 5ec0 00000000 		.word	v_ctl_climb_setpoint
 15383 5ec4 00000000 		.word	uart2
 15384 5ec8 00000000 		.word	downlink_nb_ovrn
 15385              		.cfi_endproc
 15386              	.LFE54:
 15388              		.global	__aeabi_dcmpgt
 15389              		.global	__aeabi_dcmplt
 15390 5ecc AFF30080 		.section	.text.navigation_task,"ax",%progbits
 15391              		.align	1
 15392              		.global	navigation_task
 15393              		.thumb
 15394              		.thumb_func
 15396              	navigation_task:
 15397              	.LFB55:
 425:firmwares/fixedwing/main_ap.c **** 
 426:firmwares/fixedwing/main_ap.c **** 
 427:firmwares/fixedwing/main_ap.c **** #ifdef FAILSAFE_DELAY_WITHOUT_GPS
 428:firmwares/fixedwing/main_ap.c **** #define GpsTimeoutError (sys_time.nb_sec - gps.last_fix_time > FAILSAFE_DELAY_WITHOUT_GPS)
 429:firmwares/fixedwing/main_ap.c **** #endif
 430:firmwares/fixedwing/main_ap.c **** 
 431:firmwares/fixedwing/main_ap.c **** /**
 432:firmwares/fixedwing/main_ap.c ****  *  Compute desired_course
 433:firmwares/fixedwing/main_ap.c ****  */
 434:firmwares/fixedwing/main_ap.c **** void navigation_task( void ) {
 15398              		.loc 1 434 0
 15399              		.cfi_startproc
 15400              		@ args = 0, pretend = 0, frame = 0
 15401              		@ frame_needed = 0, uses_anonymous_args = 0
 15402 0000 F8B5     		push	{r3, r4, r5, r6, r7, lr}
 15403              	.LCFI3:
 15404              		.cfi_def_cfa_offset 24
 15405              		.cfi_offset 14, -4
 15406              		.cfi_offset 7, -8
 15407              		.cfi_offset 6, -12
 15408              		.cfi_offset 5, -16
 15409              		.cfi_offset 4, -20
 15410              		.cfi_offset 3, -24
 435:firmwares/fixedwing/main_ap.c **** #if defined FAILSAFE_DELAY_WITHOUT_GPS
 436:firmwares/fixedwing/main_ap.c ****   /** This section is used for the failsafe of GPS */
 437:firmwares/fixedwing/main_ap.c ****   static uint8_t last_pprz_mode;
 438:firmwares/fixedwing/main_ap.c **** 
 439:firmwares/fixedwing/main_ap.c ****   /** If aircraft is launched and is in autonomus mode, go into
 440:firmwares/fixedwing/main_ap.c ****       PPRZ_MODE_GPS_OUT_OF_ORDER mode (Failsafe) if we lost the GPS */
 441:firmwares/fixedwing/main_ap.c ****   if (launch) {
 15411              		.loc 1 441 0
 15412 0002 944B     		ldr	r3, .L355
 15413 0004 1B78     		ldrb	r3, [r3, #0]	@ zero_extendqisi2
 15414 0006 002B     		cmp	r3, #0
 15415 0008 00F01581 		beq	.L327
 442:firmwares/fixedwing/main_ap.c ****     if (GpsTimeoutError) {
 15416              		.loc 1 442 0
 15417 000c 924B     		ldr	r3, .L355+4
 15418 000e 934E     		ldr	r6, .L355+8
 15419 0010 1A68     		ldr	r2, [r3, #0]
 15420 0012 934B     		ldr	r3, .L355+12
 15421 0014 D3F8EC30 		ldr	r3, [r3, #236]
 15422 0018 D31A     		subs	r3, r2, r3
 15423 001a 032B     		cmp	r3, #3
 15424 001c 40F28780 		bls	.L328
 443:firmwares/fixedwing/main_ap.c ****       if (pprz_mode == PPRZ_MODE_AUTO2 || pprz_mode == PPRZ_MODE_HOME) {
 15425              		.loc 1 443 0
 15426 0020 3378     		ldrb	r3, [r6, #0]	@ zero_extendqisi2
 15427 0022 9A1E     		subs	r2, r3, #2
 15428 0024 012A     		cmp	r2, #1
 15429 0026 00F20681 		bhi	.L327
 444:firmwares/fixedwing/main_ap.c ****         last_pprz_mode = pprz_mode;
 15430              		.loc 1 444 0
 15431 002a 8E4A     		ldr	r2, .L355+16
 15432              	.LBB1044:
 445:firmwares/fixedwing/main_ap.c ****         pprz_mode = PPRZ_MODE_GPS_OUT_OF_ORDER;
 446:firmwares/fixedwing/main_ap.c ****         PERIODIC_SEND_PPRZ_MODE(DefaultChannel, DefaultDevice);
 15433              		.loc 1 446 0
 15434 002c 8E48     		ldr	r0, .L355+20
 15435              	.LBE1044:
 444:firmwares/fixedwing/main_ap.c ****         last_pprz_mode = pprz_mode;
 15436              		.loc 1 444 0
 15437 002e 1370     		strb	r3, [r2, #0]
 445:firmwares/fixedwing/main_ap.c ****         pprz_mode = PPRZ_MODE_GPS_OUT_OF_ORDER;
 15438              		.loc 1 445 0
 15439 0030 0423     		movs	r3, #4
 15440 0032 3370     		strb	r3, [r6, #0]
 15441              	.LVL2496:
 15442              	.LBB1054:
 15443              		.loc 1 446 0
 15444 0034 0C21     		movs	r1, #12
 15445 0036 FFF7FEFF 		bl	uart_check_free_space
 15446 003a 0028     		cmp	r0, #0
 15447 003c 70D0     		beq	.L329
 15448              		.loc 1 446 0 is_stmt 0 discriminator 1
 15449 003e 8B4B     		ldr	r3, .L355+24
 15450              	.LBB1045:
 15451 0040 9921     		movs	r1, #153
 15452              	.LBE1045:
 15453 0042 1A88     		ldrh	r2, [r3, #0]
 15454              	.LBB1046:
 15455 0044 8848     		ldr	r0, .L355+20
 15456              	.LBE1046:
 15457 0046 0C32     		adds	r2, r2, #12
 15458 0048 1A80     		strh	r2, [r3, #0]	@ movhi
 15459 004a 894B     		ldr	r3, .L355+28
 15460 004c 894D     		ldr	r5, .L355+32
 15461 004e 1A88     		ldrh	r2, [r3, #0]
 15462 0050 894C     		ldr	r4, .L355+36
 15463 0052 0132     		adds	r2, r2, #1
 15464 0054 1A80     		strh	r2, [r3, #0]	@ movhi
 15465              	.LBB1047:
 15466 0056 FFF7FEFF 		bl	uart_transmit
 15467              	.LVL2497:
 15468 005a 0C21     		movs	r1, #12
 15469 005c 8248     		ldr	r0, .L355+20
 15470 005e FFF7FEFF 		bl	uart_transmit
 15471              	.LBE1047:
 15472 0062 0D23     		movs	r3, #13
 15473 0064 2B70     		strb	r3, [r5, #0]
 15474 0066 1923     		movs	r3, #25
 15475 0068 2370     		strb	r3, [r4, #0]
 15476 006a 0121     		movs	r1, #1
 15477 006c 7E48     		ldr	r0, .L355+20
 15478 006e FFF7FEFF 		bl	uart_transmit
 15479 0072 2B78     		ldrb	r3, [r5, #0]	@ zero_extendqisi2
 15480 0074 2278     		ldrb	r2, [r4, #0]	@ zero_extendqisi2
 15481 0076 0B33     		adds	r3, r3, #11
 15482 0078 DBB2     		uxtb	r3, r3
 15483 007a 2B70     		strb	r3, [r5, #0]
 15484 007c 9B18     		adds	r3, r3, r2
 15485 007e 2370     		strb	r3, [r4, #0]
 15486 0080 0B21     		movs	r1, #11
 15487 0082 7948     		ldr	r0, .L355+20
 15488 0084 FFF7FEFF 		bl	uart_transmit
 15489              	.LBB1048:
 15490 0088 3178     		ldrb	r1, [r6, #0]	@ zero_extendqisi2
 15491              	.LVL2498:
 15492 008a 2B78     		ldrb	r3, [r5, #0]	@ zero_extendqisi2
 15493 008c 2278     		ldrb	r2, [r4, #0]	@ zero_extendqisi2
 15494 008e CB18     		adds	r3, r1, r3
 15495 0090 DBB2     		uxtb	r3, r3
 15496              	.LVL2499:
 15497 0092 2B70     		strb	r3, [r5, #0]
 15498 0094 9B18     		adds	r3, r3, r2
 15499              	.LVL2500:
 15500 0096 2370     		strb	r3, [r4, #0]
 15501 0098 7348     		ldr	r0, .L355+20
 15502 009a FFF7FEFF 		bl	uart_transmit
 15503              	.LVL2501:
 15504              	.LBE1048:
 15505              	.LBB1049:
 15506 009e 774B     		ldr	r3, .L355+40
 15507 00a0 2278     		ldrb	r2, [r4, #0]	@ zero_extendqisi2
 15508 00a2 1978     		ldrb	r1, [r3, #0]	@ zero_extendqisi2
 15509              	.LVL2502:
 15510 00a4 2B78     		ldrb	r3, [r5, #0]	@ zero_extendqisi2
 15511 00a6 7048     		ldr	r0, .L355+20
 15512 00a8 CB18     		adds	r3, r1, r3
 15513 00aa DBB2     		uxtb	r3, r3
 15514              	.LVL2503:
 15515 00ac 2B70     		strb	r3, [r5, #0]
 15516 00ae 9B18     		adds	r3, r3, r2
 15517              	.LVL2504:
 15518 00b0 2370     		strb	r3, [r4, #0]
 15519 00b2 FFF7FEFF 		bl	uart_transmit
 15520              	.LVL2505:
 15521              	.LBE1049:
 15522              	.LBB1050:
 15523 00b6 724B     		ldr	r3, .L355+44
 15524 00b8 2278     		ldrb	r2, [r4, #0]	@ zero_extendqisi2
 15525 00ba 1978     		ldrb	r1, [r3, #0]	@ zero_extendqisi2
 15526              	.LVL2506:
 15527 00bc 2B78     		ldrb	r3, [r5, #0]	@ zero_extendqisi2
 15528 00be 6A48     		ldr	r0, .L355+20
 15529 00c0 CB18     		adds	r3, r1, r3
 15530 00c2 DBB2     		uxtb	r3, r3
 15531              	.LVL2507:
 15532 00c4 2B70     		strb	r3, [r5, #0]
 15533 00c6 9B18     		adds	r3, r3, r2
 15534              	.LVL2508:
 15535 00c8 2370     		strb	r3, [r4, #0]
 15536 00ca FFF7FEFF 		bl	uart_transmit
 15537              	.LVL2509:
 15538              	.LBE1050:
 15539              	.LBB1051:
 15540 00ce 6D4B     		ldr	r3, .L355+48
 15541 00d0 2278     		ldrb	r2, [r4, #0]	@ zero_extendqisi2
 15542 00d2 1978     		ldrb	r1, [r3, #0]	@ zero_extendqisi2
 15543              	.LVL2510:
 15544 00d4 2B78     		ldrb	r3, [r5, #0]	@ zero_extendqisi2
 15545 00d6 6448     		ldr	r0, .L355+20
 15546 00d8 CB18     		adds	r3, r1, r3
 15547 00da DBB2     		uxtb	r3, r3
 15548              	.LVL2511:
 15549 00dc 2B70     		strb	r3, [r5, #0]
 15550 00de 9B18     		adds	r3, r3, r2
 15551              	.LVL2512:
 15552 00e0 2370     		strb	r3, [r4, #0]
 15553 00e2 FFF7FEFF 		bl	uart_transmit
 15554              	.LVL2513:
 15555              	.LBE1051:
 15556              	.LBB1052:
 15557 00e6 2278     		ldrb	r2, [r4, #0]	@ zero_extendqisi2
 15558 00e8 2B78     		ldrb	r3, [r5, #0]	@ zero_extendqisi2
 15559 00ea 0021     		movs	r1, #0
 15560 00ec D318     		adds	r3, r2, r3
 15561 00ee 2370     		strb	r3, [r4, #0]
 15562 00f0 5D48     		ldr	r0, .L355+20
 15563 00f2 FFF7FEFF 		bl	uart_transmit
 15564              	.LBE1052:
 15565              	.LBB1053:
 15566 00f6 644B     		ldr	r3, .L355+52
 15567 00f8 2278     		ldrb	r2, [r4, #0]	@ zero_extendqisi2
 15568 00fa 1978     		ldrb	r1, [r3, #0]	@ zero_extendqisi2
 15569              	.LVL2514:
 15570 00fc 2B78     		ldrb	r3, [r5, #0]	@ zero_extendqisi2
 15571 00fe 5A48     		ldr	r0, .L355+20
 15572 0100 CB18     		adds	r3, r1, r3
 15573 0102 DBB2     		uxtb	r3, r3
 15574              	.LVL2515:
 15575 0104 2B70     		strb	r3, [r5, #0]
 15576 0106 9B18     		adds	r3, r3, r2
 15577              	.LVL2516:
 15578 0108 2370     		strb	r3, [r4, #0]
 15579 010a FFF7FEFF 		bl	uart_transmit
 15580              	.LVL2517:
 15581              	.LBE1053:
 15582 010e 2978     		ldrb	r1, [r5, #0]	@ zero_extendqisi2
 15583 0110 5548     		ldr	r0, .L355+20
 15584 0112 FFF7FEFF 		bl	uart_transmit
 15585 0116 5448     		ldr	r0, .L355+20
 15586 0118 2178     		ldrb	r1, [r4, #0]	@ zero_extendqisi2
 15587 011a FFF7FEFF 		bl	uart_transmit
 15588 011e 03E0     		b	.L330
 15589              	.LVL2518:
 15590              	.L329:
 15591              		.loc 1 446 0 discriminator 2
 15592 0120 5A4B     		ldr	r3, .L355+56
 15593 0122 1A78     		ldrb	r2, [r3, #0]	@ zero_extendqisi2
 15594 0124 0132     		adds	r2, r2, #1
 15595 0126 1A70     		strb	r2, [r3, #0]
 15596              	.L330:
 15597              	.LBE1054:
 447:firmwares/fixedwing/main_ap.c ****         gps_lost = TRUE;
 15598              		.loc 1 447 0 is_stmt 1
 15599 0128 0122     		movs	r2, #1
 15600 012a 594B     		ldr	r3, .L355+60
 15601 012c 82E0     		b	.L353
 15602              	.LVL2519:
 15603              	.L328:
 448:firmwares/fixedwing/main_ap.c ****       }
 449:firmwares/fixedwing/main_ap.c ****     } else if (gps_lost) { /* GPS is ok */
 15604              		.loc 1 449 0
 15605 012e 584B     		ldr	r3, .L355+60
 15606 0130 1A78     		ldrb	r2, [r3, #0]	@ zero_extendqisi2
 15607 0132 002A     		cmp	r2, #0
 15608 0134 7FD0     		beq	.L327
 450:firmwares/fixedwing/main_ap.c ****       /** If aircraft was in failsafe mode, come back in previous mode */
 451:firmwares/fixedwing/main_ap.c ****       pprz_mode = last_pprz_mode;
 15609              		.loc 1 451 0
 15610 0136 4B4A     		ldr	r2, .L355+16
 452:firmwares/fixedwing/main_ap.c ****       gps_lost = FALSE;
 15611              		.loc 1 452 0
 15612 0138 0027     		movs	r7, #0
 451:firmwares/fixedwing/main_ap.c ****       pprz_mode = last_pprz_mode;
 15613              		.loc 1 451 0
 15614 013a 1278     		ldrb	r2, [r2, #0]	@ zero_extendqisi2
 15615              		.loc 1 452 0
 15616 013c 1F70     		strb	r7, [r3, #0]
 15617              	.LVL2520:
 451:firmwares/fixedwing/main_ap.c ****       pprz_mode = last_pprz_mode;
 15618              		.loc 1 451 0
 15619 013e 3270     		strb	r2, [r6, #0]
 15620              	.LBB1055:
 453:firmwares/fixedwing/main_ap.c **** 
 454:firmwares/fixedwing/main_ap.c ****       PERIODIC_SEND_PPRZ_MODE(DefaultChannel, DefaultDevice);
 15621              		.loc 1 454 0
 15622 0140 4948     		ldr	r0, .L355+20
 15623 0142 0C21     		movs	r1, #12
 15624 0144 FFF7FEFF 		bl	uart_check_free_space
 15625 0148 0028     		cmp	r0, #0
 15626 014a 70D0     		beq	.L331
 15627              		.loc 1 454 0 is_stmt 0 discriminator 1
 15628 014c 474B     		ldr	r3, .L355+24
 15629              	.LBB1056:
 15630 014e 9921     		movs	r1, #153
 15631              	.LBE1056:
 15632 0150 1A88     		ldrh	r2, [r3, #0]
 15633              	.LBB1057:
 15634 0152 4548     		ldr	r0, .L355+20
 15635              	.LBE1057:
 15636 0154 0C32     		adds	r2, r2, #12
 15637 0156 1A80     		strh	r2, [r3, #0]	@ movhi
 15638 0158 454B     		ldr	r3, .L355+28
 15639 015a 464D     		ldr	r5, .L355+32
 15640 015c 1A88     		ldrh	r2, [r3, #0]
 15641 015e 464C     		ldr	r4, .L355+36
 15642 0160 0132     		adds	r2, r2, #1
 15643 0162 1A80     		strh	r2, [r3, #0]	@ movhi
 15644              	.LBB1058:
 15645 0164 FFF7FEFF 		bl	uart_transmit
 15646              	.LVL2521:
 15647 0168 0C21     		movs	r1, #12
 15648 016a 3F48     		ldr	r0, .L355+20
 15649 016c FFF7FEFF 		bl	uart_transmit
 15650              	.LBE1058:
 15651 0170 0D23     		movs	r3, #13
 15652 0172 2B70     		strb	r3, [r5, #0]
 15653 0174 1923     		movs	r3, #25
 15654 0176 2370     		strb	r3, [r4, #0]
 15655 0178 0121     		movs	r1, #1
 15656 017a 3B48     		ldr	r0, .L355+20
 15657 017c FFF7FEFF 		bl	uart_transmit
 15658 0180 2B78     		ldrb	r3, [r5, #0]	@ zero_extendqisi2
 15659 0182 2278     		ldrb	r2, [r4, #0]	@ zero_extendqisi2
 15660 0184 0B33     		adds	r3, r3, #11
 15661 0186 DBB2     		uxtb	r3, r3
 15662 0188 2B70     		strb	r3, [r5, #0]
 15663 018a 9B18     		adds	r3, r3, r2
 15664 018c 2370     		strb	r3, [r4, #0]
 15665 018e 0B21     		movs	r1, #11
 15666 0190 3548     		ldr	r0, .L355+20
 15667 0192 FFF7FEFF 		bl	uart_transmit
 15668              	.LBB1059:
 15669 0196 3178     		ldrb	r1, [r6, #0]	@ zero_extendqisi2
 15670              	.LVL2522:
 15671 0198 2B78     		ldrb	r3, [r5, #0]	@ zero_extendqisi2
 15672 019a 2278     		ldrb	r2, [r4, #0]	@ zero_extendqisi2
 15673 019c CB18     		adds	r3, r1, r3
 15674 019e DBB2     		uxtb	r3, r3
 15675              	.LVL2523:
 15676 01a0 2B70     		strb	r3, [r5, #0]
 15677 01a2 9B18     		adds	r3, r3, r2
 15678              	.LVL2524:
 15679 01a4 2370     		strb	r3, [r4, #0]
 15680 01a6 3048     		ldr	r0, .L355+20
 15681 01a8 FFF7FEFF 		bl	uart_transmit
 15682              	.LVL2525:
 15683              	.LBE1059:
 15684              	.LBB1060:
 15685 01ac 334B     		ldr	r3, .L355+40
 15686 01ae 2278     		ldrb	r2, [r4, #0]	@ zero_extendqisi2
 15687 01b0 1978     		ldrb	r1, [r3, #0]	@ zero_extendqisi2
 15688              	.LVL2526:
 15689 01b2 2B78     		ldrb	r3, [r5, #0]	@ zero_extendqisi2
 15690 01b4 2C48     		ldr	r0, .L355+20
 15691 01b6 CB18     		adds	r3, r1, r3
 15692 01b8 DBB2     		uxtb	r3, r3
 15693              	.LVL2527:
 15694 01ba 2B70     		strb	r3, [r5, #0]
 15695 01bc 9B18     		adds	r3, r3, r2
 15696              	.LVL2528:
 15697 01be 2370     		strb	r3, [r4, #0]
 15698 01c0 FFF7FEFF 		bl	uart_transmit
 15699              	.LVL2529:
 15700              	.LBE1060:
 15701              	.LBB1061:
 15702 01c4 2E4B     		ldr	r3, .L355+44
 15703 01c6 2278     		ldrb	r2, [r4, #0]	@ zero_extendqisi2
 15704 01c8 1978     		ldrb	r1, [r3, #0]	@ zero_extendqisi2
 15705              	.LVL2530:
 15706 01ca 2B78     		ldrb	r3, [r5, #0]	@ zero_extendqisi2
 15707 01cc 2648     		ldr	r0, .L355+20
 15708 01ce CB18     		adds	r3, r1, r3
 15709 01d0 DBB2     		uxtb	r3, r3
 15710              	.LVL2531:
 15711 01d2 2B70     		strb	r3, [r5, #0]
 15712 01d4 9B18     		adds	r3, r3, r2
 15713              	.LVL2532:
 15714 01d6 2370     		strb	r3, [r4, #0]
 15715 01d8 FFF7FEFF 		bl	uart_transmit
 15716              	.LVL2533:
 15717              	.LBE1061:
 15718              	.LBB1062:
 15719 01dc 294B     		ldr	r3, .L355+48
 15720 01de 2278     		ldrb	r2, [r4, #0]	@ zero_extendqisi2
 15721 01e0 1978     		ldrb	r1, [r3, #0]	@ zero_extendqisi2
 15722              	.LVL2534:
 15723 01e2 2B78     		ldrb	r3, [r5, #0]	@ zero_extendqisi2
 15724 01e4 2048     		ldr	r0, .L355+20
 15725 01e6 CB18     		adds	r3, r1, r3
 15726 01e8 DBB2     		uxtb	r3, r3
 15727              	.LVL2535:
 15728 01ea 2B70     		strb	r3, [r5, #0]
 15729 01ec 9B18     		adds	r3, r3, r2
 15730              	.LVL2536:
 15731 01ee 2370     		strb	r3, [r4, #0]
 15732 01f0 FFF7FEFF 		bl	uart_transmit
 15733              	.LVL2537:
 15734              	.LBE1062:
 15735              	.LBB1063:
 15736 01f4 2278     		ldrb	r2, [r4, #0]	@ zero_extendqisi2
 15737 01f6 2B78     		ldrb	r3, [r5, #0]	@ zero_extendqisi2
 15738 01f8 3946     		mov	r1, r7
 15739 01fa D318     		adds	r3, r2, r3
 15740 01fc 2370     		strb	r3, [r4, #0]
 15741 01fe 1A48     		ldr	r0, .L355+20
 15742 0200 FFF7FEFF 		bl	uart_transmit
 15743              	.LBE1063:
 15744              	.LBB1064:
 15745 0204 204B     		ldr	r3, .L355+52
 15746 0206 2278     		ldrb	r2, [r4, #0]	@ zero_extendqisi2
 15747 0208 1978     		ldrb	r1, [r3, #0]	@ zero_extendqisi2
 15748              	.LVL2538:
 15749 020a 2B78     		ldrb	r3, [r5, #0]	@ zero_extendqisi2
 15750 020c 1648     		ldr	r0, .L355+20
 15751 020e CB18     		adds	r3, r1, r3
 15752 0210 DBB2     		uxtb	r3, r3
 15753              	.LVL2539:
 15754 0212 2B70     		strb	r3, [r5, #0]
 15755 0214 9B18     		adds	r3, r3, r2
 15756              	.LVL2540:
 15757 0216 2370     		strb	r3, [r4, #0]
 15758 0218 FFF7FEFF 		bl	uart_transmit
 15759              	.LVL2541:
 15760              	.LBE1064:
 15761 021c 2978     		ldrb	r1, [r5, #0]	@ zero_extendqisi2
 15762 021e 1248     		ldr	r0, .L355+20
 15763 0220 FFF7FEFF 		bl	uart_transmit
 15764 0224 1048     		ldr	r0, .L355+20
 15765 0226 2178     		ldrb	r1, [r4, #0]	@ zero_extendqisi2
 15766 0228 FFF7FEFF 		bl	uart_transmit
 15767 022c 03E0     		b	.L327
 15768              	.LVL2542:
 15769              	.L331:
 15770              		.loc 1 454 0 discriminator 2
 15771 022e 174B     		ldr	r3, .L355+56
 15772 0230 1A78     		ldrb	r2, [r3, #0]	@ zero_extendqisi2
 15773 0232 0132     		adds	r2, r2, #1
 15774              	.LVL2543:
 15775              	.L353:
 15776 0234 1A70     		strb	r2, [r3, #0]
 15777              	.L327:
 15778              	.LBE1055:
 455:firmwares/fixedwing/main_ap.c ****     }
 456:firmwares/fixedwing/main_ap.c ****   }
 457:firmwares/fixedwing/main_ap.c **** #endif /* GPS && FAILSAFE_DELAY_WITHOUT_GPS */
 458:firmwares/fixedwing/main_ap.c **** 
 459:firmwares/fixedwing/main_ap.c ****   common_nav_periodic_task_4Hz();
 15779              		.loc 1 459 0 is_stmt 1
 15780 0236 FFF7FEFF 		bl	common_nav_periodic_task_4Hz
 460:firmwares/fixedwing/main_ap.c ****   if (pprz_mode == PPRZ_MODE_HOME)
 15781              		.loc 1 460 0
 15782 023a 084B     		ldr	r3, .L355+8
 15783 023c 1B78     		ldrb	r3, [r3, #0]	@ zero_extendqisi2
 15784 023e 032B     		cmp	r3, #3
 15785 0240 02D1     		bne	.L332
 461:firmwares/fixedwing/main_ap.c ****     nav_home();
 15786              		.loc 1 461 0
 15787 0242 FFF7FEFF 		bl	nav_home
 15788 0246 27E0     		b	.L333
 15789              	.L332:
 462:firmwares/fixedwing/main_ap.c ****   else if (pprz_mode == PPRZ_MODE_GPS_OUT_OF_ORDER)
 15790              		.loc 1 462 0
 15791 0248 042B     		cmp	r3, #4
 15792 024a 23D1     		bne	.L334
 463:firmwares/fixedwing/main_ap.c ****     nav_without_gps();
 15793              		.loc 1 463 0
 15794 024c FFF7FEFF 		bl	nav_without_gps
 15795 0250 22E0     		b	.L333
 15796              	.L356:
 15797 0252 00BF     		.align	2
 15798              	.L355:
 15799 0254 00000000 		.word	.LANCHOR30
 15800 0258 00000000 		.word	sys_time
 15801 025c 00000000 		.word	.LANCHOR29
 15802 0260 00000000 		.word	gps
 15803 0264 00000000 		.word	.LANCHOR66
 15804 0268 00000000 		.word	uart2
 15805 026c 00000000 		.word	downlink_nb_bytes
 15806 0270 00000000 		.word	downlink_nb_msgs
 15807 0274 00000000 		.word	ck_a
 15808 0278 00000000 		.word	ck_b
 15809 027c 00000000 		.word	v_ctl_mode
 15810 0280 00000000 		.word	.LANCHOR31
 15811 0284 00000000 		.word	horizontal_mode
 15812 0288 00000000 		.word	.LANCHOR32
 15813 028c 00000000 		.word	downlink_nb_ovrn
 15814 0290 00000000 		.word	.LANCHOR67
 15815              	.L334:
 464:firmwares/fixedwing/main_ap.c ****   else
 465:firmwares/fixedwing/main_ap.c ****     nav_periodic_task();
 15816              		.loc 1 465 0
 15817 0294 FFF7FEFF 		bl	nav_periodic_task
 15818              	.L333:
 15819              	.LBB1065:
 466:firmwares/fixedwing/main_ap.c **** 
 467:firmwares/fixedwing/main_ap.c **** #ifdef TCAS
 468:firmwares/fixedwing/main_ap.c ****   CallTCAS();
 469:firmwares/fixedwing/main_ap.c **** #endif
 470:firmwares/fixedwing/main_ap.c **** 
 471:firmwares/fixedwing/main_ap.c **** #ifndef PERIOD_NAVIGATION_0 // If not sent periodically (in default 0 mode)
 472:firmwares/fixedwing/main_ap.c ****   SEND_NAVIGATION(DefaultChannel, DefaultDevice);
 15820              		.loc 1 472 0
 15821 0298 954B     		ldr	r3, .L357+8
 15822 029a 9648     		ldr	r0, .L357+12
 15823 029c 1A21     		movs	r1, #26
 15824 029e 1C68     		ldr	r4, [r3, #0]	@ float
 15825              	.LVL2544:
 15826 02a0 FFF7FEFF 		bl	uart_check_free_space
 15827              	.LVL2545:
 15828 02a4 0028     		cmp	r0, #0
 15829 02a6 00F03D81 		beq	.L335
 15830              		.loc 1 472 0 is_stmt 0 discriminator 1
 15831 02aa 24F00040 		bic	r0, r4, #-2147483648
 15832 02ae FFF7FEFF 		bl	__aeabi_f2d
 15833 02b2 8DA3     		adr	r3, .L357
 15834 02b4 D3E90023 		ldrd	r2, [r3]
 15835 02b8 FFF7FEFF 		bl	__aeabi_ddiv
 15836 02bc FFF7FEFF 		bl	__aeabi_d2uiz
 15837 02c0 8D4B     		ldr	r3, .L357+16
 15838 02c2 C7B2     		uxtb	r7, r0
 15839 02c4 1A88     		ldrh	r2, [r3, #0]
 15840              	.LBB1066:
 15841 02c6 9921     		movs	r1, #153
 15842              	.LBE1066:
 15843 02c8 1A32     		adds	r2, r2, #26
 15844 02ca 1A80     		strh	r2, [r3, #0]	@ movhi
 15845 02cc 8B4B     		ldr	r3, .L357+20
 15846              	.LBB1067:
 15847 02ce 8948     		ldr	r0, .L357+12
 15848              	.LBE1067:
 15849 02d0 1A88     		ldrh	r2, [r3, #0]
 15850 02d2 8B4D     		ldr	r5, .L357+24
 15851 02d4 0132     		adds	r2, r2, #1
 15852 02d6 1A80     		strh	r2, [r3, #0]	@ movhi
 15853              	.LBB1068:
 15854 02d8 FFF7FEFF 		bl	uart_transmit
 15855              	.LVL2546:
 15856 02dc 1A21     		movs	r1, #26
 15857 02de 8548     		ldr	r0, .L357+12
 15858              	.LBE1068:
 15859 02e0 884C     		ldr	r4, .L357+28
 15860              	.LVL2547:
 15861              	.LBB1069:
 15862 02e2 FFF7FEFF 		bl	uart_transmit
 15863              	.LBE1069:
 15864 02e6 1B23     		movs	r3, #27
 15865 02e8 2B70     		strb	r3, [r5, #0]
 15866 02ea 3523     		movs	r3, #53
 15867 02ec 2370     		strb	r3, [r4, #0]
 15868 02ee 0121     		movs	r1, #1
 15869 02f0 8048     		ldr	r0, .L357+12
 15870 02f2 FFF7FEFF 		bl	uart_transmit
 15871 02f6 2B78     		ldrb	r3, [r5, #0]	@ zero_extendqisi2
 15872 02f8 2278     		ldrb	r2, [r4, #0]	@ zero_extendqisi2
 15873 02fa 0A33     		adds	r3, r3, #10
 15874 02fc DBB2     		uxtb	r3, r3
 15875              	.LVL2548:
 15876 02fe 2B70     		strb	r3, [r5, #0]
 15877 0300 9B18     		adds	r3, r3, r2
 15878              	.LVL2549:
 15879 0302 2370     		strb	r3, [r4, #0]
 15880 0304 0A21     		movs	r1, #10
 15881 0306 7B48     		ldr	r0, .L357+12
 15882 0308 FFF7FEFF 		bl	uart_transmit
 15883              	.LBB1070:
 15884 030c 7E4B     		ldr	r3, .L357+32
 15885 030e 2278     		ldrb	r2, [r4, #0]	@ zero_extendqisi2
 15886 0310 1978     		ldrb	r1, [r3, #0]	@ zero_extendqisi2
 15887              	.LVL2550:
 15888 0312 2B78     		ldrb	r3, [r5, #0]	@ zero_extendqisi2
 15889 0314 7748     		ldr	r0, .L357+12
 15890 0316 CB18     		adds	r3, r1, r3
 15891 0318 DBB2     		uxtb	r3, r3
 15892              	.LVL2551:
 15893 031a 2B70     		strb	r3, [r5, #0]
 15894 031c 9B18     		adds	r3, r3, r2
 15895              	.LVL2552:
 15896 031e 2370     		strb	r3, [r4, #0]
 15897 0320 FFF7FEFF 		bl	uart_transmit
 15898              	.LVL2553:
 15899              	.LBE1070:
 15900              	.LBB1071:
 15901 0324 794B     		ldr	r3, .L357+36
 15902 0326 2278     		ldrb	r2, [r4, #0]	@ zero_extendqisi2
 15903 0328 1978     		ldrb	r1, [r3, #0]	@ zero_extendqisi2
 15904              	.LVL2554:
 15905 032a 2B78     		ldrb	r3, [r5, #0]	@ zero_extendqisi2
 15906              	.LBE1071:
 15907              	.LBB1072:
 15908 032c 784E     		ldr	r6, .L357+40
 15909              	.LBE1072:
 15910              	.LBB1073:
 15911 032e CB18     		adds	r3, r1, r3
 15912 0330 DBB2     		uxtb	r3, r3
 15913              	.LVL2555:
 15914 0332 2B70     		strb	r3, [r5, #0]
 15915 0334 9B18     		adds	r3, r3, r2
 15916              	.LVL2556:
 15917 0336 2370     		strb	r3, [r4, #0]
 15918 0338 6E48     		ldr	r0, .L357+12
 15919 033a FFF7FEFF 		bl	uart_transmit
 15920              	.LVL2557:
 15921              	.LBE1073:
 15922              	.LBB1074:
 15923 033e 3178     		ldrb	r1, [r6, #0]	@ zero_extendqisi2
 15924              	.LVL2558:
 15925 0340 2B78     		ldrb	r3, [r5, #0]	@ zero_extendqisi2
 15926 0342 2278     		ldrb	r2, [r4, #0]	@ zero_extendqisi2
 15927 0344 CB18     		adds	r3, r1, r3
 15928 0346 DBB2     		uxtb	r3, r3
 15929              	.LVL2559:
 15930 0348 2B70     		strb	r3, [r5, #0]
 15931 034a 9B18     		adds	r3, r3, r2
 15932              	.LVL2560:
 15933 034c 2370     		strb	r3, [r4, #0]
 15934 034e 6948     		ldr	r0, .L357+12
 15935 0350 FFF7FEFF 		bl	uart_transmit
 15936              	.LVL2561:
 15937              	.LBE1074:
 15938              	.LBB1075:
 15939 0354 7178     		ldrb	r1, [r6, #1]	@ zero_extendqisi2
 15940              	.LVL2562:
 15941 0356 2B78     		ldrb	r3, [r5, #0]	@ zero_extendqisi2
 15942 0358 2278     		ldrb	r2, [r4, #0]	@ zero_extendqisi2
 15943 035a CB18     		adds	r3, r1, r3
 15944 035c DBB2     		uxtb	r3, r3
 15945              	.LVL2563:
 15946 035e 2B70     		strb	r3, [r5, #0]
 15947 0360 9B18     		adds	r3, r3, r2
 15948              	.LVL2564:
 15949 0362 2370     		strb	r3, [r4, #0]
 15950 0364 6348     		ldr	r0, .L357+12
 15951 0366 FFF7FEFF 		bl	uart_transmit
 15952              	.LVL2565:
 15953              	.LBE1075:
 15954              	.LBB1076:
 15955 036a B178     		ldrb	r1, [r6, #2]	@ zero_extendqisi2
 15956              	.LVL2566:
 15957 036c 2B78     		ldrb	r3, [r5, #0]	@ zero_extendqisi2
 15958 036e 2278     		ldrb	r2, [r4, #0]	@ zero_extendqisi2
 15959 0370 CB18     		adds	r3, r1, r3
 15960 0372 DBB2     		uxtb	r3, r3
 15961              	.LVL2567:
 15962 0374 2B70     		strb	r3, [r5, #0]
 15963 0376 9B18     		adds	r3, r3, r2
 15964              	.LVL2568:
 15965 0378 2370     		strb	r3, [r4, #0]
 15966 037a 5E48     		ldr	r0, .L357+12
 15967 037c FFF7FEFF 		bl	uart_transmit
 15968              	.LVL2569:
 15969              	.LBE1076:
 15970              	.LBB1077:
 15971 0380 F178     		ldrb	r1, [r6, #3]	@ zero_extendqisi2
 15972              	.LVL2570:
 15973 0382 2B78     		ldrb	r3, [r5, #0]	@ zero_extendqisi2
 15974 0384 2278     		ldrb	r2, [r4, #0]	@ zero_extendqisi2
 15975 0386 CB18     		adds	r3, r1, r3
 15976 0388 DBB2     		uxtb	r3, r3
 15977              	.LBE1077:
 15978              	.LBB1078:
 15979 038a 624E     		ldr	r6, .L357+44
 15980              	.LVL2571:
 15981              	.LBE1078:
 15982              	.LBB1079:
 15983 038c 2B70     		strb	r3, [r5, #0]
 15984 038e 9B18     		adds	r3, r3, r2
 15985              	.LVL2572:
 15986 0390 2370     		strb	r3, [r4, #0]
 15987 0392 5848     		ldr	r0, .L357+12
 15988 0394 FFF7FEFF 		bl	uart_transmit
 15989              	.LVL2573:
 15990              	.LBE1079:
 15991              	.LBB1080:
 15992 0398 3178     		ldrb	r1, [r6, #0]	@ zero_extendqisi2
 15993              	.LVL2574:
 15994 039a 2B78     		ldrb	r3, [r5, #0]	@ zero_extendqisi2
 15995 039c 2278     		ldrb	r2, [r4, #0]	@ zero_extendqisi2
 15996 039e CB18     		adds	r3, r1, r3
 15997 03a0 DBB2     		uxtb	r3, r3
 15998              	.LVL2575:
 15999 03a2 2B70     		strb	r3, [r5, #0]
 16000 03a4 9B18     		adds	r3, r3, r2
 16001              	.LVL2576:
 16002 03a6 2370     		strb	r3, [r4, #0]
 16003 03a8 5248     		ldr	r0, .L357+12
 16004 03aa FFF7FEFF 		bl	uart_transmit
 16005              	.LVL2577:
 16006              	.LBE1080:
 16007              	.LBB1081:
 16008 03ae 7178     		ldrb	r1, [r6, #1]	@ zero_extendqisi2
 16009              	.LVL2578:
 16010 03b0 2B78     		ldrb	r3, [r5, #0]	@ zero_extendqisi2
 16011 03b2 2278     		ldrb	r2, [r4, #0]	@ zero_extendqisi2
 16012 03b4 CB18     		adds	r3, r1, r3
 16013 03b6 DBB2     		uxtb	r3, r3
 16014              	.LVL2579:
 16015 03b8 2B70     		strb	r3, [r5, #0]
 16016 03ba 9B18     		adds	r3, r3, r2
 16017              	.LVL2580:
 16018 03bc 2370     		strb	r3, [r4, #0]
 16019 03be 4D48     		ldr	r0, .L357+12
 16020 03c0 FFF7FEFF 		bl	uart_transmit
 16021              	.LVL2581:
 16022              	.LBE1081:
 16023              	.LBB1082:
 16024 03c4 B178     		ldrb	r1, [r6, #2]	@ zero_extendqisi2
 16025              	.LVL2582:
 16026 03c6 2B78     		ldrb	r3, [r5, #0]	@ zero_extendqisi2
 16027 03c8 2278     		ldrb	r2, [r4, #0]	@ zero_extendqisi2
 16028 03ca CB18     		adds	r3, r1, r3
 16029 03cc DBB2     		uxtb	r3, r3
 16030              	.LVL2583:
 16031 03ce 2B70     		strb	r3, [r5, #0]
 16032 03d0 9B18     		adds	r3, r3, r2
 16033              	.LVL2584:
 16034 03d2 2370     		strb	r3, [r4, #0]
 16035 03d4 4748     		ldr	r0, .L357+12
 16036 03d6 FFF7FEFF 		bl	uart_transmit
 16037              	.LVL2585:
 16038              	.LBE1082:
 16039              	.LBB1083:
 16040 03da F178     		ldrb	r1, [r6, #3]	@ zero_extendqisi2
 16041              	.LVL2586:
 16042 03dc 2B78     		ldrb	r3, [r5, #0]	@ zero_extendqisi2
 16043 03de 2278     		ldrb	r2, [r4, #0]	@ zero_extendqisi2
 16044 03e0 CB18     		adds	r3, r1, r3
 16045 03e2 DBB2     		uxtb	r3, r3
 16046              	.LBE1083:
 16047              	.LBB1084:
 16048 03e4 4C4E     		ldr	r6, .L357+48
 16049              	.LVL2587:
 16050              	.LBE1084:
 16051              	.LBB1085:
 16052 03e6 2B70     		strb	r3, [r5, #0]
 16053 03e8 9B18     		adds	r3, r3, r2
 16054              	.LVL2588:
 16055 03ea 2370     		strb	r3, [r4, #0]
 16056 03ec 4148     		ldr	r0, .L357+12
 16057 03ee FFF7FEFF 		bl	uart_transmit
 16058              	.LVL2589:
 16059              	.LBE1085:
 16060              	.LBB1086:
 16061 03f2 3178     		ldrb	r1, [r6, #0]	@ zero_extendqisi2
 16062              	.LVL2590:
 16063 03f4 2B78     		ldrb	r3, [r5, #0]	@ zero_extendqisi2
 16064 03f6 2278     		ldrb	r2, [r4, #0]	@ zero_extendqisi2
 16065 03f8 CB18     		adds	r3, r1, r3
 16066 03fa DBB2     		uxtb	r3, r3
 16067              	.LVL2591:
 16068 03fc 2B70     		strb	r3, [r5, #0]
 16069 03fe 9B18     		adds	r3, r3, r2
 16070              	.LVL2592:
 16071 0400 2370     		strb	r3, [r4, #0]
 16072 0402 3C48     		ldr	r0, .L357+12
 16073 0404 FFF7FEFF 		bl	uart_transmit
 16074              	.LVL2593:
 16075              	.LBE1086:
 16076              	.LBB1087:
 16077 0408 7178     		ldrb	r1, [r6, #1]	@ zero_extendqisi2
 16078              	.LVL2594:
 16079 040a 2B78     		ldrb	r3, [r5, #0]	@ zero_extendqisi2
 16080 040c 2278     		ldrb	r2, [r4, #0]	@ zero_extendqisi2
 16081 040e CB18     		adds	r3, r1, r3
 16082 0410 DBB2     		uxtb	r3, r3
 16083              	.LVL2595:
 16084 0412 2B70     		strb	r3, [r5, #0]
 16085 0414 9B18     		adds	r3, r3, r2
 16086              	.LVL2596:
 16087 0416 2370     		strb	r3, [r4, #0]
 16088 0418 3648     		ldr	r0, .L357+12
 16089 041a FFF7FEFF 		bl	uart_transmit
 16090              	.LVL2597:
 16091              	.LBE1087:
 16092              	.LBB1088:
 16093 041e B178     		ldrb	r1, [r6, #2]	@ zero_extendqisi2
 16094              	.LVL2598:
 16095 0420 2B78     		ldrb	r3, [r5, #0]	@ zero_extendqisi2
 16096 0422 2278     		ldrb	r2, [r4, #0]	@ zero_extendqisi2
 16097 0424 CB18     		adds	r3, r1, r3
 16098 0426 DBB2     		uxtb	r3, r3
 16099              	.LVL2599:
 16100 0428 2B70     		strb	r3, [r5, #0]
 16101 042a 9B18     		adds	r3, r3, r2
 16102              	.LVL2600:
 16103 042c 2370     		strb	r3, [r4, #0]
 16104 042e 3148     		ldr	r0, .L357+12
 16105 0430 FFF7FEFF 		bl	uart_transmit
 16106              	.LVL2601:
 16107              	.LBE1088:
 16108              	.LBB1089:
 16109 0434 F178     		ldrb	r1, [r6, #3]	@ zero_extendqisi2
 16110              	.LVL2602:
 16111 0436 2B78     		ldrb	r3, [r5, #0]	@ zero_extendqisi2
 16112 0438 2278     		ldrb	r2, [r4, #0]	@ zero_extendqisi2
 16113 043a CB18     		adds	r3, r1, r3
 16114 043c DBB2     		uxtb	r3, r3
 16115              	.LBE1089:
 16116              	.LBB1090:
 16117 043e 374E     		ldr	r6, .L357+52
 16118              	.LVL2603:
 16119              	.LBE1090:
 16120              	.LBB1091:
 16121 0440 2B70     		strb	r3, [r5, #0]
 16122 0442 9B18     		adds	r3, r3, r2
 16123              	.LVL2604:
 16124 0444 2370     		strb	r3, [r4, #0]
 16125 0446 2B48     		ldr	r0, .L357+12
 16126 0448 FFF7FEFF 		bl	uart_transmit
 16127              	.LVL2605:
 16128              	.LBE1091:
 16129              	.LBB1092:
 16130 044c 3178     		ldrb	r1, [r6, #0]	@ zero_extendqisi2
 16131              	.LVL2606:
 16132 044e 2B78     		ldrb	r3, [r5, #0]	@ zero_extendqisi2
 16133 0450 2278     		ldrb	r2, [r4, #0]	@ zero_extendqisi2
 16134 0452 CB18     		adds	r3, r1, r3
 16135 0454 DBB2     		uxtb	r3, r3
 16136              	.LVL2607:
 16137 0456 2B70     		strb	r3, [r5, #0]
 16138 0458 9B18     		adds	r3, r3, r2
 16139              	.LVL2608:
 16140 045a 2370     		strb	r3, [r4, #0]
 16141 045c 2548     		ldr	r0, .L357+12
 16142 045e FFF7FEFF 		bl	uart_transmit
 16143              	.LVL2609:
 16144              	.LBE1092:
 16145              	.LBB1093:
 16146 0462 7178     		ldrb	r1, [r6, #1]	@ zero_extendqisi2
 16147              	.LVL2610:
 16148 0464 2B78     		ldrb	r3, [r5, #0]	@ zero_extendqisi2
 16149 0466 2278     		ldrb	r2, [r4, #0]	@ zero_extendqisi2
 16150 0468 CB18     		adds	r3, r1, r3
 16151 046a DBB2     		uxtb	r3, r3
 16152              	.LVL2611:
 16153 046c 2B70     		strb	r3, [r5, #0]
 16154 046e 9B18     		adds	r3, r3, r2
 16155              	.LVL2612:
 16156 0470 2370     		strb	r3, [r4, #0]
 16157 0472 2048     		ldr	r0, .L357+12
 16158 0474 FFF7FEFF 		bl	uart_transmit
 16159              	.LVL2613:
 16160              	.LBE1093:
 16161              	.LBB1094:
 16162 0478 B178     		ldrb	r1, [r6, #2]	@ zero_extendqisi2
 16163              	.LVL2614:
 16164 047a 2B78     		ldrb	r3, [r5, #0]	@ zero_extendqisi2
 16165 047c 2278     		ldrb	r2, [r4, #0]	@ zero_extendqisi2
 16166 047e CB18     		adds	r3, r1, r3
 16167 0480 DBB2     		uxtb	r3, r3
 16168              	.LVL2615:
 16169 0482 2B70     		strb	r3, [r5, #0]
 16170 0484 9B18     		adds	r3, r3, r2
 16171              	.LVL2616:
 16172 0486 2370     		strb	r3, [r4, #0]
 16173 0488 1A48     		ldr	r0, .L357+12
 16174 048a FFF7FEFF 		bl	uart_transmit
 16175              	.LVL2617:
 16176              	.LBE1094:
 16177              	.LBB1095:
 16178 048e F178     		ldrb	r1, [r6, #3]	@ zero_extendqisi2
 16179              	.LVL2618:
 16180 0490 2B78     		ldrb	r3, [r5, #0]	@ zero_extendqisi2
 16181 0492 2278     		ldrb	r2, [r4, #0]	@ zero_extendqisi2
 16182 0494 CB18     		adds	r3, r1, r3
 16183 0496 DBB2     		uxtb	r3, r3
 16184              	.LVL2619:
 16185 0498 2B70     		strb	r3, [r5, #0]
 16186 049a 9B18     		adds	r3, r3, r2
 16187              	.LVL2620:
 16188 049c 2370     		strb	r3, [r4, #0]
 16189 049e 1548     		ldr	r0, .L357+12
 16190 04a0 FFF7FEFF 		bl	uart_transmit
 16191              	.LVL2621:
 16192              	.LBE1095:
 16193              	.LBB1096:
 16194 04a4 2B78     		ldrb	r3, [r5, #0]	@ zero_extendqisi2
 16195 04a6 2278     		ldrb	r2, [r4, #0]	@ zero_extendqisi2
 16196 04a8 FB18     		adds	r3, r7, r3
 16197 04aa DBB2     		uxtb	r3, r3
 16198              	.LVL2622:
 16199 04ac 2B70     		strb	r3, [r5, #0]
 16200 04ae 9B18     		adds	r3, r3, r2
 16201              	.LVL2623:
 16202 04b0 2370     		strb	r3, [r4, #0]
 16203 04b2 3946     		mov	r1, r7
 16204 04b4 0F48     		ldr	r0, .L357+12
 16205 04b6 FFF7FEFF 		bl	uart_transmit
 16206              	.LBE1096:
 16207              	.LBB1097:
 16208 04ba 194B     		ldr	r3, .L357+56
 16209 04bc 2278     		ldrb	r2, [r4, #0]	@ zero_extendqisi2
 16210 04be 1978     		ldrb	r1, [r3, #0]	@ zero_extendqisi2
 16211              	.LVL2624:
 16212 04c0 2B78     		ldrb	r3, [r5, #0]	@ zero_extendqisi2
 16213 04c2 0C48     		ldr	r0, .L357+12
 16214 04c4 CB18     		adds	r3, r1, r3
 16215 04c6 DBB2     		uxtb	r3, r3
 16216              	.LVL2625:
 16217 04c8 2B70     		strb	r3, [r5, #0]
 16218 04ca 9B18     		adds	r3, r3, r2
 16219              	.LVL2626:
 16220 04cc 2370     		strb	r3, [r4, #0]
 16221 04ce FFF7FEFF 		bl	uart_transmit
 16222              	.LVL2627:
 16223              	.LBE1097:
 16224 04d2 2978     		ldrb	r1, [r5, #0]	@ zero_extendqisi2
 16225 04d4 0748     		ldr	r0, .L357+12
 16226 04d6 FFF7FEFF 		bl	uart_transmit
 16227 04da 0648     		ldr	r0, .L357+12
 16228 04dc 2178     		ldrb	r1, [r4, #0]	@ zero_extendqisi2
 16229 04de FFF7FEFF 		bl	uart_transmit
 16230 04e2 23E0     		b	.L336
 16231              	.L358:
 16232 04e4 AFF30080 		.align	3
 16233              	.L357:
 16234 04e8 182D4454 		.word	1413754136
 16235 04ec FB211940 		.word	1075388923
 16236 04f0 00000000 		.word	nav_circle_radians
 16237 04f4 00000000 		.word	uart2
 16238 04f8 00000000 		.word	downlink_nb_bytes
 16239 04fc 00000000 		.word	downlink_nb_msgs
 16240 0500 00000000 		.word	ck_a
 16241 0504 00000000 		.word	ck_b
 16242 0508 00000000 		.word	nav_block
 16243 050c 00000000 		.word	nav_stage
 16244 0510 00000000 		.word	estimator_x
 16245 0514 00000000 		.word	estimator_y
 16246 0518 00000000 		.word	dist2_to_wp
 16247 051c 00000000 		.word	dist2_to_home
 16248 0520 00000000 		.word	nav_oval_count
 16249              	.LVL2628:
 16250              	.L335:
 16251              		.loc 1 472 0 discriminator 2
 16252 0524 484B     		ldr	r3, .L359+16
 16253 0526 1A78     		ldrb	r2, [r3, #0]	@ zero_extendqisi2
 16254 0528 0132     		adds	r2, r2, #1
 16255 052a 1A70     		strb	r2, [r3, #0]
 16256              	.LVL2629:
 16257              	.L336:
 16258              	.LBE1065:
 473:firmwares/fixedwing/main_ap.c **** #endif
 474:firmwares/fixedwing/main_ap.c **** 
 475:firmwares/fixedwing/main_ap.c ****   SEND_CAM(DefaultChannel, DefaultDevice);
 476:firmwares/fixedwing/main_ap.c **** 
 477:firmwares/fixedwing/main_ap.c ****   /* The nav task computes only nav_altitude. However, we are interested
 478:firmwares/fixedwing/main_ap.c ****      by desired_altitude (= nav_alt+alt_shift) in any case.
 479:firmwares/fixedwing/main_ap.c ****      So we always run the altitude control loop */
 480:firmwares/fixedwing/main_ap.c ****   if (v_ctl_mode == V_CTL_MODE_AUTO_ALT)
 16259              		.loc 1 480 0 is_stmt 1
 16260 052c 474B     		ldr	r3, .L359+20
 16261 052e 1B78     		ldrb	r3, [r3, #0]	@ zero_extendqisi2
 16262 0530 032B     		cmp	r3, #3
 16263 0532 01D1     		bne	.L337
 481:firmwares/fixedwing/main_ap.c ****     v_ctl_altitude_loop();
 16264              		.loc 1 481 0
 16265 0534 FFF7FEFF 		bl	v_ctl_altitude_loop
 16266              	.L337:
 482:firmwares/fixedwing/main_ap.c **** 
 483:firmwares/fixedwing/main_ap.c ****   if (pprz_mode == PPRZ_MODE_AUTO2 || pprz_mode == PPRZ_MODE_HOME
 484:firmwares/fixedwing/main_ap.c ****             || pprz_mode == PPRZ_MODE_GPS_OUT_OF_ORDER) {
 16267              		.loc 1 484 0
 16268 0538 454B     		ldr	r3, .L359+24
 16269 053a 1B78     		ldrb	r3, [r3, #0]	@ zero_extendqisi2
 483:firmwares/fixedwing/main_ap.c ****   if (pprz_mode == PPRZ_MODE_AUTO2 || pprz_mode == PPRZ_MODE_HOME
 16270              		.loc 1 483 0
 16271 053c 023B     		subs	r3, r3, #2
 16272 053e 022B     		cmp	r3, #2
 16273 0540 65D8     		bhi	.L338
 485:firmwares/fixedwing/main_ap.c **** #ifdef H_CTL_RATE_LOOP
 486:firmwares/fixedwing/main_ap.c ****     /* Be sure to be in attitude mode, not roll */
 487:firmwares/fixedwing/main_ap.c ****     h_ctl_auto1_rate = FALSE;
 488:firmwares/fixedwing/main_ap.c **** #endif
 489:firmwares/fixedwing/main_ap.c ****     if (lateral_mode >=LATERAL_MODE_COURSE)
 16274              		.loc 1 489 0
 16275 0542 444B     		ldr	r3, .L359+28
 16276 0544 1B78     		ldrb	r3, [r3, #0]	@ zero_extendqisi2
 16277 0546 022B     		cmp	r3, #2
 16278 0548 01D9     		bls	.L339
 490:firmwares/fixedwing/main_ap.c ****       h_ctl_course_loop(); /* aka compute nav_desired_roll */
 16279              		.loc 1 490 0
 16280 054a FFF7FEFF 		bl	h_ctl_course_loop
 16281              	.L339:
 491:firmwares/fixedwing/main_ap.c ****     if (v_ctl_mode >= V_CTL_MODE_AUTO_CLIMB)
 16282              		.loc 1 491 0
 16283 054e 3F4C     		ldr	r4, .L359+20
 16284 0550 2378     		ldrb	r3, [r4, #0]	@ zero_extendqisi2
 16285 0552 012B     		cmp	r3, #1
 16286 0554 01D9     		bls	.L340
 492:firmwares/fixedwing/main_ap.c ****       v_ctl_climb_loop();
 16287              		.loc 1 492 0
 16288 0556 FFF7FEFF 		bl	v_ctl_climb_loop
 16289              	.L340:
 493:firmwares/fixedwing/main_ap.c ****     if (v_ctl_mode == V_CTL_MODE_AUTO_THROTTLE)
 16290              		.loc 1 493 0
 16291 055a 2378     		ldrb	r3, [r4, #0]	@ zero_extendqisi2
 16292 055c 012B     		cmp	r3, #1
 16293 055e 03D1     		bne	.L341
 494:firmwares/fixedwing/main_ap.c ****       v_ctl_throttle_setpoint = nav_throttle_setpoint;
 16294              		.loc 1 494 0
 16295 0560 3D4B     		ldr	r3, .L359+32
 16296 0562 1A88     		ldrh	r2, [r3, #0]
 16297 0564 3D4B     		ldr	r3, .L359+36
 16298 0566 1A80     		strh	r2, [r3, #0]	@ movhi
 16299              	.L341:
 495:firmwares/fixedwing/main_ap.c **** 
 496:firmwares/fixedwing/main_ap.c **** #if defined V_CTL_THROTTLE_IDLE
 497:firmwares/fixedwing/main_ap.c ****     Bound(v_ctl_throttle_setpoint, TRIM_PPRZ(V_CTL_THROTTLE_IDLE*MAX_PPRZ), MAX_PPRZ);
 498:firmwares/fixedwing/main_ap.c **** #endif
 499:firmwares/fixedwing/main_ap.c **** 
 500:firmwares/fixedwing/main_ap.c **** #ifdef V_CTL_POWER_CTL_BAT_NOMINAL
 501:firmwares/fixedwing/main_ap.c ****     if (vsupply > 0.) {
 16300              		.loc 1 501 0
 16301 0568 3D4B     		ldr	r3, .L359+40
 16302 056a 1D78     		ldrb	r5, [r3, #0]	@ zero_extendqisi2
 16303 056c 2846     		mov	r0, r5
 16304 056e FFF7FEFF 		bl	__aeabi_i2d
 16305 0572 0022     		movs	r2, #0
 16306 0574 0023     		movs	r3, #0
 16307 0576 FFF7FEFF 		bl	__aeabi_dcmpgt
 16308 057a 10B3     		cbz	r0, .L342
 502:firmwares/fixedwing/main_ap.c ****       v_ctl_throttle_setpoint *= 10. * V_CTL_POWER_CTL_BAT_NOMINAL / (float)vsupply;
 16309              		.loc 1 502 0
 16310 057c 374C     		ldr	r4, .L359+36
 16311 057e B4F90000 		ldrsh	r0, [r4, #0]
 16312 0582 FFF7FEFF 		bl	__aeabi_i2d
 16313 0586 0646     		mov	r6, r0
 16314 0588 2846     		mov	r0, r5
 16315 058a 0F46     		mov	r7, r1
 16316 058c FFF7FEFF 		bl	__aeabi_ui2f
 16317 0590 FFF7FEFF 		bl	__aeabi_f2d
 16318 0594 0246     		mov	r2, r0
 16319 0596 0B46     		mov	r3, r1
 16320 0598 0020     		movs	r0, #0
 16321 059a 3249     		ldr	r1, .L359+44
 16322 059c FFF7FEFF 		bl	__aeabi_ddiv
 16323 05a0 0B46     		mov	r3, r1
 16324 05a2 0246     		mov	r2, r0
 16325 05a4 3946     		mov	r1, r7
 16326 05a6 3046     		mov	r0, r6
 16327 05a8 FFF7FEFF 		bl	__aeabi_dmul
 16328 05ac FFF7FEFF 		bl	__aeabi_d2iz
 503:firmwares/fixedwing/main_ap.c ****       v_ctl_throttle_setpoint = TRIM_UPPRZ(v_ctl_throttle_setpoint);
 16329              		.loc 1 503 0
 16330 05b0 03B2     		sxth	r3, r0
 16331 05b2 B3F5165F 		cmp	r3, #9600
 16332 05b6 A8BF     		it	ge
 16333 05b8 4FF41653 		movge	r3, #9600
 16334 05bc 23EAE373 		bic	r3, r3, r3, asr #31
 16335 05c0 2380     		strh	r3, [r4, #0]	@ movhi
 16336              	.L342:
 504:firmwares/fixedwing/main_ap.c ****     }
 505:firmwares/fixedwing/main_ap.c **** #endif
 506:firmwares/fixedwing/main_ap.c **** 
 507:firmwares/fixedwing/main_ap.c ****     h_ctl_pitch_setpoint = nav_pitch;
 16337              		.loc 1 507 0
 16338 05c2 294B     		ldr	r3, .L359+48
 16339 05c4 294C     		ldr	r4, .L359+52
 16340 05c6 1868     		ldr	r0, [r3, #0]	@ float
 16341              	.LVL2630:
 16342 05c8 2060     		str	r0, [r4, #0]	@ float
 16343              	.LVL2631:
 508:firmwares/fixedwing/main_ap.c ****     Bound(h_ctl_pitch_setpoint, H_CTL_PITCH_MIN_SETPOINT, H_CTL_PITCH_MAX_SETPOINT);
 16344              		.loc 1 508 0
 16345 05ca FFF7FEFF 		bl	__aeabi_f2d
 16346              	.LVL2632:
 16347 05ce 1AA3     		adr	r3, .L359
 16348 05d0 D3E90023 		ldrd	r2, [r3]
 16349 05d4 0646     		mov	r6, r0
 16350 05d6 0F46     		mov	r7, r1
 16351 05d8 FFF7FEFF 		bl	__aeabi_dcmpgt
 16352 05dc 08B1     		cbz	r0, .L352
 16353              		.loc 1 508 0 is_stmt 0 discriminator 1
 16354 05de 244B     		ldr	r3, .L359+56
 16355 05e0 08E0     		b	.L354
 16356              	.L352:
 16357              		.loc 1 508 0 discriminator 2
 16358 05e2 3046     		mov	r0, r6
 16359 05e4 3946     		mov	r1, r7
 16360 05e6 16A3     		adr	r3, .L359+8
 16361 05e8 D3E90023 		ldrd	r2, [r3]
 16362 05ec FFF7FEFF 		bl	__aeabi_dcmplt
 16363 05f0 08B1     		cbz	r0, .L346
 16364              		.loc 1 508 0 discriminator 3
 16365 05f2 204B     		ldr	r3, .L359+60
 16366              	.L354:
 16367 05f4 2360     		str	r3, [r4, #0]	@ float
 16368              	.L346:
 509:firmwares/fixedwing/main_ap.c ****     if (kill_throttle || (!estimator_flight_time && !launch))
 16369              		.loc 1 509 0 is_stmt 1
 16370 05f6 204B     		ldr	r3, .L359+64
 16371 05f8 1B78     		ldrb	r3, [r3, #0]	@ zero_extendqisi2
 16372 05fa 2BB9     		cbnz	r3, .L348
 16373              		.loc 1 509 0 is_stmt 0 discriminator 1
 16374 05fc 1F4B     		ldr	r3, .L359+68
 16375 05fe 1B88     		ldrh	r3, [r3, #0]
 16376 0600 2BB9     		cbnz	r3, .L338
 16377 0602 1F4B     		ldr	r3, .L359+72
 16378 0604 1B78     		ldrb	r3, [r3, #0]	@ zero_extendqisi2
 16379 0606 13B9     		cbnz	r3, .L338
 16380              	.L348:
 510:firmwares/fixedwing/main_ap.c ****       v_ctl_throttle_setpoint = 0;
 16381              		.loc 1 510 0 is_stmt 1
 16382 0608 144B     		ldr	r3, .L359+36
 16383 060a 0022     		movs	r2, #0
 16384 060c 1A80     		strh	r2, [r3, #0]	@ movhi
 16385              	.L338:
 511:firmwares/fixedwing/main_ap.c ****   }
 512:firmwares/fixedwing/main_ap.c ****   energy += ((float)current) / 3600.0f * 0.25f;	// mAh = mA * dt (4Hz -> hours)
 16386              		.loc 1 512 0
 16387 060e 1D4B     		ldr	r3, .L359+76
 16388 0610 1D4C     		ldr	r4, .L359+80
 16389 0612 1868     		ldr	r0, [r3, #0]
 16390 0614 FFF7FEFF 		bl	__aeabi_i2f
 16391 0618 1C49     		ldr	r1, .L359+84
 16392 061a FFF7FEFF 		bl	__aeabi_fdiv
 16393 061e 4FF07A51 		mov	r1, #1048576000
 16394 0622 FFF7FEFF 		bl	__aeabi_fmul
 16395 0626 0146     		mov	r1, r0
 16396 0628 2068     		ldr	r0, [r4, #0]	@ float
 16397 062a FFF7FEFF 		bl	__aeabi_fadd
 16398 062e 2060     		str	r0, [r4, #0]	@ float
 513:firmwares/fixedwing/main_ap.c **** }
 16399              		.loc 1 513 0
 16400 0630 F8BD     		pop	{r3, r4, r5, r6, r7, pc}
 16401              	.L360:
 16402 0632 00BFAFF3 		.align	3
 16402      0080
 16403              	.L359:
 16404 0638 0B09185D 		.word	1561856267
 16405 063c DEECDB3F 		.word	1071377630
 16406 0640 0B09185D 		.word	1561856267
 16407 0644 DEECDBBF 		.word	-1076106018
 16408 0648 00000000 		.word	downlink_nb_ovrn
 16409 064c 00000000 		.word	v_ctl_mode
 16410 0650 00000000 		.word	.LANCHOR29
 16411 0654 00000000 		.word	.LANCHOR31
 16412 0658 00000000 		.word	nav_throttle_setpoint
 16413 065c 00000000 		.word	v_ctl_throttle_setpoint
 16414 0660 00000000 		.word	.LANCHOR26
 16415 0664 00805B40 		.word	1079738368
 16416 0668 00000000 		.word	nav_pitch
 16417 066c 00000000 		.word	h_ctl_pitch_setpoint
 16418 0670 F366DF3E 		.word	1054828275
 16419 0674 F366DFBE 		.word	-1092655373
 16420 0678 00000000 		.word	.LANCHOR27
 16421 067c 00000000 		.word	estimator_flight_time
 16422 0680 00000000 		.word	.LANCHOR30
 16423 0684 00000000 		.word	.LANCHOR24
 16424 0688 00000000 		.word	.LANCHOR25
 16425 068c 00006145 		.word	1163984896
 16426              		.cfi_endproc
 16427              	.LFE55:
 16429              		.section	.text.attitude_loop,"ax",%progbits
 16430              		.align	1
 16431              		.global	attitude_loop
 16432              		.thumb
 16433              		.thumb_func
 16435              	attitude_loop:
 16436              	.LFB56:
 514:firmwares/fixedwing/main_ap.c **** 
 515:firmwares/fixedwing/main_ap.c **** 
 516:firmwares/fixedwing/main_ap.c **** #if USE_AHRS
 517:firmwares/fixedwing/main_ap.c **** #ifdef AHRS_TRIGGERED_ATTITUDE_LOOP
 518:firmwares/fixedwing/main_ap.c **** volatile uint8_t new_ins_attitude = 0;
 519:firmwares/fixedwing/main_ap.c **** #endif
 520:firmwares/fixedwing/main_ap.c **** #endif
 521:firmwares/fixedwing/main_ap.c **** 
 522:firmwares/fixedwing/main_ap.c **** void attitude_loop( void ) {
 16437              		.loc 1 522 0
 16438              		.cfi_startproc
 16439              		@ args = 0, pretend = 0, frame = 0
 16440              		@ frame_needed = 0, uses_anonymous_args = 0
 16441 0000 08B5     		push	{r3, lr}
 16442              	.LCFI4:
 16443              		.cfi_def_cfa_offset 8
 16444              		.cfi_offset 14, -4
 16445              		.cfi_offset 3, -8
 523:firmwares/fixedwing/main_ap.c **** 
 524:firmwares/fixedwing/main_ap.c **** #if USE_INFRARED
 525:firmwares/fixedwing/main_ap.c ****   ahrs_update_infrared();
 526:firmwares/fixedwing/main_ap.c **** #endif /* USE_INFRARED */
 527:firmwares/fixedwing/main_ap.c **** 
 528:firmwares/fixedwing/main_ap.c ****   h_ctl_attitude_loop(); /* Set  h_ctl_aileron_setpoint & h_ctl_elevator_setpoint */
 16446              		.loc 1 528 0
 16447 0002 FFF7FEFF 		bl	h_ctl_attitude_loop
 529:firmwares/fixedwing/main_ap.c ****   v_ctl_throttle_slew();
 16448              		.loc 1 529 0
 16449 0006 FFF7FEFF 		bl	v_ctl_throttle_slew
 530:firmwares/fixedwing/main_ap.c ****   ap_state->commands[COMMAND_THROTTLE] = v_ctl_throttle_slewed;
 16450              		.loc 1 530 0
 16451 000a 084B     		ldr	r3, .L362
 16452 000c 084A     		ldr	r2, .L362+4
 16453 000e 1B68     		ldr	r3, [r3, #0]
 16454 0010 1288     		ldrh	r2, [r2, #0]
 16455 0012 1A80     		strh	r2, [r3, #0]	@ movhi
 531:firmwares/fixedwing/main_ap.c ****   ap_state->commands[COMMAND_ROLL] = -h_ctl_aileron_setpoint;
 16456              		.loc 1 531 0
 16457 0014 074A     		ldr	r2, .L362+8
 16458 0016 1288     		ldrh	r2, [r2, #0]
 16459 0018 5242     		negs	r2, r2
 16460 001a 5A80     		strh	r2, [r3, #2]	@ movhi
 532:firmwares/fixedwing/main_ap.c **** 
 533:firmwares/fixedwing/main_ap.c ****   ap_state->commands[COMMAND_PITCH] = h_ctl_elevator_setpoint;
 16461              		.loc 1 533 0
 16462 001c 064A     		ldr	r2, .L362+12
 16463 001e 1288     		ldrh	r2, [r2, #0]
 16464 0020 9A80     		strh	r2, [r3, #4]	@ movhi
 534:firmwares/fixedwing/main_ap.c **** 
 535:firmwares/fixedwing/main_ap.c **** #if defined MCU_SPI_LINK
 536:firmwares/fixedwing/main_ap.c ****   link_mcu_send();
 537:firmwares/fixedwing/main_ap.c **** #elif defined INTER_MCU && defined SINGLE_MCU
 538:firmwares/fixedwing/main_ap.c ****   /**Directly set the flag indicating to FBW that shared buffer is available*/
 539:firmwares/fixedwing/main_ap.c ****   inter_mcu_received_ap = TRUE;
 16465              		.loc 1 539 0
 16466 0022 064B     		ldr	r3, .L362+16
 16467 0024 0122     		movs	r2, #1
 16468 0026 1A70     		strb	r2, [r3, #0]
 540:firmwares/fixedwing/main_ap.c **** #endif
 541:firmwares/fixedwing/main_ap.c **** 
 542:firmwares/fixedwing/main_ap.c **** }
 16469              		.loc 1 542 0
 16470 0028 08BD     		pop	{r3, pc}
 16471              	.L363:
 16472 002a 00BF     		.align	2
 16473              	.L362:
 16474 002c 00000000 		.word	ap_state
 16475 0030 00000000 		.word	v_ctl_throttle_slewed
 16476 0034 00000000 		.word	h_ctl_aileron_setpoint
 16477 0038 00000000 		.word	h_ctl_elevator_setpoint
 16478 003c 00000000 		.word	inter_mcu_received_ap
 16479              		.cfi_endproc
 16480              	.LFE56:
 16482              		.section	.text.sensors_task,"ax",%progbits
 16483              		.align	1
 16484              		.global	sensors_task
 16485              		.thumb
 16486              		.thumb_func
 16488              	sensors_task:
 16489              	.LFB57:
 543:firmwares/fixedwing/main_ap.c **** 
 544:firmwares/fixedwing/main_ap.c **** 
 545:firmwares/fixedwing/main_ap.c **** /** Run at PERIODIC_FREQUENCY (60Hz if not defined) */
 546:firmwares/fixedwing/main_ap.c **** void sensors_task( void ) {
 16490              		.loc 1 546 0
 16491              		.cfi_startproc
 16492              		@ args = 0, pretend = 0, frame = 0
 16493              		@ frame_needed = 0, uses_anonymous_args = 0
 16494 0000 08B5     		push	{r3, lr}
 16495              	.LCFI5:
 16496              		.cfi_def_cfa_offset 8
 16497              		.cfi_offset 14, -4
 16498              		.cfi_offset 3, -8
 547:firmwares/fixedwing/main_ap.c **** #if USE_IMU
 548:firmwares/fixedwing/main_ap.c ****   imu_periodic();
 16499              		.loc 1 548 0
 16500 0002 FFF7FEFF 		bl	imu_periodic
 549:firmwares/fixedwing/main_ap.c **** 
 550:firmwares/fixedwing/main_ap.c **** #if USE_AHRS
 551:firmwares/fixedwing/main_ap.c ****   if (ahrs_timeout_counter < 255)
 16501              		.loc 1 551 0
 16502 0006 044B     		ldr	r3, .L366
 16503 0008 1A78     		ldrb	r2, [r3, #0]	@ zero_extendqisi2
 16504 000a FF2A     		cmp	r2, #255
 16505 000c 03D0     		beq	.L364
 552:firmwares/fixedwing/main_ap.c ****     ahrs_timeout_counter ++;
 16506              		.loc 1 552 0
 16507 000e 1A78     		ldrb	r2, [r3, #0]	@ zero_extendqisi2
 16508 0010 0132     		adds	r2, r2, #1
 16509 0012 D2B2     		uxtb	r2, r2
 16510 0014 1A70     		strb	r2, [r3, #0]
 16511              	.L364:
 16512 0016 08BD     		pop	{r3, pc}
 16513              	.L367:
 16514              		.align	2
 16515              	.L366:
 16516 0018 00000000 		.word	.LANCHOR33
 16517              		.cfi_endproc
 16518              	.LFE57:
 16520              		.global	__aeabi_fcmpgt
 16521              		.section	.text.monitor_task,"ax",%progbits
 16522              		.align	1
 16523              		.global	monitor_task
 16524              		.thumb
 16525              		.thumb_func
 16527              	monitor_task:
 16528              	.LFB58:
 553:firmwares/fixedwing/main_ap.c **** #endif // USE_AHRS
 554:firmwares/fixedwing/main_ap.c **** #endif // USE_IMU
 555:firmwares/fixedwing/main_ap.c **** 
 556:firmwares/fixedwing/main_ap.c **** #if USE_INS
 557:firmwares/fixedwing/main_ap.c ****   ins_periodic_task();
 558:firmwares/fixedwing/main_ap.c **** #endif
 559:firmwares/fixedwing/main_ap.c **** }
 560:firmwares/fixedwing/main_ap.c **** 
 561:firmwares/fixedwing/main_ap.c **** 
 562:firmwares/fixedwing/main_ap.c **** 
 563:firmwares/fixedwing/main_ap.c **** 
 564:firmwares/fixedwing/main_ap.c **** /** Maximum time allowed for low battery level before going into kill mode */
 565:firmwares/fixedwing/main_ap.c **** #define LOW_BATTERY_DELAY 5
 566:firmwares/fixedwing/main_ap.c **** 
 567:firmwares/fixedwing/main_ap.c **** /** Maximum distance from HOME waypoint before going into kill mode */
 568:firmwares/fixedwing/main_ap.c **** #ifndef KILL_MODE_DISTANCE
 569:firmwares/fixedwing/main_ap.c **** #define KILL_MODE_DISTANCE (1.5*MAX_DIST_FROM_HOME)
 570:firmwares/fixedwing/main_ap.c **** #endif
 571:firmwares/fixedwing/main_ap.c **** 
 572:firmwares/fixedwing/main_ap.c **** /** Define minimal speed for takeoff in m/s */
 573:firmwares/fixedwing/main_ap.c **** #define MIN_SPEED_FOR_TAKEOFF 5.
 574:firmwares/fixedwing/main_ap.c **** 
 575:firmwares/fixedwing/main_ap.c **** /** monitor stuff run at 1Hz */
 576:firmwares/fixedwing/main_ap.c **** void monitor_task( void ) {
 16529              		.loc 1 576 0
 16530              		.cfi_startproc
 16531              		@ args = 0, pretend = 0, frame = 8
 16532              		@ frame_needed = 0, uses_anonymous_args = 0
 577:firmwares/fixedwing/main_ap.c ****   if (estimator_flight_time)
 16533              		.loc 1 577 0
 16534 0000 4A4B     		ldr	r3, .L382
 576:firmwares/fixedwing/main_ap.c **** void monitor_task( void ) {
 16535              		.loc 1 576 0
 16536 0002 73B5     		push	{r0, r1, r4, r5, r6, lr}
 16537              	.LCFI6:
 16538              		.cfi_def_cfa_offset 24
 16539              		.cfi_offset 14, -4
 16540              		.cfi_offset 6, -8
 16541              		.cfi_offset 5, -12
 16542              		.cfi_offset 4, -16
 16543              		.cfi_offset 1, -20
 16544              		.cfi_offset 0, -24
 16545              		.loc 1 577 0
 16546 0004 1A88     		ldrh	r2, [r3, #0]
 16547 0006 0AB1     		cbz	r2, .L369
 578:firmwares/fixedwing/main_ap.c ****     estimator_flight_time++;
 16548              		.loc 1 578 0
 16549 0008 0132     		adds	r2, r2, #1
 16550 000a 1A80     		strh	r2, [r3, #0]	@ movhi
 16551              	.L369:
 579:firmwares/fixedwing/main_ap.c **** #if defined DATALINK || defined SITL
 580:firmwares/fixedwing/main_ap.c ****   datalink_time++;
 16552              		.loc 1 580 0
 16553 000c 484B     		ldr	r3, .L382+4
 16554 000e 1A88     		ldrh	r2, [r3, #0]
 16555 0010 0132     		adds	r2, r2, #1
 16556 0012 1A80     		strh	r2, [r3, #0]	@ movhi
 581:firmwares/fixedwing/main_ap.c **** #endif
 582:firmwares/fixedwing/main_ap.c **** 
 583:firmwares/fixedwing/main_ap.c ****   static uint8_t t = 0;
 584:firmwares/fixedwing/main_ap.c ****   if (vsupply < CATASTROPHIC_BAT_LEVEL*10)
 16557              		.loc 1 584 0
 16558 0014 474B     		ldr	r3, .L382+8
 16559 0016 1878     		ldrb	r0, [r3, #0]	@ zero_extendqisi2
 16560 0018 FFF7FEFF 		bl	__aeabi_i2d
 16561 001c 464B     		ldr	r3, .L382+12
 16562 001e 0022     		movs	r2, #0
 16563 0020 FFF7FEFF 		bl	__aeabi_dcmplt
 16564 0024 454B     		ldr	r3, .L382+16
 16565 0026 18B1     		cbz	r0, .L381
 585:firmwares/fixedwing/main_ap.c ****     t++;
 16566              		.loc 1 585 0
 16567 0028 1A78     		ldrb	r2, [r3, #0]	@ zero_extendqisi2
 16568 002a 0132     		adds	r2, r2, #1
 16569 002c 1A70     		strb	r2, [r3, #0]
 16570 002e 00E0     		b	.L372
 16571              	.L381:
 586:firmwares/fixedwing/main_ap.c ****   else
 587:firmwares/fixedwing/main_ap.c ****     t = 0;
 16572              		.loc 1 587 0
 16573 0030 1870     		strb	r0, [r3, #0]
 16574              	.L372:
 588:firmwares/fixedwing/main_ap.c ****   kill_throttle |= (t >= LOW_BATTERY_DELAY);
 16575              		.loc 1 588 0
 16576 0032 1C78     		ldrb	r4, [r3, #0]	@ zero_extendqisi2
 16577 0034 424B     		ldr	r3, .L382+20
 16578 0036 1B78     		ldrb	r3, [r3, #0]	@ zero_extendqisi2
 16579 0038 042C     		cmp	r4, #4
 16580 003a 94BF     		ite	ls
 16581 003c 1C46     		movls	r4, r3
 16582 003e 43F00104 		orrhi	r4, r3, #1
 589:firmwares/fixedwing/main_ap.c ****   kill_throttle |= launch && (dist2_to_home > Square(KILL_MODE_DISTANCE));
 16583              		.loc 1 589 0
 16584 0042 404B     		ldr	r3, .L382+24
 16585 0044 1878     		ldrb	r0, [r3, #0]	@ zero_extendqisi2
 16586 0046 38B1     		cbz	r0, .L373
 16587              		.loc 1 589 0 is_stmt 0 discriminator 1
 16588 0048 3F4B     		ldr	r3, .L382+28
 16589 004a 4049     		ldr	r1, .L382+32
 16590 004c 1868     		ldr	r0, [r3, #0]	@ float
 16591 004e FFF7FEFF 		bl	__aeabi_fcmpgt
 16592 0052 0030     		adds	r0, r0, #0
 16593 0054 18BF     		it	ne
 16594 0056 0120     		movne	r0, #1
 16595              	.L373:
 16596              		.loc 1 589 0 discriminator 3
 16597 0058 394B     		ldr	r3, .L382+20
 16598 005a 0443     		orrs	r4, r4, r0
 16599 005c 1C70     		strb	r4, [r3, #0]
 590:firmwares/fixedwing/main_ap.c **** 
 591:firmwares/fixedwing/main_ap.c ****   if (!estimator_flight_time &&
 16600              		.loc 1 591 0 is_stmt 1 discriminator 3
 16601 005e 334C     		ldr	r4, .L382
 16602 0060 2388     		ldrh	r3, [r4, #0]
 16603 0062 002B     		cmp	r3, #0
 16604 0064 60D1     		bne	.L368
 16605              		.loc 1 591 0 is_stmt 0 discriminator 1
 16606 0066 3A4B     		ldr	r3, .L382+36
 16607 0068 3A49     		ldr	r1, .L382+40
 16608 006a 1868     		ldr	r0, [r3, #0]	@ float
 16609 006c FFF7FEFF 		bl	__aeabi_fcmpgt
 16610 0070 0028     		cmp	r0, #0
 16611 0072 59D0     		beq	.L368
 16612              	.LBB1098:
 592:firmwares/fixedwing/main_ap.c ****       estimator_hspeed_mod > MIN_SPEED_FOR_TAKEOFF) {
 593:firmwares/fixedwing/main_ap.c ****     estimator_flight_time = 1;
 594:firmwares/fixedwing/main_ap.c ****     launch = TRUE; /* Not set in non auto launch */
 16613              		.loc 1 594 0 is_stmt 1
 16614 0074 334B     		ldr	r3, .L382+24
 593:firmwares/fixedwing/main_ap.c ****     estimator_flight_time = 1;
 16615              		.loc 1 593 0
 16616 0076 0126     		movs	r6, #1
 16617              		.loc 1 594 0
 16618 0078 1E70     		strb	r6, [r3, #0]
 595:firmwares/fixedwing/main_ap.c ****     uint16_t time_sec = sys_time.nb_sec;
 16619              		.loc 1 595 0
 16620 007a 374B     		ldr	r3, .L382+44
 593:firmwares/fixedwing/main_ap.c ****     estimator_flight_time = 1;
 16621              		.loc 1 593 0
 16622 007c 2680     		strh	r6, [r4, #0]	@ movhi
 16623              		.loc 1 595 0
 16624 007e 1B68     		ldr	r3, [r3, #0]
 596:firmwares/fixedwing/main_ap.c ****     DOWNLINK_SEND_TAKEOFF(DefaultChannel, DefaultDevice, &time_sec);
 16625              		.loc 1 596 0
 16626 0080 3648     		ldr	r0, .L382+48
 16627 0082 0821     		movs	r1, #8
 595:firmwares/fixedwing/main_ap.c ****     uint16_t time_sec = sys_time.nb_sec;
 16628              		.loc 1 595 0
 16629 0084 ADF80630 		strh	r3, [sp, #6]	@ movhi
 16630              	.LVL2633:
 16631              		.loc 1 596 0
 16632 0088 FFF7FEFF 		bl	uart_check_free_space
 16633 008c 0028     		cmp	r0, #0
 16634 008e 47D0     		beq	.L377
 16635              		.loc 1 596 0 is_stmt 0 discriminator 1
 16636 0090 334B     		ldr	r3, .L382+52
 16637              	.LBB1099:
 16638 0092 9921     		movs	r1, #153
 16639              	.LBE1099:
 16640 0094 1A88     		ldrh	r2, [r3, #0]
 16641              	.LBB1100:
 16642 0096 3148     		ldr	r0, .L382+48
 16643              	.LBE1100:
 16644 0098 0832     		adds	r2, r2, #8
 16645 009a 1A80     		strh	r2, [r3, #0]	@ movhi
 16646 009c 314B     		ldr	r3, .L382+56
 16647 009e 324D     		ldr	r5, .L382+60
 16648 00a0 1A88     		ldrh	r2, [r3, #0]
 16649 00a2 324C     		ldr	r4, .L382+64
 16650 00a4 9219     		adds	r2, r2, r6
 16651 00a6 1A80     		strh	r2, [r3, #0]	@ movhi
 16652              	.LBB1101:
 16653 00a8 FFF7FEFF 		bl	uart_transmit
 16654              	.LVL2634:
 16655 00ac 0821     		movs	r1, #8
 16656 00ae 2B48     		ldr	r0, .L382+48
 16657 00b0 FFF7FEFF 		bl	uart_transmit
 16658              	.LBE1101:
 16659 00b4 0923     		movs	r3, #9
 16660 00b6 2B70     		strb	r3, [r5, #0]
 16661 00b8 1123     		movs	r3, #17
 16662 00ba 2370     		strb	r3, [r4, #0]
 16663 00bc 3146     		mov	r1, r6
 16664 00be 2748     		ldr	r0, .L382+48
 16665 00c0 FFF7FEFF 		bl	uart_transmit
 16666 00c4 2B78     		ldrb	r3, [r5, #0]	@ zero_extendqisi2
 16667 00c6 2278     		ldrb	r2, [r4, #0]	@ zero_extendqisi2
 16668 00c8 0433     		adds	r3, r3, #4
 16669 00ca DBB2     		uxtb	r3, r3
 16670              	.LVL2635:
 16671 00cc 2B70     		strb	r3, [r5, #0]
 16672 00ce 9B18     		adds	r3, r3, r2
 16673              	.LVL2636:
 16674 00d0 2370     		strb	r3, [r4, #0]
 16675 00d2 0421     		movs	r1, #4
 16676 00d4 2148     		ldr	r0, .L382+48
 16677 00d6 FFF7FEFF 		bl	uart_transmit
 16678              	.LBB1102:
 16679 00da 9DF80610 		ldrb	r1, [sp, #6]	@ zero_extendqisi2
 16680              	.LVL2637:
 16681 00de 2B78     		ldrb	r3, [r5, #0]	@ zero_extendqisi2
 16682 00e0 2278     		ldrb	r2, [r4, #0]	@ zero_extendqisi2
 16683 00e2 CB18     		adds	r3, r1, r3
 16684 00e4 DBB2     		uxtb	r3, r3
 16685              	.LVL2638:
 16686 00e6 2B70     		strb	r3, [r5, #0]
 16687 00e8 9B18     		adds	r3, r3, r2
 16688              	.LVL2639:
 16689 00ea 2370     		strb	r3, [r4, #0]
 16690 00ec 1B48     		ldr	r0, .L382+48
 16691 00ee FFF7FEFF 		bl	uart_transmit
 16692              	.LVL2640:
 16693              	.LBE1102:
 16694              	.LBB1103:
 16695 00f2 9DF80710 		ldrb	r1, [sp, #7]	@ zero_extendqisi2
 16696              	.LVL2641:
 16697 00f6 2B78     		ldrb	r3, [r5, #0]	@ zero_extendqisi2
 16698 00f8 2278     		ldrb	r2, [r4, #0]	@ zero_extendqisi2
 16699 00fa CB18     		adds	r3, r1, r3
 16700 00fc DBB2     		uxtb	r3, r3
 16701              	.LVL2642:
 16702 00fe 2B70     		strb	r3, [r5, #0]
 16703 0100 9B18     		adds	r3, r3, r2
 16704              	.LVL2643:
 16705 0102 2370     		strb	r3, [r4, #0]
 16706 0104 1548     		ldr	r0, .L382+48
 16707 0106 FFF7FEFF 		bl	uart_transmit
 16708              	.LVL2644:
 16709              	.LBE1103:
 16710 010a 2978     		ldrb	r1, [r5, #0]	@ zero_extendqisi2
 16711 010c 1348     		ldr	r0, .L382+48
 16712 010e FFF7FEFF 		bl	uart_transmit
 16713 0112 1248     		ldr	r0, .L382+48
 16714 0114 2178     		ldrb	r1, [r4, #0]	@ zero_extendqisi2
 16715              	.LBE1098:
 597:firmwares/fixedwing/main_ap.c ****   }
 598:firmwares/fixedwing/main_ap.c **** 
 599:firmwares/fixedwing/main_ap.c **** #ifdef USE_GPIO
 600:firmwares/fixedwing/main_ap.c ****    GpioUpdate1();
 601:firmwares/fixedwing/main_ap.c **** #endif
 602:firmwares/fixedwing/main_ap.c **** }
 16716              		.loc 1 602 0 is_stmt 1 discriminator 1
 16717 0116 02B0     		add	sp, sp, #8
 16718 0118 BDE87040 		pop	{r4, r5, r6, lr}
 16719              	.LBB1104:
 596:firmwares/fixedwing/main_ap.c ****     DOWNLINK_SEND_TAKEOFF(DefaultChannel, DefaultDevice, &time_sec);
 16720              		.loc 1 596 0 discriminator 1
 16721 011c FFF7FEBF 		b	uart_transmit
 16722              	.LVL2645:
 16723              	.L377:
 596:firmwares/fixedwing/main_ap.c ****     DOWNLINK_SEND_TAKEOFF(DefaultChannel, DefaultDevice, &time_sec);
 16724              		.loc 1 596 0 is_stmt 0 discriminator 2
 16725 0120 134B     		ldr	r3, .L382+68
 16726 0122 1A78     		ldrb	r2, [r3, #0]	@ zero_extendqisi2
 16727 0124 0132     		adds	r2, r2, #1
 16728 0126 1A70     		strb	r2, [r3, #0]
 16729              	.L368:
 16730              	.LBE1104:
 16731              		.loc 1 602 0 is_stmt 1
 16732 0128 02B0     		add	sp, sp, #8
 16733 012a 70BD     		pop	{r4, r5, r6, pc}
 16734              	.L383:
 16735              		.align	2
 16736              	.L382:
 16737 012c 00000000 		.word	estimator_flight_time
 16738 0130 00000000 		.word	datalink_time
 16739 0134 00000000 		.word	.LANCHOR26
 16740 0138 00805640 		.word	1079410688
 16741 013c 00000000 		.word	.LANCHOR68
 16742 0140 00000000 		.word	.LANCHOR27
 16743 0144 00000000 		.word	.LANCHOR30
 16744 0148 00000000 		.word	dist2_to_home
 16745 014c 4054094B 		.word	1258902592
 16746 0150 00000000 		.word	estimator_hspeed_mod
 16747 0154 0000A040 		.word	1084227584
 16748 0158 00000000 		.word	sys_time
 16749 015c 00000000 		.word	uart2
 16750 0160 00000000 		.word	downlink_nb_bytes
 16751 0164 00000000 		.word	downlink_nb_msgs
 16752 0168 00000000 		.word	ck_a
 16753 016c 00000000 		.word	ck_b
 16754 0170 00000000 		.word	downlink_nb_ovrn
 16755              		.cfi_endproc
 16756              	.LFE58:
 16758              		.section	.text.handle_periodic_tasks_ap,"ax",%progbits
 16759              		.align	1
 16760              		.global	handle_periodic_tasks_ap
 16761              		.thumb
 16762              		.thumb_func
 16764              	handle_periodic_tasks_ap:
 16765              	.LFB49:
 246:firmwares/fixedwing/main_ap.c **** void handle_periodic_tasks_ap(void) {
 16766              		.loc 1 246 0
 16767              		.cfi_startproc
 16768              		@ args = 0, pretend = 0, frame = 0
 16769              		@ frame_needed = 0, uses_anonymous_args = 0
 16770              	.LVL2646:
 16771 0000 10B5     		push	{r4, lr}
 16772              	.LCFI7:
 16773              		.cfi_def_cfa_offset 8
 16774              		.cfi_offset 14, -4
 16775              		.cfi_offset 4, -8
 16776              	.LBB1105:
 16777              	.LBB1106:
 16778              		.file 2 "./mcu_periph/sys_time.h"
   1:./mcu_periph/sys_time.h **** /*
   2:./mcu_periph/sys_time.h ****  *
   3:./mcu_periph/sys_time.h ****  * Copyright (C) 2009-2011 The Paparazzi Team
   4:./mcu_periph/sys_time.h ****  *
   5:./mcu_periph/sys_time.h ****  * This file is part of paparazzi.
   6:./mcu_periph/sys_time.h ****  *
   7:./mcu_periph/sys_time.h ****  * paparazzi is free software; you can redistribute it and/or modify
   8:./mcu_periph/sys_time.h ****  * it under the terms of the GNU General Public License as published by
   9:./mcu_periph/sys_time.h ****  * the Free Software Foundation; either version 2, or (at your option)
  10:./mcu_periph/sys_time.h ****  * any later version.
  11:./mcu_periph/sys_time.h ****  *
  12:./mcu_periph/sys_time.h ****  * paparazzi is distributed in the hope that it will be useful,
  13:./mcu_periph/sys_time.h ****  * but WITHOUT ANY WARRANTY; without even the implied warranty of
  14:./mcu_periph/sys_time.h ****  * MERCHANTABILITY or FITNESS FOR A PARTICULAR PURPOSE.  See the
  15:./mcu_periph/sys_time.h ****  * GNU General Public License for more details.
  16:./mcu_periph/sys_time.h ****  *
  17:./mcu_periph/sys_time.h ****  * You should have received a copy of the GNU General Public License
  18:./mcu_periph/sys_time.h ****  * along with paparazzi; see the file COPYING.  If not, write to
  19:./mcu_periph/sys_time.h ****  * the Free Software Foundation, 59 Temple Place - Suite 330,
  20:./mcu_periph/sys_time.h ****  * Boston, MA 02111-1307, USA.
  21:./mcu_periph/sys_time.h ****  *
  22:./mcu_periph/sys_time.h ****  */
  23:./mcu_periph/sys_time.h **** 
  24:./mcu_periph/sys_time.h **** /**
  25:./mcu_periph/sys_time.h ****  * @file mcu_periph/sys_time.h
  26:./mcu_periph/sys_time.h ****  * @brief Architecture independent timing functions.
  27:./mcu_periph/sys_time.h ****  *
  28:./mcu_periph/sys_time.h ****  */
  29:./mcu_periph/sys_time.h **** 
  30:./mcu_periph/sys_time.h **** #ifndef SYS_TIME_H
  31:./mcu_periph/sys_time.h **** #define SYS_TIME_H
  32:./mcu_periph/sys_time.h **** 
  33:./mcu_periph/sys_time.h **** #include <inttypes.h>
  34:./mcu_periph/sys_time.h **** #include <stdlib.h>
  35:./mcu_periph/sys_time.h **** #include "std.h"
  36:./mcu_periph/sys_time.h **** 
  37:./mcu_periph/sys_time.h **** #include BOARD_CONFIG
  38:./mcu_periph/sys_time.h **** 
  39:./mcu_periph/sys_time.h **** #ifndef SYS_TIME_NB_TIMER
  40:./mcu_periph/sys_time.h **** #define SYS_TIME_NB_TIMER 8
  41:./mcu_periph/sys_time.h **** #endif
  42:./mcu_periph/sys_time.h **** 
  43:./mcu_periph/sys_time.h **** typedef uint8_t tid_t; ///< sys_time timer id type
  44:./mcu_periph/sys_time.h **** typedef void (*sys_time_cb) (uint8_t id);
  45:./mcu_periph/sys_time.h **** 
  46:./mcu_periph/sys_time.h **** struct sys_time_timer {
  47:./mcu_periph/sys_time.h ****   bool_t          in_use;
  48:./mcu_periph/sys_time.h ****   sys_time_cb     cb;
  49:./mcu_periph/sys_time.h ****   volatile bool_t elapsed;
  50:./mcu_periph/sys_time.h ****   uint32_t        end_time; ///< in SYS_TICKS
  51:./mcu_periph/sys_time.h ****   uint32_t        duration; ///< in SYS_TICKS
  52:./mcu_periph/sys_time.h **** };
  53:./mcu_periph/sys_time.h **** 
  54:./mcu_periph/sys_time.h **** struct sys_time {
  55:./mcu_periph/sys_time.h ****   volatile uint32_t nb_sec;       ///< full seconds since startup
  56:./mcu_periph/sys_time.h ****   volatile uint32_t nb_sec_rem;   ///< remainder of second in CPU_TICKS
  57:./mcu_periph/sys_time.h ****   volatile uint32_t nb_tick;      ///< in SYS_TICKS with SYS_TIME_RESOLUTION
  58:./mcu_periph/sys_time.h ****   struct sys_time_timer timer[SYS_TIME_NB_TIMER];
  59:./mcu_periph/sys_time.h **** };
  60:./mcu_periph/sys_time.h **** 
  61:./mcu_periph/sys_time.h **** extern struct sys_time sys_time;
  62:./mcu_periph/sys_time.h **** 
  63:./mcu_periph/sys_time.h **** //FIXME temporary hack
  64:./mcu_periph/sys_time.h **** #define cpu_time_sec sys_time.nb_sec
  65:./mcu_periph/sys_time.h **** #define cpu_time_ticks sys_time.nb_sec_rem
  66:./mcu_periph/sys_time.h **** 
  67:./mcu_periph/sys_time.h **** extern void sys_time_init(void);
  68:./mcu_periph/sys_time.h **** 
  69:./mcu_periph/sys_time.h **** /**
  70:./mcu_periph/sys_time.h ****  * Register a new system timer.
  71:./mcu_periph/sys_time.h ****  * @param duration Duration in seconds until the timer elapses.
  72:./mcu_periph/sys_time.h ****  * @param cb Callback function that is called from the ISR when timer elapses, or NULL
  73:./mcu_periph/sys_time.h ****  * @return -1 if it failed, the timer id otherwise
  74:./mcu_periph/sys_time.h ****  */
  75:./mcu_periph/sys_time.h **** extern int sys_time_register_timer(float duration, sys_time_cb cb);
  76:./mcu_periph/sys_time.h **** 
  77:./mcu_periph/sys_time.h **** /**
  78:./mcu_periph/sys_time.h ****  * Cancel a system timer by id.
  79:./mcu_periph/sys_time.h ****  * @param id Timer id.
  80:./mcu_periph/sys_time.h ****  */
  81:./mcu_periph/sys_time.h **** extern void sys_time_cancel_timer(tid_t id);
  82:./mcu_periph/sys_time.h **** 
  83:./mcu_periph/sys_time.h **** /**
  84:./mcu_periph/sys_time.h ****  * Update the duration until a timer elapses.
  85:./mcu_periph/sys_time.h ****  * @param id Timer id
  86:./mcu_periph/sys_time.h ****  * @param duration Duration in seconds until the timer elapses.
  87:./mcu_periph/sys_time.h ****  */
  88:./mcu_periph/sys_time.h **** extern void sys_time_update_timer(tid_t id, float duration);
  89:./mcu_periph/sys_time.h **** 
  90:./mcu_periph/sys_time.h **** static inline bool_t sys_time_check_and_ack_timer(tid_t id) {
  91:./mcu_periph/sys_time.h ****   if (sys_time.timer[id].elapsed) {
 16779              		.loc 2 91 0
 16780 0002 204B     		ldr	r3, .L390
 16781 0004 1421     		movs	r1, #20
 16782 0006 1A78     		ldrb	r2, [r3, #0]	@ zero_extendqisi2
 16783 0008 1F4B     		ldr	r3, .L390+4
 16784 000a 01FB0232 		mla	r2, r1, r2, r3
 16785 000e 117D     		ldrb	r1, [r2, #20]	@ zero_extendqisi2
 16786 0010 1C46     		mov	r4, r3
 16787 0012 1032     		adds	r2, r2, #16
 16788 0014 19B1     		cbz	r1, .L385
  92:./mcu_periph/sys_time.h ****     sys_time.timer[id].elapsed = FALSE;
 16789              		.loc 2 92 0
 16790 0016 0023     		movs	r3, #0
 16791 0018 1371     		strb	r3, [r2, #4]
 16792              	.LBE1106:
 16793              	.LBE1105:
 249:firmwares/fixedwing/main_ap.c ****     sensors_task();
 16794              		.loc 1 249 0
 16795 001a FFF7FEFF 		bl	sensors_task
 16796              	.LVL2647:
 16797              	.L385:
 16798              	.LBB1107:
 16799              	.LBB1108:
  91:./mcu_periph/sys_time.h ****   if (sys_time.timer[id].elapsed) {
 16800              		.loc 2 91 0
 16801 001e 1B4B     		ldr	r3, .L390+8
 16802 0020 1422     		movs	r2, #20
 16803 0022 1B78     		ldrb	r3, [r3, #0]	@ zero_extendqisi2
 16804 0024 02FB0343 		mla	r3, r2, r3, r4
 16805 0028 1A7D     		ldrb	r2, [r3, #20]	@ zero_extendqisi2
 16806 002a 1033     		adds	r3, r3, #16
 16807 002c 1AB1     		cbz	r2, .L386
 16808              		.loc 2 92 0
 16809 002e 0022     		movs	r2, #0
 16810 0030 1A71     		strb	r2, [r3, #4]
 16811              	.LBE1108:
 16812              	.LBE1107:
 252:firmwares/fixedwing/main_ap.c ****     navigation_task();
 16813              		.loc 1 252 0
 16814 0032 FFF7FEFF 		bl	navigation_task
 16815              	.LVL2648:
 16816              	.L386:
 16817              	.LBB1109:
 16818              	.LBB1110:
  91:./mcu_periph/sys_time.h ****   if (sys_time.timer[id].elapsed) {
 16819              		.loc 2 91 0
 16820 0036 164B     		ldr	r3, .L390+12
 16821 0038 1421     		movs	r1, #20
 16822 003a 1A78     		ldrb	r2, [r3, #0]	@ zero_extendqisi2
 16823 003c 124B     		ldr	r3, .L390+4
 16824 003e 01FB0232 		mla	r2, r1, r2, r3
 16825 0042 117D     		ldrb	r1, [r2, #20]	@ zero_extendqisi2
 16826 0044 1032     		adds	r2, r2, #16
 16827 0046 09B1     		cbz	r1, .L387
 16828              		.loc 2 92 0
 16829 0048 0021     		movs	r1, #0
 16830 004a 1171     		strb	r1, [r2, #4]
 16831              	.L387:
 16832              	.LVL2649:
 16833              	.LBE1110:
 16834              	.LBE1109:
 16835              	.LBB1111:
 16836              	.LBB1112:
  91:./mcu_periph/sys_time.h ****   if (sys_time.timer[id].elapsed) {
 16837              		.loc 2 91 0
 16838 004c 114A     		ldr	r2, .L390+16
 16839 004e 1421     		movs	r1, #20
 16840 0050 1278     		ldrb	r2, [r2, #0]	@ zero_extendqisi2
 16841 0052 01FB0233 		mla	r3, r1, r2, r3
 16842 0056 1A7D     		ldrb	r2, [r3, #20]	@ zero_extendqisi2
 16843 0058 1033     		adds	r3, r3, #16
 16844 005a 1AB1     		cbz	r2, .L388
 16845              		.loc 2 92 0
 16846 005c 0022     		movs	r2, #0
 16847 005e 1A71     		strb	r2, [r3, #4]
 16848              	.LBE1112:
 16849              	.LBE1111:
 263:firmwares/fixedwing/main_ap.c ****     monitor_task();
 16850              		.loc 1 263 0
 16851 0060 FFF7FEFF 		bl	monitor_task
 16852              	.LVL2650:
 16853              	.L388:
 16854              	.LBB1113:
 16855              	.LBB1114:
  91:./mcu_periph/sys_time.h ****   if (sys_time.timer[id].elapsed) {
 16856              		.loc 2 91 0
 16857 0064 0C4B     		ldr	r3, .L390+20
 16858 0066 084A     		ldr	r2, .L390+4
 16859 0068 1B78     		ldrb	r3, [r3, #0]	@ zero_extendqisi2
 16860 006a 1421     		movs	r1, #20
 16861 006c 01FB0323 		mla	r3, r1, r3, r2
 16862 0070 1033     		adds	r3, r3, #16
 16863 0072 1A79     		ldrb	r2, [r3, #4]	@ zero_extendqisi2
 16864 0074 2AB1     		cbz	r2, .L384
 16865              		.loc 2 92 0
 16866 0076 0022     		movs	r2, #0
 16867 0078 1A71     		strb	r2, [r3, #4]
 16868              	.LBE1114:
 16869              	.LBE1113:
 270:firmwares/fixedwing/main_ap.c **** }
 16870              		.loc 1 270 0
 16871 007a BDE81040 		pop	{r4, lr}
 266:firmwares/fixedwing/main_ap.c ****     reporting_task();
 16872              		.loc 1 266 0
 16873 007e FFF7FEBF 		b	reporting_task
 16874              	.LVL2651:
 16875              	.L384:
 16876 0082 10BD     		pop	{r4, pc}
 16877              	.L391:
 16878              		.align	2
 16879              	.L390:
 16880 0084 00000000 		.word	.LANCHOR0
 16881 0088 00000000 		.word	sys_time
 16882 008c 00000000 		.word	.LANCHOR1
 16883 0090 00000000 		.word	.LANCHOR3
 16884 0094 00000000 		.word	.LANCHOR5
 16885 0098 00000000 		.word	.LANCHOR4
 16886              		.cfi_endproc
 16887              	.LFE49:
 16889              		.global	__aeabi_dadd
 16890              		.global	__aeabi_d2f
 16891              		.section	.text.event_task_ap,"ax",%progbits
 16892              		.align	1
 16893              		.global	event_task_ap
 16894              		.thumb
 16895              		.thumb_func
 16897              	event_task_ap:
 16898              	.LFB59:
 603:firmwares/fixedwing/main_ap.c **** 
 604:firmwares/fixedwing/main_ap.c **** 
 605:firmwares/fixedwing/main_ap.c **** /*********** EVENT ***********************************************************/
 606:firmwares/fixedwing/main_ap.c **** void event_task_ap( void ) {
 16899              		.loc 1 606 0
 16900              		.cfi_startproc
 16901              		@ args = 0, pretend = 0, frame = 8
 16902              		@ frame_needed = 0, uses_anonymous_args = 0
 16903 0000 2DE9F74F 		push	{r0, r1, r2, r4, r5, r6, r7, r8, r9, sl, fp, lr}
 16904              	.LCFI8:
 16905              		.cfi_def_cfa_offset 48
 16906              		.cfi_offset 14, -4
 16907              		.cfi_offset 11, -8
 16908              		.cfi_offset 10, -12
 16909              		.cfi_offset 9, -16
 16910              		.cfi_offset 8, -20
 16911              		.cfi_offset 7, -24
 16912              		.cfi_offset 6, -28
 16913              		.cfi_offset 5, -32
 16914              		.cfi_offset 4, -36
 16915              		.cfi_offset 2, -40
 16916              		.cfi_offset 1, -44
 16917              		.cfi_offset 0, -48
 16918              	.LBB1150:
 16919              	.LBB1151:
 16920              		.file 3 "./subsystems/imu/imu_aspirin2.h"
   1:./subsystems/imu/imu_aspirin2.h **** /*
   2:./subsystems/imu/imu_aspirin2.h ****  * Copyright (C) 2012 Christophe DeWagter
   3:./subsystems/imu/imu_aspirin2.h ****  *
   4:./subsystems/imu/imu_aspirin2.h ****  * This file is part of paparazzi.
   5:./subsystems/imu/imu_aspirin2.h ****  *
   6:./subsystems/imu/imu_aspirin2.h ****  * paparazzi is free software; you can redistribute it and/or modify
   7:./subsystems/imu/imu_aspirin2.h ****  * it under the terms of the GNU General Public License as published by
   8:./subsystems/imu/imu_aspirin2.h ****  * the Free Software Foundation; either version 2, or (at your option)
   9:./subsystems/imu/imu_aspirin2.h ****  * any later version.
  10:./subsystems/imu/imu_aspirin2.h ****  *
  11:./subsystems/imu/imu_aspirin2.h ****  * paparazzi is distributed in the hope that it will be useful,
  12:./subsystems/imu/imu_aspirin2.h ****  * but WITHOUT ANY WARRANTY; without even the implied warranty of
  13:./subsystems/imu/imu_aspirin2.h ****  * MERCHANTABILITY or FITNESS FOR A PARTICULAR PURPOSE.  See the
  14:./subsystems/imu/imu_aspirin2.h ****  * GNU General Public License for more details.
  15:./subsystems/imu/imu_aspirin2.h ****  *
  16:./subsystems/imu/imu_aspirin2.h ****  * You should have received a copy of the GNU General Public License
  17:./subsystems/imu/imu_aspirin2.h ****  * along with paparazzi; see the file COPYING.  If not, write to
  18:./subsystems/imu/imu_aspirin2.h ****  * the Free Software Foundation, 59 Temple Place - Suite 330,
  19:./subsystems/imu/imu_aspirin2.h ****  * Boston, MA 02111-1307, USA.
  20:./subsystems/imu/imu_aspirin2.h ****  */
  21:./subsystems/imu/imu_aspirin2.h **** 
  22:./subsystems/imu/imu_aspirin2.h **** #ifndef IMU_ASPIRIN_2_H
  23:./subsystems/imu/imu_aspirin2.h **** #define IMU_ASPIRIN_2_H
  24:./subsystems/imu/imu_aspirin2.h **** 
  25:./subsystems/imu/imu_aspirin2.h **** #include "generated/airframe.h"
  26:./subsystems/imu/imu_aspirin2.h **** #include "subsystems/imu.h"
  27:./subsystems/imu/imu_aspirin2.h **** 
  28:./subsystems/imu/imu_aspirin2.h **** 
  29:./subsystems/imu/imu_aspirin2.h **** #ifdef IMU_ASPIRIN_VERSION_2_1
  30:./subsystems/imu/imu_aspirin2.h **** #if !defined IMU_MAG_X_SIGN & !defined IMU_MAG_Y_SIGN & !defined IMU_MAG_Z_SIGN
  31:./subsystems/imu/imu_aspirin2.h **** #define IMU_MAG_X_SIGN 1
  32:./subsystems/imu/imu_aspirin2.h **** #define IMU_MAG_Y_SIGN 1
  33:./subsystems/imu/imu_aspirin2.h **** #define IMU_MAG_Z_SIGN 1
  34:./subsystems/imu/imu_aspirin2.h **** #endif
  35:./subsystems/imu/imu_aspirin2.h **** #endif
  36:./subsystems/imu/imu_aspirin2.h **** 
  37:./subsystems/imu/imu_aspirin2.h **** #if !defined IMU_GYRO_P_SIGN & !defined IMU_GYRO_Q_SIGN & !defined IMU_GYRO_R_SIGN
  38:./subsystems/imu/imu_aspirin2.h **** #define IMU_GYRO_P_SIGN   1
  39:./subsystems/imu/imu_aspirin2.h **** #define IMU_GYRO_Q_SIGN   1
  40:./subsystems/imu/imu_aspirin2.h **** #define IMU_GYRO_R_SIGN   1
  41:./subsystems/imu/imu_aspirin2.h **** #endif
  42:./subsystems/imu/imu_aspirin2.h **** #if !defined IMU_ACCEL_X_SIGN & !defined IMU_ACCEL_Y_SIGN & !defined IMU_ACCEL_Z_SIGN
  43:./subsystems/imu/imu_aspirin2.h **** #define IMU_ACCEL_X_SIGN  1
  44:./subsystems/imu/imu_aspirin2.h **** #define IMU_ACCEL_Y_SIGN  1
  45:./subsystems/imu/imu_aspirin2.h **** #define IMU_ACCEL_Z_SIGN  1
  46:./subsystems/imu/imu_aspirin2.h **** #endif
  47:./subsystems/imu/imu_aspirin2.h **** 
  48:./subsystems/imu/imu_aspirin2.h **** /** default gyro sensitivy and neutral from the datasheet
  49:./subsystems/imu/imu_aspirin2.h ****  * MPU60X0 has 16.4 LSB/(deg/s) at 2000deg/s range
  50:./subsystems/imu/imu_aspirin2.h ****  * sens = 1/16.4 * pi/180 * 2^INT32_RATE_FRAC
  51:./subsystems/imu/imu_aspirin2.h ****  * sens = 1/16.4 * pi/180 * 4096 = 4.359066229
  52:./subsystems/imu/imu_aspirin2.h ****  */
  53:./subsystems/imu/imu_aspirin2.h **** #if !defined IMU_GYRO_P_SENS & !defined IMU_GYRO_Q_SENS & !defined IMU_GYRO_R_SENS
  54:./subsystems/imu/imu_aspirin2.h **** #define IMU_GYRO_P_SENS 4.359
  55:./subsystems/imu/imu_aspirin2.h **** #define IMU_GYRO_P_SENS_NUM 4359
  56:./subsystems/imu/imu_aspirin2.h **** #define IMU_GYRO_P_SENS_DEN 1000
  57:./subsystems/imu/imu_aspirin2.h **** #define IMU_GYRO_Q_SENS 4.359
  58:./subsystems/imu/imu_aspirin2.h **** #define IMU_GYRO_Q_SENS_NUM 4359
  59:./subsystems/imu/imu_aspirin2.h **** #define IMU_GYRO_Q_SENS_DEN 1000
  60:./subsystems/imu/imu_aspirin2.h **** #define IMU_GYRO_R_SENS 4.359
  61:./subsystems/imu/imu_aspirin2.h **** #define IMU_GYRO_R_SENS_NUM 4359
  62:./subsystems/imu/imu_aspirin2.h **** #define IMU_GYRO_R_SENS_DEN 1000
  63:./subsystems/imu/imu_aspirin2.h **** #endif
  64:./subsystems/imu/imu_aspirin2.h **** #if !defined IMU_GYRO_P_NEUTRAL & !defined IMU_GYRO_Q_NEUTRAL & !defined IMU_GYRO_R_NEUTRAL
  65:./subsystems/imu/imu_aspirin2.h **** #define IMU_GYRO_P_NEUTRAL 0
  66:./subsystems/imu/imu_aspirin2.h **** #define IMU_GYRO_Q_NEUTRAL 0
  67:./subsystems/imu/imu_aspirin2.h **** #define IMU_GYRO_R_NEUTRAL 0
  68:./subsystems/imu/imu_aspirin2.h **** #endif
  69:./subsystems/imu/imu_aspirin2.h **** 
  70:./subsystems/imu/imu_aspirin2.h **** /** default accel sensitivy from the datasheet
  71:./subsystems/imu/imu_aspirin2.h ****  * MPU60X0 has 2048 LSB/g
  72:./subsystems/imu/imu_aspirin2.h ****  * fixed point sens: 9.81 [m/s^2] / 2048 [LSB/g] * 2^INT32_ACCEL_FRAC
  73:./subsystems/imu/imu_aspirin2.h ****  * sens = 9.81 / 2048 * 1024 = 4.905
  74:./subsystems/imu/imu_aspirin2.h ****  */
  75:./subsystems/imu/imu_aspirin2.h **** #if !defined IMU_ACCEL_X_SENS & !defined IMU_ACCEL_Y_SENS & !defined IMU_ACCEL_Z_SENS
  76:./subsystems/imu/imu_aspirin2.h **** #define IMU_ACCEL_X_SENS 4.905
  77:./subsystems/imu/imu_aspirin2.h **** #define IMU_ACCEL_X_SENS_NUM 4905
  78:./subsystems/imu/imu_aspirin2.h **** #define IMU_ACCEL_X_SENS_DEN 1000
  79:./subsystems/imu/imu_aspirin2.h **** #define IMU_ACCEL_Y_SENS 4.905
  80:./subsystems/imu/imu_aspirin2.h **** #define IMU_ACCEL_Y_SENS_NUM 4905
  81:./subsystems/imu/imu_aspirin2.h **** #define IMU_ACCEL_Y_SENS_DEN 1000
  82:./subsystems/imu/imu_aspirin2.h **** #define IMU_ACCEL_Z_SENS 4.905
  83:./subsystems/imu/imu_aspirin2.h **** #define IMU_ACCEL_Z_SENS_NUM 4905
  84:./subsystems/imu/imu_aspirin2.h **** #define IMU_ACCEL_Z_SENS_DEN 1000
  85:./subsystems/imu/imu_aspirin2.h **** #endif
  86:./subsystems/imu/imu_aspirin2.h **** #if !defined IMU_ACCEL_X_NEUTRAL & !defined IMU_ACCEL_Y_NEUTRAL & !defined IMU_ACCEL_Z_NEUTRAL
  87:./subsystems/imu/imu_aspirin2.h **** #define IMU_ACCEL_X_NEUTRAL 0
  88:./subsystems/imu/imu_aspirin2.h **** #define IMU_ACCEL_Y_NEUTRAL 0
  89:./subsystems/imu/imu_aspirin2.h **** #define IMU_ACCEL_Z_NEUTRAL 0
  90:./subsystems/imu/imu_aspirin2.h **** #endif
  91:./subsystems/imu/imu_aspirin2.h **** 
  92:./subsystems/imu/imu_aspirin2.h **** 
  93:./subsystems/imu/imu_aspirin2.h **** enum Aspirin2Status
  94:./subsystems/imu/imu_aspirin2.h ****   { Aspirin2StatusUninit,
  95:./subsystems/imu/imu_aspirin2.h ****     Aspirin2StatusIdle,
  96:./subsystems/imu/imu_aspirin2.h ****     Aspirin2StatusReading
  97:./subsystems/imu/imu_aspirin2.h ****   };
  98:./subsystems/imu/imu_aspirin2.h **** 
  99:./subsystems/imu/imu_aspirin2.h **** struct ImuAspirin2 {
 100:./subsystems/imu/imu_aspirin2.h ****   volatile enum Aspirin2Status status;
 101:./subsystems/imu/imu_aspirin2.h ****   volatile uint8_t imu_spi_data_received;
 102:./subsystems/imu/imu_aspirin2.h ****   volatile uint8_t imu_tx_buf[64];
 103:./subsystems/imu/imu_aspirin2.h ****   volatile uint8_t imu_rx_buf[64];
 104:./subsystems/imu/imu_aspirin2.h **** };
 105:./subsystems/imu/imu_aspirin2.h **** 
 106:./subsystems/imu/imu_aspirin2.h **** extern struct ImuAspirin2 imu_aspirin2;
 107:./subsystems/imu/imu_aspirin2.h **** 
 108:./subsystems/imu/imu_aspirin2.h **** 
 109:./subsystems/imu/imu_aspirin2.h **** static inline uint8_t imu_from_buff(void)
 110:./subsystems/imu/imu_aspirin2.h **** {
 111:./subsystems/imu/imu_aspirin2.h ****   int32_t x, y, z, p, q, r, Mx, My, Mz;
 112:./subsystems/imu/imu_aspirin2.h **** 
 113:./subsystems/imu/imu_aspirin2.h **** #define MPU_OFFSET_STATUS 1
 114:./subsystems/imu/imu_aspirin2.h ****   if (!(imu_aspirin2.imu_rx_buf[MPU_OFFSET_STATUS] & 0x01)) {
 115:./subsystems/imu/imu_aspirin2.h ****     return 0;
 116:./subsystems/imu/imu_aspirin2.h ****   }
 117:./subsystems/imu/imu_aspirin2.h **** 
 118:./subsystems/imu/imu_aspirin2.h ****   // If the itg3200 I2C transaction has succeeded: convert the data
 119:./subsystems/imu/imu_aspirin2.h **** #define MPU_OFFSET_GYRO 10
 120:./subsystems/imu/imu_aspirin2.h ****   p = (int16_t) ((imu_aspirin2.imu_rx_buf[0+MPU_OFFSET_GYRO] << 8) | imu_aspirin2.imu_rx_buf[1+MPU_
 121:./subsystems/imu/imu_aspirin2.h ****   q = (int16_t) ((imu_aspirin2.imu_rx_buf[2+MPU_OFFSET_GYRO] << 8) | imu_aspirin2.imu_rx_buf[3+MPU_
 122:./subsystems/imu/imu_aspirin2.h ****   r = (int16_t) ((imu_aspirin2.imu_rx_buf[4+MPU_OFFSET_GYRO] << 8) | imu_aspirin2.imu_rx_buf[5+MPU_
 123:./subsystems/imu/imu_aspirin2.h **** 
 124:./subsystems/imu/imu_aspirin2.h **** #define MPU_OFFSET_ACC 2
 125:./subsystems/imu/imu_aspirin2.h ****   x = (int16_t) ((imu_aspirin2.imu_rx_buf[0+MPU_OFFSET_ACC] << 8) | imu_aspirin2.imu_rx_buf[1+MPU_O
 126:./subsystems/imu/imu_aspirin2.h ****   y = (int16_t) ((imu_aspirin2.imu_rx_buf[2+MPU_OFFSET_ACC] << 8) | imu_aspirin2.imu_rx_buf[3+MPU_O
 127:./subsystems/imu/imu_aspirin2.h ****   z = (int16_t) ((imu_aspirin2.imu_rx_buf[4+MPU_OFFSET_ACC] << 8) | imu_aspirin2.imu_rx_buf[5+MPU_O
 128:./subsystems/imu/imu_aspirin2.h **** 
 129:./subsystems/imu/imu_aspirin2.h **** #define MPU_OFFSET_MAG 16
 130:./subsystems/imu/imu_aspirin2.h ****   Mx = (int16_t) ((imu_aspirin2.imu_rx_buf[0+MPU_OFFSET_MAG] << 8) | imu_aspirin2.imu_rx_buf[1+MPU_
 131:./subsystems/imu/imu_aspirin2.h ****   My = (int16_t) ((imu_aspirin2.imu_rx_buf[2+MPU_OFFSET_MAG] << 8) | imu_aspirin2.imu_rx_buf[3+MPU_
 132:./subsystems/imu/imu_aspirin2.h ****   Mz = (int16_t) ((imu_aspirin2.imu_rx_buf[4+MPU_OFFSET_MAG] << 8) | imu_aspirin2.imu_rx_buf[5+MPU_
 133:./subsystems/imu/imu_aspirin2.h **** 
 134:./subsystems/imu/imu_aspirin2.h **** #ifdef LISA_M_LONGITUDINAL_X
 135:./subsystems/imu/imu_aspirin2.h ****   RATES_ASSIGN(imu.gyro_unscaled, q, -p, r);
 136:./subsystems/imu/imu_aspirin2.h ****   VECT3_ASSIGN(imu.accel_unscaled, y, -x, z);
 137:./subsystems/imu/imu_aspirin2.h ****   VECT3_ASSIGN(imu.mag_unscaled, -Mx, -Mz, My);
 138:./subsystems/imu/imu_aspirin2.h **** #else
 139:./subsystems/imu/imu_aspirin2.h ****   RATES_ASSIGN(imu.gyro_unscaled, p, q, r);
 140:./subsystems/imu/imu_aspirin2.h ****   VECT3_ASSIGN(imu.accel_unscaled, x, y, z);
 141:./subsystems/imu/imu_aspirin2.h ****   VECT3_ASSIGN(imu.mag_unscaled, Mz, -Mx, My);
 142:./subsystems/imu/imu_aspirin2.h **** #endif
 143:./subsystems/imu/imu_aspirin2.h **** 
 144:./subsystems/imu/imu_aspirin2.h ****   return 1;
 145:./subsystems/imu/imu_aspirin2.h **** }
 146:./subsystems/imu/imu_aspirin2.h **** 
 147:./subsystems/imu/imu_aspirin2.h **** 
 148:./subsystems/imu/imu_aspirin2.h **** static inline void imu_aspirin2_event(void (* _gyro_handler)(void), void (* _accel_handler)(void), 
 149:./subsystems/imu/imu_aspirin2.h **** {
 150:./subsystems/imu/imu_aspirin2.h ****   if (imu_aspirin2.status == Aspirin2StatusUninit) return;
 16921              		.loc 3 150 0
 16922 0004 A14C     		ldr	r4, .L447
 16923 0006 2378     		ldrb	r3, [r4, #0]	@ zero_extendqisi2
 16924 0008 002B     		cmp	r3, #0
 16925 000a 00F02D81 		beq	.L393
 151:./subsystems/imu/imu_aspirin2.h **** 
 152:./subsystems/imu/imu_aspirin2.h ****   if (imu_aspirin2.imu_spi_data_received) {
 16926              		.loc 3 152 0
 16927 000e 6378     		ldrb	r3, [r4, #1]	@ zero_extendqisi2
 16928 0010 002B     		cmp	r3, #0
 16929 0012 00F02981 		beq	.L393
 153:./subsystems/imu/imu_aspirin2.h ****     imu_aspirin2.imu_spi_data_received = FALSE;
 16930              		.loc 3 153 0
 16931 0016 0025     		movs	r5, #0
 16932 0018 6570     		strb	r5, [r4, #1]
 16933              	.LBB1152:
 16934              	.LBB1153:
 114:./subsystems/imu/imu_aspirin2.h ****   if (!(imu_aspirin2.imu_rx_buf[MPU_OFFSET_STATUS] & 0x01)) {
 16935              		.loc 3 114 0
 16936 001a 94F84330 		ldrb	r3, [r4, #67]	@ zero_extendqisi2
 16937 001e DB07     		lsls	r3, r3, #31
 16938 0020 40F12281 		bpl	.L393
 120:./subsystems/imu/imu_aspirin2.h ****   p = (int16_t) ((imu_aspirin2.imu_rx_buf[0+MPU_OFFSET_GYRO] << 8) | imu_aspirin2.imu_rx_buf[1+MPU_
 16939              		.loc 3 120 0
 16940 0024 94F84C70 		ldrb	r7, [r4, #76]	@ zero_extendqisi2
 16941 0028 94F84D30 		ldrb	r3, [r4, #77]	@ zero_extendqisi2
 121:./subsystems/imu/imu_aspirin2.h ****   q = (int16_t) ((imu_aspirin2.imu_rx_buf[2+MPU_OFFSET_GYRO] << 8) | imu_aspirin2.imu_rx_buf[3+MPU_
 16942              		.loc 3 121 0
 16943 002c 94F84E60 		ldrb	r6, [r4, #78]	@ zero_extendqisi2
 120:./subsystems/imu/imu_aspirin2.h ****   p = (int16_t) ((imu_aspirin2.imu_rx_buf[0+MPU_OFFSET_GYRO] << 8) | imu_aspirin2.imu_rx_buf[1+MPU_
 16944              		.loc 3 120 0
 16945 0030 43EA0727 		orr	r7, r3, r7, lsl #8
 121:./subsystems/imu/imu_aspirin2.h ****   q = (int16_t) ((imu_aspirin2.imu_rx_buf[2+MPU_OFFSET_GYRO] << 8) | imu_aspirin2.imu_rx_buf[3+MPU_
 16946              		.loc 3 121 0
 16947 0034 94F84F30 		ldrb	r3, [r4, #79]	@ zero_extendqisi2
 122:./subsystems/imu/imu_aspirin2.h ****   r = (int16_t) ((imu_aspirin2.imu_rx_buf[4+MPU_OFFSET_GYRO] << 8) | imu_aspirin2.imu_rx_buf[5+MPU_
 16948              		.loc 3 122 0
 16949 0038 94F85000 		ldrb	r0, [r4, #80]	@ zero_extendqisi2
 121:./subsystems/imu/imu_aspirin2.h ****   q = (int16_t) ((imu_aspirin2.imu_rx_buf[2+MPU_OFFSET_GYRO] << 8) | imu_aspirin2.imu_rx_buf[3+MPU_
 16950              		.loc 3 121 0
 16951 003c 43EA0626 		orr	r6, r3, r6, lsl #8
 122:./subsystems/imu/imu_aspirin2.h ****   r = (int16_t) ((imu_aspirin2.imu_rx_buf[4+MPU_OFFSET_GYRO] << 8) | imu_aspirin2.imu_rx_buf[5+MPU_
 16952              		.loc 3 122 0
 16953 0040 94F85130 		ldrb	r3, [r4, #81]	@ zero_extendqisi2
 125:./subsystems/imu/imu_aspirin2.h ****   x = (int16_t) ((imu_aspirin2.imu_rx_buf[0+MPU_OFFSET_ACC] << 8) | imu_aspirin2.imu_rx_buf[1+MPU_O
 16954              		.loc 3 125 0
 16955 0044 94F84410 		ldrb	r1, [r4, #68]	@ zero_extendqisi2
 122:./subsystems/imu/imu_aspirin2.h ****   r = (int16_t) ((imu_aspirin2.imu_rx_buf[4+MPU_OFFSET_GYRO] << 8) | imu_aspirin2.imu_rx_buf[5+MPU_
 16956              		.loc 3 122 0
 16957 0048 43EA0020 		orr	r0, r3, r0, lsl #8
 125:./subsystems/imu/imu_aspirin2.h ****   x = (int16_t) ((imu_aspirin2.imu_rx_buf[0+MPU_OFFSET_ACC] << 8) | imu_aspirin2.imu_rx_buf[1+MPU_O
 16958              		.loc 3 125 0
 16959 004c 94F84530 		ldrb	r3, [r4, #69]	@ zero_extendqisi2
 126:./subsystems/imu/imu_aspirin2.h ****   y = (int16_t) ((imu_aspirin2.imu_rx_buf[2+MPU_OFFSET_ACC] << 8) | imu_aspirin2.imu_rx_buf[3+MPU_O
 16960              		.loc 3 126 0
 16961 0050 94F84620 		ldrb	r2, [r4, #70]	@ zero_extendqisi2
 125:./subsystems/imu/imu_aspirin2.h ****   x = (int16_t) ((imu_aspirin2.imu_rx_buf[0+MPU_OFFSET_ACC] << 8) | imu_aspirin2.imu_rx_buf[1+MPU_O
 16962              		.loc 3 125 0
 16963 0054 43EA0121 		orr	r1, r3, r1, lsl #8
 126:./subsystems/imu/imu_aspirin2.h ****   y = (int16_t) ((imu_aspirin2.imu_rx_buf[2+MPU_OFFSET_ACC] << 8) | imu_aspirin2.imu_rx_buf[3+MPU_O
 16964              		.loc 3 126 0
 16965 0058 94F84730 		ldrb	r3, [r4, #71]	@ zero_extendqisi2
 127:./subsystems/imu/imu_aspirin2.h ****   z = (int16_t) ((imu_aspirin2.imu_rx_buf[4+MPU_OFFSET_ACC] << 8) | imu_aspirin2.imu_rx_buf[5+MPU_O
 16966              		.loc 3 127 0
 16967 005c 94F848C0 		ldrb	ip, [r4, #72]	@ zero_extendqisi2
 126:./subsystems/imu/imu_aspirin2.h ****   y = (int16_t) ((imu_aspirin2.imu_rx_buf[2+MPU_OFFSET_ACC] << 8) | imu_aspirin2.imu_rx_buf[3+MPU_O
 16968              		.loc 3 126 0
 16969 0060 43EA0222 		orr	r2, r3, r2, lsl #8
 127:./subsystems/imu/imu_aspirin2.h ****   z = (int16_t) ((imu_aspirin2.imu_rx_buf[4+MPU_OFFSET_ACC] << 8) | imu_aspirin2.imu_rx_buf[5+MPU_O
 16970              		.loc 3 127 0
 16971 0064 94F84930 		ldrb	r3, [r4, #73]	@ zero_extendqisi2
 130:./subsystems/imu/imu_aspirin2.h ****   Mx = (int16_t) ((imu_aspirin2.imu_rx_buf[0+MPU_OFFSET_MAG] << 8) | imu_aspirin2.imu_rx_buf[1+MPU_
 16972              		.loc 3 130 0
 16973 0068 94F85280 		ldrb	r8, [r4, #82]	@ zero_extendqisi2
 127:./subsystems/imu/imu_aspirin2.h ****   z = (int16_t) ((imu_aspirin2.imu_rx_buf[4+MPU_OFFSET_ACC] << 8) | imu_aspirin2.imu_rx_buf[5+MPU_O
 16974              		.loc 3 127 0
 16975 006c 43EA0C23 		orr	r3, r3, ip, lsl #8
 130:./subsystems/imu/imu_aspirin2.h ****   Mx = (int16_t) ((imu_aspirin2.imu_rx_buf[0+MPU_OFFSET_MAG] << 8) | imu_aspirin2.imu_rx_buf[1+MPU_
 16976              		.loc 3 130 0
 16977 0070 94F853C0 		ldrb	ip, [r4, #83]	@ zero_extendqisi2
 131:./subsystems/imu/imu_aspirin2.h ****   My = (int16_t) ((imu_aspirin2.imu_rx_buf[2+MPU_OFFSET_MAG] << 8) | imu_aspirin2.imu_rx_buf[3+MPU_
 16978              		.loc 3 131 0
 16979 0074 94F854B0 		ldrb	fp, [r4, #84]	@ zero_extendqisi2
 16980 0078 94F85590 		ldrb	r9, [r4, #85]	@ zero_extendqisi2
 130:./subsystems/imu/imu_aspirin2.h ****   Mx = (int16_t) ((imu_aspirin2.imu_rx_buf[0+MPU_OFFSET_MAG] << 8) | imu_aspirin2.imu_rx_buf[1+MPU_
 16981              		.loc 3 130 0
 16982 007c 4CEA082C 		orr	ip, ip, r8, lsl #8
 132:./subsystems/imu/imu_aspirin2.h ****   Mz = (int16_t) ((imu_aspirin2.imu_rx_buf[4+MPU_OFFSET_MAG] << 8) | imu_aspirin2.imu_rx_buf[5+MPU_
 16983              		.loc 3 132 0
 16984 0080 94F856A0 		ldrb	sl, [r4, #86]	@ zero_extendqisi2
 131:./subsystems/imu/imu_aspirin2.h ****   My = (int16_t) ((imu_aspirin2.imu_rx_buf[2+MPU_OFFSET_MAG] << 8) | imu_aspirin2.imu_rx_buf[3+MPU_
 16985              		.loc 3 131 0
 16986 0084 CDF80490 		str	r9, [sp, #4]
 130:./subsystems/imu/imu_aspirin2.h ****   Mx = (int16_t) ((imu_aspirin2.imu_rx_buf[0+MPU_OFFSET_MAG] << 8) | imu_aspirin2.imu_rx_buf[1+MPU_
 16987              		.loc 3 130 0
 16988 0088 0FFA8CFC 		sxth	ip, ip
 132:./subsystems/imu/imu_aspirin2.h ****   Mz = (int16_t) ((imu_aspirin2.imu_rx_buf[4+MPU_OFFSET_MAG] << 8) | imu_aspirin2.imu_rx_buf[5+MPU_
 16989              		.loc 3 132 0
 16990 008c 94F85790 		ldrb	r9, [r4, #87]	@ zero_extendqisi2
 139:./subsystems/imu/imu_aspirin2.h ****   RATES_ASSIGN(imu.gyro_unscaled, p, q, r);
 16991              		.loc 3 139 0
 16992 0090 7F4C     		ldr	r4, .L447+4
 141:./subsystems/imu/imu_aspirin2.h ****   VECT3_ASSIGN(imu.mag_unscaled, Mz, -Mx, My);
 16993              		.loc 3 141 0
 16994 0092 CCF1000C 		rsb	ip, ip, #0
 16995 0096 C4F87CC0 		str	ip, [r4, #124]
 131:./subsystems/imu/imu_aspirin2.h ****   My = (int16_t) ((imu_aspirin2.imu_rx_buf[2+MPU_OFFSET_MAG] << 8) | imu_aspirin2.imu_rx_buf[3+MPU_
 16996              		.loc 3 131 0
 16997 009a DDF804C0 		ldr	ip, [sp, #4]
 132:./subsystems/imu/imu_aspirin2.h ****   Mz = (int16_t) ((imu_aspirin2.imu_rx_buf[4+MPU_OFFSET_MAG] << 8) | imu_aspirin2.imu_rx_buf[5+MPU_
 16998              		.loc 3 132 0
 16999 009e 49EA0A29 		orr	r9, r9, sl, lsl #8
 131:./subsystems/imu/imu_aspirin2.h ****   My = (int16_t) ((imu_aspirin2.imu_rx_buf[2+MPU_OFFSET_MAG] << 8) | imu_aspirin2.imu_rx_buf[3+MPU_
 17000              		.loc 3 131 0
 17001 00a2 4CEA0B2B 		orr	fp, ip, fp, lsl #8
 17002              	.LBE1153:
 17003              	.LBE1152:
 17004              	.LBB1157:
 17005              	.LBB1158:
 607:firmwares/fixedwing/main_ap.c **** 
 608:firmwares/fixedwing/main_ap.c **** #ifndef SINGLE_MCU
 609:firmwares/fixedwing/main_ap.c **** #if defined USE_I2C0  || defined USE_I2C1  || defined USE_I2C2
 610:firmwares/fixedwing/main_ap.c ****   i2c_event();
 611:firmwares/fixedwing/main_ap.c **** #endif
 612:firmwares/fixedwing/main_ap.c **** #endif
 613:firmwares/fixedwing/main_ap.c **** 
 614:firmwares/fixedwing/main_ap.c **** #if USE_AHRS
 615:firmwares/fixedwing/main_ap.c **** #if USE_IMU
 616:firmwares/fixedwing/main_ap.c ****   ImuEvent(on_gyro_event, on_accel_event, on_mag_event);
 617:firmwares/fixedwing/main_ap.c **** #else
 618:firmwares/fixedwing/main_ap.c ****   AhrsEvent(on_ahrs_event);
 619:firmwares/fixedwing/main_ap.c **** #endif // USE_IMU
 620:firmwares/fixedwing/main_ap.c **** #endif // USE_AHRS
 621:firmwares/fixedwing/main_ap.c **** 
 622:firmwares/fixedwing/main_ap.c **** #if USE_GPS
 623:firmwares/fixedwing/main_ap.c ****   GpsEvent(on_gps_solution);
 624:firmwares/fixedwing/main_ap.c **** #endif /** USE_GPS */
 625:firmwares/fixedwing/main_ap.c **** 
 626:firmwares/fixedwing/main_ap.c **** 
 627:firmwares/fixedwing/main_ap.c ****   DatalinkEvent();
 628:firmwares/fixedwing/main_ap.c **** 
 629:firmwares/fixedwing/main_ap.c **** 
 630:firmwares/fixedwing/main_ap.c **** #ifdef MCU_SPI_LINK
 631:firmwares/fixedwing/main_ap.c ****   link_mcu_event_task();
 632:firmwares/fixedwing/main_ap.c **** #endif
 633:firmwares/fixedwing/main_ap.c **** 
 634:firmwares/fixedwing/main_ap.c ****   if (inter_mcu_received_fbw) {
 635:firmwares/fixedwing/main_ap.c ****     /* receive radio control task from fbw */
 636:firmwares/fixedwing/main_ap.c ****     inter_mcu_received_fbw = FALSE;
 637:firmwares/fixedwing/main_ap.c ****     telecommand_task();
 638:firmwares/fixedwing/main_ap.c ****   }
 639:firmwares/fixedwing/main_ap.c **** 
 640:firmwares/fixedwing/main_ap.c ****   modules_event_task();
 641:firmwares/fixedwing/main_ap.c **** 
 642:firmwares/fixedwing/main_ap.c **** #ifdef AHRS_TRIGGERED_ATTITUDE_LOOP
 643:firmwares/fixedwing/main_ap.c ****   if (new_ins_attitude > 0)
 644:firmwares/fixedwing/main_ap.c ****   {
 645:firmwares/fixedwing/main_ap.c ****     attitude_loop();
 646:firmwares/fixedwing/main_ap.c ****     //LED_TOGGLE(3);
 647:firmwares/fixedwing/main_ap.c ****     new_ins_attitude = 0;
 648:firmwares/fixedwing/main_ap.c ****   }
 649:firmwares/fixedwing/main_ap.c **** #endif
 650:firmwares/fixedwing/main_ap.c **** 
 651:firmwares/fixedwing/main_ap.c **** } /* event_task_ap() */
 652:firmwares/fixedwing/main_ap.c **** 
 653:firmwares/fixedwing/main_ap.c **** 
 654:firmwares/fixedwing/main_ap.c **** #if USE_GPS
 655:firmwares/fixedwing/main_ap.c **** static inline void on_gps_solution( void ) {
 656:firmwares/fixedwing/main_ap.c ****   estimator_update_state_gps();
 657:firmwares/fixedwing/main_ap.c ****   ahrs_update_gps();
 658:firmwares/fixedwing/main_ap.c **** #ifdef GPS_TRIGGERED_FUNCTION
 659:firmwares/fixedwing/main_ap.c ****   GPS_TRIGGERED_FUNCTION();
 660:firmwares/fixedwing/main_ap.c **** #endif
 661:firmwares/fixedwing/main_ap.c **** }
 662:firmwares/fixedwing/main_ap.c **** #endif
 663:firmwares/fixedwing/main_ap.c **** 
 664:firmwares/fixedwing/main_ap.c **** 
 665:firmwares/fixedwing/main_ap.c **** #if USE_AHRS
 666:firmwares/fixedwing/main_ap.c **** #if USE_IMU
 667:firmwares/fixedwing/main_ap.c **** static inline void on_accel_event( void ) {
 668:firmwares/fixedwing/main_ap.c **** }
 669:firmwares/fixedwing/main_ap.c **** 
 670:firmwares/fixedwing/main_ap.c **** static inline void on_gyro_event( void ) {
 671:firmwares/fixedwing/main_ap.c **** 
 672:firmwares/fixedwing/main_ap.c ****   ahrs_timeout_counter = 0;
 17006              		.loc 1 672 0
 17007 00a6 DFF804C2 		ldr	ip, .L447+32
 17008              	.LBE1158:
 17009              	.LBE1157:
 17010              	.LBB1164:
 17011              	.LBB1154:
 120:./subsystems/imu/imu_aspirin2.h ****   p = (int16_t) ((imu_aspirin2.imu_rx_buf[0+MPU_OFFSET_GYRO] << 8) | imu_aspirin2.imu_rx_buf[1+MPU_
 17012              		.loc 3 120 0
 17013 00aa 3FB2     		sxth	r7, r7
 17014              	.LVL2652:
 17015              	.LBE1154:
 17016              	.LBE1164:
 17017              	.LBB1165:
 17018              	.LBB1161:
 17019              		.loc 1 672 0
 17020 00ac 8CF80050 		strb	r5, [ip, #0]
 673:firmwares/fixedwing/main_ap.c **** 
 674:firmwares/fixedwing/main_ap.c **** #ifdef AHRS_CPU_LED
 675:firmwares/fixedwing/main_ap.c ****   LED_ON(AHRS_CPU_LED);
 676:firmwares/fixedwing/main_ap.c **** #endif
 677:firmwares/fixedwing/main_ap.c **** 
 678:firmwares/fixedwing/main_ap.c **** #if USE_AHRS_ALIGNER
 679:firmwares/fixedwing/main_ap.c ****   // Run aligner on raw data as it also makes averages.
 680:firmwares/fixedwing/main_ap.c ****   if (ahrs.status == AHRS_UNINIT) {
 17021              		.loc 1 680 0
 17022 00b0 DFF8FCC1 		ldr	ip, .L447+36
 17023              	.LBE1161:
 17024              	.LBE1165:
 17025              	.LBB1166:
 17026              	.LBB1155:
 121:./subsystems/imu/imu_aspirin2.h ****   q = (int16_t) ((imu_aspirin2.imu_rx_buf[2+MPU_OFFSET_GYRO] << 8) | imu_aspirin2.imu_rx_buf[3+MPU_
 17027              		.loc 3 121 0
 17028 00b4 36B2     		sxth	r6, r6
 17029              	.LVL2653:
 17030              	.LBE1155:
 17031              	.LBE1166:
 17032              	.LBB1167:
 17033              	.LBB1162:
 17034              		.loc 1 680 0
 17035 00b6 9CF898C0 		ldrb	ip, [ip, #152]	@ zero_extendqisi2
 17036              	.LBE1162:
 17037              	.LBE1167:
 17038              	.LBB1168:
 17039              	.LBB1156:
 122:./subsystems/imu/imu_aspirin2.h ****   r = (int16_t) ((imu_aspirin2.imu_rx_buf[4+MPU_OFFSET_GYRO] << 8) | imu_aspirin2.imu_rx_buf[5+MPU_
 17040              		.loc 3 122 0
 17041 00ba 00B2     		sxth	r0, r0
 17042              	.LVL2654:
 125:./subsystems/imu/imu_aspirin2.h ****   x = (int16_t) ((imu_aspirin2.imu_rx_buf[0+MPU_OFFSET_ACC] << 8) | imu_aspirin2.imu_rx_buf[1+MPU_O
 17043              		.loc 3 125 0
 17044 00bc 09B2     		sxth	r1, r1
 17045              	.LVL2655:
 126:./subsystems/imu/imu_aspirin2.h ****   y = (int16_t) ((imu_aspirin2.imu_rx_buf[2+MPU_OFFSET_ACC] << 8) | imu_aspirin2.imu_rx_buf[3+MPU_O
 17046              		.loc 3 126 0
 17047 00be 12B2     		sxth	r2, r2
 17048              	.LVL2656:
 127:./subsystems/imu/imu_aspirin2.h ****   z = (int16_t) ((imu_aspirin2.imu_rx_buf[4+MPU_OFFSET_ACC] << 8) | imu_aspirin2.imu_rx_buf[5+MPU_O
 17049              		.loc 3 127 0
 17050 00c0 1BB2     		sxth	r3, r3
 17051              	.LVL2657:
 132:./subsystems/imu/imu_aspirin2.h ****   Mz = (int16_t) ((imu_aspirin2.imu_rx_buf[4+MPU_OFFSET_MAG] << 8) | imu_aspirin2.imu_rx_buf[5+MPU_
 17052              		.loc 3 132 0
 17053 00c2 0FFA89F9 		sxth	r9, r9
 131:./subsystems/imu/imu_aspirin2.h ****   My = (int16_t) ((imu_aspirin2.imu_rx_buf[2+MPU_OFFSET_MAG] << 8) | imu_aspirin2.imu_rx_buf[3+MPU_
 17054              		.loc 3 131 0
 17055 00c6 0FFA8BFB 		sxth	fp, fp
 139:./subsystems/imu/imu_aspirin2.h ****   RATES_ASSIGN(imu.gyro_unscaled, p, q, r);
 17056              		.loc 3 139 0
 17057 00ca 2766     		str	r7, [r4, #96]
 17058 00cc 6666     		str	r6, [r4, #100]
 17059 00ce A066     		str	r0, [r4, #104]
 140:./subsystems/imu/imu_aspirin2.h ****   VECT3_ASSIGN(imu.accel_unscaled, x, y, z);
 17060              		.loc 3 140 0
 17061 00d0 E166     		str	r1, [r4, #108]
 17062 00d2 2267     		str	r2, [r4, #112]
 17063 00d4 6367     		str	r3, [r4, #116]
 132:./subsystems/imu/imu_aspirin2.h ****   Mz = (int16_t) ((imu_aspirin2.imu_rx_buf[4+MPU_OFFSET_MAG] << 8) | imu_aspirin2.imu_rx_buf[5+MPU_
 17064              		.loc 3 132 0
 17065 00d6 C4F87890 		str	r9, [r4, #120]
 131:./subsystems/imu/imu_aspirin2.h ****   My = (int16_t) ((imu_aspirin2.imu_rx_buf[2+MPU_OFFSET_MAG] << 8) | imu_aspirin2.imu_rx_buf[3+MPU_
 17066              		.loc 3 131 0
 17067 00da C4F880B0 		str	fp, [r4, #128]
 17068              	.LBE1156:
 17069              	.LBE1168:
 17070              	.LBB1169:
 17071              	.LBB1163:
 17072              		.loc 1 680 0
 17073 00de BCF1000F 		cmp	ip, #0
 17074 00e2 43D1     		bne	.L394
 681:firmwares/fixedwing/main_ap.c ****     ImuScaleGyro(imu);
 17075              		.loc 1 681 0
 17076 00e4 2568     		ldr	r5, [r4, #0]
 17077 00e6 41F2071E 		movw	lr, #4359
 17078 00ea 6562     		str	r5, [r4, #36]
 17079 00ec 6568     		ldr	r5, [r4, #4]
 17080 00ee A562     		str	r5, [r4, #40]
 17081 00f0 A568     		ldr	r5, [r4, #8]
 17082 00f2 E562     		str	r5, [r4, #44]
 17083 00f4 E56B     		ldr	r5, [r4, #60]
 17084 00f6 7F1B     		subs	r7, r7, r5
 17085              	.LVL2658:
 17086 00f8 0EFB07F7 		mul	r7, lr, r7
 17087 00fc 4FF47A75 		mov	r5, #1000
 17088 0100 97FBF5F7 		sdiv	r7, r7, r5
 17089 0104 2760     		str	r7, [r4, #0]
 17090 0106 276C     		ldr	r7, [r4, #64]
 17091 0108 F61B     		subs	r6, r6, r7
 17092              	.LVL2659:
 17093 010a 0EFB06F6 		mul	r6, lr, r6
 17094 010e 96FBF5F6 		sdiv	r6, r6, r5
 17095 0112 6660     		str	r6, [r4, #4]
 17096 0114 666C     		ldr	r6, [r4, #68]
 17097 0116 801B     		subs	r0, r0, r6
 17098              	.LVL2660:
 17099 0118 0EFB00F0 		mul	r0, lr, r0
 17100 011c 90FBF5F0 		sdiv	r0, r0, r5
 17101 0120 A060     		str	r0, [r4, #8]
 682:firmwares/fixedwing/main_ap.c ****     ImuScaleAccel(imu);
 17102              		.loc 1 682 0
 17103 0122 E068     		ldr	r0, [r4, #12]
 17104 0124 2063     		str	r0, [r4, #48]
 17105 0126 2069     		ldr	r0, [r4, #16]
 17106 0128 6063     		str	r0, [r4, #52]
 17107 012a 6069     		ldr	r0, [r4, #20]
 17108 012c A063     		str	r0, [r4, #56]
 17109 012e A06C     		ldr	r0, [r4, #72]
 17110 0130 091A     		subs	r1, r1, r0
 17111              	.LVL2661:
 17112 0132 41F22930 		movw	r0, #4905
 17113 0136 4143     		muls	r1, r0, r1
 17114 0138 91FBF5F1 		sdiv	r1, r1, r5
 17115 013c E160     		str	r1, [r4, #12]
 17116 013e E16C     		ldr	r1, [r4, #76]
 17117 0140 521A     		subs	r2, r2, r1
 17118              	.LVL2662:
 17119 0142 4243     		muls	r2, r0, r2
 17120 0144 92FBF5F2 		sdiv	r2, r2, r5
 17121 0148 2261     		str	r2, [r4, #16]
 17122 014a 226D     		ldr	r2, [r4, #80]
 17123 014c 9B1A     		subs	r3, r3, r2
 17124              	.LVL2663:
 17125 014e 5843     		muls	r0, r3, r0
 17126 0150 90FBF5F5 		sdiv	r5, r0, r5
 17127 0154 6561     		str	r5, [r4, #20]
 683:firmwares/fixedwing/main_ap.c ****     ahrs_aligner_run();
 17128              		.loc 1 683 0
 17129 0156 FFF7FEFF 		bl	ahrs_aligner_run
 17130              	.LVL2664:
 684:firmwares/fixedwing/main_ap.c ****     if (ahrs_aligner.status == AHRS_ALIGNER_LOCKED)
 17131              		.loc 1 684 0
 17132 015a 4E4B     		ldr	r3, .L447+8
 17133 015c 93F82C30 		ldrb	r3, [r3, #44]	@ zero_extendqisi2
 17134 0160 022B     		cmp	r3, #2
 17135 0162 40F08180 		bne	.L393
 685:firmwares/fixedwing/main_ap.c ****       ahrs_align();
 17136              		.loc 1 685 0
 17137 0166 FFF7FEFF 		bl	ahrs_align
 17138 016a 7DE0     		b	.L393
 17139              	.LVL2665:
 17140              	.L394:
 686:firmwares/fixedwing/main_ap.c ****     return;
 687:firmwares/fixedwing/main_ap.c ****   }
 688:firmwares/fixedwing/main_ap.c **** #endif
 689:firmwares/fixedwing/main_ap.c **** 
 690:firmwares/fixedwing/main_ap.c **** #if PERIODIC_FREQUENCY == 60
 691:firmwares/fixedwing/main_ap.c ****   ImuScaleGyro(imu);
 692:firmwares/fixedwing/main_ap.c ****   ImuScaleAccel(imu);
 693:firmwares/fixedwing/main_ap.c **** 
 694:firmwares/fixedwing/main_ap.c ****   ahrs_propagate();
 695:firmwares/fixedwing/main_ap.c ****   ahrs_update_accel();
 696:firmwares/fixedwing/main_ap.c ****   ahrs_update_fw_estimator();
 697:firmwares/fixedwing/main_ap.c **** 
 698:firmwares/fixedwing/main_ap.c **** #ifdef AHRS_TRIGGERED_ATTITUDE_LOOP
 699:firmwares/fixedwing/main_ap.c ****   new_ins_attitude = 1;
 700:firmwares/fixedwing/main_ap.c **** #endif
 701:firmwares/fixedwing/main_ap.c **** 
 702:firmwares/fixedwing/main_ap.c **** #else //PERIODIC_FREQUENCY
 703:firmwares/fixedwing/main_ap.c ****   static uint8_t _reduced_propagation_rate = 0;
 704:firmwares/fixedwing/main_ap.c ****   static uint8_t _reduced_correction_rate = 0;
 705:firmwares/fixedwing/main_ap.c ****   static struct Int32Vect3 acc_avg;
 706:firmwares/fixedwing/main_ap.c ****   static struct Int32Rates gyr_avg;
 707:firmwares/fixedwing/main_ap.c **** 
 708:firmwares/fixedwing/main_ap.c ****   RATES_ADD(gyr_avg, imu.gyro_unscaled);
 17141              		.loc 1 708 0
 17142 016c DFF844C1 		ldr	ip, .L447+40
 17143 0170 DCF80080 		ldr	r8, [ip, #0]
 17144 0174 B844     		add	r8, r7, r8
 17145 0176 DCF80470 		ldr	r7, [ip, #4]
 17146              	.LVL2666:
 17147 017a CCF80080 		str	r8, [ip, #0]
 17148 017e F719     		adds	r7, r6, r7
 17149 0180 DCF80860 		ldr	r6, [ip, #8]
 17150              	.LVL2667:
 17151 0184 CCF80470 		str	r7, [ip, #4]
 17152 0188 8019     		adds	r0, r0, r6
 17153              	.LVL2668:
 709:firmwares/fixedwing/main_ap.c ****   VECT3_ADD(acc_avg, imu.accel_unscaled);
 17154              		.loc 1 709 0
 17155 018a 434E     		ldr	r6, .L447+12
 708:firmwares/fixedwing/main_ap.c ****   RATES_ADD(gyr_avg, imu.gyro_unscaled);
 17156              		.loc 1 708 0
 17157 018c CCF80800 		str	r0, [ip, #8]
 17158              		.loc 1 709 0
 17159 0190 D6F80090 		ldr	r9, [r6, #0]
 17160 0194 4944     		add	r1, r9, r1
 17161              	.LVL2669:
 17162 0196 3160     		str	r1, [r6, #0]
 17163 0198 7168     		ldr	r1, [r6, #4]
 17164 019a 8A18     		adds	r2, r1, r2
 17165              	.LVL2670:
 17166 019c 7260     		str	r2, [r6, #4]
 17167 019e B268     		ldr	r2, [r6, #8]
 17168 01a0 D318     		adds	r3, r2, r3
 17169              	.LVL2671:
 17170 01a2 B360     		str	r3, [r6, #8]
 710:firmwares/fixedwing/main_ap.c **** 
 711:firmwares/fixedwing/main_ap.c ****   _reduced_propagation_rate++;
 17171              		.loc 1 711 0
 17172 01a4 3D4B     		ldr	r3, .L447+16
 17173 01a6 1A78     		ldrb	r2, [r3, #0]	@ zero_extendqisi2
 17174 01a8 0132     		adds	r2, r2, #1
 17175 01aa D2B2     		uxtb	r2, r2
 17176 01ac 1A70     		strb	r2, [r3, #0]
 712:firmwares/fixedwing/main_ap.c ****   if (_reduced_propagation_rate < (PERIODIC_FREQUENCY / AHRS_PROPAGATE_FREQUENCY))
 17177              		.loc 1 712 0
 17178 01ae 002A     		cmp	r2, #0
 17179 01b0 5AD0     		beq	.L393
 17180              	.LBB1159:
 17181              	.LBB1160:
 713:firmwares/fixedwing/main_ap.c ****   {
 714:firmwares/fixedwing/main_ap.c ****   }
 715:firmwares/fixedwing/main_ap.c ****   else
 716:firmwares/fixedwing/main_ap.c ****   {
 717:firmwares/fixedwing/main_ap.c ****     _reduced_propagation_rate = 0;
 17182              		.loc 1 717 0
 17183 01b2 1D70     		strb	r5, [r3, #0]
 718:firmwares/fixedwing/main_ap.c **** 
 719:firmwares/fixedwing/main_ap.c ****     RATES_SDIV(imu.gyro_unscaled, gyr_avg, (PERIODIC_FREQUENCY / AHRS_PROPAGATE_FREQUENCY) );
 720:firmwares/fixedwing/main_ap.c ****     INT_RATES_ZERO(gyr_avg);
 721:firmwares/fixedwing/main_ap.c **** 
 722:firmwares/fixedwing/main_ap.c ****     ImuScaleGyro(imu);
 17184              		.loc 1 722 0
 17185 01b4 2368     		ldr	r3, [r4, #0]
 17186 01b6 E26B     		ldr	r2, [r4, #60]
 17187 01b8 6362     		str	r3, [r4, #36]
 17188 01ba 6368     		ldr	r3, [r4, #4]
 17189 01bc C2EB0802 		rsb	r2, r2, r8
 17190 01c0 A362     		str	r3, [r4, #40]
 17191 01c2 A368     		ldr	r3, [r4, #8]
 719:firmwares/fixedwing/main_ap.c ****     RATES_SDIV(imu.gyro_unscaled, gyr_avg, (PERIODIC_FREQUENCY / AHRS_PROPAGATE_FREQUENCY) );
 17192              		.loc 1 719 0
 17193 01c4 C4F86080 		str	r8, [r4, #96]
 17194              		.loc 1 722 0
 17195 01c8 E362     		str	r3, [r4, #44]
 17196 01ca 41F20713 		movw	r3, #4359
 17197 01ce 5A43     		muls	r2, r3, r2
 17198 01d0 4FF47A78 		mov	r8, #1000
 17199 01d4 92FBF8F2 		sdiv	r2, r2, r8
 17200 01d8 2260     		str	r2, [r4, #0]
 17201 01da 226C     		ldr	r2, [r4, #64]
 719:firmwares/fixedwing/main_ap.c ****     RATES_SDIV(imu.gyro_unscaled, gyr_avg, (PERIODIC_FREQUENCY / AHRS_PROPAGATE_FREQUENCY) );
 17202              		.loc 1 719 0
 17203 01dc 6766     		str	r7, [r4, #100]
 17204              		.loc 1 722 0
 17205 01de BF1A     		subs	r7, r7, r2
 17206 01e0 626C     		ldr	r2, [r4, #68]
 719:firmwares/fixedwing/main_ap.c ****     RATES_SDIV(imu.gyro_unscaled, gyr_avg, (PERIODIC_FREQUENCY / AHRS_PROPAGATE_FREQUENCY) );
 17207              		.loc 1 719 0
 17208 01e2 A066     		str	r0, [r4, #104]
 17209              		.loc 1 722 0
 17210 01e4 801A     		subs	r0, r0, r2
 17211 01e6 5F43     		muls	r7, r3, r7
 17212 01e8 4343     		muls	r3, r0, r3
 17213 01ea 97FBF8F7 		sdiv	r7, r7, r8
 17214 01ee 93FBF8F3 		sdiv	r3, r3, r8
 17215 01f2 A360     		str	r3, [r4, #8]
 720:firmwares/fixedwing/main_ap.c ****     INT_RATES_ZERO(gyr_avg);
 17216              		.loc 1 720 0
 17217 01f4 CCF80050 		str	r5, [ip, #0]
 17218 01f8 CCF80450 		str	r5, [ip, #4]
 17219 01fc CCF80850 		str	r5, [ip, #8]
 17220              		.loc 1 722 0
 17221 0200 6760     		str	r7, [r4, #4]
 723:firmwares/fixedwing/main_ap.c **** 
 724:firmwares/fixedwing/main_ap.c ****     ahrs_propagate();
 17222              		.loc 1 724 0
 17223 0202 FFF7FEFF 		bl	ahrs_propagate
 17224              	.LVL2672:
 725:firmwares/fixedwing/main_ap.c **** 
 726:firmwares/fixedwing/main_ap.c ****     _reduced_correction_rate++;
 17225              		.loc 1 726 0
 17226 0206 264B     		ldr	r3, .L447+20
 17227 0208 1A78     		ldrb	r2, [r3, #0]	@ zero_extendqisi2
 17228 020a 0132     		adds	r2, r2, #1
 17229 020c D2B2     		uxtb	r2, r2
 17230 020e 1A70     		strb	r2, [r3, #0]
 727:firmwares/fixedwing/main_ap.c ****     if (_reduced_correction_rate >= (AHRS_PROPAGATE_FREQUENCY / AHRS_CORRECT_FREQUENCY))
 17231              		.loc 1 727 0
 17232 0210 2AB3     		cbz	r2, .L395
 728:firmwares/fixedwing/main_ap.c ****     {
 729:firmwares/fixedwing/main_ap.c ****       _reduced_correction_rate = 0;
 730:firmwares/fixedwing/main_ap.c ****       VECT3_SDIV(imu.accel_unscaled, acc_avg, (PERIODIC_FREQUENCY / AHRS_CORRECT_FREQUENCY) );
 731:firmwares/fixedwing/main_ap.c ****       INT_VECT3_ZERO(acc_avg);
 732:firmwares/fixedwing/main_ap.c ****       ImuScaleAccel(imu);
 17233              		.loc 1 732 0
 17234 0212 E068     		ldr	r0, [r4, #12]
 729:firmwares/fixedwing/main_ap.c ****       _reduced_correction_rate = 0;
 17235              		.loc 1 729 0
 17236 0214 1D70     		strb	r5, [r3, #0]
 17237              		.loc 1 732 0
 17238 0216 2063     		str	r0, [r4, #48]
 17239 0218 2069     		ldr	r0, [r4, #16]
 730:firmwares/fixedwing/main_ap.c ****       VECT3_SDIV(imu.accel_unscaled, acc_avg, (PERIODIC_FREQUENCY / AHRS_CORRECT_FREQUENCY) );
 17240              		.loc 1 730 0
 17241 021a 3368     		ldr	r3, [r6, #0]
 17242              		.loc 1 732 0
 17243 021c 6063     		str	r0, [r4, #52]
 17244 021e 6069     		ldr	r0, [r4, #20]
 730:firmwares/fixedwing/main_ap.c ****       VECT3_SDIV(imu.accel_unscaled, acc_avg, (PERIODIC_FREQUENCY / AHRS_CORRECT_FREQUENCY) );
 17245              		.loc 1 730 0
 17246 0220 E366     		str	r3, [r4, #108]
 17247              		.loc 1 732 0
 17248 0222 A063     		str	r0, [r4, #56]
 17249 0224 A06C     		ldr	r0, [r4, #72]
 730:firmwares/fixedwing/main_ap.c ****       VECT3_SDIV(imu.accel_unscaled, acc_avg, (PERIODIC_FREQUENCY / AHRS_CORRECT_FREQUENCY) );
 17250              		.loc 1 730 0
 17251 0226 7168     		ldr	r1, [r6, #4]
 17252              		.loc 1 732 0
 17253 0228 181A     		subs	r0, r3, r0
 17254 022a 41F22933 		movw	r3, #4905
 17255 022e 5843     		muls	r0, r3, r0
 17256 0230 90FBF8F0 		sdiv	r0, r0, r8
 17257 0234 E060     		str	r0, [r4, #12]
 17258 0236 E06C     		ldr	r0, [r4, #76]
 730:firmwares/fixedwing/main_ap.c ****       VECT3_SDIV(imu.accel_unscaled, acc_avg, (PERIODIC_FREQUENCY / AHRS_CORRECT_FREQUENCY) );
 17259              		.loc 1 730 0
 17260 0238 2167     		str	r1, [r4, #112]
 17261              		.loc 1 732 0
 17262 023a 091A     		subs	r1, r1, r0
 17263 023c 5943     		muls	r1, r3, r1
 17264 023e 91FBF8F1 		sdiv	r1, r1, r8
 730:firmwares/fixedwing/main_ap.c ****       VECT3_SDIV(imu.accel_unscaled, acc_avg, (PERIODIC_FREQUENCY / AHRS_CORRECT_FREQUENCY) );
 17265              		.loc 1 730 0
 17266 0242 B268     		ldr	r2, [r6, #8]
 17267              		.loc 1 732 0
 17268 0244 2161     		str	r1, [r4, #16]
 17269 0246 216D     		ldr	r1, [r4, #80]
 730:firmwares/fixedwing/main_ap.c ****       VECT3_SDIV(imu.accel_unscaled, acc_avg, (PERIODIC_FREQUENCY / AHRS_CORRECT_FREQUENCY) );
 17270              		.loc 1 730 0
 17271 0248 6267     		str	r2, [r4, #116]
 17272              		.loc 1 732 0
 17273 024a 521A     		subs	r2, r2, r1
 17274 024c 5343     		muls	r3, r2, r3
 17275 024e 93FBF8F3 		sdiv	r3, r3, r8
 731:firmwares/fixedwing/main_ap.c ****       INT_VECT3_ZERO(acc_avg);
 17276              		.loc 1 731 0
 17277 0252 3560     		str	r5, [r6, #0]
 17278 0254 7560     		str	r5, [r6, #4]
 17279 0256 B560     		str	r5, [r6, #8]
 17280              		.loc 1 732 0
 17281 0258 6361     		str	r3, [r4, #20]
 733:firmwares/fixedwing/main_ap.c ****       ahrs_update_accel();
 17282              		.loc 1 733 0
 17283 025a FFF7FEFF 		bl	ahrs_update_accel
 17284              	.L395:
 734:firmwares/fixedwing/main_ap.c ****     }
 735:firmwares/fixedwing/main_ap.c **** 
 736:firmwares/fixedwing/main_ap.c ****     ahrs_update_fw_estimator();
 17285              		.loc 1 736 0
 17286 025e FFF7FEFF 		bl	ahrs_update_fw_estimator
 737:firmwares/fixedwing/main_ap.c **** 
 738:firmwares/fixedwing/main_ap.c **** #ifdef AHRS_TRIGGERED_ATTITUDE_LOOP
 739:firmwares/fixedwing/main_ap.c ****     new_ins_attitude = 1;
 17287              		.loc 1 739 0
 17288 0262 104B     		ldr	r3, .L447+24
 17289 0264 0122     		movs	r2, #1
 17290 0266 1A70     		strb	r2, [r3, #0]
 17291              	.LVL2673:
 17292              	.L393:
 17293              	.LBE1160:
 17294              	.LBE1159:
 17295              	.LBE1163:
 17296              	.LBE1169:
 17297              	.LBE1151:
 17298              	.LBE1150:
 623:firmwares/fixedwing/main_ap.c ****   GpsEvent(on_gps_solution);
 17299              		.loc 1 623 0
 17300 0268 0F4C     		ldr	r4, .L447+28
 17301 026a B4F88020 		ldrh	r2, [r4, #128]
 17302 026e B4F88230 		ldrh	r3, [r4, #130]
 17303 0272 9A42     		cmp	r2, r3
 17304 0274 20D1     		bne	.L396
 17305 0276 29E0     		b	.L397
 17306              	.L398:
 17307              	.LBB1170:
 623:firmwares/fixedwing/main_ap.c ****   GpsEvent(on_gps_solution);
 17308              		.loc 1 623 0 is_stmt 0 discriminator 3
 17309 0278 E05C     		ldrb	r0, [r4, r3]	@ zero_extendqisi2
 17310              	.LVL2674:
 17311 027a 0133     		adds	r3, r3, #1
 17312 027c 03F07F03 		and	r3, r3, #127
 17313 0280 A4F88230 		strh	r3, [r4, #130]	@ movhi
 17314              	.LBE1170:
 17315 0284 FFF7FEFF 		bl	gps_ubx_parse
 17316              	.LVL2675:
 17317 0288 17E0     		b	.L445
 17318              	.L448:
 17319 028a 00BF     		.align	2
 17320              	.L447:
 17321 028c 00000000 		.word	imu_aspirin2
 17322 0290 00000000 		.word	imu
 17323 0294 00000000 		.word	ahrs_aligner
 17324 0298 00000000 		.word	.LANCHOR70
 17325 029c 00000000 		.word	.LANCHOR71
 17326 02a0 00000000 		.word	.LANCHOR72
 17327 02a4 00000000 		.word	.LANCHOR73
 17328 02a8 00000000 		.word	uart3
 17329 02ac 00000000 		.word	.LANCHOR33
 17330 02b0 00000000 		.word	ahrs
 17331 02b4 00000000 		.word	.LANCHOR69
 17332              	.L396:
 623:firmwares/fixedwing/main_ap.c ****   GpsEvent(on_gps_solution);
 17333              		.loc 1 623 0 discriminator 1
 17334 02b8 884D     		ldr	r5, .L449
 17335              	.L445:
 17336 02ba B4F88230 		ldrh	r3, [r4, #130]
 17337 02be B4F88020 		ldrh	r2, [r4, #128]
 17338 02c2 9A42     		cmp	r2, r3
 17339 02c4 02D0     		beq	.L397
 623:firmwares/fixedwing/main_ap.c ****   GpsEvent(on_gps_solution);
 17340              		.loc 1 623 0 discriminator 2
 17341 02c6 2A78     		ldrb	r2, [r5, #0]	@ zero_extendqisi2
 17342 02c8 002A     		cmp	r2, #0
 17343 02ca D5D0     		beq	.L398
 17344              	.L397:
 17345 02cc 834C     		ldr	r4, .L449
 17346 02ce 2378     		ldrb	r3, [r4, #0]	@ zero_extendqisi2
 17347 02d0 03B3     		cbz	r3, .L399
 623:firmwares/fixedwing/main_ap.c ****   GpsEvent(on_gps_solution);
 17348              		.loc 1 623 0 discriminator 4
 17349 02d2 FFF7FEFF 		bl	gps_ubx_read_message
 17350 02d6 94F80831 		ldrb	r3, [r4, #264]	@ zero_extendqisi2
 17351 02da 012B     		cmp	r3, #1
 17352 02dc 18D1     		bne	.L400
 623:firmwares/fixedwing/main_ap.c ****   GpsEvent(on_gps_solution);
 17353              		.loc 1 623 0 discriminator 5
 17354 02de 94F80731 		ldrb	r3, [r4, #263]	@ zero_extendqisi2
 17355 02e2 122B     		cmp	r3, #18
 17356 02e4 04D0     		beq	.L401
 623:firmwares/fixedwing/main_ap.c ****   GpsEvent(on_gps_solution);
 17357              		.loc 1 623 0 discriminator 8
 17358 02e6 062B     		cmp	r3, #6
 17359 02e8 12D1     		bne	.L400
 623:firmwares/fixedwing/main_ap.c ****   GpsEvent(on_gps_solution);
 17360              		.loc 1 623 0 discriminator 9
 17361 02ea 94F81531 		ldrb	r3, [r4, #277]	@ zero_extendqisi2
 17362 02ee 7BB9     		cbnz	r3, .L400
 17363              	.L401:
 623:firmwares/fixedwing/main_ap.c ****   GpsEvent(on_gps_solution);
 17364              		.loc 1 623 0 discriminator 7
 17365 02f0 7B4B     		ldr	r3, .L449+4
 17366 02f2 93F85B20 		ldrb	r2, [r3, #91]	@ zero_extendqisi2
 17367 02f6 032A     		cmp	r2, #3
 17368 02f8 06D1     		bne	.L402
 623:firmwares/fixedwing/main_ap.c ****   GpsEvent(on_gps_solution);
 17369              		.loc 1 623 0 discriminator 10
 17370 02fa 7A4A     		ldr	r2, .L449+8
 17371 02fc 5168     		ldr	r1, [r2, #4]
 17372 02fe 1268     		ldr	r2, [r2, #0]
 17373 0300 C3F8E810 		str	r1, [r3, #232]
 17374 0304 C3F8EC20 		str	r2, [r3, #236]
 17375              	.L402:
 17376              	.LBB1171:
 17377              	.LBB1172:
 656:firmwares/fixedwing/main_ap.c ****   estimator_update_state_gps();
 17378              		.loc 1 656 0 is_stmt 1 discriminator 11
 17379 0308 FFF7FEFF 		bl	estimator_update_state_gps
 657:firmwares/fixedwing/main_ap.c ****   ahrs_update_gps();
 17380              		.loc 1 657 0 discriminator 11
 17381 030c FFF7FEFF 		bl	ahrs_update_gps
 17382              	.L400:
 17383              	.LBE1172:
 17384              	.LBE1171:
 623:firmwares/fixedwing/main_ap.c ****   GpsEvent(on_gps_solution);
 17385              		.loc 1 623 0 discriminator 6
 17386 0310 0023     		movs	r3, #0
 17387 0312 2370     		strb	r3, [r4, #0]
 17388              	.L399:
 627:firmwares/fixedwing/main_ap.c ****   DatalinkEvent();
 17389              		.loc 1 627 0
 17390 0314 DFF8D4B1 		ldr	fp, .L449+16
 17391 0318 BBF88080 		ldrh	r8, [fp, #128]
 17392 031c BBF88250 		ldrh	r5, [fp, #130]
 17393 0320 A845     		cmp	r8, r5
 17394 0322 7FD0     		beq	.L403
 17395              		.file 4 "./subsystems/datalink/pprz_transport.h"
   1:./subsystems/datalink/pprz_transport.h **** /*
   2:./subsystems/datalink/pprz_transport.h ****  * Paparazzi $Id$
   3:./subsystems/datalink/pprz_transport.h ****  *
   4:./subsystems/datalink/pprz_transport.h ****  * Copyright (C) 2003  Pascal Brisset, Antoine Drouin
   5:./subsystems/datalink/pprz_transport.h ****  *
   6:./subsystems/datalink/pprz_transport.h ****  * This file is part of paparazzi.
   7:./subsystems/datalink/pprz_transport.h ****  *
   8:./subsystems/datalink/pprz_transport.h ****  * paparazzi is free software; you can redistribute it and/or modify
   9:./subsystems/datalink/pprz_transport.h ****  * it under the terms of the GNU General Public License as published by
  10:./subsystems/datalink/pprz_transport.h ****  * the Free Software Foundation; either version 2, or (at your option)
  11:./subsystems/datalink/pprz_transport.h ****  * any later version.
  12:./subsystems/datalink/pprz_transport.h ****  *
  13:./subsystems/datalink/pprz_transport.h ****  * paparazzi is distributed in the hope that it will be useful,
  14:./subsystems/datalink/pprz_transport.h ****  * but WITHOUT ANY WARRANTY; without even the implied warranty of
  15:./subsystems/datalink/pprz_transport.h ****  * MERCHANTABILITY or FITNESS FOR A PARTICULAR PURPOSE.  See the
  16:./subsystems/datalink/pprz_transport.h ****  * GNU General Public License for more details.
  17:./subsystems/datalink/pprz_transport.h ****  *
  18:./subsystems/datalink/pprz_transport.h ****  * You should have received a copy of the GNU General Public License
  19:./subsystems/datalink/pprz_transport.h ****  * along with paparazzi; see the file COPYING.  If not, write to
  20:./subsystems/datalink/pprz_transport.h ****  * the Free Software Foundation, 59 Temple Place - Suite 330,
  21:./subsystems/datalink/pprz_transport.h ****  * Boston, MA 02111-1307, USA.
  22:./subsystems/datalink/pprz_transport.h ****  *
  23:./subsystems/datalink/pprz_transport.h ****  */
  24:./subsystems/datalink/pprz_transport.h **** 
  25:./subsystems/datalink/pprz_transport.h **** /** \file pprz_transport.h
  26:./subsystems/datalink/pprz_transport.h ****  *  \brief Building and parsing Paparazzi frames
  27:./subsystems/datalink/pprz_transport.h ****  *
  28:./subsystems/datalink/pprz_transport.h ****  *  Pprz frame:
  29:./subsystems/datalink/pprz_transport.h ****  *
  30:./subsystems/datalink/pprz_transport.h ****  *   |STX|length|... payload=(length-4) bytes ...|Checksum A|Checksum B|
  31:./subsystems/datalink/pprz_transport.h ****  *
  32:./subsystems/datalink/pprz_transport.h ****  *   where checksum is computed over length and payload:
  33:./subsystems/datalink/pprz_transport.h ****  *     ck_A = ck_B = length
  34:./subsystems/datalink/pprz_transport.h ****  *     for each byte b in payload
  35:./subsystems/datalink/pprz_transport.h ****  *       ck_A += b; ck_b += ck_A
  36:./subsystems/datalink/pprz_transport.h ****  */
  37:./subsystems/datalink/pprz_transport.h **** 
  38:./subsystems/datalink/pprz_transport.h **** #ifndef PPRZ_TRANSPORT_H
  39:./subsystems/datalink/pprz_transport.h **** #define PPRZ_TRANSPORT_H
  40:./subsystems/datalink/pprz_transport.h **** 
  41:./subsystems/datalink/pprz_transport.h **** #include <inttypes.h>
  42:./subsystems/datalink/pprz_transport.h **** #include "std.h"
  43:./subsystems/datalink/pprz_transport.h **** #include "subsystems/datalink/datalink.h"
  44:./subsystems/datalink/pprz_transport.h **** #include "subsystems/datalink/transport.h"
  45:./subsystems/datalink/pprz_transport.h **** 
  46:./subsystems/datalink/pprz_transport.h **** /* PPRZ Transport
  47:./subsystems/datalink/pprz_transport.h ****  * downlink macros
  48:./subsystems/datalink/pprz_transport.h ****  */
  49:./subsystems/datalink/pprz_transport.h **** extern uint8_t ck_a, ck_b;
  50:./subsystems/datalink/pprz_transport.h **** 
  51:./subsystems/datalink/pprz_transport.h **** #define STX  0x99
  52:./subsystems/datalink/pprz_transport.h **** 
  53:./subsystems/datalink/pprz_transport.h **** /** 4 = STX + len + ck_a + ck_b */
  54:./subsystems/datalink/pprz_transport.h **** #define PprzTransportSizeOf(_dev, _payload) (_payload+4)
  55:./subsystems/datalink/pprz_transport.h **** 
  56:./subsystems/datalink/pprz_transport.h **** #define PprzTransportCheckFreeSpace(_dev, _x) TransportLink(_dev, CheckFreeSpace(_x))
  57:./subsystems/datalink/pprz_transport.h **** #define PprzTransportPut1Byte(_dev, _x) TransportLink(_dev, Transmit(_x))
  58:./subsystems/datalink/pprz_transport.h **** #define PprzTransportSendMessage(_dev) TransportLink(_dev, SendMessage())
  59:./subsystems/datalink/pprz_transport.h **** 
  60:./subsystems/datalink/pprz_transport.h **** #define PprzTransportHeader(_dev, payload_len) { \
  61:./subsystems/datalink/pprz_transport.h ****   PprzTransportPut1Byte(_dev, STX);				\
  62:./subsystems/datalink/pprz_transport.h ****   uint8_t msg_len = PprzTransportSizeOf(_dev, payload_len);	\
  63:./subsystems/datalink/pprz_transport.h ****   PprzTransportPut1Byte(_dev, msg_len);			\
  64:./subsystems/datalink/pprz_transport.h ****   ck_a = msg_len; ck_b = msg_len;			\
  65:./subsystems/datalink/pprz_transport.h **** }
  66:./subsystems/datalink/pprz_transport.h **** 
  67:./subsystems/datalink/pprz_transport.h **** #define PprzTransportTrailer(_dev) { \
  68:./subsystems/datalink/pprz_transport.h ****   PprzTransportPut1Byte(_dev, ck_a);	\
  69:./subsystems/datalink/pprz_transport.h ****   PprzTransportPut1Byte(_dev, ck_b);	\
  70:./subsystems/datalink/pprz_transport.h ****   PprzTransportSendMessage(_dev) \
  71:./subsystems/datalink/pprz_transport.h **** }
  72:./subsystems/datalink/pprz_transport.h **** 
  73:./subsystems/datalink/pprz_transport.h **** #define PprzTransportPutUint8(_dev, _byte) { \
  74:./subsystems/datalink/pprz_transport.h ****     ck_a += _byte;			  \
  75:./subsystems/datalink/pprz_transport.h ****     ck_b += ck_a;			  \
  76:./subsystems/datalink/pprz_transport.h ****     PprzTransportPut1Byte(_dev, _byte);		  \
  77:./subsystems/datalink/pprz_transport.h ****  }
  78:./subsystems/datalink/pprz_transport.h **** 
  79:./subsystems/datalink/pprz_transport.h **** #define PprzTransportPutNamedUint8(_dev, _name, _byte) PprzTransportPutUint8(_dev, _byte)
  80:./subsystems/datalink/pprz_transport.h **** 
  81:./subsystems/datalink/pprz_transport.h **** #define PprzTransportPut1ByteByAddr(_dev, _byte) {	 \
  82:./subsystems/datalink/pprz_transport.h ****     uint8_t _x = *(_byte);		 \
  83:./subsystems/datalink/pprz_transport.h ****     PprzTransportPutUint8(_dev, _x);	 \
  84:./subsystems/datalink/pprz_transport.h ****   }
  85:./subsystems/datalink/pprz_transport.h **** 
  86:./subsystems/datalink/pprz_transport.h **** #define PprzTransportPut2ByteByAddr(_dev, _byte) { \
  87:./subsystems/datalink/pprz_transport.h ****     PprzTransportPut1ByteByAddr(_dev, _byte);	\
  88:./subsystems/datalink/pprz_transport.h ****     PprzTransportPut1ByteByAddr(_dev, (const uint8_t*)_byte+1);	\
  89:./subsystems/datalink/pprz_transport.h ****   }
  90:./subsystems/datalink/pprz_transport.h **** 
  91:./subsystems/datalink/pprz_transport.h **** #define PprzTransportPut4ByteByAddr(_dev, _byte) { \
  92:./subsystems/datalink/pprz_transport.h ****     PprzTransportPut2ByteByAddr(_dev, _byte);	\
  93:./subsystems/datalink/pprz_transport.h ****     PprzTransportPut2ByteByAddr(_dev, (const uint8_t*)_byte+2);	\
  94:./subsystems/datalink/pprz_transport.h ****   }
  95:./subsystems/datalink/pprz_transport.h **** 
  96:./subsystems/datalink/pprz_transport.h **** #ifdef __IEEE_BIG_ENDIAN /* From machine/ieeefp.h */
  97:./subsystems/datalink/pprz_transport.h **** #define PprzTransportPutDoubleByAddr(_dev, _byte) { \
  98:./subsystems/datalink/pprz_transport.h ****     PprzTransportPut4ByteByAddr(_dev, (const uint8_t*)_byte+4);	\
  99:./subsystems/datalink/pprz_transport.h ****     PprzTransportPut4ByteByAddr(_dev, (const uint8_t*)_byte);	\
 100:./subsystems/datalink/pprz_transport.h ****   }
 101:./subsystems/datalink/pprz_transport.h **** #else
 102:./subsystems/datalink/pprz_transport.h **** #define PprzTransportPutDoubleByAddr(_dev, _byte) { \
 103:./subsystems/datalink/pprz_transport.h ****     PprzTransportPut4ByteByAddr(_dev, (const uint8_t*)_byte);	\
 104:./subsystems/datalink/pprz_transport.h ****     PprzTransportPut4ByteByAddr(_dev, (const uint8_t*)_byte+4);	\
 105:./subsystems/datalink/pprz_transport.h ****   }
 106:./subsystems/datalink/pprz_transport.h **** #endif
 107:./subsystems/datalink/pprz_transport.h **** 
 108:./subsystems/datalink/pprz_transport.h **** 
 109:./subsystems/datalink/pprz_transport.h **** #define PprzTransportPutInt8ByAddr(_dev, _x) PprzTransportPut1ByteByAddr(_dev, _x)
 110:./subsystems/datalink/pprz_transport.h **** #define PprzTransportPutUint8ByAddr(_dev, _x) PprzTransportPut1ByteByAddr(_dev, (const uint8_t*)_x)
 111:./subsystems/datalink/pprz_transport.h **** #define PprzTransportPutInt16ByAddr(_dev, _x) PprzTransportPut2ByteByAddr(_dev, (const uint8_t*)_x)
 112:./subsystems/datalink/pprz_transport.h **** #define PprzTransportPutUint16ByAddr(_dev, _x) PprzTransportPut2ByteByAddr(_dev, (const uint8_t*)_x
 113:./subsystems/datalink/pprz_transport.h **** #define PprzTransportPutInt32ByAddr(_dev, _x) PprzTransportPut4ByteByAddr(_dev, (const uint8_t*)_x)
 114:./subsystems/datalink/pprz_transport.h **** #define PprzTransportPutUint32ByAddr(_dev, _x) PprzTransportPut4ByteByAddr(_dev, (const uint8_t*)_x
 115:./subsystems/datalink/pprz_transport.h **** #define PprzTransportPutFloatByAddr(_dev, _x) PprzTransportPut4ByteByAddr(_dev, (const uint8_t*)_x)
 116:./subsystems/datalink/pprz_transport.h **** 
 117:./subsystems/datalink/pprz_transport.h **** #define PprzTransportPutArray(_dev, _put, _n, _x) { \
 118:./subsystems/datalink/pprz_transport.h ****   uint8_t _i; \
 119:./subsystems/datalink/pprz_transport.h ****   PprzTransportPutUint8(_dev, _n); \
 120:./subsystems/datalink/pprz_transport.h ****   for(_i = 0; _i < _n; _i++) { \
 121:./subsystems/datalink/pprz_transport.h ****     _put(_dev, &_x[_i]); \
 122:./subsystems/datalink/pprz_transport.h ****   } \
 123:./subsystems/datalink/pprz_transport.h **** }
 124:./subsystems/datalink/pprz_transport.h **** 
 125:./subsystems/datalink/pprz_transport.h **** #define PprzTransportPutFloatArray(_dev, _n, _x) PprzTransportPutArray(_dev, PprzTransportPutFloatB
 126:./subsystems/datalink/pprz_transport.h **** #define PprzTransportPutDoubleArray(_dev, _n, _x) PprzTransportPutArray(_dev, PprzTransportPutDoubl
 127:./subsystems/datalink/pprz_transport.h **** 
 128:./subsystems/datalink/pprz_transport.h **** #define PprzTransportPutInt16Array(_dev, _n, _x) PprzTransportPutArray(_dev, PprzTransportPutInt16B
 129:./subsystems/datalink/pprz_transport.h **** #define PprzTransportPutUint16Array(_dev, _n, _x) PprzTransportPutArray(_dev, PprzTransportPutUint1
 130:./subsystems/datalink/pprz_transport.h **** 
 131:./subsystems/datalink/pprz_transport.h **** #define PprzTransportPutInt32Array(_dev, _n, _x) PprzTransportPutArray(_dev, PprzTransportPutInt32B
 132:./subsystems/datalink/pprz_transport.h **** #define PprzTransportPutUint32Array(_dev, _n, _x) PprzTransportPutArray(_dev, PprzTransportPutUint3
 133:./subsystems/datalink/pprz_transport.h **** 
 134:./subsystems/datalink/pprz_transport.h **** #define PprzTransportPutUint8Array(_dev, _n, _x) PprzTransportPutArray(_dev, PprzTransportPutUint8B
 135:./subsystems/datalink/pprz_transport.h **** 
 136:./subsystems/datalink/pprz_transport.h **** 
 137:./subsystems/datalink/pprz_transport.h **** /** Receiving pprz messages */
 138:./subsystems/datalink/pprz_transport.h **** 
 139:./subsystems/datalink/pprz_transport.h **** // PPRZ parsing state machine
 140:./subsystems/datalink/pprz_transport.h **** #define UNINIT      0
 141:./subsystems/datalink/pprz_transport.h **** #define GOT_STX     1
 142:./subsystems/datalink/pprz_transport.h **** #define GOT_LENGTH  2
 143:./subsystems/datalink/pprz_transport.h **** #define GOT_PAYLOAD 3
 144:./subsystems/datalink/pprz_transport.h **** #define GOT_CRC1    4
 145:./subsystems/datalink/pprz_transport.h **** 
 146:./subsystems/datalink/pprz_transport.h **** struct pprz_transport {
 147:./subsystems/datalink/pprz_transport.h ****   // generic interface
 148:./subsystems/datalink/pprz_transport.h ****   struct transport trans;
 149:./subsystems/datalink/pprz_transport.h ****   // specific pprz transport variables
 150:./subsystems/datalink/pprz_transport.h ****   uint8_t status;
 151:./subsystems/datalink/pprz_transport.h ****   uint8_t payload_idx;
 152:./subsystems/datalink/pprz_transport.h ****   uint8_t ck_a, ck_b;
 153:./subsystems/datalink/pprz_transport.h **** };
 154:./subsystems/datalink/pprz_transport.h **** 
 155:./subsystems/datalink/pprz_transport.h **** extern struct pprz_transport pprz_tp;
 156:./subsystems/datalink/pprz_transport.h **** 
 157:./subsystems/datalink/pprz_transport.h **** static inline void parse_pprz(struct pprz_transport * t, uint8_t c ) {
 158:./subsystems/datalink/pprz_transport.h ****   switch (t->status) {
 17396              		.loc 4 158 0
 17397 0324 7048     		ldr	r0, .L449+12
 17398 0326 C246     		mov	sl, r8
 17399 0328 90F80431 		ldrb	r3, [r0, #260]	@ zero_extendqisi2
 159:./subsystems/datalink/pprz_transport.h ****   case UNINIT:
 160:./subsystems/datalink/pprz_transport.h ****     if (c == STX)
 161:./subsystems/datalink/pprz_transport.h ****       t->status++;
 162:./subsystems/datalink/pprz_transport.h ****     break;
 163:./subsystems/datalink/pprz_transport.h ****   case GOT_STX:
 164:./subsystems/datalink/pprz_transport.h ****     if (t->trans.msg_received) {
 165:./subsystems/datalink/pprz_transport.h ****       t->trans.ovrn++;
 17400              		.loc 4 165 0
 17401 032c 90F80271 		ldrb	r7, [r0, #258]	@ zero_extendqisi2
 166:./subsystems/datalink/pprz_transport.h ****       goto error;
 167:./subsystems/datalink/pprz_transport.h ****     }
 168:./subsystems/datalink/pprz_transport.h ****     t->trans.payload_len = c-4; /* Counting STX, LENGTH and CRC1 and CRC2 */
 169:./subsystems/datalink/pprz_transport.h ****     t->ck_a = t->ck_b = c;
 17402              		.loc 4 169 0
 17403 0330 90F80741 		ldrb	r4, [r0, #263]	@ zero_extendqisi2
 17404 0334 90F80621 		ldrb	r2, [r0, #262]	@ zero_extendqisi2
 170:./subsystems/datalink/pprz_transport.h ****     t->status++;
 171:./subsystems/datalink/pprz_transport.h ****     t->payload_idx = 0;
 17405              		.loc 4 171 0
 17406 0338 90F80511 		ldrb	r1, [r0, #261]	@ zero_extendqisi2
 172:./subsystems/datalink/pprz_transport.h ****     break;
 173:./subsystems/datalink/pprz_transport.h ****   case GOT_LENGTH:
 174:./subsystems/datalink/pprz_transport.h ****     t->trans.payload[t->payload_idx] = c;
 175:./subsystems/datalink/pprz_transport.h ****     t->ck_a += c; t->ck_b += t->ck_a;
 176:./subsystems/datalink/pprz_transport.h ****     t->payload_idx++;
 177:./subsystems/datalink/pprz_transport.h ****     if (t->payload_idx == t->trans.payload_len)
 178:./subsystems/datalink/pprz_transport.h ****       t->status++;
 179:./subsystems/datalink/pprz_transport.h ****     break;
 180:./subsystems/datalink/pprz_transport.h ****   case GOT_PAYLOAD:
 181:./subsystems/datalink/pprz_transport.h ****     if (c != t->ck_a)
 182:./subsystems/datalink/pprz_transport.h ****       goto error;
 183:./subsystems/datalink/pprz_transport.h ****     t->status++;
 184:./subsystems/datalink/pprz_transport.h ****     break;
 185:./subsystems/datalink/pprz_transport.h ****   case GOT_CRC1:
 186:./subsystems/datalink/pprz_transport.h ****     if (c != t->ck_b)
 187:./subsystems/datalink/pprz_transport.h ****       goto error;
 188:./subsystems/datalink/pprz_transport.h ****     t->trans.msg_received = TRUE;
 189:./subsystems/datalink/pprz_transport.h ****     goto restart;
 190:./subsystems/datalink/pprz_transport.h ****   default:
 191:./subsystems/datalink/pprz_transport.h ****     goto error;
 192:./subsystems/datalink/pprz_transport.h ****   }
 193:./subsystems/datalink/pprz_transport.h ****   return;
 194:./subsystems/datalink/pprz_transport.h ****  error:
 195:./subsystems/datalink/pprz_transport.h ****   t->trans.error++;
 17407              		.loc 4 195 0
 17408 033c 90F80361 		ldrb	r6, [r0, #259]	@ zero_extendqisi2
 627:firmwares/fixedwing/main_ap.c ****   DatalinkEvent();
 17409              		.loc 1 627 0
 17410 0340 8446     		mov	ip, r0
 17411 0342 8146     		mov	r9, r0
 17412 0344 41E0     		b	.L404
 17413              	.L416:
 17414              	.LBB1173:
 627:firmwares/fixedwing/main_ap.c ****   DatalinkEvent();
 17415              		.loc 1 627 0 is_stmt 0 discriminator 4
 17416 0346 1BF80500 		ldrb	r0, [fp, r5]	@ zero_extendqisi2
 17417              	.LVL2676:
 17418 034a 0135     		adds	r5, r5, #1
 17419 034c 05F07F05 		and	r5, r5, #127
 17420              	.LVL2677:
 17421              	.LBE1173:
 17422              	.LBB1174:
 17423              	.LBB1175:
 158:./subsystems/datalink/pprz_transport.h ****   switch (t->status) {
 17424              		.loc 4 158 0 is_stmt 1 discriminator 4
 17425 0350 042B     		cmp	r3, #4
 17426 0352 2FD8     		bhi	.L405
 17427 0354 DFE803F0 		tbb	[pc, r3]
 17428              	.L411:
 17429 0358 03       		.byte	(.L406-.L411)/2
 17430 0359 07       		.byte	(.L407-.L411)/2
 17431 035a 16       		.byte	(.L408-.L411)/2
 17432 035b 24       		.byte	(.L409-.L411)/2
 17433 035c 28       		.byte	(.L410-.L411)/2
 17434 035d 00       		.align	1
 17435              	.L406:
 161:./subsystems/datalink/pprz_transport.h ****       t->status++;
 17436              		.loc 4 161 0
 17437 035e 9928     		cmp	r0, #153
 17438 0360 08BF     		it	eq
 17439 0362 0123     		moveq	r3, #1
 17440 0364 29E0     		b	.L412
 17441              	.L407:
 164:./subsystems/datalink/pprz_transport.h ****     if (t->trans.msg_received) {
 17442              		.loc 4 164 0
 17443 0366 99F80131 		ldrb	r3, [r9, #257]	@ zero_extendqisi2
 17444 036a 13B1     		cbz	r3, .L413
 165:./subsystems/datalink/pprz_transport.h ****       t->trans.ovrn++;
 17445              		.loc 4 165 0
 17446 036c 0137     		adds	r7, r7, #1
 17447 036e FFB2     		uxtb	r7, r7
 17448 0370 20E0     		b	.L405
 17449              	.L413:
 168:./subsystems/datalink/pprz_transport.h ****     t->trans.payload_len = c-4; /* Counting STX, LENGTH and CRC1 and CRC2 */
 17450              		.loc 4 168 0
 17451 0372 021F     		subs	r2, r0, #4
 17452 0374 D2B2     		uxtb	r2, r2
 17453 0376 8CF80021 		strb	r2, [ip, #256]
 171:./subsystems/datalink/pprz_transport.h ****     t->payload_idx = 0;
 17454              		.loc 4 171 0
 17455 037a 1946     		mov	r1, r3
 627:firmwares/fixedwing/main_ap.c ****   DatalinkEvent();
 17456              		.loc 1 627 0
 17457 037c 0246     		mov	r2, r0
 17458 037e 0446     		mov	r4, r0
 170:./subsystems/datalink/pprz_transport.h ****     t->status++;
 17459              		.loc 4 170 0
 17460 0380 0223     		movs	r3, #2
 17461 0382 1AE0     		b	.L412
 17462              	.L408:
 175:./subsystems/datalink/pprz_transport.h ****     t->ck_a += c; t->ck_b += t->ck_a;
 17463              		.loc 4 175 0
 17464 0384 8218     		adds	r2, r0, r2
 174:./subsystems/datalink/pprz_transport.h ****     t->trans.payload[t->payload_idx] = c;
 17465              		.loc 4 174 0
 17466 0386 09F80100 		strb	r0, [r9, r1]
 175:./subsystems/datalink/pprz_transport.h ****     t->ck_a += c; t->ck_b += t->ck_a;
 17467              		.loc 4 175 0
 17468 038a D2B2     		uxtb	r2, r2
 176:./subsystems/datalink/pprz_transport.h ****     t->payload_idx++;
 17469              		.loc 4 176 0
 17470 038c 0131     		adds	r1, r1, #1
 177:./subsystems/datalink/pprz_transport.h ****     if (t->payload_idx == t->trans.payload_len)
 17471              		.loc 4 177 0
 17472 038e 99F80001 		ldrb	r0, [r9, #256]	@ zero_extendqisi2
 17473              	.LVL2678:
 175:./subsystems/datalink/pprz_transport.h ****     t->ck_a += c; t->ck_b += t->ck_a;
 17474              		.loc 4 175 0
 17475 0392 1419     		adds	r4, r2, r4
 176:./subsystems/datalink/pprz_transport.h ****     t->payload_idx++;
 17476              		.loc 4 176 0
 17477 0394 C9B2     		uxtb	r1, r1
 175:./subsystems/datalink/pprz_transport.h ****     t->ck_a += c; t->ck_b += t->ck_a;
 17478              		.loc 4 175 0
 17479 0396 E4B2     		uxtb	r4, r4
 178:./subsystems/datalink/pprz_transport.h ****       t->status++;
 17480              		.loc 4 178 0
 17481 0398 8142     		cmp	r1, r0
 17482 039a 08BF     		it	eq
 17483 039c 0323     		moveq	r3, #3
 17484 039e 0CE0     		b	.L412
 17485              	.LVL2679:
 17486              	.L409:
 181:./subsystems/datalink/pprz_transport.h ****     if (c != t->ck_a)
 17487              		.loc 4 181 0
 17488 03a0 9042     		cmp	r0, r2
 17489 03a2 07D1     		bne	.L405
 183:./subsystems/datalink/pprz_transport.h ****     t->status++;
 17490              		.loc 4 183 0
 17491 03a4 0423     		movs	r3, #4
 17492 03a6 08E0     		b	.L412
 17493              	.L410:
 186:./subsystems/datalink/pprz_transport.h ****     if (c != t->ck_b)
 17494              		.loc 4 186 0
 17495 03a8 A042     		cmp	r0, r4
 17496 03aa 03D1     		bne	.L405
 188:./subsystems/datalink/pprz_transport.h ****     t->trans.msg_received = TRUE;
 17497              		.loc 4 188 0
 17498 03ac 0123     		movs	r3, #1
 17499 03ae 8CF80131 		strb	r3, [ip, #257]
 17500 03b2 01E0     		b	.L414
 17501              	.L405:
 17502              		.loc 4 195 0
 17503 03b4 0136     		adds	r6, r6, #1
 17504 03b6 F6B2     		uxtb	r6, r6
 17505              	.L414:
 196:./subsystems/datalink/pprz_transport.h ****  restart:
 197:./subsystems/datalink/pprz_transport.h ****   t->status = UNINIT;
 17506              		.loc 4 197 0
 17507 03b8 0023     		movs	r3, #0
 17508              	.LVL2680:
 17509              	.L412:
 17510              	.LBE1175:
 17511              	.LBE1174:
 627:firmwares/fixedwing/main_ap.c ****   DatalinkEvent();
 17512              		.loc 1 627 0 discriminator 1
 17513 03ba AA45     		cmp	sl, r5
 17514 03bc 05D1     		bne	.L404
 627:firmwares/fixedwing/main_ap.c ****   DatalinkEvent();
 17515              		.loc 1 627 0 is_stmt 0
 17516 03be 4B48     		ldr	r0, .L449+16
 17517 03c0 D046     		mov	r8, sl
 17518 03c2 A0F882A0 		strh	sl, [r0, #130]	@ movhi
 17519 03c6 4848     		ldr	r0, .L449+12
 17520 03c8 09E0     		b	.L446
 17521              	.LVL2681:
 17522              	.L404:
 627:firmwares/fixedwing/main_ap.c ****   DatalinkEvent();
 17523              		.loc 1 627 0 discriminator 2
 17524 03ca 9CF80181 		ldrb	r8, [ip, #257]	@ zero_extendqisi2
 17525 03ce 4648     		ldr	r0, .L449+12
 17526 03d0 B8F1000F 		cmp	r8, #0
 17527 03d4 B7D0     		beq	.L416
 627:firmwares/fixedwing/main_ap.c ****   DatalinkEvent();
 17528              		.loc 1 627 0
 17529 03d6 DFF814C1 		ldr	ip, .L449+16
 17530 03da ACF88250 		strh	r5, [ip, #130]	@ movhi
 17531              	.L446:
 17532 03de 80F80621 		strb	r2, [r0, #262]
 17533 03e2 414A     		ldr	r2, .L449+12
 17534 03e4 80F80431 		strb	r3, [r0, #260]
 17535 03e8 92F80131 		ldrb	r3, [r2, #257]	@ zero_extendqisi2
 17536 03ec 80F80271 		strb	r7, [r0, #258]
 17537 03f0 80F80741 		strb	r4, [r0, #263]
 17538 03f4 80F80511 		strb	r1, [r0, #261]
 17539 03f8 80F80361 		strb	r6, [r0, #259]
 17540 03fc 2BB9     		cbnz	r3, .L435
 17541 03fe 11E0     		b	.L403
 17542              	.LVL2682:
 17543              	.L418:
 17544              	.LBB1176:
 17545              	.LBB1177:
 198:./subsystems/datalink/pprz_transport.h ****   return;
 199:./subsystems/datalink/pprz_transport.h **** }
 200:./subsystems/datalink/pprz_transport.h **** 
 201:./subsystems/datalink/pprz_transport.h **** static inline void pprz_parse_payload(struct pprz_transport * t) {
 202:./subsystems/datalink/pprz_transport.h ****   uint8_t i;
 203:./subsystems/datalink/pprz_transport.h ****   for(i = 0; i < t->trans.payload_len; i++)
 204:./subsystems/datalink/pprz_transport.h ****     dl_buffer[i] = t->trans.payload[i];
 17546              		.loc 4 204 0 is_stmt 1
 17547 0400 D05C     		ldrb	r0, [r2, r3]	@ zero_extendqisi2
 17548 0402 C854     		strb	r0, [r1, r3]
 203:./subsystems/datalink/pprz_transport.h ****   for(i = 0; i < t->trans.payload_len; i++)
 17549              		.loc 4 203 0
 17550 0404 0133     		adds	r3, r3, #1
 17551              	.LVL2683:
 17552 0406 DBB2     		uxtb	r3, r3
 17553              	.LVL2684:
 17554 0408 01E0     		b	.L417
 17555              	.LVL2685:
 17556              	.L435:
 17557              		.loc 4 204 0
 17558 040a 3949     		ldr	r1, .L449+20
 17559              	.LBE1177:
 17560              	.LBE1176:
 627:firmwares/fixedwing/main_ap.c ****   DatalinkEvent();
 17561              		.loc 1 627 0
 17562 040c 0023     		movs	r3, #0
 17563              	.L417:
 17564              	.LVL2686:
 17565              	.LBB1179:
 17566              	.LBB1178:
 203:./subsystems/datalink/pprz_transport.h ****   for(i = 0; i < t->trans.payload_len; i++)
 17567              		.loc 4 203 0
 17568 040e 92F80001 		ldrb	r0, [r2, #256]	@ zero_extendqisi2
 17569 0412 8342     		cmp	r3, r0
 17570 0414 F4D3     		bcc	.L418
 205:./subsystems/datalink/pprz_transport.h ****   dl_msg_available = TRUE;
 17571              		.loc 4 205 0
 17572 0416 374B     		ldr	r3, .L449+24
 17573              	.LVL2687:
 17574 0418 0122     		movs	r2, #1
 17575 041a 1A70     		strb	r2, [r3, #0]
 17576              	.LBE1178:
 17577              	.LBE1179:
 627:firmwares/fixedwing/main_ap.c ****   DatalinkEvent();
 17578              		.loc 1 627 0
 17579 041c 324B     		ldr	r3, .L449+12
 17580 041e 0022     		movs	r2, #0
 17581 0420 83F80121 		strb	r2, [r3, #257]
 17582              	.L403:
 627:firmwares/fixedwing/main_ap.c ****   DatalinkEvent();
 17583              		.loc 1 627 0 is_stmt 0 discriminator 2
 17584 0424 334C     		ldr	r4, .L449+24
 17585 0426 2378     		ldrb	r3, [r4, #0]	@ zero_extendqisi2
 17586 0428 1BB1     		cbz	r3, .L419
 627:firmwares/fixedwing/main_ap.c ****   DatalinkEvent();
 17587              		.loc 1 627 0 discriminator 6
 17588 042a FFF7FEFF 		bl	dl_parse_msg
 17589 042e 0023     		movs	r3, #0
 17590 0430 2370     		strb	r3, [r4, #0]
 17591              	.L419:
 634:firmwares/fixedwing/main_ap.c ****   if (inter_mcu_received_fbw) {
 17592              		.loc 1 634 0 is_stmt 1
 17593 0432 314B     		ldr	r3, .L449+28
 17594 0434 1A78     		ldrb	r2, [r3, #0]	@ zero_extendqisi2
 17595 0436 002A     		cmp	r2, #0
 17596 0438 00F03C81 		beq	.L420
 636:firmwares/fixedwing/main_ap.c ****     inter_mcu_received_fbw = FALSE;
 17597              		.loc 1 636 0
 17598 043c 0022     		movs	r2, #0
 17599 043e 1A70     		strb	r2, [r3, #0]
 17600              	.LVL2688:
 17601              	.LBB1180:
 17602              	.LBB1181:
 17603              	.LBB1182:
 17604              	.LBB1183:
 330:firmwares/fixedwing/main_ap.c ****   ap_state->commands[COMMAND_YAW] = fbw_state->channels[RADIO_YAW];
 17605              		.loc 1 330 0
 17606 0440 2E4B     		ldr	r3, .L449+32
 17607 0442 1968     		ldr	r1, [r3, #0]
 17608 0444 2E4B     		ldr	r3, .L449+36
 17609 0446 CA88     		ldrh	r2, [r1, #6]
 17610 0448 1B68     		ldr	r3, [r3, #0]
 17611 044a DA80     		strh	r2, [r3, #6]	@ movhi
 17612              	.LBE1183:
 17613              	.LBE1182:
 346:firmwares/fixedwing/main_ap.c ****   uint8_t really_lost = bit_is_set(fbw_state->status, STATUS_RADIO_REALLY_LOST) && (pprz_mode == PP
 17614              		.loc 1 346 0
 17615 044c 4A7E     		ldrb	r2, [r1, #25]	@ zero_extendqisi2
 17616 044e 2D4B     		ldr	r3, .L449+40
 17617 0450 C2F34000 		ubfx	r0, r2, #1, #1
 17618 0454 20B1     		cbz	r0, .L421
 606:firmwares/fixedwing/main_ap.c **** void event_task_ap( void ) {
 17619              		.loc 1 606 0
 17620 0456 1878     		ldrb	r0, [r3, #0]	@ zero_extendqisi2
 17621 0458 0128     		cmp	r0, #1
 17622 045a 8CBF     		ite	hi
 17623 045c 0020     		movhi	r0, #0
 17624 045e 0120     		movls	r0, #1
 17625              	.L421:
 17626              	.LVL2689:
 347:firmwares/fixedwing/main_ap.c ****   if (pprz_mode != PPRZ_MODE_HOME && pprz_mode != PPRZ_MODE_GPS_OUT_OF_ORDER && launch) {
 17627              		.loc 1 347 0
 17628 0460 1B78     		ldrb	r3, [r3, #0]	@ zero_extendqisi2
 17629 0462 033B     		subs	r3, r3, #3
 17630 0464 012B     		cmp	r3, #1
 17631 0466 0FD9     		bls	.L437
 17632 0468 274B     		ldr	r3, .L449+44
 17633 046a 1B78     		ldrb	r3, [r3, #0]	@ zero_extendqisi2
 17634 046c 6BB1     		cbz	r3, .L422
 348:firmwares/fixedwing/main_ap.c ****     if  (too_far_from_home) {
 17635              		.loc 1 348 0
 17636 046e 274B     		ldr	r3, .L449+48
 17637 0470 1B78     		ldrb	r3, [r3, #0]	@ zero_extendqisi2
 17638 0472 1BB1     		cbz	r3, .L423
 349:firmwares/fixedwing/main_ap.c ****       pprz_mode = PPRZ_MODE_HOME;
 17639              		.loc 1 349 0
 17640 0474 234B     		ldr	r3, .L449+40
 17641 0476 0324     		movs	r4, #3
 17642 0478 1C70     		strb	r4, [r3, #0]
 17643              	.LVL2690:
 350:firmwares/fixedwing/main_ap.c ****       mode_changed = TRUE;
 17644              		.loc 1 350 0
 17645 047a 0123     		movs	r3, #1
 17646              	.LVL2691:
 17647              	.L423:
 352:firmwares/fixedwing/main_ap.c ****     if  (really_lost) {
 17648              		.loc 1 352 0
 17649 047c 28B1     		cbz	r0, .L422
 353:firmwares/fixedwing/main_ap.c ****       pprz_mode = RC_LOST_MODE;
 17650              		.loc 1 353 0
 17651 047e 214B     		ldr	r3, .L449+40
 17652              	.LVL2692:
 17653 0480 0320     		movs	r0, #3
 17654              	.LVL2693:
 17655 0482 1870     		strb	r0, [r3, #0]
 17656              	.LVL2694:
 354:firmwares/fixedwing/main_ap.c ****       mode_changed = TRUE;
 17657              		.loc 1 354 0
 17658 0484 0123     		movs	r3, #1
 17659 0486 00E0     		b	.L422
 17660              	.LVL2695:
 17661              	.L437:
 343:firmwares/fixedwing/main_ap.c ****   uint8_t mode_changed = FALSE;
 17662              		.loc 1 343 0
 17663 0488 0023     		movs	r3, #0
 17664              	.LVL2696:
 17665              	.L422:
 357:firmwares/fixedwing/main_ap.c ****   if (bit_is_set(fbw_state->status, AVERAGED_CHANNELS_SENT)) {
 17666              		.loc 1 357 0
 17667 048a D006     		lsls	r0, r2, #27
 17668 048c 1AD5     		bpl	.L424
 17669              	.LBB1184:
 17670              	.LBB1185:
 17671              	.LBB1186:
 279:firmwares/fixedwing/main_ap.c ****   if ((pprz_mode != PPRZ_MODE_HOME &&
 17672              		.loc 1 279 0
 17673 048e 1D4C     		ldr	r4, .L449+40
 17674 0490 2078     		ldrb	r0, [r4, #0]	@ zero_extendqisi2
 17675 0492 C51E     		subs	r5, r0, #3
 17676 0494 012D     		cmp	r5, #1
 17677 0496 13D9     		bls	.L440
 17678              	.LBB1187:
 286:firmwares/fixedwing/main_ap.c ****     return ModeUpdate(pprz_mode, PPRZ_MODE_OF_PULSE(fbw_state->channels[RADIO_MODE]));
 17679              		.loc 1 286 0
 17680 0498 B1F90A10 		ldrsh	r1, [r1, #10]
 17681 049c B1F5965F 		cmp	r1, #4800
 17682 04a0 05DC     		bgt	.L441
 17683 04a2 11F5965F 		cmn	r1, #4800
 17684 04a6 D4BF     		ite	le
 17685 04a8 0021     		movle	r1, #0
 17686 04aa 0121     		movgt	r1, #1
 17687 04ac 00E0     		b	.L426
 17688              	.L441:
 17689 04ae 0221     		movs	r1, #2
 17690              	.L426:
 17691              	.LVL2697:
 17692 04b0 8842     		cmp	r0, r1
 17693 04b2 02D0     		beq	.L442
 17694 04b4 2170     		strb	r1, [r4, #0]
 17695 04b6 0121     		movs	r1, #1
 17696              	.LVL2698:
 17697 04b8 00E0     		b	.L427
 17698              	.LVL2699:
 17699              	.L442:
 17700 04ba 0021     		movs	r1, #0
 17701              	.LVL2700:
 17702              	.L427:
 17703              	.LBE1187:
 17704 04bc C9B2     		uxtb	r1, r1
 17705 04be 00E0     		b	.L425
 17706              	.L440:
 305:firmwares/fixedwing/main_ap.c ****     return FALSE;
 17707              		.loc 1 305 0
 17708 04c0 0021     		movs	r1, #0
 17709              	.L425:
 17710              	.LBE1186:
 17711              	.LBE1185:
 359:firmwares/fixedwing/main_ap.c ****     mode_changed |= pprz_mode_changed;
 17712              		.loc 1 359 0
 17713 04c2 0B43     		orrs	r3, r3, r1
 17714              	.LVL2701:
 17715              	.L424:
 17716              	.LBE1184:
 17717              	.LBB1188:
 17718              	.LBB1189:
 315:firmwares/fixedwing/main_ap.c ****   if (mcu1_status != new_status) {
 17719              		.loc 1 315 0
 17720 04c4 1248     		ldr	r0, .L449+52
 17721 04c6 0178     		ldrb	r1, [r0, #0]	@ zero_extendqisi2
 17722 04c8 9142     		cmp	r1, r2
 17723 04ca 23D0     		beq	.L443
 17724              	.LBB1190:
 316:firmwares/fixedwing/main_ap.c ****     bool_t changed = ((mcu1_status&MASK_FBW_CHANGED) != (new_status&MASK_FBW_CHANGED));
 17725              		.loc 1 316 0
 17726 04cc 5140     		eors	r1, r1, r2
 17727 04ce 11F00F01 		ands	r1, r1, #15
 17728 04d2 18BF     		it	ne
 17729 04d4 0121     		movne	r1, #1
 317:firmwares/fixedwing/main_ap.c ****     mcu1_status = new_status;
 17730              		.loc 1 317 0
 17731 04d6 0270     		strb	r2, [r0, #0]
 17732 04d8 1DE0     		b	.L428
 17733              	.L450:
 17734 04da 00BF     		.align	2
 17735              	.L449:
 17736 04dc 00000000 		.word	gps_ubx
 17737 04e0 00000000 		.word	gps
 17738 04e4 00000000 		.word	sys_time
 17739 04e8 00000000 		.word	pprz_tp
 17740 04ec 00000000 		.word	uart2
 17741 04f0 00000000 		.word	dl_buffer
 17742 04f4 00000000 		.word	dl_msg_available
 17743 04f8 00000000 		.word	inter_mcu_received_fbw
 17744 04fc 00000000 		.word	fbw_state
 17745 0500 00000000 		.word	ap_state
 17746 0504 00000000 		.word	.LANCHOR29
 17747 0508 00000000 		.word	.LANCHOR30
 17748 050c 00000000 		.word	too_far_from_home
 17749 0510 00000000 		.word	.LANCHOR32
 17750              	.LVL2702:
 17751              	.L443:
 17752              	.LBE1190:
 320:firmwares/fixedwing/main_ap.c ****   return FALSE;
 17753              		.loc 1 320 0
 17754 0514 0021     		movs	r1, #0
 17755              	.L428:
 17756              	.LVL2703:
 17757              	.LBE1189:
 17758              	.LBE1188:
 367:firmwares/fixedwing/main_ap.c ****   if ( mode_changed )
 17759              		.loc 1 367 0
 17760 0516 1943     		orrs	r1, r1, r3
 17761              	.LVL2704:
 17762 0518 7BD0     		beq	.L429
 17763              	.LVL2705:
 17764              	.LBB1191:
 368:firmwares/fixedwing/main_ap.c ****     PERIODIC_SEND_PPRZ_MODE(DefaultChannel, DefaultDevice);
 17765              		.loc 1 368 0
 17766 051a 6F48     		ldr	r0, .L451+16
 17767 051c 0C21     		movs	r1, #12
 17768 051e FFF7FEFF 		bl	uart_check_free_space
 17769              	.LVL2706:
 17770 0522 0028     		cmp	r0, #0
 17771 0524 71D0     		beq	.L430
 17772 0526 6D4B     		ldr	r3, .L451+20
 17773              	.LBB1192:
 17774 0528 9921     		movs	r1, #153
 17775              	.LBE1192:
 17776 052a 1A88     		ldrh	r2, [r3, #0]
 17777              	.LBB1193:
 17778 052c 6A48     		ldr	r0, .L451+16
 17779              	.LBE1193:
 17780 052e 0C32     		adds	r2, r2, #12
 17781 0530 1A80     		strh	r2, [r3, #0]	@ movhi
 17782 0532 6B4B     		ldr	r3, .L451+24
 17783 0534 6B4D     		ldr	r5, .L451+28
 17784 0536 1A88     		ldrh	r2, [r3, #0]
 17785 0538 6B4C     		ldr	r4, .L451+32
 17786 053a 0132     		adds	r2, r2, #1
 17787 053c 1A80     		strh	r2, [r3, #0]	@ movhi
 17788              	.LBB1194:
 17789 053e FFF7FEFF 		bl	uart_transmit
 17790              	.LVL2707:
 17791 0542 0C21     		movs	r1, #12
 17792 0544 6448     		ldr	r0, .L451+16
 17793 0546 FFF7FEFF 		bl	uart_transmit
 17794              	.LBE1194:
 17795 054a 0D23     		movs	r3, #13
 17796 054c 2B70     		strb	r3, [r5, #0]
 17797 054e 1923     		movs	r3, #25
 17798 0550 2370     		strb	r3, [r4, #0]
 17799 0552 0121     		movs	r1, #1
 17800 0554 6048     		ldr	r0, .L451+16
 17801 0556 FFF7FEFF 		bl	uart_transmit
 17802 055a 2B78     		ldrb	r3, [r5, #0]	@ zero_extendqisi2
 17803 055c 2278     		ldrb	r2, [r4, #0]	@ zero_extendqisi2
 17804 055e 0B33     		adds	r3, r3, #11
 17805 0560 DBB2     		uxtb	r3, r3
 17806              	.LVL2708:
 17807 0562 2B70     		strb	r3, [r5, #0]
 17808 0564 9B18     		adds	r3, r3, r2
 17809              	.LVL2709:
 17810 0566 2370     		strb	r3, [r4, #0]
 17811 0568 0B21     		movs	r1, #11
 17812 056a 5B48     		ldr	r0, .L451+16
 17813 056c FFF7FEFF 		bl	uart_transmit
 17814              	.LBB1195:
 17815 0570 5E4B     		ldr	r3, .L451+36
 17816 0572 2278     		ldrb	r2, [r4, #0]	@ zero_extendqisi2
 17817 0574 1978     		ldrb	r1, [r3, #0]	@ zero_extendqisi2
 17818              	.LVL2710:
 17819 0576 2B78     		ldrb	r3, [r5, #0]	@ zero_extendqisi2
 17820 0578 5748     		ldr	r0, .L451+16
 17821 057a CB18     		adds	r3, r1, r3
 17822 057c DBB2     		uxtb	r3, r3
 17823              	.LVL2711:
 17824 057e 2B70     		strb	r3, [r5, #0]
 17825 0580 9B18     		adds	r3, r3, r2
 17826              	.LVL2712:
 17827 0582 2370     		strb	r3, [r4, #0]
 17828 0584 FFF7FEFF 		bl	uart_transmit
 17829              	.LVL2713:
 17830              	.LBE1195:
 17831              	.LBB1196:
 17832 0588 594B     		ldr	r3, .L451+40
 17833 058a 2278     		ldrb	r2, [r4, #0]	@ zero_extendqisi2
 17834 058c 1978     		ldrb	r1, [r3, #0]	@ zero_extendqisi2
 17835              	.LVL2714:
 17836 058e 2B78     		ldrb	r3, [r5, #0]	@ zero_extendqisi2
 17837 0590 5148     		ldr	r0, .L451+16
 17838 0592 CB18     		adds	r3, r1, r3
 17839 0594 DBB2     		uxtb	r3, r3
 17840              	.LVL2715:
 17841 0596 2B70     		strb	r3, [r5, #0]
 17842 0598 9B18     		adds	r3, r3, r2
 17843              	.LVL2716:
 17844 059a 2370     		strb	r3, [r4, #0]
 17845 059c FFF7FEFF 		bl	uart_transmit
 17846              	.LVL2717:
 17847              	.LBE1196:
 17848              	.LBB1197:
 17849 05a0 544B     		ldr	r3, .L451+44
 17850 05a2 2278     		ldrb	r2, [r4, #0]	@ zero_extendqisi2
 17851 05a4 1978     		ldrb	r1, [r3, #0]	@ zero_extendqisi2
 17852              	.LVL2718:
 17853 05a6 2B78     		ldrb	r3, [r5, #0]	@ zero_extendqisi2
 17854 05a8 4B48     		ldr	r0, .L451+16
 17855 05aa CB18     		adds	r3, r1, r3
 17856 05ac DBB2     		uxtb	r3, r3
 17857              	.LVL2719:
 17858 05ae 2B70     		strb	r3, [r5, #0]
 17859 05b0 9B18     		adds	r3, r3, r2
 17860              	.LVL2720:
 17861 05b2 2370     		strb	r3, [r4, #0]
 17862 05b4 FFF7FEFF 		bl	uart_transmit
 17863              	.LVL2721:
 17864              	.LBE1197:
 17865              	.LBB1198:
 17866 05b8 4F4B     		ldr	r3, .L451+48
 17867 05ba 2278     		ldrb	r2, [r4, #0]	@ zero_extendqisi2
 17868 05bc 1978     		ldrb	r1, [r3, #0]	@ zero_extendqisi2
 17869              	.LVL2722:
 17870 05be 2B78     		ldrb	r3, [r5, #0]	@ zero_extendqisi2
 17871 05c0 4548     		ldr	r0, .L451+16
 17872 05c2 CB18     		adds	r3, r1, r3
 17873 05c4 DBB2     		uxtb	r3, r3
 17874              	.LVL2723:
 17875 05c6 2B70     		strb	r3, [r5, #0]
 17876 05c8 9B18     		adds	r3, r3, r2
 17877              	.LVL2724:
 17878 05ca 2370     		strb	r3, [r4, #0]
 17879 05cc FFF7FEFF 		bl	uart_transmit
 17880              	.LVL2725:
 17881              	.LBE1198:
 17882              	.LBB1199:
 17883 05d0 2278     		ldrb	r2, [r4, #0]	@ zero_extendqisi2
 17884 05d2 2B78     		ldrb	r3, [r5, #0]	@ zero_extendqisi2
 17885 05d4 0021     		movs	r1, #0
 17886 05d6 D318     		adds	r3, r2, r3
 17887 05d8 2370     		strb	r3, [r4, #0]
 17888 05da 3F48     		ldr	r0, .L451+16
 17889 05dc FFF7FEFF 		bl	uart_transmit
 17890              	.LBE1199:
 17891              	.LBB1200:
 17892 05e0 464B     		ldr	r3, .L451+52
 17893 05e2 2278     		ldrb	r2, [r4, #0]	@ zero_extendqisi2
 17894 05e4 1978     		ldrb	r1, [r3, #0]	@ zero_extendqisi2
 17895              	.LVL2726:
 17896 05e6 2B78     		ldrb	r3, [r5, #0]	@ zero_extendqisi2
 17897 05e8 3B48     		ldr	r0, .L451+16
 17898 05ea CB18     		adds	r3, r1, r3
 17899 05ec DBB2     		uxtb	r3, r3
 17900              	.LVL2727:
 17901 05ee 2B70     		strb	r3, [r5, #0]
 17902 05f0 9B18     		adds	r3, r3, r2
 17903              	.LVL2728:
 17904 05f2 2370     		strb	r3, [r4, #0]
 17905 05f4 FFF7FEFF 		bl	uart_transmit
 17906              	.LVL2729:
 17907              	.LBE1200:
 17908 05f8 2978     		ldrb	r1, [r5, #0]	@ zero_extendqisi2
 17909 05fa 3748     		ldr	r0, .L451+16
 17910 05fc FFF7FEFF 		bl	uart_transmit
 17911 0600 3548     		ldr	r0, .L451+16
 17912 0602 2178     		ldrb	r1, [r4, #0]	@ zero_extendqisi2
 17913 0604 FFF7FEFF 		bl	uart_transmit
 17914 0608 03E0     		b	.L429
 17915              	.LVL2730:
 17916              	.L430:
 17917 060a 3D4B     		ldr	r3, .L451+56
 17918 060c 1A78     		ldrb	r2, [r3, #0]	@ zero_extendqisi2
 17919 060e 0132     		adds	r2, r2, #1
 17920 0610 1A70     		strb	r2, [r3, #0]
 17921              	.LVL2731:
 17922              	.L429:
 17923              	.LBE1191:
 374:firmwares/fixedwing/main_ap.c ****   if (pprz_mode == PPRZ_MODE_AUTO1) {
 17924              		.loc 1 374 0
 17925 0612 364B     		ldr	r3, .L451+36
 17926 0614 1C78     		ldrb	r4, [r3, #0]	@ zero_extendqisi2
 17927 0616 012C     		cmp	r4, #1
 17928 0618 2ED1     		bne	.L431
 376:firmwares/fixedwing/main_ap.c ****     h_ctl_roll_setpoint = FLOAT_OF_PPRZ(fbw_state->channels[RADIO_ROLL], 0., AUTO1_MAX_ROLL);
 17929              		.loc 1 376 0
 17930 061a 3A4B     		ldr	r3, .L451+60
 17931 061c 1D68     		ldr	r5, [r3, #0]
 17932 061e B5F90200 		ldrsh	r0, [r5, #2]
 17933 0622 FFF7FEFF 		bl	__aeabi_i2f
 17934 0626 3849     		ldr	r1, .L451+64
 17935 0628 FFF7FEFF 		bl	__aeabi_fdiv
 17936 062c FFF7FEFF 		bl	__aeabi_f2d
 17937 0630 25A3     		adr	r3, .L451
 17938 0632 D3E90023 		ldrd	r2, [r3]
 17939 0636 FFF7FEFF 		bl	__aeabi_dmul
 17940 063a 0022     		movs	r2, #0
 17941 063c 0023     		movs	r3, #0
 17942 063e FFF7FEFF 		bl	__aeabi_dadd
 17943 0642 FFF7FEFF 		bl	__aeabi_d2f
 17944 0646 314B     		ldr	r3, .L451+68
 17945 0648 1860     		str	r0, [r3, #0]	@ float
 379:firmwares/fixedwing/main_ap.c ****     h_ctl_pitch_setpoint = FLOAT_OF_PPRZ(fbw_state->channels[RADIO_PITCH], 0., AUTO1_MAX_PITCH);
 17946              		.loc 1 379 0
 17947 064a B5F90400 		ldrsh	r0, [r5, #4]
 17948 064e FFF7FEFF 		bl	__aeabi_i2f
 17949 0652 2D49     		ldr	r1, .L451+64
 17950 0654 FFF7FEFF 		bl	__aeabi_fdiv
 17951 0658 FFF7FEFF 		bl	__aeabi_f2d
 17952 065c 1CA3     		adr	r3, .L451+8
 17953 065e D3E90023 		ldrd	r2, [r3]
 17954 0662 FFF7FEFF 		bl	__aeabi_dmul
 17955 0666 0023     		movs	r3, #0
 17956 0668 0022     		movs	r2, #0
 17957 066a FFF7FEFF 		bl	__aeabi_dadd
 17958 066e FFF7FEFF 		bl	__aeabi_d2f
 17959 0672 274B     		ldr	r3, .L451+72
 17960 0674 1860     		str	r0, [r3, #0]	@ float
 17961 0676 00E0     		b	.L432
 17962              	.L431:
 384:firmwares/fixedwing/main_ap.c ****   if (pprz_mode == PPRZ_MODE_MANUAL || pprz_mode == PPRZ_MODE_AUTO1) {
 17963              		.loc 1 384 0
 17964 0678 04D8     		bhi	.L433
 17965              	.L432:
 385:firmwares/fixedwing/main_ap.c ****     v_ctl_throttle_setpoint = fbw_state->channels[RADIO_THROTTLE];
 17966              		.loc 1 385 0
 17967 067a 224B     		ldr	r3, .L451+60
 17968 067c 1B68     		ldr	r3, [r3, #0]
 17969 067e 1A88     		ldrh	r2, [r3, #0]
 17970 0680 244B     		ldr	r3, .L451+76
 17971 0682 1A80     		strh	r2, [r3, #0]	@ movhi
 17972              	.L433:
 389:firmwares/fixedwing/main_ap.c ****   mcu1_ppm_cpt = fbw_state->ppm_cpt;
 17973              		.loc 1 389 0
 17974 0684 1F4B     		ldr	r3, .L451+60
 17975 0686 244A     		ldr	r2, .L451+80
 17976 0688 1B68     		ldr	r3, [r3, #0]
 17977 068a 197E     		ldrb	r1, [r3, #24]	@ zero_extendqisi2
 17978 068c 1170     		strb	r1, [r2, #0]
 393:firmwares/fixedwing/main_ap.c ****   vsupply = fbw_state->vsupply;
 17979              		.loc 1 393 0
 17980 068e D97E     		ldrb	r1, [r3, #27]	@ zero_extendqisi2
 17981 0690 224A     		ldr	r2, .L451+84
 17982 0692 1170     		strb	r1, [r2, #0]
 394:firmwares/fixedwing/main_ap.c ****   current = fbw_state->current;
 17983              		.loc 1 394 0
 17984 0694 224A     		ldr	r2, .L451+88
 17985 0696 D969     		ldr	r1, [r3, #28]
 17986 0698 1160     		str	r1, [r2, #0]
 397:firmwares/fixedwing/main_ap.c ****   if (!estimator_flight_time) {
 17987              		.loc 1 397 0
 17988 069a 224A     		ldr	r2, .L451+92
 17989 069c 1288     		ldrh	r2, [r2, #0]
 17990 069e 4AB9     		cbnz	r2, .L420
 398:firmwares/fixedwing/main_ap.c ****     if (pprz_mode == PPRZ_MODE_AUTO2 && fbw_state->channels[RADIO_THROTTLE] > THROTTLE_THRESHOLD_TA
 17991              		.loc 1 398 0
 17992 06a0 022C     		cmp	r4, #2
 17993 06a2 07D1     		bne	.L420
 17994 06a4 B3F90030 		ldrsh	r3, [r3, #0]
 17995 06a8 B3F5075F 		cmp	r3, #8640
 17996 06ac 02DD     		ble	.L420
 399:firmwares/fixedwing/main_ap.c ****       launch = TRUE;
 17997              		.loc 1 399 0
 17998 06ae 1E4B     		ldr	r3, .L451+96
 17999 06b0 0122     		movs	r2, #1
 18000 06b2 1A70     		strb	r2, [r3, #0]
 18001              	.L420:
 18002              	.LBE1181:
 18003              	.LBE1180:
 643:firmwares/fixedwing/main_ap.c ****   if (new_ins_attitude > 0)
 18004              		.loc 1 643 0
 18005 06b4 1D4C     		ldr	r4, .L451+100
 18006 06b6 2378     		ldrb	r3, [r4, #0]	@ zero_extendqisi2
 18007 06b8 1BB1     		cbz	r3, .L392
 645:firmwares/fixedwing/main_ap.c ****     attitude_loop();
 18008              		.loc 1 645 0
 18009 06ba FFF7FEFF 		bl	attitude_loop
 647:firmwares/fixedwing/main_ap.c ****     new_ins_attitude = 0;
 18010              		.loc 1 647 0
 18011 06be 0023     		movs	r3, #0
 18012 06c0 2370     		strb	r3, [r4, #0]
 18013              	.L392:
 651:firmwares/fixedwing/main_ap.c **** } /* event_task_ap() */
 18014              		.loc 1 651 0
 18015 06c2 BDE8FE8F 		pop	{r1, r2, r3, r4, r5, r6, r7, r8, r9, sl, fp, pc}
 18016              	.L452:
 18017 06c6 00BF     		.align	3
 18018              	.L451:
 18019 06c8 0B09185D 		.word	1561856267
 18020 06cc DEECEB3F 		.word	1072426206
 18021 06d0 D6A0794A 		.word	1249485014
 18022 06d4 1857E63F 		.word	1072060184
 18023 06d8 00000000 		.word	uart2
 18024 06dc 00000000 		.word	downlink_nb_bytes
 18025 06e0 00000000 		.word	downlink_nb_msgs
 18026 06e4 00000000 		.word	ck_a
 18027 06e8 00000000 		.word	ck_b
 18028 06ec 00000000 		.word	.LANCHOR29
 18029 06f0 00000000 		.word	v_ctl_mode
 18030 06f4 00000000 		.word	.LANCHOR31
 18031 06f8 00000000 		.word	horizontal_mode
 18032 06fc 00000000 		.word	.LANCHOR32
 18033 0700 00000000 		.word	downlink_nb_ovrn
 18034 0704 00000000 		.word	fbw_state
 18035 0708 00001646 		.word	1175846912
 18036 070c 00000000 		.word	h_ctl_roll_setpoint
 18037 0710 00000000 		.word	h_ctl_pitch_setpoint
 18038 0714 00000000 		.word	v_ctl_throttle_setpoint
 18039 0718 00000000 		.word	.LANCHOR74
 18040 071c 00000000 		.word	.LANCHOR26
 18041 0720 00000000 		.word	.LANCHOR24
 18042 0724 00000000 		.word	estimator_flight_time
 18043 0728 00000000 		.word	.LANCHOR30
 18044 072c 00000000 		.word	.LANCHOR73
 18045              		.cfi_endproc
 18046              	.LFE59:
 18048              		.global	new_ins_attitude
 18049              		.global	monitor_tid
 18050              		.global	navigation_tid
 18051              		.global	attitude_tid
 18052              		.global	sensors_tid
 18053              		.global	telemetry_tid
 18054              		.global	modules_tid
 18055              		.global	gps_lost
 18056              		.global	energy
 18057              		.global	vsupply
 18058              		.global	launch
 18059              		.global	kill_throttle
 18060              		.global	lateral_mode
 18061              		.global	pprz_mode
 18062              		.global	power_switch
 18063              		.global	ahrs_timeout_counter
 18064              		.section	.bss.i183.4786,"aw",%nobits
 18065              		.set	.LANCHOR42,. + 0
 18068              	i183.4786:
 18069 0000 00       		.space	1
 18070              		.section	.bss.modules_tid,"aw",%nobits
 18071              		.set	.LANCHOR3,. + 0
 18074              	modules_tid:
 18075 0000 00       		.space	1
 18076              		.section	.bss._reduced_correction_rate.5315,"aw",%nobits
 18077              		.set	.LANCHOR72,. + 0
 18080              	_reduced_correction_rate.5315:
 18081 0000 00       		.space	1
 18082              		.section	.bss.i60.4463,"aw",%nobits
 18083              		.set	.LANCHOR11,. + 0
 18086              	i60.4463:
 18087 0000 00       		.space	1
 18088              		.section	.bss.vsupply,"aw",%nobits
 18089              		.set	.LANCHOR26,. + 0
 18092              	vsupply:
 18093 0000 00       		.space	1
 18094              		.section	.bss.i180.4785,"aw",%nobits
 18095              		.set	.LANCHOR41,. + 0
 18098              	i180.4785:
 18099 0000 00       		.space	1
 18100              		.section	.bss.i330.5085,"aw",%nobits
 18101              		.align	1
 18102              		.set	.LANCHOR59,. + 0
 18105              	i330.5085:
 18106 0000 0000     		.space	2
 18107              		.section	.bss.t.5287,"aw",%nobits
 18108              		.set	.LANCHOR68,. + 0
 18111              	t.5287:
 18112 0000 00       		.space	1
 18113              		.section	.bss.i.4795,"aw",%nobits
 18114              		.set	.LANCHOR51,. + 0
 18117              	i.4795:
 18118 0000 00       		.space	1
 18119              		.section	.bss.sensors_tid,"aw",%nobits
 18120              		.set	.LANCHOR0,. + 0
 18123              	sensors_tid:
 18124 0000 00       		.space	1
 18125              		.section	.bss.i606.5088,"aw",%nobits
 18126              		.align	1
 18127              		.set	.LANCHOR62,. + 0
 18130              	i606.5088:
 18131 0000 0000     		.space	2
 18132              		.section	.bss.ahrs_timeout_counter,"aw",%nobits
 18133              		.set	.LANCHOR33,. + 0
 18136              	ahrs_timeout_counter:
 18137 0000 00       		.space	1
 18138              		.section	.bss.i.4879,"aw",%nobits
 18139              		.set	.LANCHOR53,. + 0
 18142              	i.4879:
 18143 0000 00       		.space	1
 18144              		.section	.bss.i150.4470,"aw",%nobits
 18145              		.set	.LANCHOR18,. + 0
 18148              	i150.4470:
 18149 0000 00       		.space	1
 18150              		.section	.bss.i15.4461,"aw",%nobits
 18151              		.set	.LANCHOR9,. + 0
 18154              	i15.4461:
 18155 0000 00       		.space	1
 18156              		.section	.bss.new_ins_attitude,"aw",%nobits
 18157              		.set	.LANCHOR73,. + 0
 18160              	new_ins_attitude:
 18161 0000 00       		.space	1
 18162              		.section	.bss.i.5096,"aw",%nobits
 18163              		.set	.LANCHOR64,. + 0
 18166              	i.5096:
 18167 0000 00       		.space	1
 18168              		.section	.bss.i324.5084,"aw",%nobits
 18169              		.align	1
 18170              		.set	.LANCHOR58,. + 0
 18173              	i324.5084:
 18174 0000 0000     		.space	2
 18175              		.section	.bss.launch,"aw",%nobits
 18176              		.set	.LANCHOR30,. + 0
 18179              	launch:
 18180 0000 00       		.space	1
 18181              		.section	.bss.acc_avg.5316,"aw",%nobits
 18182              		.align	2
 18183              		.set	.LANCHOR70,. + 0
 18186              	acc_avg.5316:
 18187 0000 00000000 		.space	12
 18187      00000000 
 18187      00000000 
 18188              		.section	.bss.i90.4783,"aw",%nobits
 18189              		.set	.LANCHOR39,. + 0
 18192              	i90.4783:
 18193 0000 00       		.space	1
 18194              		.section	.bss.last.5175,"aw",%nobits
 18195              		.align	1
 18196              		.set	.LANCHOR65,. + 0
 18199              	last.5175:
 18200 0000 0000     		.space	2
 18201              		.section	.bss.i.4474,"aw",%nobits
 18202              		.set	.LANCHOR22,. + 0
 18205              	i.4474:
 18206 0000 00       		.space	1
 18207              		.section	.bss.gyr_avg.5317,"aw",%nobits
 18208              		.align	2
 18209              		.set	.LANCHOR69,. + 0
 18212              	gyr_avg.5317:
 18213 0000 00000000 		.space	12
 18213      00000000 
 18213      00000000 
 18214              		.section	.bss.lateral_mode,"aw",%nobits
 18215              		.set	.LANCHOR31,. + 0
 18218              	lateral_mode:
 18219 0000 00       		.space	1
 18220              		.section	.data.pprz_mode,"aw",%progbits
 18221              		.set	.LANCHOR29,. + 0
 18224              	pprz_mode:
 18225 0000 02       		.byte	2
 18226              		.section	.bss.i90.4467,"aw",%nobits
 18227              		.set	.LANCHOR15,. + 0
 18230              	i90.4467:
 18231 0000 00       		.space	1
 18232              		.section	.bss.i300.4471,"aw",%nobits
 18233              		.align	1
 18234              		.set	.LANCHOR19,. + 0
 18237              	i300.4471:
 18238 0000 0000     		.space	2
 18239              		.section	.bss.i306.4472,"aw",%nobits
 18240              		.align	1
 18241              		.set	.LANCHOR20,. + 0
 18244              	i306.4472:
 18245 0000 0000     		.space	2
 18246              		.section	.bss.mcu1_status,"aw",%nobits
 18247              		.set	.LANCHOR32,. + 0
 18250              	mcu1_status:
 18251 0000 00       		.space	1
 18252              		.section	.data.boot.4457,"aw",%progbits
 18253              		.set	.LANCHOR7,. + 0
 18256              	boot.4457:
 18257 0000 01       		.byte	1
 18258              		.section	.bss.energy,"aw",%nobits
 18259              		.align	2
 18260              		.set	.LANCHOR25,. + 0
 18263              	energy:
 18264 0000 00000000 		.space	4
 18265              		.section	.bss.i66.4780,"aw",%nobits
 18266              		.set	.LANCHOR36,. + 0
 18269              	i66.4780:
 18270 0000 00       		.space	1
 18271              		.section	.bss.i126.4469,"aw",%nobits
 18272              		.set	.LANCHOR17,. + 0
 18275              	i126.4469:
 18276 0000 00       		.space	1
 18277              		.section	.bss.telemetry_tid,"aw",%nobits
 18278              		.set	.LANCHOR4,. + 0
 18281              	telemetry_tid:
 18282 0000 00       		.space	1
 18283              		.section	.bss.power_switch,"aw",%nobits
 18284              		.set	.LANCHOR6,. + 0
 18287              	power_switch:
 18288 0000 00       		.space	1
 18289              		.section	.bss.i306.4791,"aw",%nobits
 18290              		.align	1
 18291              		.set	.LANCHOR47,. + 0
 18294              	i306.4791:
 18295 0000 0000     		.space	2
 18296              		.section	.bss.i243.4789,"aw",%nobits
 18297              		.set	.LANCHOR45,. + 0
 18300              	i243.4789:
 18301 0000 00       		.space	1
 18302              		.section	.bss.i126.4784,"aw",%nobits
 18303              		.set	.LANCHOR40,. + 0
 18306              	i126.4784:
 18307 0000 00       		.space	1
 18308              		.section	.bss.i.4666,"aw",%nobits
 18309              		.set	.LANCHOR28,. + 0
 18312              	i.4666:
 18313 0000 00       		.space	1
 18314              		.section	.bss.i540.4793,"aw",%nobits
 18315              		.align	1
 18316              		.set	.LANCHOR49,. + 0
 18319              	i540.4793:
 18320 0000 0000     		.space	2
 18321              		.section	.bss.last.5049,"aw",%nobits
 18322              		.align	1
 18323              		.set	.LANCHOR54,. + 0
 18326              	last.5049:
 18327 0000 0000     		.space	2
 18328              		.section	.bss.i240.4788,"aw",%nobits
 18329              		.set	.LANCHOR44,. + 0
 18332              	i240.4788:
 18333 0000 00       		.space	1
 18334              		.section	.bss.i120.4468,"aw",%nobits
 18335              		.set	.LANCHOR16,. + 0
 18338              	i120.4468:
 18339 0000 00       		.space	1
 18340              		.section	.bss.i.4536,"aw",%nobits
 18341              		.set	.LANCHOR23,. + 0
 18344              	i.4536:
 18345 0000 00       		.space	1
 18346              		.section	.bss.i63.4779,"aw",%nobits
 18347              		.set	.LANCHOR35,. + 0
 18350              	i63.4779:
 18351 0000 00       		.space	1
 18352              		.section	.bss.i84.4782,"aw",%nobits
 18353              		.set	.LANCHOR38,. + 0
 18356              	i84.4782:
 18357 0000 00       		.space	1
 18358              		.section	.bss.i318.5083,"aw",%nobits
 18359              		.align	1
 18360              		.set	.LANCHOR57,. + 0
 18363              	i318.5083:
 18364 0000 0000     		.space	2
 18365              		.section	.bss.kill_throttle,"aw",%nobits
 18366              		.set	.LANCHOR27,. + 0
 18369              	kill_throttle:
 18370 0000 00       		.space	1
 18371              		.section	.bss.i78.4781,"aw",%nobits
 18372              		.set	.LANCHOR37,. + 0
 18375              	i78.4781:
 18376 0000 00       		.space	1
 18377              		.section	.bss.i540.4473,"aw",%nobits
 18378              		.align	1
 18379              		.set	.LANCHOR21,. + 0
 18382              	i540.4473:
 18383 0000 0000     		.space	2
 18384              		.section	.rodata.version,"a",%progbits
 18385              		.align	1
 18386              		.set	.LANCHOR8,. + 0
 18389              	version:
 18390 0000 0100     		.short	1
 18391              		.section	.bss.i300.4790,"aw",%nobits
 18392              		.align	1
 18393              		.set	.LANCHOR46,. + 0
 18396              	i300.4790:
 18397 0000 0000     		.space	2
 18398              		.section	.bss.i300.5081,"aw",%nobits
 18399              		.align	1
 18400              		.set	.LANCHOR55,. + 0
 18403              	i300.5081:
 18404 0000 0000     		.space	2
 18405              		.section	.bss.i306.5082,"aw",%nobits
 18406              		.align	1
 18407              		.set	.LANCHOR56,. + 0
 18410              	i306.5082:
 18411 0000 0000     		.space	2
 18412              		.section	.bss.i72.4466,"aw",%nobits
 18413              		.set	.LANCHOR14,. + 0
 18416              	i72.4466:
 18417 0000 00       		.space	1
 18418              		.section	.bss.i30.4462,"aw",%nobits
 18419              		.set	.LANCHOR10,. + 0
 18422              	i30.4462:
 18423 0000 00       		.space	1
 18424              		.section	.bss.monitor_tid,"aw",%nobits
 18425              		.set	.LANCHOR5,. + 0
 18428              	monitor_tid:
 18429 0000 00       		.space	1
 18430              		.section	.bss.i420.5087,"aw",%nobits
 18431              		.align	1
 18432              		.set	.LANCHOR61,. + 0
 18435              	i420.5087:
 18436 0000 0000     		.space	2
 18437              		.section	.bss.last_pprz_mode.5238,"aw",%nobits
 18438              		.set	.LANCHOR66,. + 0
 18441              	last_pprz_mode.5238:
 18442 0000 00       		.space	1
 18443              		.section	.bss.i606.4794,"aw",%nobits
 18444              		.align	1
 18445              		.set	.LANCHOR50,. + 0
 18448              	i606.4794:
 18449 0000 0000     		.space	2
 18450              		.section	.bss.i342.5086,"aw",%nobits
 18451              		.align	1
 18452              		.set	.LANCHOR60,. + 0
 18455              	i342.5086:
 18456 0000 0000     		.space	2
 18457              		.section	.bss.current,"aw",%nobits
 18458              		.align	2
 18459              		.set	.LANCHOR24,. + 0
 18462              	current:
 18463 0000 00000000 		.space	4
 18464              		.section	.bss.i312.4792,"aw",%nobits
 18465              		.align	1
 18466              		.set	.LANCHOR48,. + 0
 18469              	i312.4792:
 18470 0000 0000     		.space	2
 18471              		.section	.bss.gps_lost,"aw",%nobits
 18472              		.set	.LANCHOR67,. + 0
 18475              	gps_lost:
 18476 0000 00       		.space	1
 18477              		.section	.bss.i192.4787,"aw",%nobits
 18478              		.set	.LANCHOR43,. + 0
 18481              	i192.4787:
 18482 0000 00       		.space	1
 18483              		.section	.bss.mcu1_ppm_cpt,"aw",%nobits
 18484              		.set	.LANCHOR74,. + 0
 18487              	mcu1_ppm_cpt:
 18488 0000 00       		.space	1
 18489              		.section	.bss.attitude_tid,"aw",%nobits
 18490              		.set	.LANCHOR2,. + 0
 18493              	attitude_tid:
 18494 0000 00       		.space	1
 18495              		.section	.bss.i66.4465,"aw",%nobits
 18496              		.set	.LANCHOR13,. + 0
 18499              	i66.4465:
 18500 0000 00       		.space	1
 18501              		.section	.bss.i612.5089,"aw",%nobits
 18502              		.align	1
 18503              		.set	.LANCHOR63,. + 0
 18506              	i612.5089:
 18507 0000 0000     		.space	2
 18508              		.section	.rodata.str1.1,"aMS",%progbits,1
 18509              	.LC0:
 18510 0000 44E6C9B1 		.ascii	"D\346\311\261\345\323@8I}-\002q\365\333*\000"
 18510      E5D34038 
 18510      497D2D02 
 18510      71F5DB2A 
 18510      00
 18511              		.section	.bss.i.4861,"aw",%nobits
 18512              		.set	.LANCHOR52,. + 0
 18515              	i.4861:
 18516 0000 00       		.space	1
 18517              		.section	.bss.i63.4464,"aw",%nobits
 18518              		.set	.LANCHOR12,. + 0
 18521              	i63.4464:
 18522 0000 00       		.space	1
 18523              		.section	.bss.navigation_tid,"aw",%nobits
 18524              		.set	.LANCHOR1,. + 0
 18527              	navigation_tid:
 18528 0000 00       		.space	1
 18529              		.section	.bss._reduced_propagation_rate.5314,"aw",%nobits
 18530              		.set	.LANCHOR71,. + 0
 18533              	_reduced_propagation_rate.5314:
 18534 0000 00       		.space	1
 18535              		.section	.bss.last.4761,"aw",%nobits
 18536              		.align	1
 18537              		.set	.LANCHOR34,. + 0
 18540              	last.4761:
 18541 0000 0000     		.space	2
 18542              		.text
 18543              	.Letext0:
 18544              		.file 5 "/opt/paparazzi/arm-multilib/lib/gcc/arm-none-eabi/4.6.2/../../../../arm-none-eabi/include
 18545              		.file 6 "/home/uav/paparazzi/sw/include/std.h"
 18546              		.file 7 "./paparazzi.h"
 18547              		.file 8 "./subsystems/radio_control.h"
 18548              		.file 9 "./subsystems/electrical.h"
 18549              		.file 10 "./inter_mcu.h"
 18550              		.file 11 "./math/pprz_algebra_int.h"
 18551              		.file 12 "./math/pprz_geodetic_int.h"
 18552              		.file 13 "./mcu_periph/uart.h"
 18553              		.file 14 "./subsystems/gps/gps_ubx.h"
 18554              		.file 15 "./subsystems/gps.h"
 18555              		.file 16 "./math/pprz_algebra_float.h"
 18556              		.file 17 "./subsystems/imu.h"
 18557              		.file 18 "./subsystems/ahrs.h"
 18558              		.file 19 "./subsystems/ahrs/ahrs_aligner.h"
 18559              		.file 20 "./subsystems/navigation/common_nav.h"
 18560              		.file 21 "./subsystems/datalink/transport.h"
 18561              		.file 22 "/home/uav/paparazzi/var/MYAC/generated/modules.h"
 18562              		.file 23 "./firmwares/fixedwing/main_fbw.h"
 18563              		.file 24 "./estimator.h"
 18564              		.file 25 "./firmwares/fixedwing/autopilot.h"
 18565              		.file 26 "./firmwares/fixedwing/stabilization/stabilization_attitude.h"
 18566              		.file 27 "./firmwares/fixedwing/guidance/guidance_v.h"
 18567              		.file 28 "./subsystems/navigation/common_flight_plan.h"
 18568              		.file 29 "./subsystems/nav.h"
 18569              		.file 30 "./subsystems/datalink/datalink.h"
 18570              		.file 31 "/home/uav/paparazzi/var/MYAC/generated/periodic_telemetry.h"
 18571              		.file 32 "./subsystems/datalink/xbee.h"
 18572              		.file 33 "./subsystems/datalink/downlink.h"
DEFINED SYMBOLS
                            *ABS*:0000000000000000 main_ap.c
     /tmp/ccfV9iO2.s:18     .text.init_ap:0000000000000000 $t
     /tmp/ccfV9iO2.s:23     .text.init_ap:0000000000000000 init_ap
     /tmp/ccfV9iO2.s:117    .text.init_ap:0000000000000088 $d
     /tmp/ccfV9iO2.s:142    .text.reporting_task:0000000000000000 $t
     /tmp/ccfV9iO2.s:147    .text.reporting_task:0000000000000000 reporting_task
     /tmp/ccfV9iO2.s:278    .text.reporting_task:00000000000000b4 $d
     /tmp/ccfV9iO2.s:288    .text.reporting_task:00000000000000d4 $t
     /tmp/ccfV9iO2.s:690    .text.reporting_task:0000000000000350 $d
     /tmp/ccfV9iO2.s:715    .text.reporting_task:00000000000003b0 $t
     /tmp/ccfV9iO2.s:986    .text.reporting_task:0000000000000548 $d
     /tmp/ccfV9iO2.s:991    .text.reporting_task:0000000000000550 $t
     /tmp/ccfV9iO2.s:1232   .text.reporting_task:00000000000006f0 $d
     /tmp/ccfV9iO2.s:1243   .text.reporting_task:0000000000000710 $t
     /tmp/ccfV9iO2.s:1644   .text.reporting_task:0000000000000960 $d
     /tmp/ccfV9iO2.s:1660   .text.reporting_task:0000000000000994 $t
     /tmp/ccfV9iO2.s:1969   .text.reporting_task:0000000000000b90 $d
     /tmp/ccfV9iO2.s:1984   .text.reporting_task:0000000000000bbc $t
     /tmp/ccfV9iO2.s:2412   .text.reporting_task:0000000000000e20 $d
     /tmp/ccfV9iO2.s:2432   .text.reporting_task:0000000000000e64 $t
     /tmp/ccfV9iO2.s:2638   .text.reporting_task:0000000000000f90 $d
     /tmp/ccfV9iO2.s:2653   .text.reporting_task:0000000000000fbc $t
     /tmp/ccfV9iO2.s:3114   .text.reporting_task:0000000000001234 $d
     /tmp/ccfV9iO2.s:3126   .text.reporting_task:0000000000001260 $t
     /tmp/ccfV9iO2.s:3511   .text.reporting_task:000000000000148c $d
     /tmp/ccfV9iO2.s:3533   .text.reporting_task:00000000000014cc $t
     /tmp/ccfV9iO2.s:3802   .text.reporting_task:0000000000001690 $d
     /tmp/ccfV9iO2.s:3810   .text.reporting_task:00000000000016a8 $t
     /tmp/ccfV9iO2.s:4183   .text.reporting_task:00000000000018be $d
     /tmp/ccfV9iO2.s:4248   .text.reporting_task:0000000000001900 $d
     /tmp/ccfV9iO2.s:4274   .text.reporting_task:0000000000001960 $t
     /tmp/ccfV9iO2.s:4675   .text.reporting_task:0000000000001bdc $d
     /tmp/ccfV9iO2.s:4687   .text.reporting_task:0000000000001c00 $t
     /tmp/ccfV9iO2.s:4819   .text.reporting_task:0000000000001cc8 $d
     /tmp/ccfV9iO2.s:4832   .text.reporting_task:0000000000001cec $t
     /tmp/ccfV9iO2.s:5171   .text.reporting_task:0000000000001ed0 $d
     /tmp/ccfV9iO2.s:5183   .text.reporting_task:0000000000001ef8 $t
     /tmp/ccfV9iO2.s:5502   .text.reporting_task:00000000000020fc $d
     /tmp/ccfV9iO2.s:5517   .text.reporting_task:000000000000212c $t
     /tmp/ccfV9iO2.s:5892   .text.reporting_task:0000000000002384 $d
     /tmp/ccfV9iO2.s:5911   .text.reporting_task:00000000000023c0 $t
     /tmp/ccfV9iO2.s:6296   .text.reporting_task:0000000000002618 $d
     /tmp/ccfV9iO2.s:6313   .text.reporting_task:0000000000002650 $t
     /tmp/ccfV9iO2.s:6713   .text.reporting_task:00000000000028c8 $d
     /tmp/ccfV9iO2.s:6743   .text.reporting_task:0000000000002938 $t
     /tmp/ccfV9iO2.s:7063   .text.reporting_task:0000000000002b18 $d
     /tmp/ccfV9iO2.s:7068   .text.reporting_task:0000000000002b20 $t
     /tmp/ccfV9iO2.s:7309   .text.reporting_task:0000000000002cc0 $d
     /tmp/ccfV9iO2.s:7320   .text.reporting_task:0000000000002ce0 $t
     /tmp/ccfV9iO2.s:7651   .text.reporting_task:0000000000002ec8 $d
     /tmp/ccfV9iO2.s:7670   .text.reporting_task:0000000000002f08 $t
     /tmp/ccfV9iO2.s:7875   .text.reporting_task:0000000000003038 $d
     /tmp/ccfV9iO2.s:7887   .text.reporting_task:000000000000305c $t
     /tmp/ccfV9iO2.s:8251   .text.reporting_task:00000000000032ae $d
     /tmp/ccfV9iO2.s:8298   .text.reporting_task:00000000000032dc $d
     /tmp/ccfV9iO2.s:8321   .text.reporting_task:0000000000003330 $t
     /tmp/ccfV9iO2.s:8487   .text.reporting_task:0000000000003430 $d
     /tmp/ccfV9iO2.s:8501   .text.reporting_task:000000000000345c $t
     /tmp/ccfV9iO2.s:8854   .text.reporting_task:0000000000003654 $d
     /tmp/ccfV9iO2.s:8870   .text.reporting_task:0000000000003688 $t
     /tmp/ccfV9iO2.s:9293   .text.reporting_task:00000000000038e8 $d
     /tmp/ccfV9iO2.s:9313   .text.reporting_task:000000000000392c $t
     /tmp/ccfV9iO2.s:9592   .text.reporting_task:0000000000003ac0 $d
     /tmp/ccfV9iO2.s:9606   .text.reporting_task:0000000000003aec $t
     /tmp/ccfV9iO2.s:9952   .text.reporting_task:0000000000003cdc $d
     /tmp/ccfV9iO2.s:9967   .text.reporting_task:0000000000003d0c $t
     /tmp/ccfV9iO2.s:10239  .text.reporting_task:0000000000003e98 $d
     /tmp/ccfV9iO2.s:10252  .text.reporting_task:0000000000003ec0 $t
     /tmp/ccfV9iO2.s:10711  .text.reporting_task:0000000000004134 $d
     /tmp/ccfV9iO2.s:10726  .text.reporting_task:0000000000004168 $t
     /tmp/ccfV9iO2.s:11083  .text.reporting_task:0000000000004390 $d
     /tmp/ccfV9iO2.s:11101  .text.reporting_task:00000000000043c8 $t
     /tmp/ccfV9iO2.s:11427  .text.reporting_task:00000000000045cc $d
     /tmp/ccfV9iO2.s:11439  .text.reporting_task:00000000000045ec $t
     /tmp/ccfV9iO2.s:11728  .text.reporting_task:00000000000047b8 $d
     /tmp/ccfV9iO2.s:11742  .text.reporting_task:00000000000047e8 $t
     /tmp/ccfV9iO2.s:11963  .text.reporting_task:0000000000004930 $d
     /tmp/ccfV9iO2.s:11976  .text.reporting_task:0000000000004958 $t
     /tmp/ccfV9iO2.s:12252  .text.reporting_task:0000000000004b28 $d
     /tmp/ccfV9iO2.s:12263  .text.reporting_task:0000000000004b48 $t
     /tmp/ccfV9iO2.s:12486  .text.reporting_task:0000000000004cb8 $d
     /tmp/ccfV9iO2.s:12506  .text.reporting_task:0000000000004cfc $t
     /tmp/ccfV9iO2.s:12932  .text.reporting_task:0000000000004f90 $d
     /tmp/ccfV9iO2.s:12945  .text.reporting_task:0000000000004fc0 $t
     /tmp/ccfV9iO2.s:13281  .text.reporting_task:00000000000051f0 $d
     /tmp/ccfV9iO2.s:13292  .text.reporting_task:0000000000005210 $t
     /tmp/ccfV9iO2.s:13502  .text.reporting_task:0000000000005348 $d
     /tmp/ccfV9iO2.s:13515  .text.reporting_task:0000000000005370 $t
     /tmp/ccfV9iO2.s:13938  .text.reporting_task:00000000000055d0 $d
     /tmp/ccfV9iO2.s:13958  .text.reporting_task:0000000000005614 $t
     /tmp/ccfV9iO2.s:14288  .text.reporting_task:0000000000005828 $d
     /tmp/ccfV9iO2.s:14307  .text.reporting_task:0000000000005868 $t
     /tmp/ccfV9iO2.s:14440  .text.reporting_task:0000000000005944 $d
     /tmp/ccfV9iO2.s:14452  .text.reporting_task:0000000000005968 $t
     /tmp/ccfV9iO2.s:14778  .text.reporting_task:0000000000005b48 $d
     /tmp/ccfV9iO2.s:14796  .text.reporting_task:0000000000005b84 $t
     /tmp/ccfV9iO2.s:15257  .text.reporting_task:0000000000005df8 $d
     /tmp/ccfV9iO2.s:15272  .text.reporting_task:0000000000005e2c $t
     /tmp/ccfV9iO2.s:15382  .text.reporting_task:0000000000005ec0 $d
     /tmp/ccfV9iO2.s:15391  .text.navigation_task:0000000000000000 $t
     /tmp/ccfV9iO2.s:15396  .text.navigation_task:0000000000000000 navigation_task
     /tmp/ccfV9iO2.s:15799  .text.navigation_task:0000000000000254 $d
     /tmp/ccfV9iO2.s:15817  .text.navigation_task:0000000000000294 $t
     /tmp/ccfV9iO2.s:16234  .text.navigation_task:00000000000004e8 $d
     /tmp/ccfV9iO2.s:16252  .text.navigation_task:0000000000000524 $t
     /tmp/ccfV9iO2.s:16404  .text.navigation_task:0000000000000638 $d
     /tmp/ccfV9iO2.s:16430  .text.attitude_loop:0000000000000000 $t
     /tmp/ccfV9iO2.s:16435  .text.attitude_loop:0000000000000000 attitude_loop
     /tmp/ccfV9iO2.s:16474  .text.attitude_loop:000000000000002c $d
     /tmp/ccfV9iO2.s:16483  .text.sensors_task:0000000000000000 $t
     /tmp/ccfV9iO2.s:16488  .text.sensors_task:0000000000000000 sensors_task
     /tmp/ccfV9iO2.s:16516  .text.sensors_task:0000000000000018 $d
     /tmp/ccfV9iO2.s:16522  .text.monitor_task:0000000000000000 $t
     /tmp/ccfV9iO2.s:16527  .text.monitor_task:0000000000000000 monitor_task
     /tmp/ccfV9iO2.s:16737  .text.monitor_task:000000000000012c $d
     /tmp/ccfV9iO2.s:16759  .text.handle_periodic_tasks_ap:0000000000000000 $t
     /tmp/ccfV9iO2.s:16764  .text.handle_periodic_tasks_ap:0000000000000000 handle_periodic_tasks_ap
     /tmp/ccfV9iO2.s:16880  .text.handle_periodic_tasks_ap:0000000000000084 $d
     /tmp/ccfV9iO2.s:16892  .text.event_task_ap:0000000000000000 $t
     /tmp/ccfV9iO2.s:16897  .text.event_task_ap:0000000000000000 event_task_ap
     /tmp/ccfV9iO2.s:17321  .text.event_task_ap:000000000000028c $d
     /tmp/ccfV9iO2.s:17334  .text.event_task_ap:00000000000002b8 $t
     /tmp/ccfV9iO2.s:17429  .text.event_task_ap:0000000000000358 $d
     /tmp/ccfV9iO2.s:17736  .text.event_task_ap:00000000000004dc $d
     /tmp/ccfV9iO2.s:17754  .text.event_task_ap:0000000000000514 $t
     /tmp/ccfV9iO2.s:18019  .text.event_task_ap:00000000000006c8 $d
     /tmp/ccfV9iO2.s:18160  .bss.new_ins_attitude:0000000000000000 new_ins_attitude
     /tmp/ccfV9iO2.s:18428  .bss.monitor_tid:0000000000000000 monitor_tid
     /tmp/ccfV9iO2.s:18527  .bss.navigation_tid:0000000000000000 navigation_tid
     /tmp/ccfV9iO2.s:18493  .bss.attitude_tid:0000000000000000 attitude_tid
     /tmp/ccfV9iO2.s:18123  .bss.sensors_tid:0000000000000000 sensors_tid
     /tmp/ccfV9iO2.s:18281  .bss.telemetry_tid:0000000000000000 telemetry_tid
     /tmp/ccfV9iO2.s:18074  .bss.modules_tid:0000000000000000 modules_tid
     /tmp/ccfV9iO2.s:18475  .bss.gps_lost:0000000000000000 gps_lost
     /tmp/ccfV9iO2.s:18263  .bss.energy:0000000000000000 energy
     /tmp/ccfV9iO2.s:18092  .bss.vsupply:0000000000000000 vsupply
     /tmp/ccfV9iO2.s:18179  .bss.launch:0000000000000000 launch
     /tmp/ccfV9iO2.s:18369  .bss.kill_throttle:0000000000000000 kill_throttle
     /tmp/ccfV9iO2.s:18218  .bss.lateral_mode:0000000000000000 lateral_mode
     /tmp/ccfV9iO2.s:18224  .data.pprz_mode:0000000000000000 pprz_mode
     /tmp/ccfV9iO2.s:18287  .bss.power_switch:0000000000000000 power_switch
     /tmp/ccfV9iO2.s:18136  .bss.ahrs_timeout_counter:0000000000000000 ahrs_timeout_counter
     /tmp/ccfV9iO2.s:18068  .bss.i183.4786:0000000000000000 i183.4786
     /tmp/ccfV9iO2.s:18069  .bss.i183.4786:0000000000000000 $d
     /tmp/ccfV9iO2.s:18075  .bss.modules_tid:0000000000000000 $d
     /tmp/ccfV9iO2.s:18080  .bss._reduced_correction_rate.5315:0000000000000000 _reduced_correction_rate.5315
     /tmp/ccfV9iO2.s:18081  .bss._reduced_correction_rate.5315:0000000000000000 $d
     /tmp/ccfV9iO2.s:18086  .bss.i60.4463:0000000000000000 i60.4463
     /tmp/ccfV9iO2.s:18087  .bss.i60.4463:0000000000000000 $d
     /tmp/ccfV9iO2.s:18093  .bss.vsupply:0000000000000000 $d
     /tmp/ccfV9iO2.s:18098  .bss.i180.4785:0000000000000000 i180.4785
     /tmp/ccfV9iO2.s:18099  .bss.i180.4785:0000000000000000 $d
     /tmp/ccfV9iO2.s:18101  .bss.i330.5085:0000000000000000 $d
     /tmp/ccfV9iO2.s:18105  .bss.i330.5085:0000000000000000 i330.5085
     /tmp/ccfV9iO2.s:18111  .bss.t.5287:0000000000000000 t.5287
     /tmp/ccfV9iO2.s:18112  .bss.t.5287:0000000000000000 $d
     /tmp/ccfV9iO2.s:18117  .bss.i.4795:0000000000000000 i.4795
     /tmp/ccfV9iO2.s:18118  .bss.i.4795:0000000000000000 $d
     /tmp/ccfV9iO2.s:18124  .bss.sensors_tid:0000000000000000 $d
     /tmp/ccfV9iO2.s:18126  .bss.i606.5088:0000000000000000 $d
     /tmp/ccfV9iO2.s:18130  .bss.i606.5088:0000000000000000 i606.5088
     /tmp/ccfV9iO2.s:18137  .bss.ahrs_timeout_counter:0000000000000000 $d
     /tmp/ccfV9iO2.s:18142  .bss.i.4879:0000000000000000 i.4879
     /tmp/ccfV9iO2.s:18143  .bss.i.4879:0000000000000000 $d
     /tmp/ccfV9iO2.s:18148  .bss.i150.4470:0000000000000000 i150.4470
     /tmp/ccfV9iO2.s:18149  .bss.i150.4470:0000000000000000 $d
     /tmp/ccfV9iO2.s:18154  .bss.i15.4461:0000000000000000 i15.4461
     /tmp/ccfV9iO2.s:18155  .bss.i15.4461:0000000000000000 $d
     /tmp/ccfV9iO2.s:18161  .bss.new_ins_attitude:0000000000000000 $d
     /tmp/ccfV9iO2.s:18166  .bss.i.5096:0000000000000000 i.5096
     /tmp/ccfV9iO2.s:18167  .bss.i.5096:0000000000000000 $d
     /tmp/ccfV9iO2.s:18169  .bss.i324.5084:0000000000000000 $d
     /tmp/ccfV9iO2.s:18173  .bss.i324.5084:0000000000000000 i324.5084
     /tmp/ccfV9iO2.s:18180  .bss.launch:0000000000000000 $d
     /tmp/ccfV9iO2.s:18182  .bss.acc_avg.5316:0000000000000000 $d
     /tmp/ccfV9iO2.s:18186  .bss.acc_avg.5316:0000000000000000 acc_avg.5316
     /tmp/ccfV9iO2.s:18192  .bss.i90.4783:0000000000000000 i90.4783
     /tmp/ccfV9iO2.s:18193  .bss.i90.4783:0000000000000000 $d
     /tmp/ccfV9iO2.s:18195  .bss.last.5175:0000000000000000 $d
     /tmp/ccfV9iO2.s:18199  .bss.last.5175:0000000000000000 last.5175
     /tmp/ccfV9iO2.s:18205  .bss.i.4474:0000000000000000 i.4474
     /tmp/ccfV9iO2.s:18206  .bss.i.4474:0000000000000000 $d
     /tmp/ccfV9iO2.s:18208  .bss.gyr_avg.5317:0000000000000000 $d
     /tmp/ccfV9iO2.s:18212  .bss.gyr_avg.5317:0000000000000000 gyr_avg.5317
     /tmp/ccfV9iO2.s:18219  .bss.lateral_mode:0000000000000000 $d
     /tmp/ccfV9iO2.s:18230  .bss.i90.4467:0000000000000000 i90.4467
     /tmp/ccfV9iO2.s:18231  .bss.i90.4467:0000000000000000 $d
     /tmp/ccfV9iO2.s:18233  .bss.i300.4471:0000000000000000 $d
     /tmp/ccfV9iO2.s:18237  .bss.i300.4471:0000000000000000 i300.4471
     /tmp/ccfV9iO2.s:18240  .bss.i306.4472:0000000000000000 $d
     /tmp/ccfV9iO2.s:18244  .bss.i306.4472:0000000000000000 i306.4472
     /tmp/ccfV9iO2.s:18250  .bss.mcu1_status:0000000000000000 mcu1_status
     /tmp/ccfV9iO2.s:18251  .bss.mcu1_status:0000000000000000 $d
     /tmp/ccfV9iO2.s:18256  .data.boot.4457:0000000000000000 boot.4457
     /tmp/ccfV9iO2.s:18259  .bss.energy:0000000000000000 $d
     /tmp/ccfV9iO2.s:18269  .bss.i66.4780:0000000000000000 i66.4780
     /tmp/ccfV9iO2.s:18270  .bss.i66.4780:0000000000000000 $d
     /tmp/ccfV9iO2.s:18275  .bss.i126.4469:0000000000000000 i126.4469
     /tmp/ccfV9iO2.s:18276  .bss.i126.4469:0000000000000000 $d
     /tmp/ccfV9iO2.s:18282  .bss.telemetry_tid:0000000000000000 $d
     /tmp/ccfV9iO2.s:18288  .bss.power_switch:0000000000000000 $d
     /tmp/ccfV9iO2.s:18290  .bss.i306.4791:0000000000000000 $d
     /tmp/ccfV9iO2.s:18294  .bss.i306.4791:0000000000000000 i306.4791
     /tmp/ccfV9iO2.s:18300  .bss.i243.4789:0000000000000000 i243.4789
     /tmp/ccfV9iO2.s:18301  .bss.i243.4789:0000000000000000 $d
     /tmp/ccfV9iO2.s:18306  .bss.i126.4784:0000000000000000 i126.4784
     /tmp/ccfV9iO2.s:18307  .bss.i126.4784:0000000000000000 $d
     /tmp/ccfV9iO2.s:18312  .bss.i.4666:0000000000000000 i.4666
     /tmp/ccfV9iO2.s:18313  .bss.i.4666:0000000000000000 $d
     /tmp/ccfV9iO2.s:18315  .bss.i540.4793:0000000000000000 $d
     /tmp/ccfV9iO2.s:18319  .bss.i540.4793:0000000000000000 i540.4793
     /tmp/ccfV9iO2.s:18322  .bss.last.5049:0000000000000000 $d
     /tmp/ccfV9iO2.s:18326  .bss.last.5049:0000000000000000 last.5049
     /tmp/ccfV9iO2.s:18332  .bss.i240.4788:0000000000000000 i240.4788
     /tmp/ccfV9iO2.s:18333  .bss.i240.4788:0000000000000000 $d
     /tmp/ccfV9iO2.s:18338  .bss.i120.4468:0000000000000000 i120.4468
     /tmp/ccfV9iO2.s:18339  .bss.i120.4468:0000000000000000 $d
     /tmp/ccfV9iO2.s:18344  .bss.i.4536:0000000000000000 i.4536
     /tmp/ccfV9iO2.s:18345  .bss.i.4536:0000000000000000 $d
     /tmp/ccfV9iO2.s:18350  .bss.i63.4779:0000000000000000 i63.4779
     /tmp/ccfV9iO2.s:18351  .bss.i63.4779:0000000000000000 $d
     /tmp/ccfV9iO2.s:18356  .bss.i84.4782:0000000000000000 i84.4782
     /tmp/ccfV9iO2.s:18357  .bss.i84.4782:0000000000000000 $d
     /tmp/ccfV9iO2.s:18359  .bss.i318.5083:0000000000000000 $d
     /tmp/ccfV9iO2.s:18363  .bss.i318.5083:0000000000000000 i318.5083
     /tmp/ccfV9iO2.s:18370  .bss.kill_throttle:0000000000000000 $d
     /tmp/ccfV9iO2.s:18375  .bss.i78.4781:0000000000000000 i78.4781
     /tmp/ccfV9iO2.s:18376  .bss.i78.4781:0000000000000000 $d
     /tmp/ccfV9iO2.s:18378  .bss.i540.4473:0000000000000000 $d
     /tmp/ccfV9iO2.s:18382  .bss.i540.4473:0000000000000000 i540.4473
     /tmp/ccfV9iO2.s:18385  .rodata.version:0000000000000000 $d
     /tmp/ccfV9iO2.s:18389  .rodata.version:0000000000000000 version
     /tmp/ccfV9iO2.s:18392  .bss.i300.4790:0000000000000000 $d
     /tmp/ccfV9iO2.s:18396  .bss.i300.4790:0000000000000000 i300.4790
     /tmp/ccfV9iO2.s:18399  .bss.i300.5081:0000000000000000 $d
     /tmp/ccfV9iO2.s:18403  .bss.i300.5081:0000000000000000 i300.5081
     /tmp/ccfV9iO2.s:18406  .bss.i306.5082:0000000000000000 $d
     /tmp/ccfV9iO2.s:18410  .bss.i306.5082:0000000000000000 i306.5082
     /tmp/ccfV9iO2.s:18416  .bss.i72.4466:0000000000000000 i72.4466
     /tmp/ccfV9iO2.s:18417  .bss.i72.4466:0000000000000000 $d
     /tmp/ccfV9iO2.s:18422  .bss.i30.4462:0000000000000000 i30.4462
     /tmp/ccfV9iO2.s:18423  .bss.i30.4462:0000000000000000 $d
     /tmp/ccfV9iO2.s:18429  .bss.monitor_tid:0000000000000000 $d
     /tmp/ccfV9iO2.s:18431  .bss.i420.5087:0000000000000000 $d
     /tmp/ccfV9iO2.s:18435  .bss.i420.5087:0000000000000000 i420.5087
     /tmp/ccfV9iO2.s:18441  .bss.last_pprz_mode.5238:0000000000000000 last_pprz_mode.5238
     /tmp/ccfV9iO2.s:18442  .bss.last_pprz_mode.5238:0000000000000000 $d
     /tmp/ccfV9iO2.s:18444  .bss.i606.4794:0000000000000000 $d
     /tmp/ccfV9iO2.s:18448  .bss.i606.4794:0000000000000000 i606.4794
     /tmp/ccfV9iO2.s:18451  .bss.i342.5086:0000000000000000 $d
     /tmp/ccfV9iO2.s:18455  .bss.i342.5086:0000000000000000 i342.5086
     /tmp/ccfV9iO2.s:18458  .bss.current:0000000000000000 $d
     /tmp/ccfV9iO2.s:18462  .bss.current:0000000000000000 current
     /tmp/ccfV9iO2.s:18465  .bss.i312.4792:0000000000000000 $d
     /tmp/ccfV9iO2.s:18469  .bss.i312.4792:0000000000000000 i312.4792
     /tmp/ccfV9iO2.s:18476  .bss.gps_lost:0000000000000000 $d
     /tmp/ccfV9iO2.s:18481  .bss.i192.4787:0000000000000000 i192.4787
     /tmp/ccfV9iO2.s:18482  .bss.i192.4787:0000000000000000 $d
     /tmp/ccfV9iO2.s:18487  .bss.mcu1_ppm_cpt:0000000000000000 mcu1_ppm_cpt
     /tmp/ccfV9iO2.s:18488  .bss.mcu1_ppm_cpt:0000000000000000 $d
     /tmp/ccfV9iO2.s:18494  .bss.attitude_tid:0000000000000000 $d
     /tmp/ccfV9iO2.s:18499  .bss.i66.4465:0000000000000000 i66.4465
     /tmp/ccfV9iO2.s:18500  .bss.i66.4465:0000000000000000 $d
     /tmp/ccfV9iO2.s:18502  .bss.i612.5089:0000000000000000 $d
     /tmp/ccfV9iO2.s:18506  .bss.i612.5089:0000000000000000 i612.5089
     /tmp/ccfV9iO2.s:18515  .bss.i.4861:0000000000000000 i.4861
     /tmp/ccfV9iO2.s:18516  .bss.i.4861:0000000000000000 $d
     /tmp/ccfV9iO2.s:18521  .bss.i63.4464:0000000000000000 i63.4464
     /tmp/ccfV9iO2.s:18522  .bss.i63.4464:0000000000000000 $d
     /tmp/ccfV9iO2.s:18528  .bss.navigation_tid:0000000000000000 $d
     /tmp/ccfV9iO2.s:18533  .bss._reduced_propagation_rate.5314:0000000000000000 _reduced_propagation_rate.5314
     /tmp/ccfV9iO2.s:18534  .bss._reduced_propagation_rate.5314:0000000000000000 $d
     /tmp/ccfV9iO2.s:18536  .bss.last.4761:0000000000000000 $d
     /tmp/ccfV9iO2.s:18540  .bss.last.4761:0000000000000000 last.4761
                     .debug_frame:0000000000000010 $d
     /tmp/ccfV9iO2.s:15390  .text.reporting_task:0000000000005ecc $t
     /tmp/ccfV9iO2.s:4194   .text.reporting_task:00000000000018c9 $d
     /tmp/ccfV9iO2.s:4194   .text.reporting_task:00000000000018ca $t
     /tmp/ccfV9iO2.s:8262   .text.reporting_task:00000000000032b9 $d
     /tmp/ccfV9iO2.s:8262   .text.reporting_task:00000000000032ba $t
     /tmp/ccfV9iO2.s:17434  .text.event_task_ap:000000000000035d $d
     /tmp/ccfV9iO2.s:17434  .text.event_task_ap:000000000000035e $t

UNDEFINED SYMBOLS
gps_init
imu_init
ahrs_aligner_init
ahrs_init
h_ctl_init
v_ctl_init
estimator_init
alt_kalman_init
nav_init
settings_init
sys_time_register_timer
traffic_info_init
__aeabi_i2d
__aeabi_dmul
__aeabi_ddiv
__aeabi_d2iz
__aeabi_i2f
__aeabi_fadd
__aeabi_f2d
__aeabi_d2uiz
__aeabi_f2iz
__aeabi_fmul
__aeabi_ui2f
__aeabi_fdiv
uart_check_free_space
uart_transmit
uart2
downlink_nb_bytes
downlink_nb_msgs
ck_a
ck_b
downlink_nb_ovrn
telemetry_mode_Ap
gps
estimator_phi
estimator_psi
estimator_theta
estimator_z
estimator_z_dot
nb_waypoint
nav_utm_east0
waypoints
nav_utm_north0
nav_utm_zone0
nav_circle_radians
nav_block
nav_stage
estimator_x
estimator_y
dist2_to_wp
dist2_to_home
nav_oval_count
nav_in_circle
nav_circle_x
nav_circle_y
nav_circle_radius
h_ctl_roll_setpoint
h_ctl_pitch_loop_setpoint
h_ctl_course_setpoint
desired_x
desired_y
v_ctl_altitude_setpoint
v_ctl_climb_setpoint
v_ctl_throttle_slewed
estimator_flight_time
block_time
stage_time
imu
nav_in_segment
nav_segment_x_1
nav_segment_y_1
nav_segment_x_2
nav_segment_y_2
telemetry_mode_Fbw
flight_altitude
nav_course
nav_shift
nav_radius
v_ctl_auto_throttle_sum_err
v_ctl_auto_throttle_submode
nav_survey_active
nav_survey_east
nav_survey_north
nav_survey_west
nav_survey_south
v_ctl_mode
horizontal_mode
ahrs
__aeabi_dcmpgt
__aeabi_dcmplt
common_nav_periodic_task_4Hz
nav_home
nav_without_gps
sys_time
nav_periodic_task
v_ctl_altitude_loop
h_ctl_course_loop
v_ctl_climb_loop
nav_throttle_setpoint
v_ctl_throttle_setpoint
nav_pitch
h_ctl_pitch_setpoint
h_ctl_attitude_loop
v_ctl_throttle_slew
ap_state
h_ctl_aileron_setpoint
h_ctl_elevator_setpoint
inter_mcu_received_ap
imu_periodic
__aeabi_fcmpgt
datalink_time
estimator_hspeed_mod
__aeabi_dadd
__aeabi_d2f
ahrs_aligner_run
ahrs_align
ahrs_propagate
ahrs_update_accel
ahrs_update_fw_estimator
gps_ubx_parse
imu_aspirin2
ahrs_aligner
uart3
gps_ubx_read_message
estimator_update_state_gps
ahrs_update_gps
dl_parse_msg
gps_ubx
pprz_tp
dl_buffer
dl_msg_available
inter_mcu_received_fbw
fbw_state
too_far_from_home
