   1              		.syntax unified
   2              		.cpu cortex-m3
   3              		.fpu softvfp
   4              		.eabi_attribute 20, 1
   5              		.eabi_attribute 21, 1
   6              		.eabi_attribute 23, 3
   7              		.eabi_attribute 24, 1
   8              		.eabi_attribute 25, 1
   9              		.eabi_attribute 26, 1
  10              		.eabi_attribute 30, 4
  11              		.eabi_attribute 18, 4
  12              		.thumb
  13              		.file	"main_ap.c"
  14              		.text
  15              	.Ltext0:
  16              		.cfi_sections	.debug_frame
  17              		.section	.text.init_ap,"ax",%progbits
  18              		.align	1
  19              		.global	init_ap
  20              		.thumb
  21              		.thumb_func
  23              	init_ap:
  24              	.LFB48:
  25              		.file 1 "firmwares/fixedwing/main_ap.c"
   1:firmwares/fixedwing/main_ap.c **** /*
   2:firmwares/fixedwing/main_ap.c ****  * $Id$
   3:firmwares/fixedwing/main_ap.c ****  *
   4:firmwares/fixedwing/main_ap.c ****  * Copyright (C) 2003-2010  The Paparazzi Team
   5:firmwares/fixedwing/main_ap.c ****  *
   6:firmwares/fixedwing/main_ap.c ****  * This file is part of paparazzi.
   7:firmwares/fixedwing/main_ap.c ****  *
   8:firmwares/fixedwing/main_ap.c ****  * paparazzi is free software; you can redistribute it and/or modify
   9:firmwares/fixedwing/main_ap.c ****  * it under the terms of the GNU General Public License as published by
  10:firmwares/fixedwing/main_ap.c ****  * the Free Software Foundation; either version 2, or (at your option)
  11:firmwares/fixedwing/main_ap.c ****  * any later version.
  12:firmwares/fixedwing/main_ap.c ****  *
  13:firmwares/fixedwing/main_ap.c ****  * paparazzi is distributed in the hope that it will be useful,
  14:firmwares/fixedwing/main_ap.c ****  * but WITHOUT ANY WARRANTY; without even the implied warranty of
  15:firmwares/fixedwing/main_ap.c ****  * MERCHANTABILITY or FITNESS FOR A PARTICULAR PURPOSE.  See the
  16:firmwares/fixedwing/main_ap.c ****  * GNU General Public License for more details.
  17:firmwares/fixedwing/main_ap.c ****  *
  18:firmwares/fixedwing/main_ap.c ****  * You should have received a copy of the GNU General Public License
  19:firmwares/fixedwing/main_ap.c ****  * along with paparazzi; see the file COPYING.  If not, write to
  20:firmwares/fixedwing/main_ap.c ****  * the Free Software Foundation, 59 Temple Place - Suite 330,
  21:firmwares/fixedwing/main_ap.c ****  * Boston, MA 02111-1307, USA.
  22:firmwares/fixedwing/main_ap.c ****  *
  23:firmwares/fixedwing/main_ap.c ****  */
  24:firmwares/fixedwing/main_ap.c **** 
  25:firmwares/fixedwing/main_ap.c **** /**
  26:firmwares/fixedwing/main_ap.c ****  * @file main_ap.c
  27:firmwares/fixedwing/main_ap.c ****  * AP ( AutoPilot ) tasks
  28:firmwares/fixedwing/main_ap.c ****  *
  29:firmwares/fixedwing/main_ap.c ****  * This process is reponsible for the collecting the different sensors data, fusing them to obtain
  30:firmwares/fixedwing/main_ap.c ****  * aircraft attitude and running the different control loops
  31:firmwares/fixedwing/main_ap.c ****  */
  32:firmwares/fixedwing/main_ap.c **** 
  33:firmwares/fixedwing/main_ap.c **** #define MODULES_C
  34:firmwares/fixedwing/main_ap.c **** 
  35:firmwares/fixedwing/main_ap.c **** #include <math.h>
  36:firmwares/fixedwing/main_ap.c **** 
  37:firmwares/fixedwing/main_ap.c **** #include "firmwares/fixedwing/main_ap.h"
  38:firmwares/fixedwing/main_ap.c **** #include "mcu.h"
  39:firmwares/fixedwing/main_ap.c **** #include "mcu_periph/sys_time.h"
  40:firmwares/fixedwing/main_ap.c **** 
  41:firmwares/fixedwing/main_ap.c **** #include "link_mcu.h"
  42:firmwares/fixedwing/main_ap.c **** 
  43:firmwares/fixedwing/main_ap.c **** // Sensors
  44:firmwares/fixedwing/main_ap.c **** #if USE_GPS
  45:firmwares/fixedwing/main_ap.c **** #include "subsystems/gps.h"
  46:firmwares/fixedwing/main_ap.c **** #endif
  47:firmwares/fixedwing/main_ap.c **** #if USE_IMU
  48:firmwares/fixedwing/main_ap.c **** #include "subsystems/imu.h"
  49:firmwares/fixedwing/main_ap.c **** #endif
  50:firmwares/fixedwing/main_ap.c **** #if USE_AHRS
  51:firmwares/fixedwing/main_ap.c **** #include "subsystems/ahrs.h"
  52:firmwares/fixedwing/main_ap.c **** #endif
  53:firmwares/fixedwing/main_ap.c **** #if USE_AHRS_ALIGNER
  54:firmwares/fixedwing/main_ap.c **** #include "subsystems/ahrs/ahrs_aligner.h"
  55:firmwares/fixedwing/main_ap.c **** #endif
  56:firmwares/fixedwing/main_ap.c **** 
  57:firmwares/fixedwing/main_ap.c **** // autopilot & control
  58:firmwares/fixedwing/main_ap.c **** #include "firmwares/fixedwing/autopilot.h"
  59:firmwares/fixedwing/main_ap.c **** #include "estimator.h"
  60:firmwares/fixedwing/main_ap.c **** #include "firmwares/fixedwing/stabilization/stabilization_attitude.h"
  61:firmwares/fixedwing/main_ap.c **** #include "firmwares/fixedwing/guidance/guidance_v.h"
  62:firmwares/fixedwing/main_ap.c **** #include "subsystems/nav.h"
  63:firmwares/fixedwing/main_ap.c **** #include "generated/flight_plan.h"
  64:firmwares/fixedwing/main_ap.c **** #ifdef TRAFFIC_INFO
  65:firmwares/fixedwing/main_ap.c **** #include "subsystems/navigation/traffic_info.h"
  66:firmwares/fixedwing/main_ap.c **** #endif
  67:firmwares/fixedwing/main_ap.c **** 
  68:firmwares/fixedwing/main_ap.c **** // datalink & telemetry
  69:firmwares/fixedwing/main_ap.c **** #include "subsystems/datalink/datalink.h"
  70:firmwares/fixedwing/main_ap.c **** #include "subsystems/settings.h"
  71:firmwares/fixedwing/main_ap.c **** #include "subsystems/datalink/xbee.h"
  72:firmwares/fixedwing/main_ap.c **** #include "firmwares/fixedwing/ap_downlink.h"
  73:firmwares/fixedwing/main_ap.c **** 
  74:firmwares/fixedwing/main_ap.c **** // modules & settings
  75:firmwares/fixedwing/main_ap.c **** #include "generated/modules.h"
  76:firmwares/fixedwing/main_ap.c **** #include "generated/settings.h"
  77:firmwares/fixedwing/main_ap.c **** #if defined RADIO_CONTROL || defined RADIO_CONTROL_AUTO1
  78:firmwares/fixedwing/main_ap.c **** #include "rc_settings.h"
  79:firmwares/fixedwing/main_ap.c **** #endif
  80:firmwares/fixedwing/main_ap.c **** 
  81:firmwares/fixedwing/main_ap.c **** #include "gpio.h"
  82:firmwares/fixedwing/main_ap.c **** #include "led.h"
  83:firmwares/fixedwing/main_ap.c **** 
  84:firmwares/fixedwing/main_ap.c **** #if defined RADIO_CONTROL
  85:firmwares/fixedwing/main_ap.c **** #pragma message "CAUTION! radio control roll channel input has been changed to follow aerospace sig
  86:firmwares/fixedwing/main_ap.c **** #endif
  87:firmwares/fixedwing/main_ap.c **** 
  88:firmwares/fixedwing/main_ap.c **** 
  89:firmwares/fixedwing/main_ap.c **** 
  90:firmwares/fixedwing/main_ap.c **** #if USE_AHRS
  91:firmwares/fixedwing/main_ap.c **** #if USE_IMU
  92:firmwares/fixedwing/main_ap.c **** static inline void on_gyro_event( void );
  93:firmwares/fixedwing/main_ap.c **** static inline void on_accel_event( void );
  94:firmwares/fixedwing/main_ap.c **** static inline void on_mag_event( void );
  95:firmwares/fixedwing/main_ap.c **** volatile uint8_t ahrs_timeout_counter = 0;
  96:firmwares/fixedwing/main_ap.c **** #else
  97:firmwares/fixedwing/main_ap.c **** static inline void on_ahrs_event(void);
  98:firmwares/fixedwing/main_ap.c **** #endif // USE_IMU
  99:firmwares/fixedwing/main_ap.c **** #endif // USE_AHRS
 100:firmwares/fixedwing/main_ap.c **** 
 101:firmwares/fixedwing/main_ap.c **** #if USE_GPS
 102:firmwares/fixedwing/main_ap.c **** static inline void on_gps_solution( void );
 103:firmwares/fixedwing/main_ap.c **** #endif
 104:firmwares/fixedwing/main_ap.c **** 
 105:firmwares/fixedwing/main_ap.c **** 
 106:firmwares/fixedwing/main_ap.c **** bool_t power_switch;
 107:firmwares/fixedwing/main_ap.c **** 
 108:firmwares/fixedwing/main_ap.c **** // what version is this ????
 109:firmwares/fixedwing/main_ap.c **** static const uint16_t version = 1;
 110:firmwares/fixedwing/main_ap.c **** 
 111:firmwares/fixedwing/main_ap.c **** uint8_t pprz_mode = PPRZ_MODE_AUTO2;
 112:firmwares/fixedwing/main_ap.c **** uint8_t lateral_mode = LATERAL_MODE_MANUAL;
 113:firmwares/fixedwing/main_ap.c **** 
 114:firmwares/fixedwing/main_ap.c **** static uint8_t  mcu1_status;
 115:firmwares/fixedwing/main_ap.c **** 
 116:firmwares/fixedwing/main_ap.c **** #if defined RADIO_CONTROL || defined RADIO_CONTROL_AUTO1
 117:firmwares/fixedwing/main_ap.c **** static uint8_t  mcu1_ppm_cpt;
 118:firmwares/fixedwing/main_ap.c **** #endif
 119:firmwares/fixedwing/main_ap.c **** 
 120:firmwares/fixedwing/main_ap.c **** bool_t kill_throttle = FALSE;
 121:firmwares/fixedwing/main_ap.c **** 
 122:firmwares/fixedwing/main_ap.c **** bool_t launch = FALSE;
 123:firmwares/fixedwing/main_ap.c **** 
 124:firmwares/fixedwing/main_ap.c **** 
 125:firmwares/fixedwing/main_ap.c **** /** Supply voltage in deciVolt.
 126:firmwares/fixedwing/main_ap.c ****  * This the ap copy of the measurement from fbw
 127:firmwares/fixedwing/main_ap.c ****  */
 128:firmwares/fixedwing/main_ap.c **** uint8_t vsupply;
 129:firmwares/fixedwing/main_ap.c **** 
 130:firmwares/fixedwing/main_ap.c **** /** Supply current in milliAmpere.
 131:firmwares/fixedwing/main_ap.c ****  * This the ap copy of the measurement from fbw
 132:firmwares/fixedwing/main_ap.c ****  */
 133:firmwares/fixedwing/main_ap.c **** static int32_t current;	// milliAmpere
 134:firmwares/fixedwing/main_ap.c **** 
 135:firmwares/fixedwing/main_ap.c **** /** Fuel consumption (mAh)
 136:firmwares/fixedwing/main_ap.c ****  * TODO: move to electrical subsystem
 137:firmwares/fixedwing/main_ap.c ****  */
 138:firmwares/fixedwing/main_ap.c **** float energy;
 139:firmwares/fixedwing/main_ap.c **** 
 140:firmwares/fixedwing/main_ap.c **** bool_t gps_lost = FALSE;
 141:firmwares/fixedwing/main_ap.c **** 
 142:firmwares/fixedwing/main_ap.c **** 
 143:firmwares/fixedwing/main_ap.c **** tid_t modules_tid;     ///< id for modules_periodic_task() timer
 144:firmwares/fixedwing/main_ap.c **** tid_t telemetry_tid;   ///< id for telemetry_periodic() timer
 145:firmwares/fixedwing/main_ap.c **** tid_t sensors_tid;     ///< id for sensors_task() timer
 146:firmwares/fixedwing/main_ap.c **** tid_t attitude_tid;    ///< id for attitude_loop() timer
 147:firmwares/fixedwing/main_ap.c **** tid_t navigation_tid;  ///< id for navigation_task() timer
 148:firmwares/fixedwing/main_ap.c **** tid_t monitor_tid;     ///< id for monitor_task() timer
 149:firmwares/fixedwing/main_ap.c **** 
 150:firmwares/fixedwing/main_ap.c **** #ifndef CONTROL_FREQUENCY
 151:firmwares/fixedwing/main_ap.c **** #ifdef  CONTROL_RATE
 152:firmwares/fixedwing/main_ap.c **** #define CONTROL_FREQUENCY CONTROL_RATE
 153:firmwares/fixedwing/main_ap.c **** //#warning "CONTROL_RATE deprecated. Renamed into CONTROL_FREQUENCY (in airframe file)"
 154:firmwares/fixedwing/main_ap.c **** #else
 155:firmwares/fixedwing/main_ap.c **** #define CONTROL_FREQUENCY 20
 156:firmwares/fixedwing/main_ap.c **** #endif
 157:firmwares/fixedwing/main_ap.c **** #endif
 158:firmwares/fixedwing/main_ap.c **** 
 159:firmwares/fixedwing/main_ap.c **** #ifndef NAVIGATION_FREQUENCY
 160:firmwares/fixedwing/main_ap.c **** #define NAVIGATION_FREQUENCY 4
 161:firmwares/fixedwing/main_ap.c **** #endif
 162:firmwares/fixedwing/main_ap.c **** 
 163:firmwares/fixedwing/main_ap.c **** #ifndef MODULES_FREQUENCY
 164:firmwares/fixedwing/main_ap.c **** #define MODULES_FREQUENCY 60
 165:firmwares/fixedwing/main_ap.c **** #endif
 166:firmwares/fixedwing/main_ap.c **** 
 167:firmwares/fixedwing/main_ap.c **** void init_ap( void ) {
  26              		.loc 1 167 0
  27              		.cfi_startproc
  28              		@ args = 0, pretend = 0, frame = 0
  29              		@ frame_needed = 0, uses_anonymous_args = 0
  30 0000 10B5     		push	{r4, lr}
  31              	.LCFI0:
  32              		.cfi_def_cfa_offset 8
  33              		.cfi_offset 14, -4
  34              		.cfi_offset 4, -8
 168:firmwares/fixedwing/main_ap.c **** #ifndef SINGLE_MCU /** init done in main_fbw in single MCU */
 169:firmwares/fixedwing/main_ap.c ****   mcu_init();
 170:firmwares/fixedwing/main_ap.c **** #endif /* SINGLE_MCU */
 171:firmwares/fixedwing/main_ap.c **** 
 172:firmwares/fixedwing/main_ap.c ****   /************* Sensors initialization ***************/
 173:firmwares/fixedwing/main_ap.c **** #if USE_GPS
 174:firmwares/fixedwing/main_ap.c ****   gps_init();
  35              		.loc 1 174 0
  36 0002 FFF7FEFF 		bl	gps_init
 175:firmwares/fixedwing/main_ap.c **** #endif
 176:firmwares/fixedwing/main_ap.c **** 
 177:firmwares/fixedwing/main_ap.c **** #ifdef USE_GPIO
 178:firmwares/fixedwing/main_ap.c ****   GpioInit();
 179:firmwares/fixedwing/main_ap.c **** #endif
 180:firmwares/fixedwing/main_ap.c **** 
 181:firmwares/fixedwing/main_ap.c **** #if USE_IMU
 182:firmwares/fixedwing/main_ap.c ****   imu_init();
  37              		.loc 1 182 0
  38 0006 FFF7FEFF 		bl	imu_init
 183:firmwares/fixedwing/main_ap.c **** #endif
 184:firmwares/fixedwing/main_ap.c **** 
 185:firmwares/fixedwing/main_ap.c **** #if USE_AHRS_ALIGNER
 186:firmwares/fixedwing/main_ap.c ****   ahrs_aligner_init();
  39              		.loc 1 186 0
  40 000a FFF7FEFF 		bl	ahrs_aligner_init
 187:firmwares/fixedwing/main_ap.c **** #endif
 188:firmwares/fixedwing/main_ap.c **** 
 189:firmwares/fixedwing/main_ap.c **** #if USE_AHRS
 190:firmwares/fixedwing/main_ap.c ****   ahrs_init();
  41              		.loc 1 190 0
  42 000e FFF7FEFF 		bl	ahrs_init
 191:firmwares/fixedwing/main_ap.c **** #endif
 192:firmwares/fixedwing/main_ap.c **** 
 193:firmwares/fixedwing/main_ap.c ****   /************* Links initialization ***************/
 194:firmwares/fixedwing/main_ap.c **** #if defined MCU_SPI_LINK
 195:firmwares/fixedwing/main_ap.c ****   link_mcu_init();
 196:firmwares/fixedwing/main_ap.c **** #endif
 197:firmwares/fixedwing/main_ap.c **** #if USE_AUDIO_TELEMETRY
 198:firmwares/fixedwing/main_ap.c ****   audio_telemetry_init();
 199:firmwares/fixedwing/main_ap.c **** #endif
 200:firmwares/fixedwing/main_ap.c **** 
 201:firmwares/fixedwing/main_ap.c ****   /************ Internal status ***************/
 202:firmwares/fixedwing/main_ap.c ****   h_ctl_init();
  43              		.loc 1 202 0
  44 0012 FFF7FEFF 		bl	h_ctl_init
 203:firmwares/fixedwing/main_ap.c ****   v_ctl_init();
  45              		.loc 1 203 0
  46 0016 FFF7FEFF 		bl	v_ctl_init
 204:firmwares/fixedwing/main_ap.c ****   estimator_init();
  47              		.loc 1 204 0
  48 001a FFF7FEFF 		bl	estimator_init
 205:firmwares/fixedwing/main_ap.c **** #ifdef ALT_KALMAN
 206:firmwares/fixedwing/main_ap.c ****   alt_kalman_init();
  49              		.loc 1 206 0
  50 001e FFF7FEFF 		bl	alt_kalman_init
 207:firmwares/fixedwing/main_ap.c **** #endif
 208:firmwares/fixedwing/main_ap.c ****   nav_init();
  51              		.loc 1 208 0
  52 0022 FFF7FEFF 		bl	nav_init
  53              	.LBB105:
  54              	.LBB106:
  55              		.file 2 "/home/uav/USTUAV/paparazzi/var/MYAC/generated/modules.h"
   1:/home/uav/USTUAV/paparazzi/var/MYAC/generated/modules.h **** /* This file has been generated from /home/uav/USTUAV/paparazzi/conf/airframes/examples/LisaM2_Nov2
   2:/home/uav/USTUAV/paparazzi/var/MYAC/generated/modules.h **** /* Please DO NOT EDIT */
   3:/home/uav/USTUAV/paparazzi/var/MYAC/generated/modules.h **** 
   4:/home/uav/USTUAV/paparazzi/var/MYAC/generated/modules.h **** #ifndef MODULES_H
   5:/home/uav/USTUAV/paparazzi/var/MYAC/generated/modules.h **** #define MODULES_H
   6:/home/uav/USTUAV/paparazzi/var/MYAC/generated/modules.h **** 
   7:/home/uav/USTUAV/paparazzi/var/MYAC/generated/modules.h **** #define MODULES_IDLE  0
   8:/home/uav/USTUAV/paparazzi/var/MYAC/generated/modules.h **** #define MODULES_RUN   1
   9:/home/uav/USTUAV/paparazzi/var/MYAC/generated/modules.h **** #define MODULES_START 2
  10:/home/uav/USTUAV/paparazzi/var/MYAC/generated/modules.h **** #define MODULES_STOP  3
  11:/home/uav/USTUAV/paparazzi/var/MYAC/generated/modules.h **** 
  12:/home/uav/USTUAV/paparazzi/var/MYAC/generated/modules.h **** #ifdef MODULES_C
  13:/home/uav/USTUAV/paparazzi/var/MYAC/generated/modules.h **** #define EXTERN_MODULES
  14:/home/uav/USTUAV/paparazzi/var/MYAC/generated/modules.h **** #else
  15:/home/uav/USTUAV/paparazzi/var/MYAC/generated/modules.h **** #define EXTERN_MODULES extern
  16:/home/uav/USTUAV/paparazzi/var/MYAC/generated/modules.h **** #endif
  17:/home/uav/USTUAV/paparazzi/var/MYAC/generated/modules.h **** #include "std.h"
  18:/home/uav/USTUAV/paparazzi/var/MYAC/generated/modules.h **** #include "gps/gps_ubx_ucenter.h"
  19:/home/uav/USTUAV/paparazzi/var/MYAC/generated/modules.h **** #include "core/sys_mon.h"
  20:/home/uav/USTUAV/paparazzi/var/MYAC/generated/modules.h **** 
  21:/home/uav/USTUAV/paparazzi/var/MYAC/generated/modules.h **** #define GPS_UBX_UCENTER_PERIODIC_PERIOD 0.250000
  22:/home/uav/USTUAV/paparazzi/var/MYAC/generated/modules.h **** #define GPS_UBX_UCENTER_PERIODIC_FREQ 4.000000
  23:/home/uav/USTUAV/paparazzi/var/MYAC/generated/modules.h **** #define PERIODIC_REPORT_SYSMON_PERIOD 1.000000
  24:/home/uav/USTUAV/paparazzi/var/MYAC/generated/modules.h **** #define PERIODIC_REPORT_SYSMON_FREQ 1.000000
  25:/home/uav/USTUAV/paparazzi/var/MYAC/generated/modules.h **** #define PERIODIC_SYSMON_PERIOD 0.016667
  26:/home/uav/USTUAV/paparazzi/var/MYAC/generated/modules.h **** #define PERIODIC_SYSMON_FREQ 60.000000
  27:/home/uav/USTUAV/paparazzi/var/MYAC/generated/modules.h **** 
  28:/home/uav/USTUAV/paparazzi/var/MYAC/generated/modules.h **** EXTERN_MODULES uint8_t gps_ubx_gps_ubx_ucenter_periodic_status;
  29:/home/uav/USTUAV/paparazzi/var/MYAC/generated/modules.h **** 
  30:/home/uav/USTUAV/paparazzi/var/MYAC/generated/modules.h **** #ifdef MODULES_C
  31:/home/uav/USTUAV/paparazzi/var/MYAC/generated/modules.h **** 
  32:/home/uav/USTUAV/paparazzi/var/MYAC/generated/modules.h **** static inline void modules_init(void) {
  33:/home/uav/USTUAV/paparazzi/var/MYAC/generated/modules.h ****   gps_ubx_ucenter_init();
  56              		.loc 2 33 0
  57 0026 FFF7FEFF 		bl	gps_ubx_ucenter_init
  34:/home/uav/USTUAV/paparazzi/var/MYAC/generated/modules.h ****   gps_ubx_gps_ubx_ucenter_periodic_status = MODULES_START;
  58              		.loc 2 34 0
  59 002a 1A4B     		ldr	r3, .L2
  60 002c 0222     		movs	r2, #2
  61 002e 1A70     		strb	r2, [r3, #0]
  35:/home/uav/USTUAV/paparazzi/var/MYAC/generated/modules.h ****   init_sysmon();
  62              		.loc 2 35 0
  63 0030 FFF7FEFF 		bl	init_sysmon
  64              	.LBE106:
  65              	.LBE105:
 209:firmwares/fixedwing/main_ap.c **** 
 210:firmwares/fixedwing/main_ap.c ****   modules_init();
 211:firmwares/fixedwing/main_ap.c **** 
 212:firmwares/fixedwing/main_ap.c ****   settings_init();
  66              		.loc 1 212 0
  67 0034 FFF7FEFF 		bl	settings_init
 213:firmwares/fixedwing/main_ap.c **** 
 214:firmwares/fixedwing/main_ap.c ****   /**** start timers for periodic functions *****/
 215:firmwares/fixedwing/main_ap.c ****   sensors_tid = sys_time_register_timer(1./PERIODIC_FREQUENCY, NULL);
  68              		.loc 1 215 0
  69 0038 0021     		movs	r1, #0
  70 003a 1748     		ldr	r0, .L2+4
  71 003c FFF7FEFF 		bl	sys_time_register_timer
  72 0040 164B     		ldr	r3, .L2+8
 216:firmwares/fixedwing/main_ap.c ****   navigation_tid = sys_time_register_timer(1./NAVIGATION_FREQUENCY, NULL);
  73              		.loc 1 216 0
  74 0042 0021     		movs	r1, #0
 215:firmwares/fixedwing/main_ap.c ****   sensors_tid = sys_time_register_timer(1./PERIODIC_FREQUENCY, NULL);
  75              		.loc 1 215 0
  76 0044 1870     		strb	r0, [r3, #0]
  77              		.loc 1 216 0
  78 0046 4FF07A50 		mov	r0, #1048576000
  79 004a FFF7FEFF 		bl	sys_time_register_timer
 217:firmwares/fixedwing/main_ap.c ****   attitude_tid = sys_time_register_timer(1./CONTROL_FREQUENCY, NULL);
  80              		.loc 1 217 0
  81 004e 144C     		ldr	r4, .L2+12
 216:firmwares/fixedwing/main_ap.c ****   navigation_tid = sys_time_register_timer(1./NAVIGATION_FREQUENCY, NULL);
  82              		.loc 1 216 0
  83 0050 144B     		ldr	r3, .L2+16
  84              		.loc 1 217 0
  85 0052 0021     		movs	r1, #0
 216:firmwares/fixedwing/main_ap.c ****   navigation_tid = sys_time_register_timer(1./NAVIGATION_FREQUENCY, NULL);
  86              		.loc 1 216 0
  87 0054 1870     		strb	r0, [r3, #0]
  88              		.loc 1 217 0
  89 0056 2046     		mov	r0, r4
  90 0058 FFF7FEFF 		bl	sys_time_register_timer
  91 005c 124B     		ldr	r3, .L2+20
 218:firmwares/fixedwing/main_ap.c ****   modules_tid = sys_time_register_timer(1./MODULES_FREQUENCY, NULL);
  92              		.loc 1 218 0
  93 005e 0021     		movs	r1, #0
 217:firmwares/fixedwing/main_ap.c ****   attitude_tid = sys_time_register_timer(1./CONTROL_FREQUENCY, NULL);
  94              		.loc 1 217 0
  95 0060 1870     		strb	r0, [r3, #0]
  96              		.loc 1 218 0
  97 0062 2046     		mov	r0, r4
  98 0064 FFF7FEFF 		bl	sys_time_register_timer
  99 0068 104B     		ldr	r3, .L2+24
 219:firmwares/fixedwing/main_ap.c ****   telemetry_tid = sys_time_register_timer(1./60, NULL);
 100              		.loc 1 219 0
 101 006a 0021     		movs	r1, #0
 218:firmwares/fixedwing/main_ap.c ****   modules_tid = sys_time_register_timer(1./MODULES_FREQUENCY, NULL);
 102              		.loc 1 218 0
 103 006c 1870     		strb	r0, [r3, #0]
 104              		.loc 1 219 0
 105 006e 2046     		mov	r0, r4
 106 0070 FFF7FEFF 		bl	sys_time_register_timer
 107 0074 0E4B     		ldr	r3, .L2+28
 220:firmwares/fixedwing/main_ap.c ****   monitor_tid = sys_time_register_timer(1.0, NULL);
 108              		.loc 1 220 0
 109 0076 0021     		movs	r1, #0
 219:firmwares/fixedwing/main_ap.c ****   telemetry_tid = sys_time_register_timer(1./60, NULL);
 110              		.loc 1 219 0
 111 0078 1870     		strb	r0, [r3, #0]
 112              		.loc 1 220 0
 113 007a 4FF07E50 		mov	r0, #1065353216
 114 007e FFF7FEFF 		bl	sys_time_register_timer
 115 0082 0C4B     		ldr	r3, .L2+32
 221:firmwares/fixedwing/main_ap.c **** 
 222:firmwares/fixedwing/main_ap.c ****   /** - start interrupt task */
 223:firmwares/fixedwing/main_ap.c ****   mcu_int_enable();
 224:firmwares/fixedwing/main_ap.c **** 
 225:firmwares/fixedwing/main_ap.c **** #if defined DATALINK
 226:firmwares/fixedwing/main_ap.c **** #if DATALINK == XBEE
 227:firmwares/fixedwing/main_ap.c ****   xbee_init();
 228:firmwares/fixedwing/main_ap.c **** #endif
 229:firmwares/fixedwing/main_ap.c **** #endif /* DATALINK */
 230:firmwares/fixedwing/main_ap.c **** 
 231:firmwares/fixedwing/main_ap.c **** #if defined AEROCOMM_DATA_PIN
 232:firmwares/fixedwing/main_ap.c ****   IO0DIR |= _BV(AEROCOMM_DATA_PIN);
 233:firmwares/fixedwing/main_ap.c ****   IO0SET = _BV(AEROCOMM_DATA_PIN);
 234:firmwares/fixedwing/main_ap.c **** #endif
 235:firmwares/fixedwing/main_ap.c **** 
 236:firmwares/fixedwing/main_ap.c ****   power_switch = FALSE;
 116              		.loc 1 236 0
 117 0084 0022     		movs	r2, #0
 220:firmwares/fixedwing/main_ap.c ****   monitor_tid = sys_time_register_timer(1.0, NULL);
 118              		.loc 1 220 0
 119 0086 1870     		strb	r0, [r3, #0]
 120              		.loc 1 236 0
 121 0088 0B4B     		ldr	r3, .L2+36
 122 008a 1A70     		strb	r2, [r3, #0]
 237:firmwares/fixedwing/main_ap.c **** 
 238:firmwares/fixedwing/main_ap.c ****   /************ Multi-uavs status ***************/
 239:firmwares/fixedwing/main_ap.c **** 
 240:firmwares/fixedwing/main_ap.c **** #ifdef TRAFFIC_INFO
 241:firmwares/fixedwing/main_ap.c ****   traffic_info_init();
 242:firmwares/fixedwing/main_ap.c **** #endif
 243:firmwares/fixedwing/main_ap.c **** }
 123              		.loc 1 243 0
 124 008c BDE81040 		pop	{r4, lr}
 241:firmwares/fixedwing/main_ap.c ****   traffic_info_init();
 125              		.loc 1 241 0
 126 0090 FFF7FEBF 		b	traffic_info_init
 127              	.L3:
 128              		.align	2
 129              	.L2:
 130 0094 00000000 		.word	.LANCHOR0
 131 0098 8988083C 		.word	1007192201
 132 009c 00000000 		.word	.LANCHOR1
 133 00a0 8988883C 		.word	1015580809
 134 00a4 00000000 		.word	.LANCHOR2
 135 00a8 00000000 		.word	.LANCHOR3
 136 00ac 00000000 		.word	.LANCHOR4
 137 00b0 00000000 		.word	.LANCHOR5
 138 00b4 00000000 		.word	.LANCHOR6
 139 00b8 00000000 		.word	.LANCHOR7
 140              		.cfi_endproc
 141              	.LFE48:
 143              		.global	__aeabi_i2d
 144              		.global	__aeabi_dmul
 145              		.global	__aeabi_ddiv
 146              		.global	__aeabi_d2iz
 147              		.global	__aeabi_i2f
 148              		.global	__aeabi_fadd
 149              		.global	__aeabi_f2d
 150              		.global	__aeabi_d2uiz
 151              		.global	__aeabi_f2iz
 152              		.global	__aeabi_fmul
 153              		.global	__aeabi_ui2f
 154              		.global	__aeabi_fdiv
 155              		.section	.text.reporting_task,"ax",%progbits
 156              		.align	1
 157              		.global	reporting_task
 158              		.thumb
 159              		.thumb_func
 161              	reporting_task:
 162              	.LFB54:
 244:firmwares/fixedwing/main_ap.c **** 
 245:firmwares/fixedwing/main_ap.c **** 
 246:firmwares/fixedwing/main_ap.c **** void handle_periodic_tasks_ap(void) {
 247:firmwares/fixedwing/main_ap.c **** 
 248:firmwares/fixedwing/main_ap.c ****   if (sys_time_check_and_ack_timer(sensors_tid))
 249:firmwares/fixedwing/main_ap.c ****     sensors_task();
 250:firmwares/fixedwing/main_ap.c **** 
 251:firmwares/fixedwing/main_ap.c ****   if (sys_time_check_and_ack_timer(navigation_tid))
 252:firmwares/fixedwing/main_ap.c ****     navigation_task();
 253:firmwares/fixedwing/main_ap.c **** 
 254:firmwares/fixedwing/main_ap.c **** #ifndef AHRS_TRIGGERED_ATTITUDE_LOOP
 255:firmwares/fixedwing/main_ap.c ****   if (sys_time_check_and_ack_timer(attitude_tid))
 256:firmwares/fixedwing/main_ap.c ****     attitude_loop();
 257:firmwares/fixedwing/main_ap.c **** #endif
 258:firmwares/fixedwing/main_ap.c **** 
 259:firmwares/fixedwing/main_ap.c ****   if (sys_time_check_and_ack_timer(modules_tid))
 260:firmwares/fixedwing/main_ap.c ****     modules_periodic_task();
 261:firmwares/fixedwing/main_ap.c **** 
 262:firmwares/fixedwing/main_ap.c ****   if (sys_time_check_and_ack_timer(monitor_tid))
 263:firmwares/fixedwing/main_ap.c ****     monitor_task();
 264:firmwares/fixedwing/main_ap.c **** 
 265:firmwares/fixedwing/main_ap.c ****   if (sys_time_check_and_ack_timer(telemetry_tid)) {
 266:firmwares/fixedwing/main_ap.c ****     reporting_task();
 267:firmwares/fixedwing/main_ap.c ****     LED_PERIODIC();
 268:firmwares/fixedwing/main_ap.c ****   }
 269:firmwares/fixedwing/main_ap.c **** 
 270:firmwares/fixedwing/main_ap.c **** }
 271:firmwares/fixedwing/main_ap.c **** 
 272:firmwares/fixedwing/main_ap.c **** 
 273:firmwares/fixedwing/main_ap.c **** /******************** Interaction with FBW *****************************/
 274:firmwares/fixedwing/main_ap.c **** 
 275:firmwares/fixedwing/main_ap.c **** /** Update paparazzi mode.
 276:firmwares/fixedwing/main_ap.c ****  */
 277:firmwares/fixedwing/main_ap.c **** #if defined RADIO_CONTROL || defined RADIO_CONTROL_AUTO1
 278:firmwares/fixedwing/main_ap.c **** static inline uint8_t pprz_mode_update( void ) {
 279:firmwares/fixedwing/main_ap.c ****   if ((pprz_mode != PPRZ_MODE_HOME &&
 280:firmwares/fixedwing/main_ap.c ****        pprz_mode != PPRZ_MODE_GPS_OUT_OF_ORDER)
 281:firmwares/fixedwing/main_ap.c **** #ifdef UNLOCKED_HOME_MODE
 282:firmwares/fixedwing/main_ap.c ****       || TRUE
 283:firmwares/fixedwing/main_ap.c **** #endif
 284:firmwares/fixedwing/main_ap.c ****       ) {
 285:firmwares/fixedwing/main_ap.c **** #ifndef RADIO_AUTO_MODE
 286:firmwares/fixedwing/main_ap.c ****     return ModeUpdate(pprz_mode, PPRZ_MODE_OF_PULSE(fbw_state->channels[RADIO_MODE]));
 287:firmwares/fixedwing/main_ap.c **** #else
 288:firmwares/fixedwing/main_ap.c **** #pragma message "Using RADIO_AUTO_MODE to switch between AUTO1 and AUTO2."
 289:firmwares/fixedwing/main_ap.c ****     /* If RADIO_AUTO_MODE is enabled mode swithing will be seperated between two switches/channels
 290:firmwares/fixedwing/main_ap.c ****      * RADIO_MODE will switch between PPRZ_MODE_MANUAL and any PPRZ_MODE_AUTO mode selected by RADI
 291:firmwares/fixedwing/main_ap.c ****      *
 292:firmwares/fixedwing/main_ap.c ****      * This is mainly a cludge for entry level radios with no three-way switch but two available tw
 293:firmwares/fixedwing/main_ap.c ****      */
 294:firmwares/fixedwing/main_ap.c ****     if(PPRZ_MODE_OF_PULSE(fbw_state->channels[RADIO_MODE]) == PPRZ_MODE_MANUAL) {
 295:firmwares/fixedwing/main_ap.c ****       /* RADIO_MODE in MANUAL position */
 296:firmwares/fixedwing/main_ap.c ****       return ModeUpdate(pprz_mode, PPRZ_MODE_MANUAL);
 297:firmwares/fixedwing/main_ap.c ****     } else {
 298:firmwares/fixedwing/main_ap.c ****       /* RADIO_MODE not in MANUAL position.
 299:firmwares/fixedwing/main_ap.c ****        * Select AUTO mode bassed on RADIO_AUTO_MODE channel
 300:firmwares/fixedwing/main_ap.c ****        */
 301:firmwares/fixedwing/main_ap.c ****       return ModeUpdate(pprz_mode, (fbw_state->channels[RADIO_AUTO_MODE] > THRESHOLD2) ? PPRZ_MODE_
 302:firmwares/fixedwing/main_ap.c ****     }
 303:firmwares/fixedwing/main_ap.c **** #endif // RADIO_AUTO_MODE
 304:firmwares/fixedwing/main_ap.c ****   } else
 305:firmwares/fixedwing/main_ap.c ****     return FALSE;
 306:firmwares/fixedwing/main_ap.c **** }
 307:firmwares/fixedwing/main_ap.c **** #else // not RADIO_CONTROL
 308:firmwares/fixedwing/main_ap.c **** static inline uint8_t pprz_mode_update( void ) {
 309:firmwares/fixedwing/main_ap.c ****   return FALSE;
 310:firmwares/fixedwing/main_ap.c **** }
 311:firmwares/fixedwing/main_ap.c **** #endif
 312:firmwares/fixedwing/main_ap.c **** 
 313:firmwares/fixedwing/main_ap.c **** static inline uint8_t mcu1_status_update( void ) {
 314:firmwares/fixedwing/main_ap.c ****   uint8_t new_status = fbw_state->status;
 315:firmwares/fixedwing/main_ap.c ****   if (mcu1_status != new_status) {
 316:firmwares/fixedwing/main_ap.c ****     bool_t changed = ((mcu1_status&MASK_FBW_CHANGED) != (new_status&MASK_FBW_CHANGED));
 317:firmwares/fixedwing/main_ap.c ****     mcu1_status = new_status;
 318:firmwares/fixedwing/main_ap.c ****     return changed;
 319:firmwares/fixedwing/main_ap.c ****   }
 320:firmwares/fixedwing/main_ap.c ****   return FALSE;
 321:firmwares/fixedwing/main_ap.c **** }
 322:firmwares/fixedwing/main_ap.c **** 
 323:firmwares/fixedwing/main_ap.c **** 
 324:firmwares/fixedwing/main_ap.c **** /** Send back uncontrolled channels.
 325:firmwares/fixedwing/main_ap.c ****  */
 326:firmwares/fixedwing/main_ap.c **** static inline void copy_from_to_fbw ( void ) {
 327:firmwares/fixedwing/main_ap.c **** #ifdef SetAutoCommandsFromRC
 328:firmwares/fixedwing/main_ap.c ****   SetAutoCommandsFromRC(ap_state->commands, fbw_state->channels);
 329:firmwares/fixedwing/main_ap.c **** #elif defined RADIO_YAW && defined COMMAND_YAW
 330:firmwares/fixedwing/main_ap.c ****   ap_state->commands[COMMAND_YAW] = fbw_state->channels[RADIO_YAW];
 331:firmwares/fixedwing/main_ap.c **** #endif
 332:firmwares/fixedwing/main_ap.c **** }
 333:firmwares/fixedwing/main_ap.c **** 
 334:firmwares/fixedwing/main_ap.c **** /** mode to enter when RC is lost in PPRZ_MODE_MANUAL or PPRZ_MODE_AUTO1 */
 335:firmwares/fixedwing/main_ap.c **** #ifndef RC_LOST_MODE
 336:firmwares/fixedwing/main_ap.c **** #define RC_LOST_MODE PPRZ_MODE_HOME
 337:firmwares/fixedwing/main_ap.c **** #endif
 338:firmwares/fixedwing/main_ap.c **** 
 339:firmwares/fixedwing/main_ap.c **** /**
 340:firmwares/fixedwing/main_ap.c ****  * Function to be called when a message from FBW is available
 341:firmwares/fixedwing/main_ap.c ****  */
 342:firmwares/fixedwing/main_ap.c **** static inline void telecommand_task( void ) {
 343:firmwares/fixedwing/main_ap.c ****   uint8_t mode_changed = FALSE;
 344:firmwares/fixedwing/main_ap.c ****   copy_from_to_fbw();
 345:firmwares/fixedwing/main_ap.c **** 
 346:firmwares/fixedwing/main_ap.c ****   uint8_t really_lost = bit_is_set(fbw_state->status, STATUS_RADIO_REALLY_LOST) && (pprz_mode == PP
 347:firmwares/fixedwing/main_ap.c ****   if (pprz_mode != PPRZ_MODE_HOME && pprz_mode != PPRZ_MODE_GPS_OUT_OF_ORDER && launch) {
 348:firmwares/fixedwing/main_ap.c ****     if  (too_far_from_home) {
 349:firmwares/fixedwing/main_ap.c ****       pprz_mode = PPRZ_MODE_HOME;
 350:firmwares/fixedwing/main_ap.c ****       mode_changed = TRUE;
 351:firmwares/fixedwing/main_ap.c ****     }
 352:firmwares/fixedwing/main_ap.c ****     if  (really_lost) {
 353:firmwares/fixedwing/main_ap.c ****       pprz_mode = RC_LOST_MODE;
 354:firmwares/fixedwing/main_ap.c ****       mode_changed = TRUE;
 355:firmwares/fixedwing/main_ap.c ****     }
 356:firmwares/fixedwing/main_ap.c ****   }
 357:firmwares/fixedwing/main_ap.c ****   if (bit_is_set(fbw_state->status, AVERAGED_CHANNELS_SENT)) {
 358:firmwares/fixedwing/main_ap.c ****     bool_t pprz_mode_changed = pprz_mode_update();
 359:firmwares/fixedwing/main_ap.c ****     mode_changed |= pprz_mode_changed;
 360:firmwares/fixedwing/main_ap.c **** #if defined RADIO_CALIB && defined RADIO_CONTROL_SETTINGS
 361:firmwares/fixedwing/main_ap.c ****     bool_t calib_mode_changed = RcSettingsModeUpdate(fbw_state->channels);
 362:firmwares/fixedwing/main_ap.c ****     rc_settings(calib_mode_changed || pprz_mode_changed);
 363:firmwares/fixedwing/main_ap.c ****     mode_changed |= calib_mode_changed;
 364:firmwares/fixedwing/main_ap.c **** #endif
 365:firmwares/fixedwing/main_ap.c ****   }
 366:firmwares/fixedwing/main_ap.c ****   mode_changed |= mcu1_status_update();
 367:firmwares/fixedwing/main_ap.c ****   if ( mode_changed )
 368:firmwares/fixedwing/main_ap.c ****     PERIODIC_SEND_PPRZ_MODE(DefaultChannel, DefaultDevice);
 369:firmwares/fixedwing/main_ap.c **** 
 370:firmwares/fixedwing/main_ap.c **** #if defined RADIO_CONTROL || defined RADIO_CONTROL_AUTO1
 371:firmwares/fixedwing/main_ap.c ****   /** In AUTO1 mode, compute roll setpoint and pitch setpoint from
 372:firmwares/fixedwing/main_ap.c ****    * \a RADIO_ROLL and \a RADIO_PITCH \n
 373:firmwares/fixedwing/main_ap.c ****    */
 374:firmwares/fixedwing/main_ap.c ****   if (pprz_mode == PPRZ_MODE_AUTO1) {
 375:firmwares/fixedwing/main_ap.c ****     /** Roll is bounded between [-AUTO1_MAX_ROLL;AUTO1_MAX_ROLL] */
 376:firmwares/fixedwing/main_ap.c ****     h_ctl_roll_setpoint = FLOAT_OF_PPRZ(fbw_state->channels[RADIO_ROLL], 0., AUTO1_MAX_ROLL);
 377:firmwares/fixedwing/main_ap.c **** 
 378:firmwares/fixedwing/main_ap.c ****     /** Pitch is bounded between [-AUTO1_MAX_PITCH;AUTO1_MAX_PITCH] */
 379:firmwares/fixedwing/main_ap.c ****     h_ctl_pitch_setpoint = FLOAT_OF_PPRZ(fbw_state->channels[RADIO_PITCH], 0., AUTO1_MAX_PITCH);
 380:firmwares/fixedwing/main_ap.c ****   } /** Else asynchronously set by \a h_ctl_course_loop() */
 381:firmwares/fixedwing/main_ap.c **** 
 382:firmwares/fixedwing/main_ap.c ****   /** In AUTO1, throttle comes from RADIO_THROTTLE
 383:firmwares/fixedwing/main_ap.c ****       In MANUAL, the value is copied to get it in the telemetry */
 384:firmwares/fixedwing/main_ap.c ****   if (pprz_mode == PPRZ_MODE_MANUAL || pprz_mode == PPRZ_MODE_AUTO1) {
 385:firmwares/fixedwing/main_ap.c ****     v_ctl_throttle_setpoint = fbw_state->channels[RADIO_THROTTLE];
 386:firmwares/fixedwing/main_ap.c ****   }
 387:firmwares/fixedwing/main_ap.c ****   /** else asynchronously set by v_ctl_climb_loop(); */
 388:firmwares/fixedwing/main_ap.c **** 
 389:firmwares/fixedwing/main_ap.c ****   mcu1_ppm_cpt = fbw_state->ppm_cpt;
 390:firmwares/fixedwing/main_ap.c **** #endif // RADIO_CONTROL
 391:firmwares/fixedwing/main_ap.c **** 
 392:firmwares/fixedwing/main_ap.c **** 
 393:firmwares/fixedwing/main_ap.c ****   vsupply = fbw_state->vsupply;
 394:firmwares/fixedwing/main_ap.c ****   current = fbw_state->current;
 395:firmwares/fixedwing/main_ap.c **** 
 396:firmwares/fixedwing/main_ap.c **** #ifdef RADIO_CONTROL
 397:firmwares/fixedwing/main_ap.c ****   if (!estimator_flight_time) {
 398:firmwares/fixedwing/main_ap.c ****     if (pprz_mode == PPRZ_MODE_AUTO2 && fbw_state->channels[RADIO_THROTTLE] > THROTTLE_THRESHOLD_TA
 399:firmwares/fixedwing/main_ap.c ****       launch = TRUE;
 400:firmwares/fixedwing/main_ap.c ****     }
 401:firmwares/fixedwing/main_ap.c ****   }
 402:firmwares/fixedwing/main_ap.c **** #endif
 403:firmwares/fixedwing/main_ap.c **** }
 404:firmwares/fixedwing/main_ap.c **** 
 405:firmwares/fixedwing/main_ap.c **** 
 406:firmwares/fixedwing/main_ap.c **** /**************************** Periodic tasks ***********************************/
 407:firmwares/fixedwing/main_ap.c **** 
 408:firmwares/fixedwing/main_ap.c **** /**
 409:firmwares/fixedwing/main_ap.c ****  * Send a series of initialisation messages followed by a stream of periodic ones.
 410:firmwares/fixedwing/main_ap.c ****  * Called at 60Hz.
 411:firmwares/fixedwing/main_ap.c ****  */
 412:firmwares/fixedwing/main_ap.c **** void reporting_task( void ) {
 163              		.loc 1 412 0
 164              		.cfi_startproc
 165              		@ args = 0, pretend = 0, frame = 32
 166              		@ frame_needed = 0, uses_anonymous_args = 0
 167 0000 2DE9F041 		push	{r4, r5, r6, r7, r8, lr}
 168              	.LCFI1:
 169              		.cfi_def_cfa_offset 24
 170              		.cfi_offset 14, -4
 171              		.cfi_offset 8, -8
 172              		.cfi_offset 7, -12
 173              		.cfi_offset 6, -16
 174              		.cfi_offset 5, -20
 175              		.cfi_offset 4, -24
 413:firmwares/fixedwing/main_ap.c ****   static uint8_t boot = TRUE;
 414:firmwares/fixedwing/main_ap.c **** 
 415:firmwares/fixedwing/main_ap.c ****   /** initialisation phase during boot */
 416:firmwares/fixedwing/main_ap.c ****   if (boot) {
 176              		.loc 1 416 0
 177 0004 2B4B     		ldr	r3, .L230
 412:firmwares/fixedwing/main_ap.c **** void reporting_task( void ) {
 178              		.loc 1 412 0
 179 0006 88B0     		sub	sp, sp, #32
 180              	.LCFI2:
 181              		.cfi_def_cfa_offset 56
 182              		.loc 1 416 0
 183 0008 1B78     		ldrb	r3, [r3, #0]	@ zero_extendqisi2
 184 000a 002B     		cmp	r3, #0
 185 000c 62D0     		beq	.L5
 417:firmwares/fixedwing/main_ap.c ****     DOWNLINK_SEND_BOOT(DefaultChannel, DefaultDevice, &version);
 186              		.loc 1 417 0
 187 000e 2A48     		ldr	r0, .L230+4
 188 0010 0821     		movs	r1, #8
 189 0012 FFF7FEFF 		bl	uart_check_free_space
 190 0016 0028     		cmp	r0, #0
 191 0018 44D0     		beq	.L6
 192              		.loc 1 417 0 is_stmt 0 discriminator 1
 193 001a 284B     		ldr	r3, .L230+8
 194              	.LBB107:
 195 001c 9921     		movs	r1, #153
 196              	.LBE107:
 197 001e 1A88     		ldrh	r2, [r3, #0]
 198              	.LBB108:
 199 0020 2548     		ldr	r0, .L230+4
 200              	.LBE108:
 201 0022 0832     		adds	r2, r2, #8
 202 0024 1A80     		strh	r2, [r3, #0]	@ movhi
 203 0026 264B     		ldr	r3, .L230+12
 204 0028 264D     		ldr	r5, .L230+16
 205 002a 1A88     		ldrh	r2, [r3, #0]
 206 002c 264C     		ldr	r4, .L230+20
 207 002e 0132     		adds	r2, r2, #1
 208 0030 1A80     		strh	r2, [r3, #0]	@ movhi
 209              	.LBB109:
 210 0032 FFF7FEFF 		bl	uart_transmit
 211              	.LVL0:
 212 0036 0821     		movs	r1, #8
 213 0038 1F48     		ldr	r0, .L230+4
 214 003a FFF7FEFF 		bl	uart_transmit
 215              	.LBE109:
 216 003e 0923     		movs	r3, #9
 217 0040 2B70     		strb	r3, [r5, #0]
 218 0042 1123     		movs	r3, #17
 219 0044 2370     		strb	r3, [r4, #0]
 220 0046 0121     		movs	r1, #1
 221 0048 1B48     		ldr	r0, .L230+4
 222 004a FFF7FEFF 		bl	uart_transmit
 223 004e 2B78     		ldrb	r3, [r5, #0]	@ zero_extendqisi2
 224 0050 2278     		ldrb	r2, [r4, #0]	@ zero_extendqisi2
 225 0052 0133     		adds	r3, r3, #1
 226 0054 DBB2     		uxtb	r3, r3
 227              	.LVL1:
 228 0056 2B70     		strb	r3, [r5, #0]
 229              	.LBB110:
 230 0058 1C4E     		ldr	r6, .L230+24
 231              	.LBE110:
 232 005a 9B18     		adds	r3, r3, r2
 233              	.LVL2:
 234 005c 2370     		strb	r3, [r4, #0]
 235 005e 0121     		movs	r1, #1
 236 0060 1548     		ldr	r0, .L230+4
 237 0062 FFF7FEFF 		bl	uart_transmit
 238              	.LBB111:
 239 0066 3178     		ldrb	r1, [r6, #0]	@ zero_extendqisi2
 240              	.LVL3:
 241 0068 2B78     		ldrb	r3, [r5, #0]	@ zero_extendqisi2
 242 006a 2278     		ldrb	r2, [r4, #0]	@ zero_extendqisi2
 243 006c CB18     		adds	r3, r1, r3
 244 006e DBB2     		uxtb	r3, r3
 245              	.LVL4:
 246 0070 2B70     		strb	r3, [r5, #0]
 247 0072 9B18     		adds	r3, r3, r2
 248              	.LVL5:
 249 0074 2370     		strb	r3, [r4, #0]
 250 0076 1048     		ldr	r0, .L230+4
 251 0078 FFF7FEFF 		bl	uart_transmit
 252              	.LVL6:
 253              	.LBE111:
 254              	.LBB112:
 255 007c 7178     		ldrb	r1, [r6, #1]	@ zero_extendqisi2
 256              	.LVL7:
 257 007e 2B78     		ldrb	r3, [r5, #0]	@ zero_extendqisi2
 258 0080 2278     		ldrb	r2, [r4, #0]	@ zero_extendqisi2
 259 0082 CB18     		adds	r3, r1, r3
 260 0084 DBB2     		uxtb	r3, r3
 261              	.LVL8:
 262 0086 2B70     		strb	r3, [r5, #0]
 263 0088 9B18     		adds	r3, r3, r2
 264              	.LVL9:
 265 008a 2370     		strb	r3, [r4, #0]
 266 008c 0A48     		ldr	r0, .L230+4
 267 008e FFF7FEFF 		bl	uart_transmit
 268              	.LVL10:
 269              	.LBE112:
 270 0092 2978     		ldrb	r1, [r5, #0]	@ zero_extendqisi2
 271 0094 0848     		ldr	r0, .L230+4
 272 0096 FFF7FEFF 		bl	uart_transmit
 273 009a 0748     		ldr	r0, .L230+4
 274 009c 2178     		ldrb	r1, [r4, #0]	@ zero_extendqisi2
 275 009e FFF7FEFF 		bl	uart_transmit
 276 00a2 03E0     		b	.L7
 277              	.LVL11:
 278              	.L6:
 279              		.loc 1 417 0 discriminator 2
 280 00a4 0A4B     		ldr	r3, .L230+28
 281 00a6 1A78     		ldrb	r2, [r3, #0]	@ zero_extendqisi2
 282 00a8 0132     		adds	r2, r2, #1
 283 00aa 1A70     		strb	r2, [r3, #0]
 284              	.L7:
 418:firmwares/fixedwing/main_ap.c ****     boot = FALSE;
 285              		.loc 1 418 0 is_stmt 1
 286 00ac 0022     		movs	r2, #0
 287 00ae 014B     		ldr	r3, .L230
 288 00b0 05F009BF 		b	.L225
 289              	.L231:
 290              		.align	2
 291              	.L230:
 292 00b4 00000000 		.word	.LANCHOR8
 293 00b8 00000000 		.word	uart2
 294 00bc 00000000 		.word	downlink_nb_bytes
 295 00c0 00000000 		.word	downlink_nb_msgs
 296 00c4 00000000 		.word	ck_a
 297 00c8 00000000 		.word	ck_b
 298 00cc 00000000 		.word	.LANCHOR9
 299 00d0 00000000 		.word	downlink_nb_ovrn
 300              	.L5:
 419:firmwares/fixedwing/main_ap.c ****   }
 420:firmwares/fixedwing/main_ap.c ****   /** then report periodicly */
 421:firmwares/fixedwing/main_ap.c ****   else {
 422:firmwares/fixedwing/main_ap.c ****     PeriodicSendAp(DefaultChannel, DefaultDevice);
 301              		.loc 1 422 0
 302 00d4 A24B     		ldr	r3, .L232+16
 303 00d6 1A78     		ldrb	r2, [r3, #0]	@ zero_extendqisi2
 304 00d8 002A     		cmp	r2, #0
 305 00da 42F0C182 		bne	.L9
 306              	.LBB113:
 307              		.loc 1 422 0 is_stmt 0 discriminator 1
 308 00de A14B     		ldr	r3, .L232+20
 309 00e0 1978     		ldrb	r1, [r3, #0]	@ zero_extendqisi2
 310 00e2 0131     		adds	r1, r1, #1
 311 00e4 C9B2     		uxtb	r1, r1
 312 00e6 0E29     		cmp	r1, #14
 313 00e8 1970     		strb	r1, [r3, #0]
 314 00ea 88BF     		it	hi
 315 00ec 1A70     		strbhi	r2, [r3, #0]
 316 00ee 9E4B     		ldr	r3, .L232+24
 317 00f0 1A78     		ldrb	r2, [r3, #0]	@ zero_extendqisi2
 318 00f2 0132     		adds	r2, r2, #1
 319 00f4 D2B2     		uxtb	r2, r2
 320 00f6 1D2A     		cmp	r2, #29
 321 00f8 1A70     		strb	r2, [r3, #0]
 322 00fa 01D9     		bls	.L11
 323              		.loc 1 422 0 discriminator 5
 324 00fc 0022     		movs	r2, #0
 325 00fe 1A70     		strb	r2, [r3, #0]
 326              	.L11:
 327              		.loc 1 422 0 discriminator 6
 328 0100 9A4B     		ldr	r3, .L232+28
 329 0102 1A78     		ldrb	r2, [r3, #0]	@ zero_extendqisi2
 330 0104 0132     		adds	r2, r2, #1
 331 0106 D2B2     		uxtb	r2, r2
 332 0108 3B2A     		cmp	r2, #59
 333 010a 1A70     		strb	r2, [r3, #0]
 334 010c 01D9     		bls	.L12
 335              		.loc 1 422 0 discriminator 7
 336 010e 0022     		movs	r2, #0
 337 0110 1A70     		strb	r2, [r3, #0]
 338              	.L12:
 339              		.loc 1 422 0 discriminator 8
 340 0112 974B     		ldr	r3, .L232+32
 341 0114 1A78     		ldrb	r2, [r3, #0]	@ zero_extendqisi2
 342 0116 0132     		adds	r2, r2, #1
 343 0118 D2B2     		uxtb	r2, r2
 344 011a 3E2A     		cmp	r2, #62
 345 011c 1A70     		strb	r2, [r3, #0]
 346 011e 01D9     		bls	.L13
 347              		.loc 1 422 0 discriminator 9
 348 0120 0022     		movs	r2, #0
 349 0122 1A70     		strb	r2, [r3, #0]
 350              	.L13:
 351              		.loc 1 422 0 discriminator 10
 352 0124 934B     		ldr	r3, .L232+36
 353 0126 1A78     		ldrb	r2, [r3, #0]	@ zero_extendqisi2
 354 0128 0132     		adds	r2, r2, #1
 355 012a D2B2     		uxtb	r2, r2
 356 012c 412A     		cmp	r2, #65
 357 012e 1A70     		strb	r2, [r3, #0]
 358 0130 01D9     		bls	.L14
 359              		.loc 1 422 0 discriminator 11
 360 0132 0022     		movs	r2, #0
 361 0134 1A70     		strb	r2, [r3, #0]
 362              	.L14:
 363              		.loc 1 422 0 discriminator 12
 364 0136 904B     		ldr	r3, .L232+40
 365 0138 1A78     		ldrb	r2, [r3, #0]	@ zero_extendqisi2
 366 013a 0132     		adds	r2, r2, #1
 367 013c D2B2     		uxtb	r2, r2
 368 013e 472A     		cmp	r2, #71
 369 0140 1A70     		strb	r2, [r3, #0]
 370 0142 01D9     		bls	.L15
 371              		.loc 1 422 0 discriminator 13
 372 0144 0022     		movs	r2, #0
 373 0146 1A70     		strb	r2, [r3, #0]
 374              	.L15:
 375              		.loc 1 422 0 discriminator 14
 376 0148 8C4B     		ldr	r3, .L232+44
 377 014a 1A78     		ldrb	r2, [r3, #0]	@ zero_extendqisi2
 378 014c 0132     		adds	r2, r2, #1
 379 014e D2B2     		uxtb	r2, r2
 380 0150 592A     		cmp	r2, #89
 381 0152 1A70     		strb	r2, [r3, #0]
 382 0154 01D9     		bls	.L16
 383              		.loc 1 422 0 discriminator 15
 384 0156 0022     		movs	r2, #0
 385 0158 1A70     		strb	r2, [r3, #0]
 386              	.L16:
 387              		.loc 1 422 0 discriminator 16
 388 015a 894B     		ldr	r3, .L232+48
 389 015c 1A78     		ldrb	r2, [r3, #0]	@ zero_extendqisi2
 390 015e 0132     		adds	r2, r2, #1
 391 0160 D2B2     		uxtb	r2, r2
 392 0162 772A     		cmp	r2, #119
 393 0164 1A70     		strb	r2, [r3, #0]
 394 0166 01D9     		bls	.L17
 395              		.loc 1 422 0 discriminator 17
 396 0168 0022     		movs	r2, #0
 397 016a 1A70     		strb	r2, [r3, #0]
 398              	.L17:
 399              		.loc 1 422 0 discriminator 18
 400 016c 854B     		ldr	r3, .L232+52
 401 016e 1A78     		ldrb	r2, [r3, #0]	@ zero_extendqisi2
 402 0170 0132     		adds	r2, r2, #1
 403 0172 D2B2     		uxtb	r2, r2
 404 0174 7D2A     		cmp	r2, #125
 405 0176 1A70     		strb	r2, [r3, #0]
 406 0178 01D9     		bls	.L18
 407              		.loc 1 422 0 discriminator 19
 408 017a 0022     		movs	r2, #0
 409 017c 1A70     		strb	r2, [r3, #0]
 410              	.L18:
 411              		.loc 1 422 0 discriminator 20
 412 017e 824B     		ldr	r3, .L232+56
 413 0180 1A78     		ldrb	r2, [r3, #0]	@ zero_extendqisi2
 414 0182 0132     		adds	r2, r2, #1
 415 0184 D2B2     		uxtb	r2, r2
 416 0186 952A     		cmp	r2, #149
 417 0188 1A70     		strb	r2, [r3, #0]
 418 018a 01D9     		bls	.L19
 419              		.loc 1 422 0 discriminator 21
 420 018c 0022     		movs	r2, #0
 421 018e 1A70     		strb	r2, [r3, #0]
 422              	.L19:
 423              		.loc 1 422 0 discriminator 22
 424 0190 7E4B     		ldr	r3, .L232+60
 425 0192 1A88     		ldrh	r2, [r3, #0]
 426 0194 0132     		adds	r2, r2, #1
 427 0196 92B2     		uxth	r2, r2
 428 0198 B2F5967F 		cmp	r2, #300
 429 019c 1A80     		strh	r2, [r3, #0]	@ movhi
 430 019e 01D3     		bcc	.L20
 431              		.loc 1 422 0 discriminator 23
 432 01a0 0022     		movs	r2, #0
 433 01a2 1A80     		strh	r2, [r3, #0]	@ movhi
 434              	.L20:
 435              		.loc 1 422 0 discriminator 24
 436 01a4 7A4B     		ldr	r3, .L232+64
 437 01a6 1A88     		ldrh	r2, [r3, #0]
 438 01a8 0132     		adds	r2, r2, #1
 439 01aa 92B2     		uxth	r2, r2
 440 01ac B2F5997F 		cmp	r2, #306
 441 01b0 1A80     		strh	r2, [r3, #0]	@ movhi
 442 01b2 01D3     		bcc	.L21
 443              		.loc 1 422 0 discriminator 25
 444 01b4 0022     		movs	r2, #0
 445 01b6 1A80     		strh	r2, [r3, #0]	@ movhi
 446              	.L21:
 447              		.loc 1 422 0 discriminator 26
 448 01b8 764B     		ldr	r3, .L232+68
 449 01ba 1A88     		ldrh	r2, [r3, #0]
 450 01bc 0132     		adds	r2, r2, #1
 451 01be 92B2     		uxth	r2, r2
 452 01c0 B2F5077F 		cmp	r2, #540
 453 01c4 1A80     		strh	r2, [r3, #0]	@ movhi
 454 01c6 01D3     		bcc	.L22
 455              		.loc 1 422 0 discriminator 27
 456 01c8 0022     		movs	r2, #0
 457 01ca 1A80     		strh	r2, [r3, #0]	@ movhi
 458              	.L22:
 459              		.loc 1 422 0 discriminator 28
 460 01cc 654B     		ldr	r3, .L232+20
 461 01ce 1B78     		ldrb	r3, [r3, #0]	@ zero_extendqisi2
 462 01d0 002B     		cmp	r3, #0
 463 01d2 40F0A582 		bne	.L23
 464              	.LBB114:
 465              		.loc 1 422 0 discriminator 29
 466 01d6 704C     		ldr	r4, .L232+72
 467 01d8 236C     		ldr	r3, [r4, #64]
 468 01da A06C     		ldr	r0, [r4, #72]
 469 01dc 5B42     		negs	r3, r3
 470 01de ADF81C30 		strh	r3, [sp, #28]	@ movhi
 471              	.LVL12:
 472 01e2 FFF7FEFF 		bl	__aeabi_i2d
 473 01e6 5AA3     		adr	r3, .L232
 474 01e8 D3E90023 		ldrd	r2, [r3]
 475 01ec FFF7FEFF 		bl	__aeabi_dmul
 476 01f0 59A3     		adr	r3, .L232+8
 477 01f2 D3E90023 		ldrd	r2, [r3]
 478 01f6 FFF7FEFF 		bl	__aeabi_ddiv
 479 01fa FFF7FEFF 		bl	__aeabi_d2iz
 480 01fe 2121     		movs	r1, #33
 481 0200 ADF81E00 		strh	r0, [sp, #30]	@ movhi
 482              	.LVL13:
 483 0204 6548     		ldr	r0, .L232+76
 484 0206 FFF7FEFF 		bl	uart_check_free_space
 485 020a 0028     		cmp	r0, #0
 486 020c 00F0A081 		beq	.L24
 487              		.loc 1 422 0 discriminator 31
 488 0210 634B     		ldr	r3, .L232+80
 489              	.LBB115:
 490 0212 9921     		movs	r1, #153
 491              	.LBE115:
 492 0214 1A88     		ldrh	r2, [r3, #0]
 493              	.LBB116:
 494 0216 6148     		ldr	r0, .L232+76
 495              	.LBE116:
 496 0218 2132     		adds	r2, r2, #33
 497 021a 1A80     		strh	r2, [r3, #0]	@ movhi
 498 021c 614B     		ldr	r3, .L232+84
 499 021e 624E     		ldr	r6, .L232+88
 500 0220 1A88     		ldrh	r2, [r3, #0]
 501 0222 624D     		ldr	r5, .L232+92
 502 0224 0132     		adds	r2, r2, #1
 503 0226 1A80     		strh	r2, [r3, #0]	@ movhi
 504              	.LBB117:
 505 0228 FFF7FEFF 		bl	uart_transmit
 506              	.LVL14:
 507 022c 2121     		movs	r1, #33
 508 022e 5B48     		ldr	r0, .L232+76
 509 0230 FFF7FEFF 		bl	uart_transmit
 510              	.LBE117:
 511 0234 2223     		movs	r3, #34
 512 0236 3370     		strb	r3, [r6, #0]
 513 0238 4323     		movs	r3, #67
 514 023a 2B70     		strb	r3, [r5, #0]
 515 023c 0121     		movs	r1, #1
 516 023e 5748     		ldr	r0, .L232+76
 517 0240 FFF7FEFF 		bl	uart_transmit
 518 0244 3378     		ldrb	r3, [r6, #0]	@ zero_extendqisi2
 519 0246 2A78     		ldrb	r2, [r5, #0]	@ zero_extendqisi2
 520 0248 0833     		adds	r3, r3, #8
 521 024a DBB2     		uxtb	r3, r3
 522 024c 3370     		strb	r3, [r6, #0]
 523 024e 9B18     		adds	r3, r3, r2
 524 0250 2B70     		strb	r3, [r5, #0]
 525 0252 0821     		movs	r1, #8
 526 0254 5148     		ldr	r0, .L232+76
 527 0256 FFF7FEFF 		bl	uart_transmit
 528              	.LBB118:
 529 025a 94F85B10 		ldrb	r1, [r4, #91]	@ zero_extendqisi2
 530              	.LVL15:
 531 025e 3378     		ldrb	r3, [r6, #0]	@ zero_extendqisi2
 532 0260 2A78     		ldrb	r2, [r5, #0]	@ zero_extendqisi2
 533 0262 CB18     		adds	r3, r1, r3
 534 0264 DBB2     		uxtb	r3, r3
 535              	.LVL16:
 536 0266 3370     		strb	r3, [r6, #0]
 537 0268 9B18     		adds	r3, r3, r2
 538              	.LVL17:
 539 026a 2B70     		strb	r3, [r5, #0]
 540 026c 4B48     		ldr	r0, .L232+76
 541 026e FFF7FEFF 		bl	uart_transmit
 542              	.LVL18:
 543              	.LBE118:
 544              	.LBB119:
 545 0272 217F     		ldrb	r1, [r4, #28]	@ zero_extendqisi2
 546              	.LVL19:
 547 0274 3378     		ldrb	r3, [r6, #0]	@ zero_extendqisi2
 548 0276 2A78     		ldrb	r2, [r5, #0]	@ zero_extendqisi2
 549 0278 CB18     		adds	r3, r1, r3
 550 027a DBB2     		uxtb	r3, r3
 551              	.LVL20:
 552 027c 3370     		strb	r3, [r6, #0]
 553 027e 9B18     		adds	r3, r3, r2
 554              	.LVL21:
 555 0280 2B70     		strb	r3, [r5, #0]
 556 0282 4648     		ldr	r0, .L232+76
 557 0284 FFF7FEFF 		bl	uart_transmit
 558              	.LVL22:
 559              	.LBE119:
 560              	.LBB120:
 561 0288 617F     		ldrb	r1, [r4, #29]	@ zero_extendqisi2
 562              	.LVL23:
 563 028a 3378     		ldrb	r3, [r6, #0]	@ zero_extendqisi2
 564 028c 2A78     		ldrb	r2, [r5, #0]	@ zero_extendqisi2
 565 028e CB18     		adds	r3, r1, r3
 566 0290 DBB2     		uxtb	r3, r3
 567              	.LVL24:
 568 0292 3370     		strb	r3, [r6, #0]
 569 0294 9B18     		adds	r3, r3, r2
 570              	.LVL25:
 571 0296 2B70     		strb	r3, [r5, #0]
 572 0298 4048     		ldr	r0, .L232+76
 573 029a FFF7FEFF 		bl	uart_transmit
 574              	.LVL26:
 575              	.LBE120:
 576              	.LBB121:
 577 029e A17F     		ldrb	r1, [r4, #30]	@ zero_extendqisi2
 578              	.LVL27:
 579 02a0 3378     		ldrb	r3, [r6, #0]	@ zero_extendqisi2
 580 02a2 2A78     		ldrb	r2, [r5, #0]	@ zero_extendqisi2
 581 02a4 CB18     		adds	r3, r1, r3
 582 02a6 DBB2     		uxtb	r3, r3
 583              	.LVL28:
 584 02a8 3370     		strb	r3, [r6, #0]
 585 02aa 9B18     		adds	r3, r3, r2
 586              	.LVL29:
 587 02ac 2B70     		strb	r3, [r5, #0]
 588 02ae 3B48     		ldr	r0, .L232+76
 589 02b0 FFF7FEFF 		bl	uart_transmit
 590              	.LVL30:
 591              	.LBE121:
 592              	.LBB122:
 593 02b4 E17F     		ldrb	r1, [r4, #31]	@ zero_extendqisi2
 594              	.LVL31:
 595 02b6 3378     		ldrb	r3, [r6, #0]	@ zero_extendqisi2
 596 02b8 2A78     		ldrb	r2, [r5, #0]	@ zero_extendqisi2
 597 02ba CB18     		adds	r3, r1, r3
 598 02bc DBB2     		uxtb	r3, r3
 599              	.LVL32:
 600 02be 3370     		strb	r3, [r6, #0]
 601 02c0 9B18     		adds	r3, r3, r2
 602              	.LVL33:
 603 02c2 2B70     		strb	r3, [r5, #0]
 604 02c4 3548     		ldr	r0, .L232+76
 605 02c6 FFF7FEFF 		bl	uart_transmit
 606              	.LVL34:
 607              	.LBE122:
 608              	.LBB123:
 609 02ca 217E     		ldrb	r1, [r4, #24]	@ zero_extendqisi2
 610              	.LVL35:
 611 02cc 3378     		ldrb	r3, [r6, #0]	@ zero_extendqisi2
 612 02ce 2A78     		ldrb	r2, [r5, #0]	@ zero_extendqisi2
 613 02d0 CB18     		adds	r3, r1, r3
 614 02d2 DBB2     		uxtb	r3, r3
 615              	.LVL36:
 616 02d4 3370     		strb	r3, [r6, #0]
 617 02d6 9B18     		adds	r3, r3, r2
 618              	.LVL37:
 619 02d8 2B70     		strb	r3, [r5, #0]
 620 02da 3048     		ldr	r0, .L232+76
 621 02dc FFF7FEFF 		bl	uart_transmit
 622              	.LVL38:
 623              	.LBE123:
 624              	.LBB124:
 625 02e0 617E     		ldrb	r1, [r4, #25]	@ zero_extendqisi2
 626              	.LVL39:
 627 02e2 3378     		ldrb	r3, [r6, #0]	@ zero_extendqisi2
 628 02e4 2A78     		ldrb	r2, [r5, #0]	@ zero_extendqisi2
 629 02e6 CB18     		adds	r3, r1, r3
 630 02e8 DBB2     		uxtb	r3, r3
 631              	.LVL40:
 632 02ea 3370     		strb	r3, [r6, #0]
 633 02ec 9B18     		adds	r3, r3, r2
 634              	.LVL41:
 635 02ee 2B70     		strb	r3, [r5, #0]
 636 02f0 2A48     		ldr	r0, .L232+76
 637 02f2 FFF7FEFF 		bl	uart_transmit
 638              	.LVL42:
 639              	.LBE124:
 640              	.LBB125:
 641 02f6 A17E     		ldrb	r1, [r4, #26]	@ zero_extendqisi2
 642              	.LVL43:
 643 02f8 3378     		ldrb	r3, [r6, #0]	@ zero_extendqisi2
 644 02fa 2A78     		ldrb	r2, [r5, #0]	@ zero_extendqisi2
 645 02fc CB18     		adds	r3, r1, r3
 646 02fe DBB2     		uxtb	r3, r3
 647              	.LVL44:
 648 0300 3370     		strb	r3, [r6, #0]
 649 0302 9B18     		adds	r3, r3, r2
 650              	.LVL45:
 651 0304 2B70     		strb	r3, [r5, #0]
 652 0306 2548     		ldr	r0, .L232+76
 653 0308 FFF7FEFF 		bl	uart_transmit
 654              	.LVL46:
 655              	.LBE125:
 656              	.LBB126:
 657 030c E17E     		ldrb	r1, [r4, #27]	@ zero_extendqisi2
 658              	.LVL47:
 659 030e 3378     		ldrb	r3, [r6, #0]	@ zero_extendqisi2
 660 0310 2A78     		ldrb	r2, [r5, #0]	@ zero_extendqisi2
 661 0312 CB18     		adds	r3, r1, r3
 662 0314 DBB2     		uxtb	r3, r3
 663              	.LVL48:
 664 0316 3370     		strb	r3, [r6, #0]
 665 0318 9B18     		adds	r3, r3, r2
 666              	.LVL49:
 667 031a 2B70     		strb	r3, [r5, #0]
 668 031c 1F48     		ldr	r0, .L232+76
 669 031e FFF7FEFF 		bl	uart_transmit
 670              	.LVL50:
 671              	.LBE126:
 672              	.LBB127:
 673 0322 9DF81E10 		ldrb	r1, [sp, #30]	@ zero_extendqisi2
 674              	.LVL51:
 675 0326 3378     		ldrb	r3, [r6, #0]	@ zero_extendqisi2
 676 0328 2A78     		ldrb	r2, [r5, #0]	@ zero_extendqisi2
 677 032a CB18     		adds	r3, r1, r3
 678 032c DBB2     		uxtb	r3, r3
 679              	.LVL52:
 680 032e 3370     		strb	r3, [r6, #0]
 681 0330 9B18     		adds	r3, r3, r2
 682              	.LVL53:
 683 0332 2B70     		strb	r3, [r5, #0]
 684 0334 1948     		ldr	r0, .L232+76
 685 0336 FFF7FEFF 		bl	uart_transmit
 686              	.LVL54:
 687              	.LBE127:
 688              	.LBB128:
 689 033a 9DF81F10 		ldrb	r1, [sp, #31]	@ zero_extendqisi2
 690              	.LVL55:
 691 033e 3378     		ldrb	r3, [r6, #0]	@ zero_extendqisi2
 692 0340 2A78     		ldrb	r2, [r5, #0]	@ zero_extendqisi2
 693 0342 CB18     		adds	r3, r1, r3
 694 0344 DBB2     		uxtb	r3, r3
 695              	.LVL56:
 696 0346 3370     		strb	r3, [r6, #0]
 697 0348 9B18     		adds	r3, r3, r2
 698              	.LVL57:
 699 034a 2B70     		strb	r3, [r5, #0]
 700 034c 30E0     		b	.L233
 701              	.L234:
 702 034e 00BF     		.align	3
 703              	.L232:
 704 0350 F8C1631A 		.word	442745336
 705 0354 DCA54C40 		.word	1078765020
 706 0358 00000000 		.word	0
 707 035c 80842E41 		.word	1093567616
 708 0360 00000000 		.word	telemetry_mode_Ap
 709 0364 00000000 		.word	.LANCHOR10
 710 0368 00000000 		.word	.LANCHOR11
 711 036c 00000000 		.word	.LANCHOR12
 712 0370 00000000 		.word	.LANCHOR13
 713 0374 00000000 		.word	.LANCHOR14
 714 0378 00000000 		.word	.LANCHOR15
 715 037c 00000000 		.word	.LANCHOR16
 716 0380 00000000 		.word	.LANCHOR17
 717 0384 00000000 		.word	.LANCHOR18
 718 0388 00000000 		.word	.LANCHOR19
 719 038c 00000000 		.word	.LANCHOR20
 720 0390 00000000 		.word	.LANCHOR21
 721 0394 00000000 		.word	.LANCHOR22
 722 0398 00000000 		.word	gps
 723 039c 00000000 		.word	uart2
 724 03a0 00000000 		.word	downlink_nb_bytes
 725 03a4 00000000 		.word	downlink_nb_msgs
 726 03a8 00000000 		.word	ck_a
 727 03ac 00000000 		.word	ck_b
 728              	.L233:
 729 03b0 6548     		ldr	r0, .L235
 730 03b2 FFF7FEFF 		bl	uart_transmit
 731              	.LVL58:
 732              	.LBE128:
 733              	.LBB129:
 734 03b6 94F82810 		ldrb	r1, [r4, #40]	@ zero_extendqisi2
 735              	.LVL59:
 736 03ba 3378     		ldrb	r3, [r6, #0]	@ zero_extendqisi2
 737 03bc 2A78     		ldrb	r2, [r5, #0]	@ zero_extendqisi2
 738 03be CB18     		adds	r3, r1, r3
 739 03c0 DBB2     		uxtb	r3, r3
 740              	.LVL60:
 741 03c2 3370     		strb	r3, [r6, #0]
 742 03c4 9B18     		adds	r3, r3, r2
 743              	.LVL61:
 744 03c6 2B70     		strb	r3, [r5, #0]
 745 03c8 5F48     		ldr	r0, .L235
 746 03ca FFF7FEFF 		bl	uart_transmit
 747              	.LVL62:
 748              	.LBE129:
 749              	.LBB130:
 750 03ce 94F82910 		ldrb	r1, [r4, #41]	@ zero_extendqisi2
 751              	.LVL63:
 752 03d2 3378     		ldrb	r3, [r6, #0]	@ zero_extendqisi2
 753 03d4 2A78     		ldrb	r2, [r5, #0]	@ zero_extendqisi2
 754 03d6 CB18     		adds	r3, r1, r3
 755 03d8 DBB2     		uxtb	r3, r3
 756              	.LVL64:
 757 03da 3370     		strb	r3, [r6, #0]
 758 03dc 9B18     		adds	r3, r3, r2
 759              	.LVL65:
 760 03de 2B70     		strb	r3, [r5, #0]
 761 03e0 5948     		ldr	r0, .L235
 762 03e2 FFF7FEFF 		bl	uart_transmit
 763              	.LVL66:
 764              	.LBE130:
 765              	.LBB131:
 766 03e6 94F82A10 		ldrb	r1, [r4, #42]	@ zero_extendqisi2
 767              	.LVL67:
 768 03ea 3378     		ldrb	r3, [r6, #0]	@ zero_extendqisi2
 769 03ec 2A78     		ldrb	r2, [r5, #0]	@ zero_extendqisi2
 770 03ee CB18     		adds	r3, r1, r3
 771 03f0 DBB2     		uxtb	r3, r3
 772              	.LVL68:
 773 03f2 3370     		strb	r3, [r6, #0]
 774 03f4 9B18     		adds	r3, r3, r2
 775              	.LVL69:
 776 03f6 2B70     		strb	r3, [r5, #0]
 777 03f8 5348     		ldr	r0, .L235
 778 03fa FFF7FEFF 		bl	uart_transmit
 779              	.LVL70:
 780              	.LBE131:
 781              	.LBB132:
 782 03fe 94F82B10 		ldrb	r1, [r4, #43]	@ zero_extendqisi2
 783              	.LVL71:
 784 0402 3378     		ldrb	r3, [r6, #0]	@ zero_extendqisi2
 785 0404 2A78     		ldrb	r2, [r5, #0]	@ zero_extendqisi2
 786 0406 CB18     		adds	r3, r1, r3
 787 0408 DBB2     		uxtb	r3, r3
 788              	.LVL72:
 789 040a 3370     		strb	r3, [r6, #0]
 790 040c 9B18     		adds	r3, r3, r2
 791              	.LVL73:
 792 040e 2B70     		strb	r3, [r5, #0]
 793 0410 4D48     		ldr	r0, .L235
 794 0412 FFF7FEFF 		bl	uart_transmit
 795              	.LVL74:
 796              	.LBE132:
 797              	.LBB133:
 798 0416 94F84410 		ldrb	r1, [r4, #68]	@ zero_extendqisi2
 799              	.LVL75:
 800 041a 3378     		ldrb	r3, [r6, #0]	@ zero_extendqisi2
 801 041c 2A78     		ldrb	r2, [r5, #0]	@ zero_extendqisi2
 802 041e CB18     		adds	r3, r1, r3
 803 0420 DBB2     		uxtb	r3, r3
 804              	.LVL76:
 805 0422 3370     		strb	r3, [r6, #0]
 806 0424 9B18     		adds	r3, r3, r2
 807              	.LVL77:
 808 0426 2B70     		strb	r3, [r5, #0]
 809 0428 4748     		ldr	r0, .L235
 810 042a FFF7FEFF 		bl	uart_transmit
 811              	.LVL78:
 812              	.LBE133:
 813              	.LBB134:
 814 042e 94F84510 		ldrb	r1, [r4, #69]	@ zero_extendqisi2
 815              	.LVL79:
 816 0432 3378     		ldrb	r3, [r6, #0]	@ zero_extendqisi2
 817 0434 2A78     		ldrb	r2, [r5, #0]	@ zero_extendqisi2
 818 0436 CB18     		adds	r3, r1, r3
 819 0438 DBB2     		uxtb	r3, r3
 820              	.LVL80:
 821 043a 3370     		strb	r3, [r6, #0]
 822 043c 9B18     		adds	r3, r3, r2
 823              	.LVL81:
 824 043e 2B70     		strb	r3, [r5, #0]
 825 0440 4148     		ldr	r0, .L235
 826 0442 FFF7FEFF 		bl	uart_transmit
 827              	.LVL82:
 828              	.LBE134:
 829              	.LBB135:
 830 0446 9DF81C10 		ldrb	r1, [sp, #28]	@ zero_extendqisi2
 831              	.LVL83:
 832 044a 3378     		ldrb	r3, [r6, #0]	@ zero_extendqisi2
 833 044c 2A78     		ldrb	r2, [r5, #0]	@ zero_extendqisi2
 834 044e CB18     		adds	r3, r1, r3
 835 0450 DBB2     		uxtb	r3, r3
 836              	.LVL84:
 837 0452 3370     		strb	r3, [r6, #0]
 838 0454 9B18     		adds	r3, r3, r2
 839              	.LVL85:
 840 0456 2B70     		strb	r3, [r5, #0]
 841 0458 3B48     		ldr	r0, .L235
 842 045a FFF7FEFF 		bl	uart_transmit
 843              	.LVL86:
 844              	.LBE135:
 845              	.LBB136:
 846 045e 9DF81D10 		ldrb	r1, [sp, #29]	@ zero_extendqisi2
 847              	.LVL87:
 848 0462 3378     		ldrb	r3, [r6, #0]	@ zero_extendqisi2
 849 0464 2A78     		ldrb	r2, [r5, #0]	@ zero_extendqisi2
 850 0466 CB18     		adds	r3, r1, r3
 851 0468 DBB2     		uxtb	r3, r3
 852              	.LVL88:
 853 046a 3370     		strb	r3, [r6, #0]
 854 046c 9B18     		adds	r3, r3, r2
 855              	.LVL89:
 856 046e 2B70     		strb	r3, [r5, #0]
 857 0470 3548     		ldr	r0, .L235
 858 0472 FFF7FEFF 		bl	uart_transmit
 859              	.LVL90:
 860              	.LBE136:
 861              	.LBB137:
 862 0476 94F85C10 		ldrb	r1, [r4, #92]	@ zero_extendqisi2
 863              	.LVL91:
 864 047a 3378     		ldrb	r3, [r6, #0]	@ zero_extendqisi2
 865 047c 2A78     		ldrb	r2, [r5, #0]	@ zero_extendqisi2
 866 047e CB18     		adds	r3, r1, r3
 867 0480 DBB2     		uxtb	r3, r3
 868              	.LVL92:
 869 0482 3370     		strb	r3, [r6, #0]
 870 0484 9B18     		adds	r3, r3, r2
 871              	.LVL93:
 872 0486 2B70     		strb	r3, [r5, #0]
 873 0488 2F48     		ldr	r0, .L235
 874 048a FFF7FEFF 		bl	uart_transmit
 875              	.LVL94:
 876              	.LBE137:
 877              	.LBB138:
 878 048e 94F85D10 		ldrb	r1, [r4, #93]	@ zero_extendqisi2
 879              	.LVL95:
 880 0492 3378     		ldrb	r3, [r6, #0]	@ zero_extendqisi2
 881 0494 2A78     		ldrb	r2, [r5, #0]	@ zero_extendqisi2
 882 0496 CB18     		adds	r3, r1, r3
 883 0498 DBB2     		uxtb	r3, r3
 884              	.LVL96:
 885 049a 3370     		strb	r3, [r6, #0]
 886 049c 9B18     		adds	r3, r3, r2
 887              	.LVL97:
 888 049e 2B70     		strb	r3, [r5, #0]
 889 04a0 2948     		ldr	r0, .L235
 890 04a2 FFF7FEFF 		bl	uart_transmit
 891              	.LVL98:
 892              	.LBE138:
 893              	.LBB139:
 894 04a6 94F86010 		ldrb	r1, [r4, #96]	@ zero_extendqisi2
 895              	.LVL99:
 896 04aa 3378     		ldrb	r3, [r6, #0]	@ zero_extendqisi2
 897 04ac 2A78     		ldrb	r2, [r5, #0]	@ zero_extendqisi2
 898 04ae CB18     		adds	r3, r1, r3
 899 04b0 DBB2     		uxtb	r3, r3
 900              	.LVL100:
 901 04b2 3370     		strb	r3, [r6, #0]
 902 04b4 9B18     		adds	r3, r3, r2
 903              	.LVL101:
 904 04b6 2B70     		strb	r3, [r5, #0]
 905 04b8 2348     		ldr	r0, .L235
 906 04ba FFF7FEFF 		bl	uart_transmit
 907              	.LVL102:
 908              	.LBE139:
 909              	.LBB140:
 910 04be 94F86110 		ldrb	r1, [r4, #97]	@ zero_extendqisi2
 911              	.LVL103:
 912 04c2 3378     		ldrb	r3, [r6, #0]	@ zero_extendqisi2
 913 04c4 2A78     		ldrb	r2, [r5, #0]	@ zero_extendqisi2
 914 04c6 CB18     		adds	r3, r1, r3
 915 04c8 DBB2     		uxtb	r3, r3
 916              	.LVL104:
 917 04ca 3370     		strb	r3, [r6, #0]
 918 04cc 9B18     		adds	r3, r3, r2
 919              	.LVL105:
 920 04ce 2B70     		strb	r3, [r5, #0]
 921 04d0 1D48     		ldr	r0, .L235
 922 04d2 FFF7FEFF 		bl	uart_transmit
 923              	.LVL106:
 924              	.LBE140:
 925              	.LBB141:
 926 04d6 94F86210 		ldrb	r1, [r4, #98]	@ zero_extendqisi2
 927              	.LVL107:
 928 04da 3378     		ldrb	r3, [r6, #0]	@ zero_extendqisi2
 929 04dc 2A78     		ldrb	r2, [r5, #0]	@ zero_extendqisi2
 930 04de CB18     		adds	r3, r1, r3
 931 04e0 DBB2     		uxtb	r3, r3
 932              	.LVL108:
 933 04e2 3370     		strb	r3, [r6, #0]
 934 04e4 9B18     		adds	r3, r3, r2
 935              	.LVL109:
 936 04e6 2B70     		strb	r3, [r5, #0]
 937 04e8 1748     		ldr	r0, .L235
 938 04ea FFF7FEFF 		bl	uart_transmit
 939              	.LVL110:
 940              	.LBE141:
 941              	.LBB142:
 942 04ee 94F86310 		ldrb	r1, [r4, #99]	@ zero_extendqisi2
 943              	.LVL111:
 944 04f2 3378     		ldrb	r3, [r6, #0]	@ zero_extendqisi2
 945 04f4 2A78     		ldrb	r2, [r5, #0]	@ zero_extendqisi2
 946 04f6 CB18     		adds	r3, r1, r3
 947 04f8 DBB2     		uxtb	r3, r3
 948              	.LVL112:
 949 04fa 3370     		strb	r3, [r6, #0]
 950 04fc 9B18     		adds	r3, r3, r2
 951              	.LVL113:
 952 04fe 2B70     		strb	r3, [r5, #0]
 953 0500 1148     		ldr	r0, .L235
 954 0502 FFF7FEFF 		bl	uart_transmit
 955              	.LVL114:
 956              	.LBE142:
 957              	.LBB143:
 958 0506 94F82410 		ldrb	r1, [r4, #36]	@ zero_extendqisi2
 959              	.LVL115:
 960 050a 3378     		ldrb	r3, [r6, #0]	@ zero_extendqisi2
 961 050c 2A78     		ldrb	r2, [r5, #0]	@ zero_extendqisi2
 962 050e CB18     		adds	r3, r1, r3
 963 0510 DBB2     		uxtb	r3, r3
 964              	.LVL116:
 965 0512 3370     		strb	r3, [r6, #0]
 966 0514 9B18     		adds	r3, r3, r2
 967              	.LVL117:
 968 0516 2B70     		strb	r3, [r5, #0]
 969 0518 0B48     		ldr	r0, .L235
 970 051a FFF7FEFF 		bl	uart_transmit
 971              	.LVL118:
 972              	.LBE143:
 973              	.LBB144:
 974 051e 0B4B     		ldr	r3, .L235+4
 975 0520 2A78     		ldrb	r2, [r5, #0]	@ zero_extendqisi2
 976 0522 1978     		ldrb	r1, [r3, #0]	@ zero_extendqisi2
 977              	.LVL119:
 978 0524 3378     		ldrb	r3, [r6, #0]	@ zero_extendqisi2
 979 0526 0848     		ldr	r0, .L235
 980 0528 CB18     		adds	r3, r1, r3
 981 052a DBB2     		uxtb	r3, r3
 982              	.LVL120:
 983 052c 3370     		strb	r3, [r6, #0]
 984 052e 9B18     		adds	r3, r3, r2
 985              	.LVL121:
 986 0530 2B70     		strb	r3, [r5, #0]
 987 0532 FFF7FEFF 		bl	uart_transmit
 988              	.LVL122:
 989              	.LBE144:
 990 0536 3178     		ldrb	r1, [r6, #0]	@ zero_extendqisi2
 991 0538 0348     		ldr	r0, .L235
 992 053a FFF7FEFF 		bl	uart_transmit
 993 053e 0248     		ldr	r0, .L235
 994 0540 2978     		ldrb	r1, [r5, #0]	@ zero_extendqisi2
 995 0542 FFF7FEFF 		bl	uart_transmit
 996 0546 07E0     		b	.L25
 997              	.L236:
 998              		.align	2
 999              	.L235:
 1000 0548 00000000 		.word	uart2
 1001 054c 00000000 		.word	.LANCHOR23
 1002              	.LVL123:
 1003              	.L24:
 1004              		.loc 1 422 0 discriminator 32
 1005 0550 674B     		ldr	r3, .L237
 1006 0552 1A78     		ldrb	r2, [r3, #0]	@ zero_extendqisi2
 1007 0554 0132     		adds	r2, r2, #1
 1008 0556 1A70     		strb	r2, [r3, #0]
 1009              	.L25:
 1010              		.loc 1 422 0 discriminator 1
 1011 0558 664A     		ldr	r2, .L237+4
 1012 055a 92F85B30 		ldrb	r3, [r2, #91]	@ zero_extendqisi2
 1013 055e 032B     		cmp	r3, #3
 1014 0560 654B     		ldr	r3, .L237+8
 1015 0562 06D0     		beq	.L26
 1016              		.loc 1 422 0 discriminator 2
 1017 0564 1878     		ldrb	r0, [r3, #0]	@ zero_extendqisi2
 1018 0566 92F86410 		ldrb	r1, [r2, #100]	@ zero_extendqisi2
 1019 056a 8842     		cmp	r0, r1
 1020 056c 01D3     		bcc	.L26
 1021              		.loc 1 422 0 discriminator 4
 1022 056e 0021     		movs	r1, #0
 1023 0570 1970     		strb	r1, [r3, #0]
 1024              	.L26:
 1025              		.loc 1 422 0 discriminator 3
 1026 0572 92F86420 		ldrb	r2, [r2, #100]	@ zero_extendqisi2
 1027 0576 1B78     		ldrb	r3, [r3, #0]	@ zero_extendqisi2
 1028 0578 B3EB420F 		cmp	r3, r2, lsl #1
 1029 057c 02DB     		blt	.L27
 1030              		.loc 1 422 0 discriminator 5
 1031 057e 5E4B     		ldr	r3, .L237+8
 1032 0580 0021     		movs	r1, #0
 1033 0582 1970     		strb	r1, [r3, #0]
 1034              	.L27:
 1035              		.loc 1 422 0 discriminator 6
 1036 0584 5C4E     		ldr	r6, .L237+8
 1037 0586 3378     		ldrb	r3, [r6, #0]	@ zero_extendqisi2
 1038 0588 9342     		cmp	r3, r2
 1039 058a 80F0C580 		bcs	.L28
 1040              		.loc 1 422 0 discriminator 7
 1041 058e 594F     		ldr	r7, .L237+4
 1042 0590 07EBC303 		add	r3, r7, r3, lsl #3
 1043 0594 93F86930 		ldrb	r3, [r3, #105]	@ zero_extendqisi2
 1044 0598 002B     		cmp	r3, #0
 1045 059a 00F0BD80 		beq	.L28
 1046              		.loc 1 422 0 discriminator 9
 1047 059e 5748     		ldr	r0, .L237+12
 1048 05a0 0E21     		movs	r1, #14
 1049 05a2 FFF7FEFF 		bl	uart_check_free_space
 1050 05a6 0028     		cmp	r0, #0
 1051 05a8 00F0B280 		beq	.L29
 1052              		.loc 1 422 0 discriminator 10
 1053 05ac 544B     		ldr	r3, .L237+16
 1054              	.LBB145:
 1055 05ae 9921     		movs	r1, #153
 1056              	.LBE145:
 1057 05b0 1A88     		ldrh	r2, [r3, #0]
 1058              	.LBB146:
 1059 05b2 5248     		ldr	r0, .L237+12
 1060              	.LBE146:
 1061 05b4 0E32     		adds	r2, r2, #14
 1062 05b6 1A80     		strh	r2, [r3, #0]	@ movhi
 1063 05b8 524B     		ldr	r3, .L237+20
 1064 05ba 534D     		ldr	r5, .L237+24
 1065 05bc 1A88     		ldrh	r2, [r3, #0]
 1066 05be 534C     		ldr	r4, .L237+28
 1067 05c0 0132     		adds	r2, r2, #1
 1068 05c2 1A80     		strh	r2, [r3, #0]	@ movhi
 1069              	.LBB147:
 1070 05c4 FFF7FEFF 		bl	uart_transmit
 1071              	.LVL124:
 1072 05c8 0E21     		movs	r1, #14
 1073 05ca 4C48     		ldr	r0, .L237+12
 1074 05cc FFF7FEFF 		bl	uart_transmit
 1075              	.LBE147:
 1076 05d0 0F23     		movs	r3, #15
 1077 05d2 2B70     		strb	r3, [r5, #0]
 1078 05d4 1D23     		movs	r3, #29
 1079 05d6 2370     		strb	r3, [r4, #0]
 1080 05d8 0121     		movs	r1, #1
 1081 05da 4848     		ldr	r0, .L237+12
 1082 05dc FFF7FEFF 		bl	uart_transmit
 1083 05e0 2B78     		ldrb	r3, [r5, #0]	@ zero_extendqisi2
 1084 05e2 2278     		ldrb	r2, [r4, #0]	@ zero_extendqisi2
 1085 05e4 1933     		adds	r3, r3, #25
 1086 05e6 DBB2     		uxtb	r3, r3
 1087 05e8 2B70     		strb	r3, [r5, #0]
 1088 05ea 9B18     		adds	r3, r3, r2
 1089 05ec 2370     		strb	r3, [r4, #0]
 1090 05ee 1921     		movs	r1, #25
 1091 05f0 4248     		ldr	r0, .L237+12
 1092 05f2 FFF7FEFF 		bl	uart_transmit
 1093              	.LBB148:
 1094 05f6 3178     		ldrb	r1, [r6, #0]	@ zero_extendqisi2
 1095              	.LVL125:
 1096 05f8 2B78     		ldrb	r3, [r5, #0]	@ zero_extendqisi2
 1097 05fa 2278     		ldrb	r2, [r4, #0]	@ zero_extendqisi2
 1098 05fc CB18     		adds	r3, r1, r3
 1099 05fe DBB2     		uxtb	r3, r3
 1100              	.LVL126:
 1101 0600 2B70     		strb	r3, [r5, #0]
 1102 0602 9B18     		adds	r3, r3, r2
 1103              	.LVL127:
 1104 0604 2370     		strb	r3, [r4, #0]
 1105 0606 3D48     		ldr	r0, .L237+12
 1106 0608 FFF7FEFF 		bl	uart_transmit
 1107              	.LVL128:
 1108              	.LBE148:
 1109              	.LBB149:
 1110 060c 3378     		ldrb	r3, [r6, #0]	@ zero_extendqisi2
 1111 060e 2278     		ldrb	r2, [r4, #0]	@ zero_extendqisi2
 1112 0610 07EBC303 		add	r3, r7, r3, lsl #3
 1113 0614 93F86610 		ldrb	r1, [r3, #102]	@ zero_extendqisi2
 1114              	.LVL129:
 1115 0618 2B78     		ldrb	r3, [r5, #0]	@ zero_extendqisi2
 1116 061a 3848     		ldr	r0, .L237+12
 1117 061c CB18     		adds	r3, r1, r3
 1118 061e DBB2     		uxtb	r3, r3
 1119              	.LVL130:
 1120 0620 2B70     		strb	r3, [r5, #0]
 1121 0622 9B18     		adds	r3, r3, r2
 1122              	.LVL131:
 1123 0624 2370     		strb	r3, [r4, #0]
 1124 0626 FFF7FEFF 		bl	uart_transmit
 1125              	.LVL132:
 1126              	.LBE149:
 1127              	.LBB150:
 1128 062a 3378     		ldrb	r3, [r6, #0]	@ zero_extendqisi2
 1129 062c 2278     		ldrb	r2, [r4, #0]	@ zero_extendqisi2
 1130 062e 07EBC303 		add	r3, r7, r3, lsl #3
 1131 0632 93F86710 		ldrb	r1, [r3, #103]	@ zero_extendqisi2
 1132              	.LVL133:
 1133 0636 2B78     		ldrb	r3, [r5, #0]	@ zero_extendqisi2
 1134 0638 3048     		ldr	r0, .L237+12
 1135 063a CB18     		adds	r3, r1, r3
 1136 063c DBB2     		uxtb	r3, r3
 1137              	.LVL134:
 1138 063e 2B70     		strb	r3, [r5, #0]
 1139 0640 9B18     		adds	r3, r3, r2
 1140              	.LVL135:
 1141 0642 2370     		strb	r3, [r4, #0]
 1142 0644 FFF7FEFF 		bl	uart_transmit
 1143              	.LVL136:
 1144              	.LBE150:
 1145              	.LBB151:
 1146 0648 3378     		ldrb	r3, [r6, #0]	@ zero_extendqisi2
 1147 064a 2278     		ldrb	r2, [r4, #0]	@ zero_extendqisi2
 1148 064c 07EBC303 		add	r3, r7, r3, lsl #3
 1149 0650 93F86810 		ldrb	r1, [r3, #104]	@ zero_extendqisi2
 1150              	.LVL137:
 1151 0654 2B78     		ldrb	r3, [r5, #0]	@ zero_extendqisi2
 1152 0656 2948     		ldr	r0, .L237+12
 1153 0658 CB18     		adds	r3, r1, r3
 1154 065a DBB2     		uxtb	r3, r3
 1155              	.LVL138:
 1156 065c 2B70     		strb	r3, [r5, #0]
 1157 065e 9B18     		adds	r3, r3, r2
 1158              	.LVL139:
 1159 0660 2370     		strb	r3, [r4, #0]
 1160 0662 FFF7FEFF 		bl	uart_transmit
 1161              	.LVL140:
 1162              	.LBE151:
 1163              	.LBB152:
 1164 0666 3378     		ldrb	r3, [r6, #0]	@ zero_extendqisi2
 1165 0668 2278     		ldrb	r2, [r4, #0]	@ zero_extendqisi2
 1166 066a 07EBC303 		add	r3, r7, r3, lsl #3
 1167 066e 93F86910 		ldrb	r1, [r3, #105]	@ zero_extendqisi2
 1168              	.LVL141:
 1169 0672 2B78     		ldrb	r3, [r5, #0]	@ zero_extendqisi2
 1170 0674 2148     		ldr	r0, .L237+12
 1171 0676 CB18     		adds	r3, r1, r3
 1172 0678 DBB2     		uxtb	r3, r3
 1173              	.LVL142:
 1174 067a 2B70     		strb	r3, [r5, #0]
 1175 067c 9B18     		adds	r3, r3, r2
 1176              	.LVL143:
 1177 067e 2370     		strb	r3, [r4, #0]
 1178 0680 FFF7FEFF 		bl	uart_transmit
 1179              	.LVL144:
 1180              	.LBE152:
 1181              	.LBB153:
 1182 0684 3378     		ldrb	r3, [r6, #0]	@ zero_extendqisi2
 1183 0686 2278     		ldrb	r2, [r4, #0]	@ zero_extendqisi2
 1184 0688 07EBC303 		add	r3, r7, r3, lsl #3
 1185 068c 93F86A10 		ldrb	r1, [r3, #106]	@ zero_extendqisi2
 1186              	.LVL145:
 1187 0690 2B78     		ldrb	r3, [r5, #0]	@ zero_extendqisi2
 1188 0692 1A48     		ldr	r0, .L237+12
 1189 0694 CB18     		adds	r3, r1, r3
 1190 0696 DBB2     		uxtb	r3, r3
 1191              	.LVL146:
 1192 0698 2B70     		strb	r3, [r5, #0]
 1193 069a 9B18     		adds	r3, r3, r2
 1194              	.LVL147:
 1195 069c 2370     		strb	r3, [r4, #0]
 1196 069e FFF7FEFF 		bl	uart_transmit
 1197              	.LVL148:
 1198              	.LBE153:
 1199              	.LBB154:
 1200 06a2 3378     		ldrb	r3, [r6, #0]	@ zero_extendqisi2
 1201 06a4 0C37     		adds	r7, r7, #12
 1202 06a6 0C33     		adds	r3, r3, #12
 1203 06a8 17F83310 		ldrb	r1, [r7, r3, lsl #3]	@ zero_extendqisi2
 1204              	.LVL149:
 1205 06ac 2B78     		ldrb	r3, [r5, #0]	@ zero_extendqisi2
 1206 06ae 2278     		ldrb	r2, [r4, #0]	@ zero_extendqisi2
 1207 06b0 CB18     		adds	r3, r1, r3
 1208 06b2 DBB2     		uxtb	r3, r3
 1209              	.LVL150:
 1210 06b4 2B70     		strb	r3, [r5, #0]
 1211 06b6 9B18     		adds	r3, r3, r2
 1212              	.LVL151:
 1213 06b8 2370     		strb	r3, [r4, #0]
 1214 06ba 1048     		ldr	r0, .L237+12
 1215 06bc FFF7FEFF 		bl	uart_transmit
 1216              	.LVL152:
 1217              	.LBE154:
 1218              	.LBB155:
 1219 06c0 3378     		ldrb	r3, [r6, #0]	@ zero_extendqisi2
 1220 06c2 2278     		ldrb	r2, [r4, #0]	@ zero_extendqisi2
 1221 06c4 07EBC307 		add	r7, r7, r3, lsl #3
 1222 06c8 97F86110 		ldrb	r1, [r7, #97]	@ zero_extendqisi2
 1223              	.LVL153:
 1224 06cc 2B78     		ldrb	r3, [r5, #0]	@ zero_extendqisi2
 1225 06ce 0B48     		ldr	r0, .L237+12
 1226 06d0 CB18     		adds	r3, r1, r3
 1227 06d2 DBB2     		uxtb	r3, r3
 1228              	.LVL154:
 1229 06d4 2B70     		strb	r3, [r5, #0]
 1230 06d6 9B18     		adds	r3, r3, r2
 1231              	.LVL155:
 1232 06d8 2370     		strb	r3, [r4, #0]
 1233 06da FFF7FEFF 		bl	uart_transmit
 1234              	.LVL156:
 1235              	.LBE155:
 1236 06de 2978     		ldrb	r1, [r5, #0]	@ zero_extendqisi2
 1237 06e0 0648     		ldr	r0, .L237+12
 1238 06e2 FFF7FEFF 		bl	uart_transmit
 1239 06e6 0548     		ldr	r0, .L237+12
 1240 06e8 2178     		ldrb	r1, [r4, #0]	@ zero_extendqisi2
 1241 06ea FFF7FEFF 		bl	uart_transmit
 1242 06ee 13E0     		b	.L28
 1243              	.L238:
 1244              		.align	2
 1245              	.L237:
 1246 06f0 00000000 		.word	downlink_nb_ovrn
 1247 06f4 00000000 		.word	gps
 1248 06f8 00000000 		.word	.LANCHOR23
 1249 06fc 00000000 		.word	uart2
 1250 0700 00000000 		.word	downlink_nb_bytes
 1251 0704 00000000 		.word	downlink_nb_msgs
 1252 0708 00000000 		.word	ck_a
 1253 070c 00000000 		.word	ck_b
 1254              	.LVL157:
 1255              	.L29:
 1256              		.loc 1 422 0 discriminator 11
 1257 0710 934B     		ldr	r3, .L239
 1258 0712 1A78     		ldrb	r2, [r3, #0]	@ zero_extendqisi2
 1259 0714 0132     		adds	r2, r2, #1
 1260 0716 1A70     		strb	r2, [r3, #0]
 1261              	.L28:
 1262              		.loc 1 422 0 discriminator 8
 1263 0718 924B     		ldr	r3, .L239+4
 1264 071a 1A78     		ldrb	r2, [r3, #0]	@ zero_extendqisi2
 1265 071c 0132     		adds	r2, r2, #1
 1266 071e 1A70     		strb	r2, [r3, #0]
 1267              	.L23:
 1268              	.LBE114:
 1269              		.loc 1 422 0 discriminator 30
 1270 0720 914B     		ldr	r3, .L239+8
 1271 0722 1E78     		ldrb	r6, [r3, #0]	@ zero_extendqisi2
 1272 0724 062E     		cmp	r6, #6
 1273 0726 40F08880 		bne	.L30
 1274              		.loc 1 422 0 discriminator 12
 1275 072a 9048     		ldr	r0, .L239+12
 1276 072c 1221     		movs	r1, #18
 1277 072e FFF7FEFF 		bl	uart_check_free_space
 1278 0732 0028     		cmp	r0, #0
 1279 0734 00F04282 		beq	.L36
 1280              		.loc 1 422 0 discriminator 14
 1281 0738 8D4B     		ldr	r3, .L239+16
 1282              	.LBB156:
 1283 073a 8C48     		ldr	r0, .L239+12
 1284              	.LBE156:
 1285 073c 1A88     		ldrh	r2, [r3, #0]
 1286              	.LBB157:
 1287 073e 9921     		movs	r1, #153
 1288              	.LBE157:
 1289 0740 1232     		adds	r2, r2, #18
 1290 0742 1A80     		strh	r2, [r3, #0]	@ movhi
 1291 0744 8B4B     		ldr	r3, .L239+20
 1292 0746 8C4D     		ldr	r5, .L239+24
 1293 0748 1A88     		ldrh	r2, [r3, #0]
 1294 074a 8C4C     		ldr	r4, .L239+28
 1295 074c 0132     		adds	r2, r2, #1
 1296 074e 1A80     		strh	r2, [r3, #0]	@ movhi
 1297              	.LBB158:
 1298 0750 FFF7FEFF 		bl	uart_transmit
 1299              	.LVL158:
 1300 0754 8548     		ldr	r0, .L239+12
 1301 0756 1221     		movs	r1, #18
 1302 0758 FFF7FEFF 		bl	uart_transmit
 1303              	.LBE158:
 1304 075c 1323     		movs	r3, #19
 1305 075e 2B70     		strb	r3, [r5, #0]
 1306 0760 2523     		movs	r3, #37
 1307 0762 2370     		strb	r3, [r4, #0]
 1308 0764 8148     		ldr	r0, .L239+12
 1309 0766 0121     		movs	r1, #1
 1310 0768 FFF7FEFF 		bl	uart_transmit
 1311 076c 2B78     		ldrb	r3, [r5, #0]	@ zero_extendqisi2
 1312 076e 2278     		ldrb	r2, [r4, #0]	@ zero_extendqisi2
 1313 0770 0633     		adds	r3, r3, #6
 1314 0772 DBB2     		uxtb	r3, r3
 1315 0774 3146     		mov	r1, r6
 1316 0776 2B70     		strb	r3, [r5, #0]
 1317              	.LBB159:
 1318 0778 814E     		ldr	r6, .L239+32
 1319              	.LBE159:
 1320 077a 9B18     		adds	r3, r3, r2
 1321 077c 2370     		strb	r3, [r4, #0]
 1322 077e 7B48     		ldr	r0, .L239+12
 1323 0780 FFF7FEFF 		bl	uart_transmit
 1324              	.LBB160:
 1325 0784 3178     		ldrb	r1, [r6, #0]	@ zero_extendqisi2
 1326              	.LVL159:
 1327 0786 2B78     		ldrb	r3, [r5, #0]	@ zero_extendqisi2
 1328 0788 2278     		ldrb	r2, [r4, #0]	@ zero_extendqisi2
 1329 078a CB18     		adds	r3, r1, r3
 1330 078c DBB2     		uxtb	r3, r3
 1331              	.LVL160:
 1332 078e 2B70     		strb	r3, [r5, #0]
 1333 0790 9B18     		adds	r3, r3, r2
 1334              	.LVL161:
 1335 0792 2370     		strb	r3, [r4, #0]
 1336 0794 7548     		ldr	r0, .L239+12
 1337 0796 FFF7FEFF 		bl	uart_transmit
 1338              	.LVL162:
 1339              	.LBE160:
 1340              	.LBB161:
 1341 079a 7178     		ldrb	r1, [r6, #1]	@ zero_extendqisi2
 1342              	.LVL163:
 1343 079c 2B78     		ldrb	r3, [r5, #0]	@ zero_extendqisi2
 1344 079e 2278     		ldrb	r2, [r4, #0]	@ zero_extendqisi2
 1345 07a0 CB18     		adds	r3, r1, r3
 1346 07a2 DBB2     		uxtb	r3, r3
 1347              	.LVL164:
 1348 07a4 2B70     		strb	r3, [r5, #0]
 1349 07a6 9B18     		adds	r3, r3, r2
 1350              	.LVL165:
 1351 07a8 2370     		strb	r3, [r4, #0]
 1352 07aa 7048     		ldr	r0, .L239+12
 1353 07ac FFF7FEFF 		bl	uart_transmit
 1354              	.LVL166:
 1355              	.LBE161:
 1356              	.LBB162:
 1357 07b0 B178     		ldrb	r1, [r6, #2]	@ zero_extendqisi2
 1358              	.LVL167:
 1359 07b2 2B78     		ldrb	r3, [r5, #0]	@ zero_extendqisi2
 1360 07b4 2278     		ldrb	r2, [r4, #0]	@ zero_extendqisi2
 1361 07b6 CB18     		adds	r3, r1, r3
 1362 07b8 DBB2     		uxtb	r3, r3
 1363              	.LVL168:
 1364 07ba 2B70     		strb	r3, [r5, #0]
 1365 07bc 9B18     		adds	r3, r3, r2
 1366              	.LVL169:
 1367 07be 2370     		strb	r3, [r4, #0]
 1368 07c0 6A48     		ldr	r0, .L239+12
 1369 07c2 FFF7FEFF 		bl	uart_transmit
 1370              	.LVL170:
 1371              	.LBE162:
 1372              	.LBB163:
 1373 07c6 F178     		ldrb	r1, [r6, #3]	@ zero_extendqisi2
 1374              	.LVL171:
 1375 07c8 2B78     		ldrb	r3, [r5, #0]	@ zero_extendqisi2
 1376 07ca 2278     		ldrb	r2, [r4, #0]	@ zero_extendqisi2
 1377 07cc CB18     		adds	r3, r1, r3
 1378 07ce DBB2     		uxtb	r3, r3
 1379              	.LBE163:
 1380              	.LBB164:
 1381 07d0 6C4E     		ldr	r6, .L239+36
 1382              	.LVL172:
 1383              	.LBE164:
 1384              	.LBB165:
 1385 07d2 2B70     		strb	r3, [r5, #0]
 1386 07d4 9B18     		adds	r3, r3, r2
 1387              	.LVL173:
 1388 07d6 2370     		strb	r3, [r4, #0]
 1389 07d8 6448     		ldr	r0, .L239+12
 1390 07da FFF7FEFF 		bl	uart_transmit
 1391              	.LVL174:
 1392              	.LBE165:
 1393              	.LBB166:
 1394 07de 3178     		ldrb	r1, [r6, #0]	@ zero_extendqisi2
 1395              	.LVL175:
 1396 07e0 2B78     		ldrb	r3, [r5, #0]	@ zero_extendqisi2
 1397 07e2 2278     		ldrb	r2, [r4, #0]	@ zero_extendqisi2
 1398 07e4 CB18     		adds	r3, r1, r3
 1399 07e6 DBB2     		uxtb	r3, r3
 1400              	.LVL176:
 1401 07e8 2B70     		strb	r3, [r5, #0]
 1402 07ea 9B18     		adds	r3, r3, r2
 1403              	.LVL177:
 1404 07ec 2370     		strb	r3, [r4, #0]
 1405 07ee 5F48     		ldr	r0, .L239+12
 1406 07f0 FFF7FEFF 		bl	uart_transmit
 1407              	.LVL178:
 1408              	.LBE166:
 1409              	.LBB167:
 1410 07f4 7178     		ldrb	r1, [r6, #1]	@ zero_extendqisi2
 1411              	.LVL179:
 1412 07f6 2B78     		ldrb	r3, [r5, #0]	@ zero_extendqisi2
 1413 07f8 2278     		ldrb	r2, [r4, #0]	@ zero_extendqisi2
 1414 07fa CB18     		adds	r3, r1, r3
 1415 07fc DBB2     		uxtb	r3, r3
 1416              	.LVL180:
 1417 07fe 2B70     		strb	r3, [r5, #0]
 1418 0800 9B18     		adds	r3, r3, r2
 1419              	.LVL181:
 1420 0802 2370     		strb	r3, [r4, #0]
 1421 0804 5948     		ldr	r0, .L239+12
 1422 0806 FFF7FEFF 		bl	uart_transmit
 1423              	.LVL182:
 1424              	.LBE167:
 1425              	.LBB168:
 1426 080a B178     		ldrb	r1, [r6, #2]	@ zero_extendqisi2
 1427              	.LVL183:
 1428 080c 2B78     		ldrb	r3, [r5, #0]	@ zero_extendqisi2
 1429 080e 2278     		ldrb	r2, [r4, #0]	@ zero_extendqisi2
 1430 0810 CB18     		adds	r3, r1, r3
 1431 0812 DBB2     		uxtb	r3, r3
 1432              	.LVL184:
 1433 0814 2B70     		strb	r3, [r5, #0]
 1434 0816 9B18     		adds	r3, r3, r2
 1435              	.LVL185:
 1436 0818 2370     		strb	r3, [r4, #0]
 1437 081a 5448     		ldr	r0, .L239+12
 1438 081c FFF7FEFF 		bl	uart_transmit
 1439              	.LVL186:
 1440              	.LBE168:
 1441              	.LBB169:
 1442 0820 F178     		ldrb	r1, [r6, #3]	@ zero_extendqisi2
 1443              	.LVL187:
 1444 0822 2B78     		ldrb	r3, [r5, #0]	@ zero_extendqisi2
 1445 0824 2278     		ldrb	r2, [r4, #0]	@ zero_extendqisi2
 1446 0826 CB18     		adds	r3, r1, r3
 1447 0828 DBB2     		uxtb	r3, r3
 1448              	.LVL188:
 1449 082a 2B70     		strb	r3, [r5, #0]
 1450 082c 9B18     		adds	r3, r3, r2
 1451              	.LVL189:
 1452 082e 2370     		strb	r3, [r4, #0]
 1453 0830 4E48     		ldr	r0, .L239+12
 1454 0832 FFF7FEFF 		bl	uart_transmit
 1455              	.LVL190:
 1456              	.LBE169:
 1457              	.LBB170:
 1458 0836 544E     		ldr	r6, .L239+40
 1459 0838 5CE0     		b	.L211
 1460              	.LVL191:
 1461              	.L30:
 1462              	.LBE170:
 1463              		.loc 1 422 0 discriminator 13
 1464 083a 0C2E     		cmp	r6, #12
 1465 083c 40F0AA80 		bne	.L33
 1466              		.loc 1 422 0 discriminator 16
 1467 0840 4A48     		ldr	r0, .L239+12
 1468 0842 0E21     		movs	r1, #14
 1469 0844 FFF7FEFF 		bl	uart_check_free_space
 1470 0848 0028     		cmp	r0, #0
 1471 084a 00F0B781 		beq	.L36
 1472              		.loc 1 422 0 discriminator 18
 1473 084e 484B     		ldr	r3, .L239+16
 1474              	.LBB171:
 1475 0850 4648     		ldr	r0, .L239+12
 1476              	.LBE171:
 1477 0852 1A88     		ldrh	r2, [r3, #0]
 1478              	.LBB172:
 1479 0854 9921     		movs	r1, #153
 1480              	.LBE172:
 1481 0856 0E32     		adds	r2, r2, #14
 1482 0858 1A80     		strh	r2, [r3, #0]	@ movhi
 1483 085a 464B     		ldr	r3, .L239+20
 1484 085c 464D     		ldr	r5, .L239+24
 1485 085e 1A88     		ldrh	r2, [r3, #0]
 1486 0860 464C     		ldr	r4, .L239+28
 1487 0862 0132     		adds	r2, r2, #1
 1488 0864 1A80     		strh	r2, [r3, #0]	@ movhi
 1489              	.LBB173:
 1490 0866 FFF7FEFF 		bl	uart_transmit
 1491              	.LVL192:
 1492 086a 4048     		ldr	r0, .L239+12
 1493 086c 0E21     		movs	r1, #14
 1494 086e FFF7FEFF 		bl	uart_transmit
 1495              	.LBE173:
 1496 0872 0F23     		movs	r3, #15
 1497 0874 2B70     		strb	r3, [r5, #0]
 1498 0876 1D23     		movs	r3, #29
 1499 0878 2370     		strb	r3, [r4, #0]
 1500 087a 3C48     		ldr	r0, .L239+12
 1501 087c 0121     		movs	r1, #1
 1502 087e FFF7FEFF 		bl	uart_transmit
 1503 0882 2B78     		ldrb	r3, [r5, #0]	@ zero_extendqisi2
 1504 0884 2278     		ldrb	r2, [r4, #0]	@ zero_extendqisi2
 1505 0886 2A33     		adds	r3, r3, #42
 1506 0888 DBB2     		uxtb	r3, r3
 1507              	.LBB174:
 1508 088a 404E     		ldr	r6, .L239+44
 1509              	.LBE174:
 1510 088c 2B70     		strb	r3, [r5, #0]
 1511 088e 9B18     		adds	r3, r3, r2
 1512 0890 2370     		strb	r3, [r4, #0]
 1513 0892 3648     		ldr	r0, .L239+12
 1514 0894 2A21     		movs	r1, #42
 1515 0896 FFF7FEFF 		bl	uart_transmit
 1516              	.LBB175:
 1517 089a 3178     		ldrb	r1, [r6, #0]	@ zero_extendqisi2
 1518              	.LVL193:
 1519 089c 2B78     		ldrb	r3, [r5, #0]	@ zero_extendqisi2
 1520 089e 2278     		ldrb	r2, [r4, #0]	@ zero_extendqisi2
 1521 08a0 CB18     		adds	r3, r1, r3
 1522 08a2 DBB2     		uxtb	r3, r3
 1523              	.LVL194:
 1524 08a4 2B70     		strb	r3, [r5, #0]
 1525 08a6 9B18     		adds	r3, r3, r2
 1526              	.LVL195:
 1527 08a8 2370     		strb	r3, [r4, #0]
 1528 08aa 3048     		ldr	r0, .L239+12
 1529 08ac FFF7FEFF 		bl	uart_transmit
 1530              	.LVL196:
 1531              	.LBE175:
 1532              	.LBB176:
 1533 08b0 7178     		ldrb	r1, [r6, #1]	@ zero_extendqisi2
 1534              	.LVL197:
 1535 08b2 2B78     		ldrb	r3, [r5, #0]	@ zero_extendqisi2
 1536 08b4 2278     		ldrb	r2, [r4, #0]	@ zero_extendqisi2
 1537 08b6 CB18     		adds	r3, r1, r3
 1538 08b8 DBB2     		uxtb	r3, r3
 1539              	.LVL198:
 1540 08ba 2B70     		strb	r3, [r5, #0]
 1541 08bc 9B18     		adds	r3, r3, r2
 1542              	.LVL199:
 1543 08be 2370     		strb	r3, [r4, #0]
 1544 08c0 2A48     		ldr	r0, .L239+12
 1545 08c2 FFF7FEFF 		bl	uart_transmit
 1546              	.LVL200:
 1547              	.LBE176:
 1548              	.LBB177:
 1549 08c6 B178     		ldrb	r1, [r6, #2]	@ zero_extendqisi2
 1550              	.LVL201:
 1551 08c8 2B78     		ldrb	r3, [r5, #0]	@ zero_extendqisi2
 1552 08ca 2278     		ldrb	r2, [r4, #0]	@ zero_extendqisi2
 1553 08cc CB18     		adds	r3, r1, r3
 1554 08ce DBB2     		uxtb	r3, r3
 1555              	.LVL202:
 1556 08d0 2B70     		strb	r3, [r5, #0]
 1557 08d2 9B18     		adds	r3, r3, r2
 1558              	.LVL203:
 1559 08d4 2370     		strb	r3, [r4, #0]
 1560 08d6 2548     		ldr	r0, .L239+12
 1561 08d8 FFF7FEFF 		bl	uart_transmit
 1562              	.LVL204:
 1563              	.LBE177:
 1564              	.LBB178:
 1565 08dc F178     		ldrb	r1, [r6, #3]	@ zero_extendqisi2
 1566              	.LVL205:
 1567 08de 2B78     		ldrb	r3, [r5, #0]	@ zero_extendqisi2
 1568 08e0 2278     		ldrb	r2, [r4, #0]	@ zero_extendqisi2
 1569 08e2 CB18     		adds	r3, r1, r3
 1570 08e4 DBB2     		uxtb	r3, r3
 1571              	.LVL206:
 1572 08e6 2B70     		strb	r3, [r5, #0]
 1573 08e8 9B18     		adds	r3, r3, r2
 1574              	.LVL207:
 1575 08ea 2370     		strb	r3, [r4, #0]
 1576 08ec 1F48     		ldr	r0, .L239+12
 1577 08ee FFF7FEFF 		bl	uart_transmit
 1578              	.LVL208:
 1579              	.LBE178:
 1580              	.LBB179:
 1581 08f2 274E     		ldr	r6, .L239+48
 1582              	.LVL209:
 1583              	.L211:
 1584 08f4 3178     		ldrb	r1, [r6, #0]	@ zero_extendqisi2
 1585              	.LVL210:
 1586 08f6 2B78     		ldrb	r3, [r5, #0]	@ zero_extendqisi2
 1587 08f8 2278     		ldrb	r2, [r4, #0]	@ zero_extendqisi2
 1588 08fa CB18     		adds	r3, r1, r3
 1589 08fc DBB2     		uxtb	r3, r3
 1590              	.LVL211:
 1591 08fe 2B70     		strb	r3, [r5, #0]
 1592 0900 9B18     		adds	r3, r3, r2
 1593              	.LVL212:
 1594 0902 2370     		strb	r3, [r4, #0]
 1595 0904 1948     		ldr	r0, .L239+12
 1596 0906 FFF7FEFF 		bl	uart_transmit
 1597              	.LVL213:
 1598              	.LBE179:
 1599              	.LBB180:
 1600 090a 7178     		ldrb	r1, [r6, #1]	@ zero_extendqisi2
 1601              	.LVL214:
 1602 090c 2B78     		ldrb	r3, [r5, #0]	@ zero_extendqisi2
 1603 090e 2278     		ldrb	r2, [r4, #0]	@ zero_extendqisi2
 1604 0910 CB18     		adds	r3, r1, r3
 1605 0912 DBB2     		uxtb	r3, r3
 1606              	.LVL215:
 1607 0914 2B70     		strb	r3, [r5, #0]
 1608 0916 9B18     		adds	r3, r3, r2
 1609              	.LVL216:
 1610 0918 2370     		strb	r3, [r4, #0]
 1611 091a 1448     		ldr	r0, .L239+12
 1612 091c FFF7FEFF 		bl	uart_transmit
 1613              	.LVL217:
 1614              	.LBE180:
 1615              	.LBB181:
 1616 0920 B178     		ldrb	r1, [r6, #2]	@ zero_extendqisi2
 1617              	.LVL218:
 1618 0922 2B78     		ldrb	r3, [r5, #0]	@ zero_extendqisi2
 1619 0924 2278     		ldrb	r2, [r4, #0]	@ zero_extendqisi2
 1620 0926 CB18     		adds	r3, r1, r3
 1621 0928 DBB2     		uxtb	r3, r3
 1622              	.LVL219:
 1623 092a 2B70     		strb	r3, [r5, #0]
 1624 092c 9B18     		adds	r3, r3, r2
 1625              	.LVL220:
 1626 092e 2370     		strb	r3, [r4, #0]
 1627 0930 0E48     		ldr	r0, .L239+12
 1628 0932 FFF7FEFF 		bl	uart_transmit
 1629              	.LVL221:
 1630              	.LBE181:
 1631              	.LBB182:
 1632 0936 F178     		ldrb	r1, [r6, #3]	@ zero_extendqisi2
 1633              	.LVL222:
 1634              	.L212:
 1635 0938 2B78     		ldrb	r3, [r5, #0]	@ zero_extendqisi2
 1636 093a 2278     		ldrb	r2, [r4, #0]	@ zero_extendqisi2
 1637 093c CB18     		adds	r3, r1, r3
 1638 093e DBB2     		uxtb	r3, r3
 1639              	.LVL223:
 1640 0940 2B70     		strb	r3, [r5, #0]
 1641 0942 9B18     		adds	r3, r3, r2
 1642              	.LVL224:
 1643 0944 2370     		strb	r3, [r4, #0]
 1644 0946 0948     		ldr	r0, .L239+12
 1645 0948 FFF7FEFF 		bl	uart_transmit
 1646              	.LVL225:
 1647              	.LBE182:
 1648 094c 2978     		ldrb	r1, [r5, #0]	@ zero_extendqisi2
 1649 094e 0748     		ldr	r0, .L239+12
 1650 0950 FFF7FEFF 		bl	uart_transmit
 1651 0954 0548     		ldr	r0, .L239+12
 1652 0956 2178     		ldrb	r1, [r4, #0]	@ zero_extendqisi2
 1653 0958 FFF7FEFF 		bl	uart_transmit
 1654 095c 32E1     		b	.L32
 1655              	.L240:
 1656 095e 00BF     		.align	2
 1657              	.L239:
 1658 0960 00000000 		.word	downlink_nb_ovrn
 1659 0964 00000000 		.word	.LANCHOR23
 1660 0968 00000000 		.word	.LANCHOR11
 1661 096c 00000000 		.word	uart2
 1662 0970 00000000 		.word	downlink_nb_bytes
 1663 0974 00000000 		.word	downlink_nb_msgs
 1664 0978 00000000 		.word	ck_a
 1665 097c 00000000 		.word	ck_b
 1666 0980 00000000 		.word	estimator_phi
 1667 0984 00000000 		.word	estimator_psi
 1668 0988 00000000 		.word	estimator_theta
 1669 098c 00000000 		.word	estimator_z
 1670 0990 00000000 		.word	estimator_z_dot
 1671              	.LVL226:
 1672              	.L33:
 1673              		.loc 1 422 0 discriminator 17
 1674 0994 122E     		cmp	r6, #18
 1675 0996 40F01581 		bne	.L32
 1676              	.LBB183:
 1677              		.loc 1 422 0 discriminator 20
 1678 099a 7D4B     		ldr	r3, .L241
 1679 099c 7D49     		ldr	r1, .L241+4
 1680 099e 1A78     		ldrb	r2, [r3, #0]	@ zero_extendqisi2
 1681 09a0 0978     		ldrb	r1, [r1, #0]	@ zero_extendqisi2
 1682 09a2 0132     		adds	r2, r2, #1
 1683 09a4 D2B2     		uxtb	r2, r2
 1684 09a6 9142     		cmp	r1, r2
 1685 09a8 1A70     		strb	r2, [r3, #0]
 1686 09aa 01D8     		bhi	.L35
 1687              		.loc 1 422 0 discriminator 22
 1688 09ac 0022     		movs	r2, #0
 1689 09ae 1A70     		strb	r2, [r3, #0]
 1690              	.L35:
 1691              	.LBB184:
 1692              		.loc 1 422 0 discriminator 23
 1693 09b0 1C78     		ldrb	r4, [r3, #0]	@ zero_extendqisi2
 1694 09b2 794B     		ldr	r3, .L241+8
 1695 09b4 0C27     		movs	r7, #12
 1696 09b6 1868     		ldr	r0, [r3, #0]
 1697 09b8 FFF7FEFF 		bl	__aeabi_i2f
 1698 09bc 07FB04F3 		mul	r3, r7, r4
 1699 09c0 764E     		ldr	r6, .L241+12
 1700 09c2 DFF8CC81 		ldr	r8, .L241
 1701 09c6 F158     		ldr	r1, [r6, r3]	@ float
 1702 09c8 F418     		adds	r4, r6, r3
 1703 09ca FFF7FEFF 		bl	__aeabi_fadd
 1704 09ce 744B     		ldr	r3, .L241+16
 1705 09d0 0490     		str	r0, [sp, #16]	@ float
 1706              	.LVL227:
 1707 09d2 1868     		ldr	r0, [r3, #0]
 1708 09d4 FFF7FEFF 		bl	__aeabi_i2f
 1709 09d8 6168     		ldr	r1, [r4, #4]	@ float
 1710 09da FFF7FEFF 		bl	__aeabi_fadd
 1711 09de 1421     		movs	r1, #20
 1712 09e0 0590     		str	r0, [sp, #20]	@ float
 1713              	.LVL228:
 1714 09e2 7048     		ldr	r0, .L241+20
 1715 09e4 FFF7FEFF 		bl	uart_check_free_space
 1716 09e8 0028     		cmp	r0, #0
 1717 09ea 00F0E780 		beq	.L36
 1718              		.loc 1 422 0 discriminator 24
 1719 09ee 6E4B     		ldr	r3, .L241+24
 1720              	.LBB185:
 1721 09f0 6C48     		ldr	r0, .L241+20
 1722              	.LBE185:
 1723 09f2 1A88     		ldrh	r2, [r3, #0]
 1724              	.LBB186:
 1725 09f4 9921     		movs	r1, #153
 1726              	.LBE186:
 1727 09f6 1432     		adds	r2, r2, #20
 1728 09f8 1A80     		strh	r2, [r3, #0]	@ movhi
 1729 09fa 6C4B     		ldr	r3, .L241+28
 1730 09fc 6C4D     		ldr	r5, .L241+32
 1731 09fe 1A88     		ldrh	r2, [r3, #0]
 1732 0a00 6C4C     		ldr	r4, .L241+36
 1733 0a02 0132     		adds	r2, r2, #1
 1734 0a04 1A80     		strh	r2, [r3, #0]	@ movhi
 1735              	.LBB187:
 1736 0a06 FFF7FEFF 		bl	uart_transmit
 1737              	.LVL229:
 1738 0a0a 6648     		ldr	r0, .L241+20
 1739 0a0c 1421     		movs	r1, #20
 1740 0a0e FFF7FEFF 		bl	uart_transmit
 1741              	.LBE187:
 1742 0a12 1523     		movs	r3, #21
 1743 0a14 2B70     		strb	r3, [r5, #0]
 1744 0a16 2923     		movs	r3, #41
 1745 0a18 2370     		strb	r3, [r4, #0]
 1746 0a1a 6248     		ldr	r0, .L241+20
 1747 0a1c 0121     		movs	r1, #1
 1748 0a1e FFF7FEFF 		bl	uart_transmit
 1749 0a22 2B78     		ldrb	r3, [r5, #0]	@ zero_extendqisi2
 1750 0a24 2278     		ldrb	r2, [r4, #0]	@ zero_extendqisi2
 1751 0a26 2333     		adds	r3, r3, #35
 1752 0a28 DBB2     		uxtb	r3, r3
 1753 0a2a 2B70     		strb	r3, [r5, #0]
 1754 0a2c 9B18     		adds	r3, r3, r2
 1755 0a2e 2370     		strb	r3, [r4, #0]
 1756 0a30 5C48     		ldr	r0, .L241+20
 1757 0a32 2321     		movs	r1, #35
 1758 0a34 FFF7FEFF 		bl	uart_transmit
 1759              	.LBB188:
 1760 0a38 98F80010 		ldrb	r1, [r8, #0]	@ zero_extendqisi2
 1761              	.LVL230:
 1762 0a3c 2B78     		ldrb	r3, [r5, #0]	@ zero_extendqisi2
 1763 0a3e 2278     		ldrb	r2, [r4, #0]	@ zero_extendqisi2
 1764 0a40 CB18     		adds	r3, r1, r3
 1765 0a42 DBB2     		uxtb	r3, r3
 1766              	.LVL231:
 1767 0a44 2B70     		strb	r3, [r5, #0]
 1768 0a46 9B18     		adds	r3, r3, r2
 1769              	.LVL232:
 1770 0a48 2370     		strb	r3, [r4, #0]
 1771 0a4a 5648     		ldr	r0, .L241+20
 1772 0a4c FFF7FEFF 		bl	uart_transmit
 1773              	.LVL233:
 1774              	.LBE188:
 1775              	.LBB189:
 1776 0a50 9DF81010 		ldrb	r1, [sp, #16]	@ zero_extendqisi2
 1777              	.LVL234:
 1778 0a54 2B78     		ldrb	r3, [r5, #0]	@ zero_extendqisi2
 1779 0a56 2278     		ldrb	r2, [r4, #0]	@ zero_extendqisi2
 1780 0a58 CB18     		adds	r3, r1, r3
 1781 0a5a DBB2     		uxtb	r3, r3
 1782              	.LVL235:
 1783 0a5c 2B70     		strb	r3, [r5, #0]
 1784 0a5e 9B18     		adds	r3, r3, r2
 1785              	.LVL236:
 1786 0a60 2370     		strb	r3, [r4, #0]
 1787 0a62 5048     		ldr	r0, .L241+20
 1788 0a64 FFF7FEFF 		bl	uart_transmit
 1789              	.LVL237:
 1790              	.LBE189:
 1791              	.LBB190:
 1792 0a68 9DF81110 		ldrb	r1, [sp, #17]	@ zero_extendqisi2
 1793              	.LVL238:
 1794 0a6c 2B78     		ldrb	r3, [r5, #0]	@ zero_extendqisi2
 1795 0a6e 2278     		ldrb	r2, [r4, #0]	@ zero_extendqisi2
 1796 0a70 CB18     		adds	r3, r1, r3
 1797 0a72 DBB2     		uxtb	r3, r3
 1798              	.LVL239:
 1799 0a74 2B70     		strb	r3, [r5, #0]
 1800 0a76 9B18     		adds	r3, r3, r2
 1801              	.LVL240:
 1802 0a78 2370     		strb	r3, [r4, #0]
 1803 0a7a 4A48     		ldr	r0, .L241+20
 1804 0a7c FFF7FEFF 		bl	uart_transmit
 1805              	.LVL241:
 1806              	.LBE190:
 1807              	.LBB191:
 1808 0a80 9DF81210 		ldrb	r1, [sp, #18]	@ zero_extendqisi2
 1809              	.LVL242:
 1810 0a84 2B78     		ldrb	r3, [r5, #0]	@ zero_extendqisi2
 1811 0a86 2278     		ldrb	r2, [r4, #0]	@ zero_extendqisi2
 1812 0a88 CB18     		adds	r3, r1, r3
 1813 0a8a DBB2     		uxtb	r3, r3
 1814              	.LVL243:
 1815 0a8c 2B70     		strb	r3, [r5, #0]
 1816 0a8e 9B18     		adds	r3, r3, r2
 1817              	.LVL244:
 1818 0a90 2370     		strb	r3, [r4, #0]
 1819 0a92 4448     		ldr	r0, .L241+20
 1820 0a94 FFF7FEFF 		bl	uart_transmit
 1821              	.LVL245:
 1822              	.LBE191:
 1823              	.LBB192:
 1824 0a98 9DF81310 		ldrb	r1, [sp, #19]	@ zero_extendqisi2
 1825              	.LVL246:
 1826 0a9c 2B78     		ldrb	r3, [r5, #0]	@ zero_extendqisi2
 1827 0a9e 2278     		ldrb	r2, [r4, #0]	@ zero_extendqisi2
 1828 0aa0 CB18     		adds	r3, r1, r3
 1829 0aa2 DBB2     		uxtb	r3, r3
 1830              	.LVL247:
 1831 0aa4 2B70     		strb	r3, [r5, #0]
 1832 0aa6 9B18     		adds	r3, r3, r2
 1833              	.LVL248:
 1834 0aa8 2370     		strb	r3, [r4, #0]
 1835 0aaa 3E48     		ldr	r0, .L241+20
 1836 0aac FFF7FEFF 		bl	uart_transmit
 1837              	.LVL249:
 1838              	.LBE192:
 1839              	.LBB193:
 1840 0ab0 9DF81410 		ldrb	r1, [sp, #20]	@ zero_extendqisi2
 1841              	.LVL250:
 1842 0ab4 2B78     		ldrb	r3, [r5, #0]	@ zero_extendqisi2
 1843 0ab6 2278     		ldrb	r2, [r4, #0]	@ zero_extendqisi2
 1844 0ab8 CB18     		adds	r3, r1, r3
 1845 0aba DBB2     		uxtb	r3, r3
 1846              	.LVL251:
 1847 0abc 2B70     		strb	r3, [r5, #0]
 1848 0abe 9B18     		adds	r3, r3, r2
 1849              	.LVL252:
 1850 0ac0 2370     		strb	r3, [r4, #0]
 1851 0ac2 3848     		ldr	r0, .L241+20
 1852 0ac4 FFF7FEFF 		bl	uart_transmit
 1853              	.LVL253:
 1854              	.LBE193:
 1855              	.LBB194:
 1856 0ac8 9DF81510 		ldrb	r1, [sp, #21]	@ zero_extendqisi2
 1857              	.LVL254:
 1858 0acc 2B78     		ldrb	r3, [r5, #0]	@ zero_extendqisi2
 1859 0ace 2278     		ldrb	r2, [r4, #0]	@ zero_extendqisi2
 1860 0ad0 CB18     		adds	r3, r1, r3
 1861 0ad2 DBB2     		uxtb	r3, r3
 1862              	.LVL255:
 1863 0ad4 2B70     		strb	r3, [r5, #0]
 1864 0ad6 9B18     		adds	r3, r3, r2
 1865              	.LVL256:
 1866 0ad8 2370     		strb	r3, [r4, #0]
 1867 0ada 3248     		ldr	r0, .L241+20
 1868 0adc FFF7FEFF 		bl	uart_transmit
 1869              	.LVL257:
 1870              	.LBE194:
 1871              	.LBB195:
 1872 0ae0 9DF81610 		ldrb	r1, [sp, #22]	@ zero_extendqisi2
 1873              	.LVL258:
 1874 0ae4 2B78     		ldrb	r3, [r5, #0]	@ zero_extendqisi2
 1875 0ae6 2278     		ldrb	r2, [r4, #0]	@ zero_extendqisi2
 1876 0ae8 CB18     		adds	r3, r1, r3
 1877 0aea DBB2     		uxtb	r3, r3
 1878              	.LVL259:
 1879 0aec 2B70     		strb	r3, [r5, #0]
 1880 0aee 9B18     		adds	r3, r3, r2
 1881              	.LVL260:
 1882 0af0 2370     		strb	r3, [r4, #0]
 1883 0af2 2C48     		ldr	r0, .L241+20
 1884 0af4 FFF7FEFF 		bl	uart_transmit
 1885              	.LVL261:
 1886              	.LBE195:
 1887              	.LBB196:
 1888 0af8 9DF81710 		ldrb	r1, [sp, #23]	@ zero_extendqisi2
 1889              	.LVL262:
 1890 0afc 2B78     		ldrb	r3, [r5, #0]	@ zero_extendqisi2
 1891 0afe 2278     		ldrb	r2, [r4, #0]	@ zero_extendqisi2
 1892 0b00 CB18     		adds	r3, r1, r3
 1893 0b02 DBB2     		uxtb	r3, r3
 1894              	.LVL263:
 1895 0b04 2B70     		strb	r3, [r5, #0]
 1896 0b06 9B18     		adds	r3, r3, r2
 1897              	.LVL264:
 1898 0b08 2370     		strb	r3, [r4, #0]
 1899 0b0a 2648     		ldr	r0, .L241+20
 1900 0b0c FFF7FEFF 		bl	uart_transmit
 1901              	.LVL265:
 1902              	.LBE196:
 1903              	.LBB197:
 1904 0b10 98F80030 		ldrb	r3, [r8, #0]	@ zero_extendqisi2
 1905 0b14 2278     		ldrb	r2, [r4, #0]	@ zero_extendqisi2
 1906 0b16 07FB0363 		mla	r3, r7, r3, r6
 1907 0b1a 197A     		ldrb	r1, [r3, #8]	@ zero_extendqisi2
 1908              	.LVL266:
 1909 0b1c 2B78     		ldrb	r3, [r5, #0]	@ zero_extendqisi2
 1910 0b1e 2148     		ldr	r0, .L241+20
 1911 0b20 CB18     		adds	r3, r1, r3
 1912 0b22 DBB2     		uxtb	r3, r3
 1913              	.LVL267:
 1914 0b24 2B70     		strb	r3, [r5, #0]
 1915 0b26 9B18     		adds	r3, r3, r2
 1916              	.LVL268:
 1917 0b28 2370     		strb	r3, [r4, #0]
 1918 0b2a FFF7FEFF 		bl	uart_transmit
 1919              	.LVL269:
 1920              	.LBE197:
 1921              	.LBB198:
 1922 0b2e 98F80030 		ldrb	r3, [r8, #0]	@ zero_extendqisi2
 1923 0b32 2278     		ldrb	r2, [r4, #0]	@ zero_extendqisi2
 1924 0b34 07FB0363 		mla	r3, r7, r3, r6
 1925 0b38 597A     		ldrb	r1, [r3, #9]	@ zero_extendqisi2
 1926              	.LVL270:
 1927 0b3a 2B78     		ldrb	r3, [r5, #0]	@ zero_extendqisi2
 1928 0b3c 1948     		ldr	r0, .L241+20
 1929 0b3e CB18     		adds	r3, r1, r3
 1930 0b40 DBB2     		uxtb	r3, r3
 1931              	.LVL271:
 1932 0b42 2B70     		strb	r3, [r5, #0]
 1933 0b44 9B18     		adds	r3, r3, r2
 1934              	.LVL272:
 1935 0b46 2370     		strb	r3, [r4, #0]
 1936 0b48 FFF7FEFF 		bl	uart_transmit
 1937              	.LVL273:
 1938              	.LBE198:
 1939              	.LBB199:
 1940 0b4c 98F80030 		ldrb	r3, [r8, #0]	@ zero_extendqisi2
 1941 0b50 2278     		ldrb	r2, [r4, #0]	@ zero_extendqisi2
 1942 0b52 07FB0363 		mla	r3, r7, r3, r6
 1943 0b56 997A     		ldrb	r1, [r3, #10]	@ zero_extendqisi2
 1944              	.LVL274:
 1945 0b58 2B78     		ldrb	r3, [r5, #0]	@ zero_extendqisi2
 1946 0b5a 1248     		ldr	r0, .L241+20
 1947 0b5c CB18     		adds	r3, r1, r3
 1948 0b5e DBB2     		uxtb	r3, r3
 1949              	.LVL275:
 1950 0b60 2B70     		strb	r3, [r5, #0]
 1951 0b62 9B18     		adds	r3, r3, r2
 1952              	.LVL276:
 1953 0b64 2370     		strb	r3, [r4, #0]
 1954 0b66 FFF7FEFF 		bl	uart_transmit
 1955              	.LVL277:
 1956              	.LBE199:
 1957              	.LBB200:
 1958 0b6a 98F80030 		ldrb	r3, [r8, #0]	@ zero_extendqisi2
 1959 0b6e 2278     		ldrb	r2, [r4, #0]	@ zero_extendqisi2
 1960 0b70 07FB0366 		mla	r6, r7, r3, r6
 1961 0b74 2B78     		ldrb	r3, [r5, #0]	@ zero_extendqisi2
 1962 0b76 F17A     		ldrb	r1, [r6, #11]	@ zero_extendqisi2
 1963              	.LVL278:
 1964 0b78 0A48     		ldr	r0, .L241+20
 1965 0b7a CB18     		adds	r3, r1, r3
 1966 0b7c DBB2     		uxtb	r3, r3
 1967              	.LVL279:
 1968 0b7e 2B70     		strb	r3, [r5, #0]
 1969 0b80 9B18     		adds	r3, r3, r2
 1970              	.LVL280:
 1971 0b82 2370     		strb	r3, [r4, #0]
 1972 0b84 FFF7FEFF 		bl	uart_transmit
 1973              	.LVL281:
 1974              	.LBE200:
 1975              	.LBB201:
 1976 0b88 0B4B     		ldr	r3, .L241+40
 1977 0b8a 1978     		ldrb	r1, [r3, #0]	@ zero_extendqisi2
 1978              	.LVL282:
 1979 0b8c D4E6     		b	.L212
 1980              	.L242:
 1981 0b8e 00BF     		.align	2
 1982              	.L241:
 1983 0b90 00000000 		.word	.LANCHOR24
 1984 0b94 00000000 		.word	nb_waypoint
 1985 0b98 00000000 		.word	nav_utm_east0
 1986 0b9c 00000000 		.word	waypoints
 1987 0ba0 00000000 		.word	nav_utm_north0
 1988 0ba4 00000000 		.word	uart2
 1989 0ba8 00000000 		.word	downlink_nb_bytes
 1990 0bac 00000000 		.word	downlink_nb_msgs
 1991 0bb0 00000000 		.word	ck_a
 1992 0bb4 00000000 		.word	ck_b
 1993 0bb8 00000000 		.word	nav_utm_zone0
 1994              	.LVL283:
 1995              	.L36:
 1996              	.LBE201:
 1997              		.loc 1 422 0 discriminator 25
 1998 0bbc 9A4B     		ldr	r3, .L243+8
 1999 0bbe 1A78     		ldrb	r2, [r3, #0]	@ zero_extendqisi2
 2000 0bc0 0132     		adds	r2, r2, #1
 2001 0bc2 1A70     		strb	r2, [r3, #0]
 2002              	.L32:
 2003              	.LBE184:
 2004              	.LBE183:
 2005              		.loc 1 422 0 discriminator 21
 2006 0bc4 994B     		ldr	r3, .L243+12
 2007 0bc6 1B78     		ldrb	r3, [r3, #0]	@ zero_extendqisi2
 2008 0bc8 182B     		cmp	r3, #24
 2009 0bca 00F04F81 		beq	.L37
 2010              		.loc 1 422 0 discriminator 26
 2011 0bce 1E2B     		cmp	r3, #30
 2012 0bd0 40F04C81 		bne	.L37
 2013              	.LBB202:
 2014              		.loc 1 422 0 discriminator 27
 2015 0bd4 964B     		ldr	r3, .L243+16
 2016 0bd6 9748     		ldr	r0, .L243+20
 2017 0bd8 1A21     		movs	r1, #26
 2018 0bda 1C68     		ldr	r4, [r3, #0]	@ float
 2019              	.LVL284:
 2020 0bdc FFF7FEFF 		bl	uart_check_free_space
 2021              	.LVL285:
 2022 0be0 0028     		cmp	r0, #0
 2023 0be2 00F03F81 		beq	.L38
 2024              		.loc 1 422 0 discriminator 29
 2025 0be6 24F00040 		bic	r0, r4, #-2147483648
 2026 0bea FFF7FEFF 		bl	__aeabi_f2d
 2027 0bee 8CA3     		adr	r3, .L243
 2028 0bf0 D3E90023 		ldrd	r2, [r3]
 2029 0bf4 FFF7FEFF 		bl	__aeabi_ddiv
 2030 0bf8 FFF7FEFF 		bl	__aeabi_d2uiz
 2031 0bfc 8E4B     		ldr	r3, .L243+24
 2032 0bfe C7B2     		uxtb	r7, r0
 2033 0c00 1A88     		ldrh	r2, [r3, #0]
 2034              	.LBB203:
 2035 0c02 9921     		movs	r1, #153
 2036              	.LBE203:
 2037 0c04 1A32     		adds	r2, r2, #26
 2038 0c06 1A80     		strh	r2, [r3, #0]	@ movhi
 2039 0c08 8C4B     		ldr	r3, .L243+28
 2040              	.LBB204:
 2041 0c0a 8A48     		ldr	r0, .L243+20
 2042              	.LBE204:
 2043 0c0c 1A88     		ldrh	r2, [r3, #0]
 2044 0c0e 8C4D     		ldr	r5, .L243+32
 2045 0c10 0132     		adds	r2, r2, #1
 2046 0c12 1A80     		strh	r2, [r3, #0]	@ movhi
 2047              	.LBB205:
 2048 0c14 FFF7FEFF 		bl	uart_transmit
 2049              	.LVL286:
 2050 0c18 1A21     		movs	r1, #26
 2051 0c1a 8648     		ldr	r0, .L243+20
 2052              	.LBE205:
 2053 0c1c 894C     		ldr	r4, .L243+36
 2054              	.LVL287:
 2055              	.LBB206:
 2056 0c1e FFF7FEFF 		bl	uart_transmit
 2057              	.LBE206:
 2058 0c22 1B23     		movs	r3, #27
 2059 0c24 2B70     		strb	r3, [r5, #0]
 2060 0c26 3523     		movs	r3, #53
 2061 0c28 2370     		strb	r3, [r4, #0]
 2062 0c2a 0121     		movs	r1, #1
 2063 0c2c 8148     		ldr	r0, .L243+20
 2064 0c2e FFF7FEFF 		bl	uart_transmit
 2065 0c32 2B78     		ldrb	r3, [r5, #0]	@ zero_extendqisi2
 2066 0c34 2278     		ldrb	r2, [r4, #0]	@ zero_extendqisi2
 2067 0c36 0A33     		adds	r3, r3, #10
 2068 0c38 DBB2     		uxtb	r3, r3
 2069 0c3a 2B70     		strb	r3, [r5, #0]
 2070 0c3c 9B18     		adds	r3, r3, r2
 2071 0c3e 2370     		strb	r3, [r4, #0]
 2072 0c40 0A21     		movs	r1, #10
 2073 0c42 7C48     		ldr	r0, .L243+20
 2074 0c44 FFF7FEFF 		bl	uart_transmit
 2075              	.LBB207:
 2076 0c48 7F4B     		ldr	r3, .L243+40
 2077 0c4a 2278     		ldrb	r2, [r4, #0]	@ zero_extendqisi2
 2078 0c4c 1978     		ldrb	r1, [r3, #0]	@ zero_extendqisi2
 2079              	.LVL288:
 2080 0c4e 2B78     		ldrb	r3, [r5, #0]	@ zero_extendqisi2
 2081 0c50 7848     		ldr	r0, .L243+20
 2082 0c52 CB18     		adds	r3, r1, r3
 2083 0c54 DBB2     		uxtb	r3, r3
 2084              	.LVL289:
 2085 0c56 2B70     		strb	r3, [r5, #0]
 2086 0c58 9B18     		adds	r3, r3, r2
 2087              	.LVL290:
 2088 0c5a 2370     		strb	r3, [r4, #0]
 2089 0c5c FFF7FEFF 		bl	uart_transmit
 2090              	.LVL291:
 2091              	.LBE207:
 2092              	.LBB208:
 2093 0c60 7A4B     		ldr	r3, .L243+44
 2094 0c62 2278     		ldrb	r2, [r4, #0]	@ zero_extendqisi2
 2095 0c64 1978     		ldrb	r1, [r3, #0]	@ zero_extendqisi2
 2096              	.LVL292:
 2097 0c66 2B78     		ldrb	r3, [r5, #0]	@ zero_extendqisi2
 2098              	.LBE208:
 2099              	.LBB209:
 2100 0c68 794E     		ldr	r6, .L243+48
 2101              	.LBE209:
 2102              	.LBB210:
 2103 0c6a CB18     		adds	r3, r1, r3
 2104 0c6c DBB2     		uxtb	r3, r3
 2105              	.LVL293:
 2106 0c6e 2B70     		strb	r3, [r5, #0]
 2107 0c70 9B18     		adds	r3, r3, r2
 2108              	.LVL294:
 2109 0c72 2370     		strb	r3, [r4, #0]
 2110 0c74 6F48     		ldr	r0, .L243+20
 2111 0c76 FFF7FEFF 		bl	uart_transmit
 2112              	.LVL295:
 2113              	.LBE210:
 2114              	.LBB211:
 2115 0c7a 3178     		ldrb	r1, [r6, #0]	@ zero_extendqisi2
 2116              	.LVL296:
 2117 0c7c 2B78     		ldrb	r3, [r5, #0]	@ zero_extendqisi2
 2118 0c7e 2278     		ldrb	r2, [r4, #0]	@ zero_extendqisi2
 2119 0c80 CB18     		adds	r3, r1, r3
 2120 0c82 DBB2     		uxtb	r3, r3
 2121              	.LVL297:
 2122 0c84 2B70     		strb	r3, [r5, #0]
 2123 0c86 9B18     		adds	r3, r3, r2
 2124              	.LVL298:
 2125 0c88 2370     		strb	r3, [r4, #0]
 2126 0c8a 6A48     		ldr	r0, .L243+20
 2127 0c8c FFF7FEFF 		bl	uart_transmit
 2128              	.LVL299:
 2129              	.LBE211:
 2130              	.LBB212:
 2131 0c90 7178     		ldrb	r1, [r6, #1]	@ zero_extendqisi2
 2132              	.LVL300:
 2133 0c92 2B78     		ldrb	r3, [r5, #0]	@ zero_extendqisi2
 2134 0c94 2278     		ldrb	r2, [r4, #0]	@ zero_extendqisi2
 2135 0c96 CB18     		adds	r3, r1, r3
 2136 0c98 DBB2     		uxtb	r3, r3
 2137              	.LVL301:
 2138 0c9a 2B70     		strb	r3, [r5, #0]
 2139 0c9c 9B18     		adds	r3, r3, r2
 2140              	.LVL302:
 2141 0c9e 2370     		strb	r3, [r4, #0]
 2142 0ca0 6448     		ldr	r0, .L243+20
 2143 0ca2 FFF7FEFF 		bl	uart_transmit
 2144              	.LVL303:
 2145              	.LBE212:
 2146              	.LBB213:
 2147 0ca6 B178     		ldrb	r1, [r6, #2]	@ zero_extendqisi2
 2148              	.LVL304:
 2149 0ca8 2B78     		ldrb	r3, [r5, #0]	@ zero_extendqisi2
 2150 0caa 2278     		ldrb	r2, [r4, #0]	@ zero_extendqisi2
 2151 0cac CB18     		adds	r3, r1, r3
 2152 0cae DBB2     		uxtb	r3, r3
 2153              	.LVL305:
 2154 0cb0 2B70     		strb	r3, [r5, #0]
 2155 0cb2 9B18     		adds	r3, r3, r2
 2156              	.LVL306:
 2157 0cb4 2370     		strb	r3, [r4, #0]
 2158 0cb6 5F48     		ldr	r0, .L243+20
 2159 0cb8 FFF7FEFF 		bl	uart_transmit
 2160              	.LVL307:
 2161              	.LBE213:
 2162              	.LBB214:
 2163 0cbc F178     		ldrb	r1, [r6, #3]	@ zero_extendqisi2
 2164              	.LVL308:
 2165 0cbe 2B78     		ldrb	r3, [r5, #0]	@ zero_extendqisi2
 2166 0cc0 2278     		ldrb	r2, [r4, #0]	@ zero_extendqisi2
 2167 0cc2 CB18     		adds	r3, r1, r3
 2168 0cc4 DBB2     		uxtb	r3, r3
 2169              	.LBE214:
 2170              	.LBB215:
 2171 0cc6 634E     		ldr	r6, .L243+52
 2172              	.LVL309:
 2173              	.LBE215:
 2174              	.LBB216:
 2175 0cc8 2B70     		strb	r3, [r5, #0]
 2176 0cca 9B18     		adds	r3, r3, r2
 2177              	.LVL310:
 2178 0ccc 2370     		strb	r3, [r4, #0]
 2179 0cce 5948     		ldr	r0, .L243+20
 2180 0cd0 FFF7FEFF 		bl	uart_transmit
 2181              	.LVL311:
 2182              	.LBE216:
 2183              	.LBB217:
 2184 0cd4 3178     		ldrb	r1, [r6, #0]	@ zero_extendqisi2
 2185              	.LVL312:
 2186 0cd6 2B78     		ldrb	r3, [r5, #0]	@ zero_extendqisi2
 2187 0cd8 2278     		ldrb	r2, [r4, #0]	@ zero_extendqisi2
 2188 0cda CB18     		adds	r3, r1, r3
 2189 0cdc DBB2     		uxtb	r3, r3
 2190              	.LVL313:
 2191 0cde 2B70     		strb	r3, [r5, #0]
 2192 0ce0 9B18     		adds	r3, r3, r2
 2193              	.LVL314:
 2194 0ce2 2370     		strb	r3, [r4, #0]
 2195 0ce4 5348     		ldr	r0, .L243+20
 2196 0ce6 FFF7FEFF 		bl	uart_transmit
 2197              	.LVL315:
 2198              	.LBE217:
 2199              	.LBB218:
 2200 0cea 7178     		ldrb	r1, [r6, #1]	@ zero_extendqisi2
 2201              	.LVL316:
 2202 0cec 2B78     		ldrb	r3, [r5, #0]	@ zero_extendqisi2
 2203 0cee 2278     		ldrb	r2, [r4, #0]	@ zero_extendqisi2
 2204 0cf0 CB18     		adds	r3, r1, r3
 2205 0cf2 DBB2     		uxtb	r3, r3
 2206              	.LVL317:
 2207 0cf4 2B70     		strb	r3, [r5, #0]
 2208 0cf6 9B18     		adds	r3, r3, r2
 2209              	.LVL318:
 2210 0cf8 2370     		strb	r3, [r4, #0]
 2211 0cfa 4E48     		ldr	r0, .L243+20
 2212 0cfc FFF7FEFF 		bl	uart_transmit
 2213              	.LVL319:
 2214              	.LBE218:
 2215              	.LBB219:
 2216 0d00 B178     		ldrb	r1, [r6, #2]	@ zero_extendqisi2
 2217              	.LVL320:
 2218 0d02 2B78     		ldrb	r3, [r5, #0]	@ zero_extendqisi2
 2219 0d04 2278     		ldrb	r2, [r4, #0]	@ zero_extendqisi2
 2220 0d06 CB18     		adds	r3, r1, r3
 2221 0d08 DBB2     		uxtb	r3, r3
 2222              	.LVL321:
 2223 0d0a 2B70     		strb	r3, [r5, #0]
 2224 0d0c 9B18     		adds	r3, r3, r2
 2225              	.LVL322:
 2226 0d0e 2370     		strb	r3, [r4, #0]
 2227 0d10 4848     		ldr	r0, .L243+20
 2228 0d12 FFF7FEFF 		bl	uart_transmit
 2229              	.LVL323:
 2230              	.LBE219:
 2231              	.LBB220:
 2232 0d16 F178     		ldrb	r1, [r6, #3]	@ zero_extendqisi2
 2233              	.LVL324:
 2234 0d18 2B78     		ldrb	r3, [r5, #0]	@ zero_extendqisi2
 2235 0d1a 2278     		ldrb	r2, [r4, #0]	@ zero_extendqisi2
 2236 0d1c CB18     		adds	r3, r1, r3
 2237 0d1e DBB2     		uxtb	r3, r3
 2238              	.LBE220:
 2239              	.LBB221:
 2240 0d20 4D4E     		ldr	r6, .L243+56
 2241              	.LVL325:
 2242              	.LBE221:
 2243              	.LBB222:
 2244 0d22 2B70     		strb	r3, [r5, #0]
 2245 0d24 9B18     		adds	r3, r3, r2
 2246              	.LVL326:
 2247 0d26 2370     		strb	r3, [r4, #0]
 2248 0d28 4248     		ldr	r0, .L243+20
 2249 0d2a FFF7FEFF 		bl	uart_transmit
 2250              	.LVL327:
 2251              	.LBE222:
 2252              	.LBB223:
 2253 0d2e 3178     		ldrb	r1, [r6, #0]	@ zero_extendqisi2
 2254              	.LVL328:
 2255 0d30 2B78     		ldrb	r3, [r5, #0]	@ zero_extendqisi2
 2256 0d32 2278     		ldrb	r2, [r4, #0]	@ zero_extendqisi2
 2257 0d34 CB18     		adds	r3, r1, r3
 2258 0d36 DBB2     		uxtb	r3, r3
 2259              	.LVL329:
 2260 0d38 2B70     		strb	r3, [r5, #0]
 2261 0d3a 9B18     		adds	r3, r3, r2
 2262              	.LVL330:
 2263 0d3c 2370     		strb	r3, [r4, #0]
 2264 0d3e 3D48     		ldr	r0, .L243+20
 2265 0d40 FFF7FEFF 		bl	uart_transmit
 2266              	.LVL331:
 2267              	.LBE223:
 2268              	.LBB224:
 2269 0d44 7178     		ldrb	r1, [r6, #1]	@ zero_extendqisi2
 2270              	.LVL332:
 2271 0d46 2B78     		ldrb	r3, [r5, #0]	@ zero_extendqisi2
 2272 0d48 2278     		ldrb	r2, [r4, #0]	@ zero_extendqisi2
 2273 0d4a CB18     		adds	r3, r1, r3
 2274 0d4c DBB2     		uxtb	r3, r3
 2275              	.LVL333:
 2276 0d4e 2B70     		strb	r3, [r5, #0]
 2277 0d50 9B18     		adds	r3, r3, r2
 2278              	.LVL334:
 2279 0d52 2370     		strb	r3, [r4, #0]
 2280 0d54 3748     		ldr	r0, .L243+20
 2281 0d56 FFF7FEFF 		bl	uart_transmit
 2282              	.LVL335:
 2283              	.LBE224:
 2284              	.LBB225:
 2285 0d5a B178     		ldrb	r1, [r6, #2]	@ zero_extendqisi2
 2286              	.LVL336:
 2287 0d5c 2B78     		ldrb	r3, [r5, #0]	@ zero_extendqisi2
 2288 0d5e 2278     		ldrb	r2, [r4, #0]	@ zero_extendqisi2
 2289 0d60 CB18     		adds	r3, r1, r3
 2290 0d62 DBB2     		uxtb	r3, r3
 2291              	.LVL337:
 2292 0d64 2B70     		strb	r3, [r5, #0]
 2293 0d66 9B18     		adds	r3, r3, r2
 2294              	.LVL338:
 2295 0d68 2370     		strb	r3, [r4, #0]
 2296 0d6a 3248     		ldr	r0, .L243+20
 2297 0d6c FFF7FEFF 		bl	uart_transmit
 2298              	.LVL339:
 2299              	.LBE225:
 2300              	.LBB226:
 2301 0d70 F178     		ldrb	r1, [r6, #3]	@ zero_extendqisi2
 2302              	.LVL340:
 2303 0d72 2B78     		ldrb	r3, [r5, #0]	@ zero_extendqisi2
 2304 0d74 2278     		ldrb	r2, [r4, #0]	@ zero_extendqisi2
 2305 0d76 CB18     		adds	r3, r1, r3
 2306 0d78 DBB2     		uxtb	r3, r3
 2307              	.LBE226:
 2308              	.LBB227:
 2309 0d7a 384E     		ldr	r6, .L243+60
 2310              	.LVL341:
 2311              	.LBE227:
 2312              	.LBB228:
 2313 0d7c 2B70     		strb	r3, [r5, #0]
 2314 0d7e 9B18     		adds	r3, r3, r2
 2315              	.LVL342:
 2316 0d80 2370     		strb	r3, [r4, #0]
 2317 0d82 2C48     		ldr	r0, .L243+20
 2318 0d84 FFF7FEFF 		bl	uart_transmit
 2319              	.LVL343:
 2320              	.LBE228:
 2321              	.LBB229:
 2322 0d88 3178     		ldrb	r1, [r6, #0]	@ zero_extendqisi2
 2323              	.LVL344:
 2324 0d8a 2B78     		ldrb	r3, [r5, #0]	@ zero_extendqisi2
 2325 0d8c 2278     		ldrb	r2, [r4, #0]	@ zero_extendqisi2
 2326 0d8e CB18     		adds	r3, r1, r3
 2327 0d90 DBB2     		uxtb	r3, r3
 2328              	.LVL345:
 2329 0d92 2B70     		strb	r3, [r5, #0]
 2330 0d94 9B18     		adds	r3, r3, r2
 2331              	.LVL346:
 2332 0d96 2370     		strb	r3, [r4, #0]
 2333 0d98 2648     		ldr	r0, .L243+20
 2334 0d9a FFF7FEFF 		bl	uart_transmit
 2335              	.LVL347:
 2336              	.LBE229:
 2337              	.LBB230:
 2338 0d9e 7178     		ldrb	r1, [r6, #1]	@ zero_extendqisi2
 2339              	.LVL348:
 2340 0da0 2B78     		ldrb	r3, [r5, #0]	@ zero_extendqisi2
 2341 0da2 2278     		ldrb	r2, [r4, #0]	@ zero_extendqisi2
 2342 0da4 CB18     		adds	r3, r1, r3
 2343 0da6 DBB2     		uxtb	r3, r3
 2344              	.LVL349:
 2345 0da8 2B70     		strb	r3, [r5, #0]
 2346 0daa 9B18     		adds	r3, r3, r2
 2347              	.LVL350:
 2348 0dac 2370     		strb	r3, [r4, #0]
 2349 0dae 2148     		ldr	r0, .L243+20
 2350 0db0 FFF7FEFF 		bl	uart_transmit
 2351              	.LVL351:
 2352              	.LBE230:
 2353              	.LBB231:
 2354 0db4 B178     		ldrb	r1, [r6, #2]	@ zero_extendqisi2
 2355              	.LVL352:
 2356 0db6 2B78     		ldrb	r3, [r5, #0]	@ zero_extendqisi2
 2357 0db8 2278     		ldrb	r2, [r4, #0]	@ zero_extendqisi2
 2358 0dba CB18     		adds	r3, r1, r3
 2359 0dbc DBB2     		uxtb	r3, r3
 2360              	.LVL353:
 2361 0dbe 2B70     		strb	r3, [r5, #0]
 2362 0dc0 9B18     		adds	r3, r3, r2
 2363              	.LVL354:
 2364 0dc2 2370     		strb	r3, [r4, #0]
 2365 0dc4 1B48     		ldr	r0, .L243+20
 2366 0dc6 FFF7FEFF 		bl	uart_transmit
 2367              	.LVL355:
 2368              	.LBE231:
 2369              	.LBB232:
 2370 0dca F178     		ldrb	r1, [r6, #3]	@ zero_extendqisi2
 2371              	.LVL356:
 2372 0dcc 2B78     		ldrb	r3, [r5, #0]	@ zero_extendqisi2
 2373 0dce 2278     		ldrb	r2, [r4, #0]	@ zero_extendqisi2
 2374 0dd0 CB18     		adds	r3, r1, r3
 2375 0dd2 DBB2     		uxtb	r3, r3
 2376              	.LVL357:
 2377 0dd4 2B70     		strb	r3, [r5, #0]
 2378 0dd6 9B18     		adds	r3, r3, r2
 2379              	.LVL358:
 2380 0dd8 2370     		strb	r3, [r4, #0]
 2381 0dda 1648     		ldr	r0, .L243+20
 2382 0ddc FFF7FEFF 		bl	uart_transmit
 2383              	.LVL359:
 2384              	.LBE232:
 2385              	.LBB233:
 2386 0de0 2B78     		ldrb	r3, [r5, #0]	@ zero_extendqisi2
 2387 0de2 2278     		ldrb	r2, [r4, #0]	@ zero_extendqisi2
 2388 0de4 FB18     		adds	r3, r7, r3
 2389 0de6 DBB2     		uxtb	r3, r3
 2390              	.LVL360:
 2391 0de8 2B70     		strb	r3, [r5, #0]
 2392 0dea 9B18     		adds	r3, r3, r2
 2393              	.LVL361:
 2394 0dec 2370     		strb	r3, [r4, #0]
 2395 0dee 3946     		mov	r1, r7
 2396 0df0 1048     		ldr	r0, .L243+20
 2397 0df2 FFF7FEFF 		bl	uart_transmit
 2398              	.LBE233:
 2399              	.LBB234:
 2400 0df6 1A4B     		ldr	r3, .L243+64
 2401 0df8 2278     		ldrb	r2, [r4, #0]	@ zero_extendqisi2
 2402 0dfa 1978     		ldrb	r1, [r3, #0]	@ zero_extendqisi2
 2403              	.LVL362:
 2404 0dfc 2B78     		ldrb	r3, [r5, #0]	@ zero_extendqisi2
 2405 0dfe 0D48     		ldr	r0, .L243+20
 2406 0e00 CB18     		adds	r3, r1, r3
 2407 0e02 DBB2     		uxtb	r3, r3
 2408              	.LVL363:
 2409 0e04 2B70     		strb	r3, [r5, #0]
 2410 0e06 9B18     		adds	r3, r3, r2
 2411              	.LVL364:
 2412 0e08 2370     		strb	r3, [r4, #0]
 2413 0e0a FFF7FEFF 		bl	uart_transmit
 2414              	.LVL365:
 2415              	.LBE234:
 2416 0e0e 2978     		ldrb	r1, [r5, #0]	@ zero_extendqisi2
 2417 0e10 0848     		ldr	r0, .L243+20
 2418 0e12 FFF7FEFF 		bl	uart_transmit
 2419 0e16 0748     		ldr	r0, .L243+20
 2420 0e18 2178     		ldrb	r1, [r4, #0]	@ zero_extendqisi2
 2421 0e1a FFF7FEFF 		bl	uart_transmit
 2422 0e1e 25E0     		b	.L37
 2423              	.L244:
 2424              		.align	3
 2425              	.L243:
 2426 0e20 182D4454 		.word	1413754136
 2427 0e24 FB211940 		.word	1075388923
 2428 0e28 00000000 		.word	downlink_nb_ovrn
 2429 0e2c 00000000 		.word	.LANCHOR12
 2430 0e30 00000000 		.word	nav_circle_radians
 2431 0e34 00000000 		.word	uart2
 2432 0e38 00000000 		.word	downlink_nb_bytes
 2433 0e3c 00000000 		.word	downlink_nb_msgs
 2434 0e40 00000000 		.word	ck_a
 2435 0e44 00000000 		.word	ck_b
 2436 0e48 00000000 		.word	nav_block
 2437 0e4c 00000000 		.word	nav_stage
 2438 0e50 00000000 		.word	estimator_x
 2439 0e54 00000000 		.word	estimator_y
 2440 0e58 00000000 		.word	dist2_to_wp
 2441 0e5c 00000000 		.word	dist2_to_home
 2442 0e60 00000000 		.word	nav_oval_count
 2443              	.LVL366:
 2444              	.L38:
 2445              		.loc 1 422 0 discriminator 30
 2446 0e64 4A4B     		ldr	r3, .L245
 2447 0e66 1A78     		ldrb	r2, [r3, #0]	@ zero_extendqisi2
 2448 0e68 0132     		adds	r2, r2, #1
 2449 0e6a 1A70     		strb	r2, [r3, #0]
 2450              	.LVL367:
 2451              	.L37:
 2452              	.LBE202:
 2453              		.loc 1 422 0 discriminator 32
 2454 0e6c 494B     		ldr	r3, .L245+4
 2455 0e6e 1B78     		ldrb	r3, [r3, #0]	@ zero_extendqisi2
 2456 0e70 302B     		cmp	r3, #48
 2457 0e72 40F0A380 		bne	.L39
 2458              		.loc 1 422 0 discriminator 33
 2459 0e76 484B     		ldr	r3, .L245+8
 2460 0e78 1B78     		ldrb	r3, [r3, #0]	@ zero_extendqisi2
 2461 0e7a 002B     		cmp	r3, #0
 2462 0e7c 00F02D82 		beq	.L40
 2463              		.loc 1 422 0 discriminator 35
 2464 0e80 4648     		ldr	r0, .L245+12
 2465 0e82 1221     		movs	r1, #18
 2466 0e84 FFF7FEFF 		bl	uart_check_free_space
 2467 0e88 0028     		cmp	r0, #0
 2468 0e8a 00F02282 		beq	.L42
 2469              		.loc 1 422 0 discriminator 36
 2470 0e8e 444B     		ldr	r3, .L245+16
 2471              	.LBB235:
 2472 0e90 4248     		ldr	r0, .L245+12
 2473              	.LBE235:
 2474 0e92 1A88     		ldrh	r2, [r3, #0]
 2475              	.LBB236:
 2476 0e94 9921     		movs	r1, #153
 2477              	.LBE236:
 2478 0e96 1232     		adds	r2, r2, #18
 2479 0e98 1A80     		strh	r2, [r3, #0]	@ movhi
 2480 0e9a 424B     		ldr	r3, .L245+20
 2481 0e9c 424D     		ldr	r5, .L245+24
 2482 0e9e 1A88     		ldrh	r2, [r3, #0]
 2483 0ea0 424C     		ldr	r4, .L245+28
 2484 0ea2 0132     		adds	r2, r2, #1
 2485 0ea4 1A80     		strh	r2, [r3, #0]	@ movhi
 2486              	.LBB237:
 2487 0ea6 FFF7FEFF 		bl	uart_transmit
 2488              	.LVL368:
 2489 0eaa 3C48     		ldr	r0, .L245+12
 2490 0eac 1221     		movs	r1, #18
 2491 0eae FFF7FEFF 		bl	uart_transmit
 2492              	.LBE237:
 2493 0eb2 1323     		movs	r3, #19
 2494 0eb4 2B70     		strb	r3, [r5, #0]
 2495 0eb6 2523     		movs	r3, #37
 2496 0eb8 2370     		strb	r3, [r4, #0]
 2497 0eba 3848     		ldr	r0, .L245+12
 2498 0ebc 0121     		movs	r1, #1
 2499 0ebe FFF7FEFF 		bl	uart_transmit
 2500 0ec2 2B78     		ldrb	r3, [r5, #0]	@ zero_extendqisi2
 2501 0ec4 2278     		ldrb	r2, [r4, #0]	@ zero_extendqisi2
 2502 0ec6 1533     		adds	r3, r3, #21
 2503 0ec8 DBB2     		uxtb	r3, r3
 2504              	.LBB238:
 2505 0eca 394E     		ldr	r6, .L245+32
 2506              	.LBE238:
 2507 0ecc 2B70     		strb	r3, [r5, #0]
 2508 0ece 9B18     		adds	r3, r3, r2
 2509 0ed0 2370     		strb	r3, [r4, #0]
 2510 0ed2 3248     		ldr	r0, .L245+12
 2511 0ed4 1521     		movs	r1, #21
 2512 0ed6 FFF7FEFF 		bl	uart_transmit
 2513              	.LBB239:
 2514 0eda 3178     		ldrb	r1, [r6, #0]	@ zero_extendqisi2
 2515              	.LVL369:
 2516 0edc 2B78     		ldrb	r3, [r5, #0]	@ zero_extendqisi2
 2517 0ede 2278     		ldrb	r2, [r4, #0]	@ zero_extendqisi2
 2518 0ee0 CB18     		adds	r3, r1, r3
 2519 0ee2 DBB2     		uxtb	r3, r3
 2520              	.LVL370:
 2521 0ee4 2B70     		strb	r3, [r5, #0]
 2522 0ee6 9B18     		adds	r3, r3, r2
 2523              	.LVL371:
 2524 0ee8 2370     		strb	r3, [r4, #0]
 2525 0eea 2C48     		ldr	r0, .L245+12
 2526 0eec FFF7FEFF 		bl	uart_transmit
 2527              	.LVL372:
 2528              	.LBE239:
 2529              	.LBB240:
 2530 0ef0 7178     		ldrb	r1, [r6, #1]	@ zero_extendqisi2
 2531              	.LVL373:
 2532 0ef2 2B78     		ldrb	r3, [r5, #0]	@ zero_extendqisi2
 2533 0ef4 2278     		ldrb	r2, [r4, #0]	@ zero_extendqisi2
 2534 0ef6 CB18     		adds	r3, r1, r3
 2535 0ef8 DBB2     		uxtb	r3, r3
 2536              	.LVL374:
 2537 0efa 2B70     		strb	r3, [r5, #0]
 2538 0efc 9B18     		adds	r3, r3, r2
 2539              	.LVL375:
 2540 0efe 2370     		strb	r3, [r4, #0]
 2541 0f00 2648     		ldr	r0, .L245+12
 2542 0f02 FFF7FEFF 		bl	uart_transmit
 2543              	.LVL376:
 2544              	.LBE240:
 2545              	.LBB241:
 2546 0f06 B178     		ldrb	r1, [r6, #2]	@ zero_extendqisi2
 2547              	.LVL377:
 2548 0f08 2B78     		ldrb	r3, [r5, #0]	@ zero_extendqisi2
 2549 0f0a 2278     		ldrb	r2, [r4, #0]	@ zero_extendqisi2
 2550 0f0c CB18     		adds	r3, r1, r3
 2551 0f0e DBB2     		uxtb	r3, r3
 2552              	.LVL378:
 2553 0f10 2B70     		strb	r3, [r5, #0]
 2554 0f12 9B18     		adds	r3, r3, r2
 2555              	.LVL379:
 2556 0f14 2370     		strb	r3, [r4, #0]
 2557 0f16 2148     		ldr	r0, .L245+12
 2558 0f18 FFF7FEFF 		bl	uart_transmit
 2559              	.LVL380:
 2560              	.LBE241:
 2561              	.LBB242:
 2562 0f1c F178     		ldrb	r1, [r6, #3]	@ zero_extendqisi2
 2563              	.LVL381:
 2564 0f1e 2B78     		ldrb	r3, [r5, #0]	@ zero_extendqisi2
 2565 0f20 2278     		ldrb	r2, [r4, #0]	@ zero_extendqisi2
 2566 0f22 CB18     		adds	r3, r1, r3
 2567 0f24 DBB2     		uxtb	r3, r3
 2568              	.LBE242:
 2569              	.LBB243:
 2570 0f26 234E     		ldr	r6, .L245+36
 2571              	.LVL382:
 2572              	.LBE243:
 2573              	.LBB244:
 2574 0f28 2B70     		strb	r3, [r5, #0]
 2575 0f2a 9B18     		adds	r3, r3, r2
 2576              	.LVL383:
 2577 0f2c 2370     		strb	r3, [r4, #0]
 2578 0f2e 1B48     		ldr	r0, .L245+12
 2579 0f30 FFF7FEFF 		bl	uart_transmit
 2580              	.LVL384:
 2581              	.LBE244:
 2582              	.LBB245:
 2583 0f34 3178     		ldrb	r1, [r6, #0]	@ zero_extendqisi2
 2584              	.LVL385:
 2585 0f36 2B78     		ldrb	r3, [r5, #0]	@ zero_extendqisi2
 2586 0f38 2278     		ldrb	r2, [r4, #0]	@ zero_extendqisi2
 2587 0f3a CB18     		adds	r3, r1, r3
 2588 0f3c DBB2     		uxtb	r3, r3
 2589              	.LVL386:
 2590 0f3e 2B70     		strb	r3, [r5, #0]
 2591 0f40 9B18     		adds	r3, r3, r2
 2592              	.LVL387:
 2593 0f42 2370     		strb	r3, [r4, #0]
 2594 0f44 1548     		ldr	r0, .L245+12
 2595 0f46 FFF7FEFF 		bl	uart_transmit
 2596              	.LVL388:
 2597              	.LBE245:
 2598              	.LBB246:
 2599 0f4a 7178     		ldrb	r1, [r6, #1]	@ zero_extendqisi2
 2600              	.LVL389:
 2601 0f4c 2B78     		ldrb	r3, [r5, #0]	@ zero_extendqisi2
 2602 0f4e 2278     		ldrb	r2, [r4, #0]	@ zero_extendqisi2
 2603 0f50 CB18     		adds	r3, r1, r3
 2604 0f52 DBB2     		uxtb	r3, r3
 2605              	.LVL390:
 2606 0f54 2B70     		strb	r3, [r5, #0]
 2607 0f56 9B18     		adds	r3, r3, r2
 2608              	.LVL391:
 2609 0f58 2370     		strb	r3, [r4, #0]
 2610 0f5a 1048     		ldr	r0, .L245+12
 2611 0f5c FFF7FEFF 		bl	uart_transmit
 2612              	.LVL392:
 2613              	.LBE246:
 2614              	.LBB247:
 2615 0f60 B178     		ldrb	r1, [r6, #2]	@ zero_extendqisi2
 2616              	.LVL393:
 2617 0f62 2B78     		ldrb	r3, [r5, #0]	@ zero_extendqisi2
 2618 0f64 2278     		ldrb	r2, [r4, #0]	@ zero_extendqisi2
 2619 0f66 CB18     		adds	r3, r1, r3
 2620 0f68 DBB2     		uxtb	r3, r3
 2621              	.LVL394:
 2622 0f6a 2B70     		strb	r3, [r5, #0]
 2623 0f6c 9B18     		adds	r3, r3, r2
 2624              	.LVL395:
 2625 0f6e 2370     		strb	r3, [r4, #0]
 2626 0f70 0A48     		ldr	r0, .L245+12
 2627 0f72 FFF7FEFF 		bl	uart_transmit
 2628              	.LVL396:
 2629              	.LBE247:
 2630              	.LBB248:
 2631 0f76 F178     		ldrb	r1, [r6, #3]	@ zero_extendqisi2
 2632              	.LVL397:
 2633 0f78 2B78     		ldrb	r3, [r5, #0]	@ zero_extendqisi2
 2634 0f7a 2278     		ldrb	r2, [r4, #0]	@ zero_extendqisi2
 2635 0f7c CB18     		adds	r3, r1, r3
 2636 0f7e DBB2     		uxtb	r3, r3
 2637              	.LVL398:
 2638 0f80 2B70     		strb	r3, [r5, #0]
 2639 0f82 9B18     		adds	r3, r3, r2
 2640              	.LVL399:
 2641 0f84 2370     		strb	r3, [r4, #0]
 2642 0f86 0548     		ldr	r0, .L245+12
 2643 0f88 FFF7FEFF 		bl	uart_transmit
 2644              	.LVL400:
 2645              	.LBE248:
 2646              	.LBB249:
 2647 0f8c 0A4E     		ldr	r6, .L245+40
 2648 0f8e 6BE1     		b	.L213
 2649              	.L246:
 2650              		.align	2
 2651              	.L245:
 2652 0f90 00000000 		.word	downlink_nb_ovrn
 2653 0f94 00000000 		.word	.LANCHOR13
 2654 0f98 00000000 		.word	nav_in_circle
 2655 0f9c 00000000 		.word	uart2
 2656 0fa0 00000000 		.word	downlink_nb_bytes
 2657 0fa4 00000000 		.word	downlink_nb_msgs
 2658 0fa8 00000000 		.word	ck_a
 2659 0fac 00000000 		.word	ck_b
 2660 0fb0 00000000 		.word	nav_circle_x
 2661 0fb4 00000000 		.word	nav_circle_y
 2662 0fb8 00000000 		.word	nav_circle_radius
 2663              	.LVL401:
 2664              	.L39:
 2665              	.LBE249:
 2666              		.loc 1 422 0 discriminator 34
 2667 0fbc 362B     		cmp	r3, #54
 2668 0fbe 40F08C81 		bne	.L40
 2669              		.loc 1 422 0 discriminator 38
 2670 0fc2 9C48     		ldr	r0, .L247
 2671 0fc4 2221     		movs	r1, #34
 2672 0fc6 FFF7FEFF 		bl	uart_check_free_space
 2673 0fca 0028     		cmp	r0, #0
 2674 0fcc 00F08181 		beq	.L42
 2675              		.loc 1 422 0 discriminator 40
 2676 0fd0 994B     		ldr	r3, .L247+4
 2677              	.LBB250:
 2678 0fd2 9921     		movs	r1, #153
 2679              	.LBE250:
 2680 0fd4 1A88     		ldrh	r2, [r3, #0]
 2681              	.LBB251:
 2682 0fd6 9748     		ldr	r0, .L247
 2683              	.LBE251:
 2684 0fd8 2232     		adds	r2, r2, #34
 2685 0fda 1A80     		strh	r2, [r3, #0]	@ movhi
 2686 0fdc 974B     		ldr	r3, .L247+8
 2687 0fde 984D     		ldr	r5, .L247+12
 2688 0fe0 1A88     		ldrh	r2, [r3, #0]
 2689 0fe2 984C     		ldr	r4, .L247+16
 2690 0fe4 0132     		adds	r2, r2, #1
 2691 0fe6 1A80     		strh	r2, [r3, #0]	@ movhi
 2692              	.LBB252:
 2693 0fe8 FFF7FEFF 		bl	uart_transmit
 2694              	.LVL402:
 2695 0fec 2221     		movs	r1, #34
 2696 0fee 9148     		ldr	r0, .L247
 2697 0ff0 FFF7FEFF 		bl	uart_transmit
 2698              	.LBE252:
 2699 0ff4 2323     		movs	r3, #35
 2700 0ff6 2B70     		strb	r3, [r5, #0]
 2701 0ff8 4523     		movs	r3, #69
 2702 0ffa 0121     		movs	r1, #1
 2703 0ffc 2370     		strb	r3, [r4, #0]
 2704 0ffe 8D48     		ldr	r0, .L247
 2705 1000 FFF7FEFF 		bl	uart_transmit
 2706 1004 2B78     		ldrb	r3, [r5, #0]	@ zero_extendqisi2
 2707 1006 2278     		ldrb	r2, [r4, #0]	@ zero_extendqisi2
 2708 1008 1033     		adds	r3, r3, #16
 2709 100a DBB2     		uxtb	r3, r3
 2710              	.LBB253:
 2711 100c 8E4E     		ldr	r6, .L247+20
 2712              	.LBE253:
 2713 100e 2B70     		strb	r3, [r5, #0]
 2714 1010 9B18     		adds	r3, r3, r2
 2715 1012 1021     		movs	r1, #16
 2716 1014 2370     		strb	r3, [r4, #0]
 2717 1016 8748     		ldr	r0, .L247
 2718 1018 FFF7FEFF 		bl	uart_transmit
 2719              	.LBB254:
 2720 101c 3178     		ldrb	r1, [r6, #0]	@ zero_extendqisi2
 2721              	.LVL403:
 2722 101e 2B78     		ldrb	r3, [r5, #0]	@ zero_extendqisi2
 2723 1020 2278     		ldrb	r2, [r4, #0]	@ zero_extendqisi2
 2724 1022 CB18     		adds	r3, r1, r3
 2725 1024 DBB2     		uxtb	r3, r3
 2726              	.LVL404:
 2727 1026 2B70     		strb	r3, [r5, #0]
 2728 1028 9B18     		adds	r3, r3, r2
 2729              	.LVL405:
 2730 102a 2370     		strb	r3, [r4, #0]
 2731 102c 8148     		ldr	r0, .L247
 2732 102e FFF7FEFF 		bl	uart_transmit
 2733              	.LVL406:
 2734              	.LBE254:
 2735              	.LBB255:
 2736 1032 7178     		ldrb	r1, [r6, #1]	@ zero_extendqisi2
 2737              	.LVL407:
 2738 1034 2B78     		ldrb	r3, [r5, #0]	@ zero_extendqisi2
 2739 1036 2278     		ldrb	r2, [r4, #0]	@ zero_extendqisi2
 2740 1038 CB18     		adds	r3, r1, r3
 2741 103a DBB2     		uxtb	r3, r3
 2742              	.LVL408:
 2743 103c 2B70     		strb	r3, [r5, #0]
 2744 103e 9B18     		adds	r3, r3, r2
 2745              	.LVL409:
 2746 1040 2370     		strb	r3, [r4, #0]
 2747 1042 7C48     		ldr	r0, .L247
 2748 1044 FFF7FEFF 		bl	uart_transmit
 2749              	.LVL410:
 2750              	.LBE255:
 2751              	.LBB256:
 2752 1048 B178     		ldrb	r1, [r6, #2]	@ zero_extendqisi2
 2753              	.LVL411:
 2754 104a 2B78     		ldrb	r3, [r5, #0]	@ zero_extendqisi2
 2755 104c 2278     		ldrb	r2, [r4, #0]	@ zero_extendqisi2
 2756 104e CB18     		adds	r3, r1, r3
 2757 1050 DBB2     		uxtb	r3, r3
 2758              	.LVL412:
 2759 1052 2B70     		strb	r3, [r5, #0]
 2760 1054 9B18     		adds	r3, r3, r2
 2761              	.LVL413:
 2762 1056 2370     		strb	r3, [r4, #0]
 2763 1058 7648     		ldr	r0, .L247
 2764 105a FFF7FEFF 		bl	uart_transmit
 2765              	.LVL414:
 2766              	.LBE256:
 2767              	.LBB257:
 2768 105e F178     		ldrb	r1, [r6, #3]	@ zero_extendqisi2
 2769              	.LVL415:
 2770 1060 2B78     		ldrb	r3, [r5, #0]	@ zero_extendqisi2
 2771 1062 2278     		ldrb	r2, [r4, #0]	@ zero_extendqisi2
 2772 1064 CB18     		adds	r3, r1, r3
 2773 1066 DBB2     		uxtb	r3, r3
 2774              	.LBE257:
 2775              	.LBB258:
 2776 1068 784E     		ldr	r6, .L247+24
 2777              	.LVL416:
 2778              	.LBE258:
 2779              	.LBB259:
 2780 106a 2B70     		strb	r3, [r5, #0]
 2781 106c 9B18     		adds	r3, r3, r2
 2782              	.LVL417:
 2783 106e 2370     		strb	r3, [r4, #0]
 2784 1070 7048     		ldr	r0, .L247
 2785 1072 FFF7FEFF 		bl	uart_transmit
 2786              	.LVL418:
 2787              	.LBE259:
 2788              	.LBB260:
 2789 1076 3178     		ldrb	r1, [r6, #0]	@ zero_extendqisi2
 2790              	.LVL419:
 2791 1078 2B78     		ldrb	r3, [r5, #0]	@ zero_extendqisi2
 2792 107a 2278     		ldrb	r2, [r4, #0]	@ zero_extendqisi2
 2793 107c CB18     		adds	r3, r1, r3
 2794 107e DBB2     		uxtb	r3, r3
 2795              	.LVL420:
 2796 1080 2B70     		strb	r3, [r5, #0]
 2797 1082 9B18     		adds	r3, r3, r2
 2798              	.LVL421:
 2799 1084 2370     		strb	r3, [r4, #0]
 2800 1086 6B48     		ldr	r0, .L247
 2801 1088 FFF7FEFF 		bl	uart_transmit
 2802              	.LVL422:
 2803              	.LBE260:
 2804              	.LBB261:
 2805 108c 7178     		ldrb	r1, [r6, #1]	@ zero_extendqisi2
 2806              	.LVL423:
 2807 108e 2B78     		ldrb	r3, [r5, #0]	@ zero_extendqisi2
 2808 1090 2278     		ldrb	r2, [r4, #0]	@ zero_extendqisi2
 2809 1092 CB18     		adds	r3, r1, r3
 2810 1094 DBB2     		uxtb	r3, r3
 2811              	.LVL424:
 2812 1096 2B70     		strb	r3, [r5, #0]
 2813 1098 9B18     		adds	r3, r3, r2
 2814              	.LVL425:
 2815 109a 2370     		strb	r3, [r4, #0]
 2816 109c 6548     		ldr	r0, .L247
 2817 109e FFF7FEFF 		bl	uart_transmit
 2818              	.LVL426:
 2819              	.LBE261:
 2820              	.LBB262:
 2821 10a2 B178     		ldrb	r1, [r6, #2]	@ zero_extendqisi2
 2822              	.LVL427:
 2823 10a4 2B78     		ldrb	r3, [r5, #0]	@ zero_extendqisi2
 2824 10a6 2278     		ldrb	r2, [r4, #0]	@ zero_extendqisi2
 2825 10a8 CB18     		adds	r3, r1, r3
 2826 10aa DBB2     		uxtb	r3, r3
 2827              	.LVL428:
 2828 10ac 2B70     		strb	r3, [r5, #0]
 2829 10ae 9B18     		adds	r3, r3, r2
 2830              	.LVL429:
 2831 10b0 2370     		strb	r3, [r4, #0]
 2832 10b2 6048     		ldr	r0, .L247
 2833 10b4 FFF7FEFF 		bl	uart_transmit
 2834              	.LVL430:
 2835              	.LBE262:
 2836              	.LBB263:
 2837 10b8 F178     		ldrb	r1, [r6, #3]	@ zero_extendqisi2
 2838              	.LVL431:
 2839 10ba 2B78     		ldrb	r3, [r5, #0]	@ zero_extendqisi2
 2840 10bc 2278     		ldrb	r2, [r4, #0]	@ zero_extendqisi2
 2841 10be CB18     		adds	r3, r1, r3
 2842 10c0 DBB2     		uxtb	r3, r3
 2843              	.LBE263:
 2844              	.LBB264:
 2845 10c2 634E     		ldr	r6, .L247+28
 2846              	.LVL432:
 2847              	.LBE264:
 2848              	.LBB265:
 2849 10c4 2B70     		strb	r3, [r5, #0]
 2850 10c6 9B18     		adds	r3, r3, r2
 2851              	.LVL433:
 2852 10c8 2370     		strb	r3, [r4, #0]
 2853 10ca 5A48     		ldr	r0, .L247
 2854 10cc FFF7FEFF 		bl	uart_transmit
 2855              	.LVL434:
 2856              	.LBE265:
 2857              	.LBB266:
 2858 10d0 3178     		ldrb	r1, [r6, #0]	@ zero_extendqisi2
 2859              	.LVL435:
 2860 10d2 2B78     		ldrb	r3, [r5, #0]	@ zero_extendqisi2
 2861 10d4 2278     		ldrb	r2, [r4, #0]	@ zero_extendqisi2
 2862 10d6 CB18     		adds	r3, r1, r3
 2863 10d8 DBB2     		uxtb	r3, r3
 2864              	.LVL436:
 2865 10da 2B70     		strb	r3, [r5, #0]
 2866 10dc 9B18     		adds	r3, r3, r2
 2867              	.LVL437:
 2868 10de 2370     		strb	r3, [r4, #0]
 2869 10e0 5448     		ldr	r0, .L247
 2870 10e2 FFF7FEFF 		bl	uart_transmit
 2871              	.LVL438:
 2872              	.LBE266:
 2873              	.LBB267:
 2874 10e6 7178     		ldrb	r1, [r6, #1]	@ zero_extendqisi2
 2875              	.LVL439:
 2876 10e8 2B78     		ldrb	r3, [r5, #0]	@ zero_extendqisi2
 2877 10ea 2278     		ldrb	r2, [r4, #0]	@ zero_extendqisi2
 2878 10ec CB18     		adds	r3, r1, r3
 2879 10ee DBB2     		uxtb	r3, r3
 2880              	.LVL440:
 2881 10f0 2B70     		strb	r3, [r5, #0]
 2882 10f2 9B18     		adds	r3, r3, r2
 2883              	.LVL441:
 2884 10f4 2370     		strb	r3, [r4, #0]
 2885 10f6 4F48     		ldr	r0, .L247
 2886 10f8 FFF7FEFF 		bl	uart_transmit
 2887              	.LVL442:
 2888              	.LBE267:
 2889              	.LBB268:
 2890 10fc B178     		ldrb	r1, [r6, #2]	@ zero_extendqisi2
 2891              	.LVL443:
 2892 10fe 2B78     		ldrb	r3, [r5, #0]	@ zero_extendqisi2
 2893 1100 2278     		ldrb	r2, [r4, #0]	@ zero_extendqisi2
 2894 1102 CB18     		adds	r3, r1, r3
 2895 1104 DBB2     		uxtb	r3, r3
 2896              	.LVL444:
 2897 1106 2B70     		strb	r3, [r5, #0]
 2898 1108 9B18     		adds	r3, r3, r2
 2899              	.LVL445:
 2900 110a 2370     		strb	r3, [r4, #0]
 2901 110c 4948     		ldr	r0, .L247
 2902 110e FFF7FEFF 		bl	uart_transmit
 2903              	.LVL446:
 2904              	.LBE268:
 2905              	.LBB269:
 2906 1112 F178     		ldrb	r1, [r6, #3]	@ zero_extendqisi2
 2907              	.LVL447:
 2908 1114 2B78     		ldrb	r3, [r5, #0]	@ zero_extendqisi2
 2909 1116 2278     		ldrb	r2, [r4, #0]	@ zero_extendqisi2
 2910 1118 CB18     		adds	r3, r1, r3
 2911 111a DBB2     		uxtb	r3, r3
 2912              	.LBE269:
 2913              	.LBB270:
 2914 111c 4D4E     		ldr	r6, .L247+32
 2915              	.LVL448:
 2916              	.LBE270:
 2917              	.LBB271:
 2918 111e 2B70     		strb	r3, [r5, #0]
 2919 1120 9B18     		adds	r3, r3, r2
 2920              	.LVL449:
 2921 1122 2370     		strb	r3, [r4, #0]
 2922 1124 4348     		ldr	r0, .L247
 2923 1126 FFF7FEFF 		bl	uart_transmit
 2924              	.LVL450:
 2925              	.LBE271:
 2926              	.LBB272:
 2927 112a 3178     		ldrb	r1, [r6, #0]	@ zero_extendqisi2
 2928              	.LVL451:
 2929 112c 2B78     		ldrb	r3, [r5, #0]	@ zero_extendqisi2
 2930 112e 2278     		ldrb	r2, [r4, #0]	@ zero_extendqisi2
 2931 1130 CB18     		adds	r3, r1, r3
 2932 1132 DBB2     		uxtb	r3, r3
 2933              	.LVL452:
 2934 1134 2B70     		strb	r3, [r5, #0]
 2935 1136 9B18     		adds	r3, r3, r2
 2936              	.LVL453:
 2937 1138 2370     		strb	r3, [r4, #0]
 2938 113a 3E48     		ldr	r0, .L247
 2939 113c FFF7FEFF 		bl	uart_transmit
 2940              	.LVL454:
 2941              	.LBE272:
 2942              	.LBB273:
 2943 1140 7178     		ldrb	r1, [r6, #1]	@ zero_extendqisi2
 2944              	.LVL455:
 2945 1142 2B78     		ldrb	r3, [r5, #0]	@ zero_extendqisi2
 2946 1144 2278     		ldrb	r2, [r4, #0]	@ zero_extendqisi2
 2947 1146 CB18     		adds	r3, r1, r3
 2948 1148 DBB2     		uxtb	r3, r3
 2949              	.LVL456:
 2950 114a 2B70     		strb	r3, [r5, #0]
 2951 114c 9B18     		adds	r3, r3, r2
 2952              	.LVL457:
 2953 114e 2370     		strb	r3, [r4, #0]
 2954 1150 3848     		ldr	r0, .L247
 2955 1152 FFF7FEFF 		bl	uart_transmit
 2956              	.LVL458:
 2957              	.LBE273:
 2958              	.LBB274:
 2959 1156 B178     		ldrb	r1, [r6, #2]	@ zero_extendqisi2
 2960              	.LVL459:
 2961 1158 2B78     		ldrb	r3, [r5, #0]	@ zero_extendqisi2
 2962 115a 2278     		ldrb	r2, [r4, #0]	@ zero_extendqisi2
 2963 115c CB18     		adds	r3, r1, r3
 2964 115e DBB2     		uxtb	r3, r3
 2965              	.LVL460:
 2966 1160 2B70     		strb	r3, [r5, #0]
 2967 1162 9B18     		adds	r3, r3, r2
 2968              	.LVL461:
 2969 1164 2370     		strb	r3, [r4, #0]
 2970 1166 3348     		ldr	r0, .L247
 2971 1168 FFF7FEFF 		bl	uart_transmit
 2972              	.LVL462:
 2973              	.LBE274:
 2974              	.LBB275:
 2975 116c F178     		ldrb	r1, [r6, #3]	@ zero_extendqisi2
 2976              	.LVL463:
 2977 116e 2B78     		ldrb	r3, [r5, #0]	@ zero_extendqisi2
 2978 1170 2278     		ldrb	r2, [r4, #0]	@ zero_extendqisi2
 2979 1172 CB18     		adds	r3, r1, r3
 2980 1174 DBB2     		uxtb	r3, r3
 2981              	.LBE275:
 2982              	.LBB276:
 2983 1176 384E     		ldr	r6, .L247+36
 2984              	.LVL464:
 2985              	.LBE276:
 2986              	.LBB277:
 2987 1178 2B70     		strb	r3, [r5, #0]
 2988 117a 9B18     		adds	r3, r3, r2
 2989              	.LVL465:
 2990 117c 2370     		strb	r3, [r4, #0]
 2991 117e 2D48     		ldr	r0, .L247
 2992 1180 FFF7FEFF 		bl	uart_transmit
 2993              	.LVL466:
 2994              	.LBE277:
 2995              	.LBB278:
 2996 1184 3178     		ldrb	r1, [r6, #0]	@ zero_extendqisi2
 2997              	.LVL467:
 2998 1186 2B78     		ldrb	r3, [r5, #0]	@ zero_extendqisi2
 2999 1188 2278     		ldrb	r2, [r4, #0]	@ zero_extendqisi2
 3000 118a CB18     		adds	r3, r1, r3
 3001 118c DBB2     		uxtb	r3, r3
 3002              	.LVL468:
 3003 118e 2B70     		strb	r3, [r5, #0]
 3004 1190 9B18     		adds	r3, r3, r2
 3005              	.LVL469:
 3006 1192 2370     		strb	r3, [r4, #0]
 3007 1194 2748     		ldr	r0, .L247
 3008 1196 FFF7FEFF 		bl	uart_transmit
 3009              	.LVL470:
 3010              	.LBE278:
 3011              	.LBB279:
 3012 119a 7178     		ldrb	r1, [r6, #1]	@ zero_extendqisi2
 3013              	.LVL471:
 3014 119c 2B78     		ldrb	r3, [r5, #0]	@ zero_extendqisi2
 3015 119e 2278     		ldrb	r2, [r4, #0]	@ zero_extendqisi2
 3016 11a0 CB18     		adds	r3, r1, r3
 3017 11a2 DBB2     		uxtb	r3, r3
 3018              	.LVL472:
 3019 11a4 2B70     		strb	r3, [r5, #0]
 3020 11a6 9B18     		adds	r3, r3, r2
 3021              	.LVL473:
 3022 11a8 2370     		strb	r3, [r4, #0]
 3023 11aa 2248     		ldr	r0, .L247
 3024 11ac FFF7FEFF 		bl	uart_transmit
 3025              	.LVL474:
 3026              	.LBE279:
 3027              	.LBB280:
 3028 11b0 B178     		ldrb	r1, [r6, #2]	@ zero_extendqisi2
 3029              	.LVL475:
 3030 11b2 2B78     		ldrb	r3, [r5, #0]	@ zero_extendqisi2
 3031 11b4 2278     		ldrb	r2, [r4, #0]	@ zero_extendqisi2
 3032 11b6 CB18     		adds	r3, r1, r3
 3033 11b8 DBB2     		uxtb	r3, r3
 3034              	.LVL476:
 3035 11ba 2B70     		strb	r3, [r5, #0]
 3036 11bc 9B18     		adds	r3, r3, r2
 3037              	.LVL477:
 3038 11be 2370     		strb	r3, [r4, #0]
 3039 11c0 1C48     		ldr	r0, .L247
 3040 11c2 FFF7FEFF 		bl	uart_transmit
 3041              	.LVL478:
 3042              	.LBE280:
 3043              	.LBB281:
 3044 11c6 F178     		ldrb	r1, [r6, #3]	@ zero_extendqisi2
 3045              	.LVL479:
 3046 11c8 2B78     		ldrb	r3, [r5, #0]	@ zero_extendqisi2
 3047 11ca 2278     		ldrb	r2, [r4, #0]	@ zero_extendqisi2
 3048 11cc CB18     		adds	r3, r1, r3
 3049 11ce DBB2     		uxtb	r3, r3
 3050              	.LBE281:
 3051              	.LBB282:
 3052 11d0 224E     		ldr	r6, .L247+40
 3053              	.LVL480:
 3054              	.LBE282:
 3055              	.LBB283:
 3056 11d2 2B70     		strb	r3, [r5, #0]
 3057 11d4 9B18     		adds	r3, r3, r2
 3058              	.LVL481:
 3059 11d6 2370     		strb	r3, [r4, #0]
 3060 11d8 1648     		ldr	r0, .L247
 3061 11da FFF7FEFF 		bl	uart_transmit
 3062              	.LVL482:
 3063              	.LBE283:
 3064              	.LBB284:
 3065 11de 3178     		ldrb	r1, [r6, #0]	@ zero_extendqisi2
 3066              	.LVL483:
 3067 11e0 2B78     		ldrb	r3, [r5, #0]	@ zero_extendqisi2
 3068 11e2 2278     		ldrb	r2, [r4, #0]	@ zero_extendqisi2
 3069 11e4 CB18     		adds	r3, r1, r3
 3070 11e6 DBB2     		uxtb	r3, r3
 3071              	.LVL484:
 3072 11e8 2B70     		strb	r3, [r5, #0]
 3073 11ea 9B18     		adds	r3, r3, r2
 3074              	.LVL485:
 3075 11ec 2370     		strb	r3, [r4, #0]
 3076 11ee 1148     		ldr	r0, .L247
 3077 11f0 FFF7FEFF 		bl	uart_transmit
 3078              	.LVL486:
 3079              	.LBE284:
 3080              	.LBB285:
 3081 11f4 7178     		ldrb	r1, [r6, #1]	@ zero_extendqisi2
 3082              	.LVL487:
 3083 11f6 2B78     		ldrb	r3, [r5, #0]	@ zero_extendqisi2
 3084 11f8 2278     		ldrb	r2, [r4, #0]	@ zero_extendqisi2
 3085 11fa CB18     		adds	r3, r1, r3
 3086 11fc DBB2     		uxtb	r3, r3
 3087              	.LVL488:
 3088 11fe 2B70     		strb	r3, [r5, #0]
 3089 1200 9B18     		adds	r3, r3, r2
 3090              	.LVL489:
 3091 1202 2370     		strb	r3, [r4, #0]
 3092 1204 0B48     		ldr	r0, .L247
 3093 1206 FFF7FEFF 		bl	uart_transmit
 3094              	.LVL490:
 3095              	.LBE285:
 3096              	.LBB286:
 3097 120a B178     		ldrb	r1, [r6, #2]	@ zero_extendqisi2
 3098              	.LVL491:
 3099 120c 2B78     		ldrb	r3, [r5, #0]	@ zero_extendqisi2
 3100 120e 2278     		ldrb	r2, [r4, #0]	@ zero_extendqisi2
 3101 1210 CB18     		adds	r3, r1, r3
 3102 1212 DBB2     		uxtb	r3, r3
 3103              	.LVL492:
 3104 1214 2B70     		strb	r3, [r5, #0]
 3105 1216 9B18     		adds	r3, r3, r2
 3106              	.LVL493:
 3107 1218 2370     		strb	r3, [r4, #0]
 3108 121a 0648     		ldr	r0, .L247
 3109 121c FFF7FEFF 		bl	uart_transmit
 3110              	.LVL494:
 3111              	.LBE286:
 3112              	.LBB287:
 3113 1220 F178     		ldrb	r1, [r6, #3]	@ zero_extendqisi2
 3114              	.LVL495:
 3115 1222 2B78     		ldrb	r3, [r5, #0]	@ zero_extendqisi2
 3116 1224 2278     		ldrb	r2, [r4, #0]	@ zero_extendqisi2
 3117 1226 CB18     		adds	r3, r1, r3
 3118 1228 DBB2     		uxtb	r3, r3
 3119              	.LVL496:
 3120 122a 2B70     		strb	r3, [r5, #0]
 3121 122c 9B18     		adds	r3, r3, r2
 3122              	.LVL497:
 3123 122e 2370     		strb	r3, [r4, #0]
 3124 1230 16E0     		b	.L248
 3125              	.L249:
 3126 1232 00BF     		.align	2
 3127              	.L247:
 3128 1234 00000000 		.word	uart2
 3129 1238 00000000 		.word	downlink_nb_bytes
 3130 123c 00000000 		.word	downlink_nb_msgs
 3131 1240 00000000 		.word	ck_a
 3132 1244 00000000 		.word	ck_b
 3133 1248 00000000 		.word	h_ctl_roll_setpoint
 3134 124c 00000000 		.word	h_ctl_pitch_loop_setpoint
 3135 1250 00000000 		.word	h_ctl_course_setpoint
 3136 1254 00000000 		.word	desired_x
 3137 1258 00000000 		.word	desired_y
 3138 125c 00000000 		.word	v_ctl_altitude_setpoint
 3139              	.L248:
 3140 1260 8A48     		ldr	r0, .L250
 3141 1262 FFF7FEFF 		bl	uart_transmit
 3142              	.LVL498:
 3143              	.LBE287:
 3144              	.LBB288:
 3145 1266 8A4E     		ldr	r6, .L250+4
 3146              	.LVL499:
 3147              	.L213:
 3148 1268 3178     		ldrb	r1, [r6, #0]	@ zero_extendqisi2
 3149              	.LVL500:
 3150 126a 2B78     		ldrb	r3, [r5, #0]	@ zero_extendqisi2
 3151 126c 2278     		ldrb	r2, [r4, #0]	@ zero_extendqisi2
 3152 126e CB18     		adds	r3, r1, r3
 3153 1270 DBB2     		uxtb	r3, r3
 3154              	.LVL501:
 3155 1272 2B70     		strb	r3, [r5, #0]
 3156 1274 9B18     		adds	r3, r3, r2
 3157              	.LVL502:
 3158 1276 2370     		strb	r3, [r4, #0]
 3159 1278 8448     		ldr	r0, .L250
 3160 127a FFF7FEFF 		bl	uart_transmit
 3161              	.LVL503:
 3162              	.LBE288:
 3163              	.LBB289:
 3164 127e 7178     		ldrb	r1, [r6, #1]	@ zero_extendqisi2
 3165              	.LVL504:
 3166 1280 2B78     		ldrb	r3, [r5, #0]	@ zero_extendqisi2
 3167 1282 2278     		ldrb	r2, [r4, #0]	@ zero_extendqisi2
 3168 1284 CB18     		adds	r3, r1, r3
 3169 1286 DBB2     		uxtb	r3, r3
 3170              	.LVL505:
 3171 1288 2B70     		strb	r3, [r5, #0]
 3172 128a 9B18     		adds	r3, r3, r2
 3173              	.LVL506:
 3174 128c 2370     		strb	r3, [r4, #0]
 3175 128e 7F48     		ldr	r0, .L250
 3176 1290 FFF7FEFF 		bl	uart_transmit
 3177              	.LVL507:
 3178              	.LBE289:
 3179              	.LBB290:
 3180 1294 B178     		ldrb	r1, [r6, #2]	@ zero_extendqisi2
 3181              	.LVL508:
 3182 1296 2B78     		ldrb	r3, [r5, #0]	@ zero_extendqisi2
 3183 1298 2278     		ldrb	r2, [r4, #0]	@ zero_extendqisi2
 3184 129a CB18     		adds	r3, r1, r3
 3185 129c DBB2     		uxtb	r3, r3
 3186              	.LVL509:
 3187 129e 2B70     		strb	r3, [r5, #0]
 3188 12a0 9B18     		adds	r3, r3, r2
 3189              	.LVL510:
 3190 12a2 2370     		strb	r3, [r4, #0]
 3191 12a4 7948     		ldr	r0, .L250
 3192 12a6 FFF7FEFF 		bl	uart_transmit
 3193              	.LVL511:
 3194              	.LBE290:
 3195              	.LBB291:
 3196 12aa F178     		ldrb	r1, [r6, #3]	@ zero_extendqisi2
 3197              	.LVL512:
 3198 12ac 2B78     		ldrb	r3, [r5, #0]	@ zero_extendqisi2
 3199 12ae 2278     		ldrb	r2, [r4, #0]	@ zero_extendqisi2
 3200 12b0 CB18     		adds	r3, r1, r3
 3201 12b2 DBB2     		uxtb	r3, r3
 3202              	.LVL513:
 3203 12b4 2B70     		strb	r3, [r5, #0]
 3204 12b6 9B18     		adds	r3, r3, r2
 3205              	.LVL514:
 3206 12b8 2370     		strb	r3, [r4, #0]
 3207 12ba 7448     		ldr	r0, .L250
 3208 12bc FFF7FEFF 		bl	uart_transmit
 3209              	.LVL515:
 3210              	.LBE291:
 3211 12c0 2978     		ldrb	r1, [r5, #0]	@ zero_extendqisi2
 3212 12c2 7248     		ldr	r0, .L250
 3213 12c4 FFF7FEFF 		bl	uart_transmit
 3214 12c8 7048     		ldr	r0, .L250
 3215 12ca 2178     		ldrb	r1, [r4, #0]	@ zero_extendqisi2
 3216 12cc FFF7FEFF 		bl	uart_transmit
 3217 12d0 03E0     		b	.L40
 3218              	.L42:
 3219              		.loc 1 422 0 discriminator 41
 3220 12d2 704B     		ldr	r3, .L250+8
 3221 12d4 1A78     		ldrb	r2, [r3, #0]	@ zero_extendqisi2
 3222 12d6 0132     		adds	r2, r2, #1
 3223 12d8 1A70     		strb	r2, [r3, #0]
 3224              	.L40:
 3225              		.loc 1 422 0 discriminator 39
 3226 12da 6F4B     		ldr	r3, .L250+12
 3227 12dc 1B78     		ldrb	r3, [r3, #0]	@ zero_extendqisi2
 3228 12de 3C2B     		cmp	r3, #60
 3229 12e0 40F0F480 		bne	.L43
 3230              	.LBB292:
 3231              		.loc 1 422 0 discriminator 42
 3232 12e4 6D4B     		ldr	r3, .L250+16
 3233 12e6 1A68     		ldr	r2, [r3, #0]
 3234 12e8 0A23     		movs	r3, #10
 3235 12ea 92FBF3F3 		sdiv	r3, r2, r3
 3236 12ee ADF81E30 		strh	r3, [sp, #30]	@ movhi
 3237              	.LVL516:
 3238              	.LBB293:
 3239 12f2 6B4B     		ldr	r3, .L250+20
 3240 12f4 1868     		ldr	r0, [r3, #0]	@ float
 3241 12f6 FFF7FEFF 		bl	__aeabi_f2iz
 3242 12fa 1421     		movs	r1, #20
 3243 12fc ADF81C00 		strh	r0, [sp, #28]	@ movhi
 3244              	.LVL517:
 3245 1300 6248     		ldr	r0, .L250
 3246 1302 FFF7FEFF 		bl	uart_check_free_space
 3247 1306 0028     		cmp	r0, #0
 3248 1308 00F0CE81 		beq	.L46
 3249              		.loc 1 422 0 discriminator 44
 3250 130c 654B     		ldr	r3, .L250+24
 3251              	.LBB294:
 3252 130e 5F48     		ldr	r0, .L250
 3253              	.LBE294:
 3254 1310 1A88     		ldrh	r2, [r3, #0]
 3255              	.LBB295:
 3256 1312 9921     		movs	r1, #153
 3257              	.LBE295:
 3258 1314 1432     		adds	r2, r2, #20
 3259 1316 1A80     		strh	r2, [r3, #0]	@ movhi
 3260 1318 634B     		ldr	r3, .L250+28
 3261 131a 644D     		ldr	r5, .L250+32
 3262 131c 1A88     		ldrh	r2, [r3, #0]
 3263 131e 644C     		ldr	r4, .L250+36
 3264 1320 0132     		adds	r2, r2, #1
 3265 1322 1A80     		strh	r2, [r3, #0]	@ movhi
 3266              	.LBB296:
 3267 1324 FFF7FEFF 		bl	uart_transmit
 3268              	.LVL518:
 3269 1328 5848     		ldr	r0, .L250
 3270 132a 1421     		movs	r1, #20
 3271 132c FFF7FEFF 		bl	uart_transmit
 3272              	.LBE296:
 3273 1330 1523     		movs	r3, #21
 3274 1332 2B70     		strb	r3, [r5, #0]
 3275 1334 2923     		movs	r3, #41
 3276 1336 2370     		strb	r3, [r4, #0]
 3277 1338 5448     		ldr	r0, .L250
 3278 133a 0121     		movs	r1, #1
 3279 133c FFF7FEFF 		bl	uart_transmit
 3280 1340 2B78     		ldrb	r3, [r5, #0]	@ zero_extendqisi2
 3281 1342 2278     		ldrb	r2, [r4, #0]	@ zero_extendqisi2
 3282 1344 0C33     		adds	r3, r3, #12
 3283 1346 DBB2     		uxtb	r3, r3
 3284              	.LBB297:
 3285 1348 5A4E     		ldr	r6, .L250+40
 3286              	.LBE297:
 3287 134a 2B70     		strb	r3, [r5, #0]
 3288 134c 9B18     		adds	r3, r3, r2
 3289 134e 2370     		strb	r3, [r4, #0]
 3290 1350 4E48     		ldr	r0, .L250
 3291 1352 0C21     		movs	r1, #12
 3292 1354 FFF7FEFF 		bl	uart_transmit
 3293              	.LBB298:
 3294 1358 3178     		ldrb	r1, [r6, #0]	@ zero_extendqisi2
 3295              	.LVL519:
 3296 135a 2B78     		ldrb	r3, [r5, #0]	@ zero_extendqisi2
 3297 135c 2278     		ldrb	r2, [r4, #0]	@ zero_extendqisi2
 3298 135e CB18     		adds	r3, r1, r3
 3299 1360 DBB2     		uxtb	r3, r3
 3300              	.LVL520:
 3301 1362 2B70     		strb	r3, [r5, #0]
 3302 1364 9B18     		adds	r3, r3, r2
 3303              	.LVL521:
 3304 1366 2370     		strb	r3, [r4, #0]
 3305 1368 4848     		ldr	r0, .L250
 3306 136a FFF7FEFF 		bl	uart_transmit
 3307              	.LVL522:
 3308              	.LBE298:
 3309              	.LBB299:
 3310 136e 7178     		ldrb	r1, [r6, #1]	@ zero_extendqisi2
 3311              	.LVL523:
 3312 1370 2B78     		ldrb	r3, [r5, #0]	@ zero_extendqisi2
 3313 1372 2278     		ldrb	r2, [r4, #0]	@ zero_extendqisi2
 3314 1374 CB18     		adds	r3, r1, r3
 3315 1376 DBB2     		uxtb	r3, r3
 3316              	.LVL524:
 3317 1378 2B70     		strb	r3, [r5, #0]
 3318 137a 9B18     		adds	r3, r3, r2
 3319              	.LVL525:
 3320 137c 2370     		strb	r3, [r4, #0]
 3321 137e 4348     		ldr	r0, .L250
 3322 1380 FFF7FEFF 		bl	uart_transmit
 3323              	.LVL526:
 3324              	.LBE299:
 3325              	.LBB300:
 3326 1384 4C4B     		ldr	r3, .L250+44
 3327 1386 2278     		ldrb	r2, [r4, #0]	@ zero_extendqisi2
 3328 1388 1978     		ldrb	r1, [r3, #0]	@ zero_extendqisi2
 3329              	.LVL527:
 3330 138a 2B78     		ldrb	r3, [r5, #0]	@ zero_extendqisi2
 3331 138c 3F48     		ldr	r0, .L250
 3332 138e CB18     		adds	r3, r1, r3
 3333 1390 DBB2     		uxtb	r3, r3
 3334              	.LVL528:
 3335 1392 2B70     		strb	r3, [r5, #0]
 3336 1394 9B18     		adds	r3, r3, r2
 3337              	.LVL529:
 3338 1396 2370     		strb	r3, [r4, #0]
 3339 1398 FFF7FEFF 		bl	uart_transmit
 3340              	.LVL530:
 3341              	.LBE300:
 3342              	.LBB301:
 3343 139c 9DF81E10 		ldrb	r1, [sp, #30]	@ zero_extendqisi2
 3344              	.LVL531:
 3345 13a0 2B78     		ldrb	r3, [r5, #0]	@ zero_extendqisi2
 3346 13a2 2278     		ldrb	r2, [r4, #0]	@ zero_extendqisi2
 3347 13a4 CB18     		adds	r3, r1, r3
 3348 13a6 DBB2     		uxtb	r3, r3
 3349              	.LVL532:
 3350 13a8 2B70     		strb	r3, [r5, #0]
 3351 13aa 9B18     		adds	r3, r3, r2
 3352              	.LVL533:
 3353 13ac 2370     		strb	r3, [r4, #0]
 3354 13ae 3748     		ldr	r0, .L250
 3355 13b0 FFF7FEFF 		bl	uart_transmit
 3356              	.LVL534:
 3357              	.LBE301:
 3358              	.LBB302:
 3359 13b4 9DF81F10 		ldrb	r1, [sp, #31]	@ zero_extendqisi2
 3360              	.LVL535:
 3361 13b8 2B78     		ldrb	r3, [r5, #0]	@ zero_extendqisi2
 3362 13ba 2278     		ldrb	r2, [r4, #0]	@ zero_extendqisi2
 3363 13bc CB18     		adds	r3, r1, r3
 3364 13be DBB2     		uxtb	r3, r3
 3365              	.LBE302:
 3366              	.LBB303:
 3367 13c0 3E4E     		ldr	r6, .L250+48
 3368              	.LVL536:
 3369              	.LBE303:
 3370              	.LBB304:
 3371 13c2 2B70     		strb	r3, [r5, #0]
 3372 13c4 9B18     		adds	r3, r3, r2
 3373              	.LVL537:
 3374 13c6 2370     		strb	r3, [r4, #0]
 3375 13c8 3048     		ldr	r0, .L250
 3376 13ca FFF7FEFF 		bl	uart_transmit
 3377              	.LVL538:
 3378              	.LBE304:
 3379              	.LBB305:
 3380 13ce 3178     		ldrb	r1, [r6, #0]	@ zero_extendqisi2
 3381              	.LVL539:
 3382 13d0 2B78     		ldrb	r3, [r5, #0]	@ zero_extendqisi2
 3383 13d2 2278     		ldrb	r2, [r4, #0]	@ zero_extendqisi2
 3384 13d4 CB18     		adds	r3, r1, r3
 3385 13d6 DBB2     		uxtb	r3, r3
 3386              	.LVL540:
 3387 13d8 2B70     		strb	r3, [r5, #0]
 3388 13da 9B18     		adds	r3, r3, r2
 3389              	.LVL541:
 3390 13dc 2370     		strb	r3, [r4, #0]
 3391 13de 2B48     		ldr	r0, .L250
 3392 13e0 FFF7FEFF 		bl	uart_transmit
 3393              	.LVL542:
 3394              	.LBE305:
 3395              	.LBB306:
 3396 13e4 7178     		ldrb	r1, [r6, #1]	@ zero_extendqisi2
 3397              	.LVL543:
 3398 13e6 2B78     		ldrb	r3, [r5, #0]	@ zero_extendqisi2
 3399 13e8 2278     		ldrb	r2, [r4, #0]	@ zero_extendqisi2
 3400 13ea CB18     		adds	r3, r1, r3
 3401 13ec DBB2     		uxtb	r3, r3
 3402              	.LVL544:
 3403 13ee 2B70     		strb	r3, [r5, #0]
 3404 13f0 9B18     		adds	r3, r3, r2
 3405              	.LVL545:
 3406 13f2 2370     		strb	r3, [r4, #0]
 3407 13f4 2548     		ldr	r0, .L250
 3408 13f6 FFF7FEFF 		bl	uart_transmit
 3409              	.LVL546:
 3410              	.LBE306:
 3411              	.LBB307:
 3412 13fa 314B     		ldr	r3, .L250+52
 3413 13fc 2278     		ldrb	r2, [r4, #0]	@ zero_extendqisi2
 3414 13fe 1978     		ldrb	r1, [r3, #0]	@ zero_extendqisi2
 3415              	.LVL547:
 3416 1400 2B78     		ldrb	r3, [r5, #0]	@ zero_extendqisi2
 3417              	.LBE307:
 3418              	.LBB308:
 3419 1402 304E     		ldr	r6, .L250+56
 3420              	.LBE308:
 3421              	.LBB309:
 3422 1404 CB18     		adds	r3, r1, r3
 3423 1406 DBB2     		uxtb	r3, r3
 3424              	.LVL548:
 3425 1408 2B70     		strb	r3, [r5, #0]
 3426 140a 9B18     		adds	r3, r3, r2
 3427              	.LVL549:
 3428 140c 2370     		strb	r3, [r4, #0]
 3429 140e 1F48     		ldr	r0, .L250
 3430 1410 FFF7FEFF 		bl	uart_transmit
 3431              	.LVL550:
 3432              	.LBE309:
 3433              	.LBB310:
 3434 1414 3178     		ldrb	r1, [r6, #0]	@ zero_extendqisi2
 3435              	.LVL551:
 3436 1416 2B78     		ldrb	r3, [r5, #0]	@ zero_extendqisi2
 3437 1418 2278     		ldrb	r2, [r4, #0]	@ zero_extendqisi2
 3438 141a CB18     		adds	r3, r1, r3
 3439 141c DBB2     		uxtb	r3, r3
 3440              	.LVL552:
 3441 141e 2B70     		strb	r3, [r5, #0]
 3442 1420 9B18     		adds	r3, r3, r2
 3443              	.LVL553:
 3444 1422 2370     		strb	r3, [r4, #0]
 3445 1424 1948     		ldr	r0, .L250
 3446 1426 FFF7FEFF 		bl	uart_transmit
 3447              	.LVL554:
 3448              	.LBE310:
 3449              	.LBB311:
 3450 142a 7178     		ldrb	r1, [r6, #1]	@ zero_extendqisi2
 3451              	.LVL555:
 3452 142c 2B78     		ldrb	r3, [r5, #0]	@ zero_extendqisi2
 3453 142e 2278     		ldrb	r2, [r4, #0]	@ zero_extendqisi2
 3454 1430 CB18     		adds	r3, r1, r3
 3455 1432 DBB2     		uxtb	r3, r3
 3456              	.LVL556:
 3457 1434 2B70     		strb	r3, [r5, #0]
 3458              	.LBE311:
 3459              	.LBB312:
 3460 1436 244E     		ldr	r6, .L250+60
 3461              	.LBE312:
 3462              	.LBB313:
 3463 1438 9B18     		adds	r3, r3, r2
 3464              	.LVL557:
 3465 143a 2370     		strb	r3, [r4, #0]
 3466 143c 1348     		ldr	r0, .L250
 3467 143e FFF7FEFF 		bl	uart_transmit
 3468              	.LVL558:
 3469              	.LBE313:
 3470              	.LBB314:
 3471 1442 3178     		ldrb	r1, [r6, #0]	@ zero_extendqisi2
 3472              	.LVL559:
 3473 1444 2B78     		ldrb	r3, [r5, #0]	@ zero_extendqisi2
 3474 1446 2278     		ldrb	r2, [r4, #0]	@ zero_extendqisi2
 3475 1448 CB18     		adds	r3, r1, r3
 3476 144a DBB2     		uxtb	r3, r3
 3477              	.LVL560:
 3478 144c 2B70     		strb	r3, [r5, #0]
 3479 144e 9B18     		adds	r3, r3, r2
 3480              	.LVL561:
 3481 1450 2370     		strb	r3, [r4, #0]
 3482 1452 0E48     		ldr	r0, .L250
 3483 1454 FFF7FEFF 		bl	uart_transmit
 3484              	.LVL562:
 3485              	.LBE314:
 3486              	.LBB315:
 3487 1458 7178     		ldrb	r1, [r6, #1]	@ zero_extendqisi2
 3488              	.LVL563:
 3489 145a 2B78     		ldrb	r3, [r5, #0]	@ zero_extendqisi2
 3490 145c 2278     		ldrb	r2, [r4, #0]	@ zero_extendqisi2
 3491 145e CB18     		adds	r3, r1, r3
 3492 1460 DBB2     		uxtb	r3, r3
 3493              	.LVL564:
 3494 1462 2B70     		strb	r3, [r5, #0]
 3495 1464 9B18     		adds	r3, r3, r2
 3496              	.LVL565:
 3497 1466 2370     		strb	r3, [r4, #0]
 3498 1468 0848     		ldr	r0, .L250
 3499 146a FFF7FEFF 		bl	uart_transmit
 3500              	.LVL566:
 3501              	.LBE315:
 3502              	.LBB316:
 3503 146e 9DF81C10 		ldrb	r1, [sp, #28]	@ zero_extendqisi2
 3504              	.LVL567:
 3505 1472 2B78     		ldrb	r3, [r5, #0]	@ zero_extendqisi2
 3506 1474 2278     		ldrb	r2, [r4, #0]	@ zero_extendqisi2
 3507 1476 CB18     		adds	r3, r1, r3
 3508 1478 DBB2     		uxtb	r3, r3
 3509              	.LVL568:
 3510 147a 2B70     		strb	r3, [r5, #0]
 3511 147c 9B18     		adds	r3, r3, r2
 3512              	.LVL569:
 3513 147e 2370     		strb	r3, [r4, #0]
 3514 1480 0248     		ldr	r0, .L250
 3515 1482 FFF7FEFF 		bl	uart_transmit
 3516              	.LVL570:
 3517              	.LBE316:
 3518              	.LBB317:
 3519 1486 9DF81D10 		ldrb	r1, [sp, #29]	@ zero_extendqisi2
 3520              	.LVL571:
 3521 148a EDE0     		b	.L214
 3522              	.L251:
 3523              		.align	2
 3524              	.L250:
 3525 148c 00000000 		.word	uart2
 3526 1490 00000000 		.word	v_ctl_climb_setpoint
 3527 1494 00000000 		.word	downlink_nb_ovrn
 3528 1498 00000000 		.word	.LANCHOR14
 3529 149c 00000000 		.word	.LANCHOR25
 3530 14a0 00000000 		.word	.LANCHOR26
 3531 14a4 00000000 		.word	downlink_nb_bytes
 3532 14a8 00000000 		.word	downlink_nb_msgs
 3533 14ac 00000000 		.word	ck_a
 3534 14b0 00000000 		.word	ck_b
 3535 14b4 00000000 		.word	v_ctl_throttle_slewed
 3536 14b8 00000000 		.word	.LANCHOR27
 3537 14bc 00000000 		.word	estimator_flight_time
 3538 14c0 00000000 		.word	.LANCHOR28
 3539 14c4 00000000 		.word	block_time
 3540 14c8 00000000 		.word	stage_time
 3541              	.LVL572:
 3542              	.L43:
 3543              	.LBE317:
 3544              	.LBE293:
 3545              	.LBE292:
 3546              		.loc 1 422 0 discriminator 43
 3547 14cc 002B     		cmp	r3, #0
 3548 14ce 40F0EF80 		bne	.L45
 3549              	.LBB318:
 3550              		.loc 1 422 0 discriminator 46
 3551 14d2 6F4C     		ldr	r4, .L252
 3552 14d4 2068     		ldr	r0, [r4, #0]
 3553 14d6 FFF7FEFF 		bl	__aeabi_i2f
 3554 14da 4FF06651 		mov	r1, #964689920
 3555 14de FFF7FEFF 		bl	__aeabi_fmul
 3556 14e2 0190     		str	r0, [sp, #4]	@ float
 3557 14e4 6068     		ldr	r0, [r4, #4]
 3558 14e6 FFF7FEFF 		bl	__aeabi_i2f
 3559 14ea 4FF06651 		mov	r1, #964689920
 3560 14ee FFF7FEFF 		bl	__aeabi_fmul
 3561 14f2 0290     		str	r0, [sp, #8]	@ float
 3562 14f4 A068     		ldr	r0, [r4, #8]
 3563 14f6 FFF7FEFF 		bl	__aeabi_i2f
 3564 14fa 4FF06651 		mov	r1, #964689920
 3565 14fe FFF7FEFF 		bl	__aeabi_fmul
 3566 1502 1221     		movs	r1, #18
 3567 1504 0390     		str	r0, [sp, #12]	@ float
 3568 1506 6348     		ldr	r0, .L252+4
 3569 1508 FFF7FEFF 		bl	uart_check_free_space
 3570 150c 0028     		cmp	r0, #0
 3571 150e 00F0CB80 		beq	.L46
 3572              		.loc 1 422 0 discriminator 48
 3573 1512 614B     		ldr	r3, .L252+8
 3574              	.LBB319:
 3575 1514 5F48     		ldr	r0, .L252+4
 3576              	.LBE319:
 3577 1516 1A88     		ldrh	r2, [r3, #0]
 3578              	.LBB320:
 3579 1518 9921     		movs	r1, #153
 3580              	.LBE320:
 3581 151a 1232     		adds	r2, r2, #18
 3582 151c 1A80     		strh	r2, [r3, #0]	@ movhi
 3583 151e 5F4B     		ldr	r3, .L252+12
 3584 1520 5F4D     		ldr	r5, .L252+16
 3585 1522 1A88     		ldrh	r2, [r3, #0]
 3586 1524 5F4C     		ldr	r4, .L252+20
 3587 1526 0132     		adds	r2, r2, #1
 3588 1528 1A80     		strh	r2, [r3, #0]	@ movhi
 3589              	.LBB321:
 3590 152a FFF7FEFF 		bl	uart_transmit
 3591              	.LVL573:
 3592 152e 5948     		ldr	r0, .L252+4
 3593 1530 1221     		movs	r1, #18
 3594 1532 FFF7FEFF 		bl	uart_transmit
 3595              	.LBE321:
 3596 1536 1323     		movs	r3, #19
 3597 1538 2B70     		strb	r3, [r5, #0]
 3598 153a 2523     		movs	r3, #37
 3599 153c 2370     		strb	r3, [r4, #0]
 3600 153e 5548     		ldr	r0, .L252+4
 3601 1540 0121     		movs	r1, #1
 3602 1542 FFF7FEFF 		bl	uart_transmit
 3603 1546 2B78     		ldrb	r3, [r5, #0]	@ zero_extendqisi2
 3604 1548 2278     		ldrb	r2, [r4, #0]	@ zero_extendqisi2
 3605 154a 383B     		subs	r3, r3, #56
 3606 154c DBB2     		uxtb	r3, r3
 3607 154e 2B70     		strb	r3, [r5, #0]
 3608 1550 9B18     		adds	r3, r3, r2
 3609 1552 2370     		strb	r3, [r4, #0]
 3610 1554 4F48     		ldr	r0, .L252+4
 3611 1556 C821     		movs	r1, #200
 3612 1558 FFF7FEFF 		bl	uart_transmit
 3613              	.LBB322:
 3614 155c 9DF80410 		ldrb	r1, [sp, #4]	@ zero_extendqisi2
 3615              	.LVL574:
 3616 1560 2B78     		ldrb	r3, [r5, #0]	@ zero_extendqisi2
 3617 1562 2278     		ldrb	r2, [r4, #0]	@ zero_extendqisi2
 3618 1564 CB18     		adds	r3, r1, r3
 3619 1566 DBB2     		uxtb	r3, r3
 3620              	.LVL575:
 3621 1568 2B70     		strb	r3, [r5, #0]
 3622 156a 9B18     		adds	r3, r3, r2
 3623              	.LVL576:
 3624 156c 2370     		strb	r3, [r4, #0]
 3625 156e 4948     		ldr	r0, .L252+4
 3626 1570 FFF7FEFF 		bl	uart_transmit
 3627              	.LVL577:
 3628              	.LBE322:
 3629              	.LBB323:
 3630 1574 9DF80510 		ldrb	r1, [sp, #5]	@ zero_extendqisi2
 3631              	.LVL578:
 3632 1578 2B78     		ldrb	r3, [r5, #0]	@ zero_extendqisi2
 3633 157a 2278     		ldrb	r2, [r4, #0]	@ zero_extendqisi2
 3634 157c CB18     		adds	r3, r1, r3
 3635 157e DBB2     		uxtb	r3, r3
 3636              	.LVL579:
 3637 1580 2B70     		strb	r3, [r5, #0]
 3638 1582 9B18     		adds	r3, r3, r2
 3639              	.LVL580:
 3640 1584 2370     		strb	r3, [r4, #0]
 3641 1586 4348     		ldr	r0, .L252+4
 3642 1588 FFF7FEFF 		bl	uart_transmit
 3643              	.LVL581:
 3644              	.LBE323:
 3645              	.LBB324:
 3646 158c 9DF80610 		ldrb	r1, [sp, #6]	@ zero_extendqisi2
 3647              	.LVL582:
 3648 1590 2B78     		ldrb	r3, [r5, #0]	@ zero_extendqisi2
 3649 1592 2278     		ldrb	r2, [r4, #0]	@ zero_extendqisi2
 3650 1594 CB18     		adds	r3, r1, r3
 3651 1596 DBB2     		uxtb	r3, r3
 3652              	.LVL583:
 3653 1598 2B70     		strb	r3, [r5, #0]
 3654 159a 9B18     		adds	r3, r3, r2
 3655              	.LVL584:
 3656 159c 2370     		strb	r3, [r4, #0]
 3657 159e 3D48     		ldr	r0, .L252+4
 3658 15a0 FFF7FEFF 		bl	uart_transmit
 3659              	.LVL585:
 3660              	.LBE324:
 3661              	.LBB325:
 3662 15a4 9DF80710 		ldrb	r1, [sp, #7]	@ zero_extendqisi2
 3663              	.LVL586:
 3664 15a8 2B78     		ldrb	r3, [r5, #0]	@ zero_extendqisi2
 3665 15aa 2278     		ldrb	r2, [r4, #0]	@ zero_extendqisi2
 3666 15ac CB18     		adds	r3, r1, r3
 3667 15ae DBB2     		uxtb	r3, r3
 3668              	.LVL587:
 3669 15b0 2B70     		strb	r3, [r5, #0]
 3670 15b2 9B18     		adds	r3, r3, r2
 3671              	.LVL588:
 3672 15b4 2370     		strb	r3, [r4, #0]
 3673 15b6 3748     		ldr	r0, .L252+4
 3674 15b8 FFF7FEFF 		bl	uart_transmit
 3675              	.LVL589:
 3676              	.LBE325:
 3677              	.LBB326:
 3678 15bc 9DF80810 		ldrb	r1, [sp, #8]	@ zero_extendqisi2
 3679              	.LVL590:
 3680 15c0 2B78     		ldrb	r3, [r5, #0]	@ zero_extendqisi2
 3681 15c2 2278     		ldrb	r2, [r4, #0]	@ zero_extendqisi2
 3682 15c4 CB18     		adds	r3, r1, r3
 3683 15c6 DBB2     		uxtb	r3, r3
 3684              	.LVL591:
 3685 15c8 2B70     		strb	r3, [r5, #0]
 3686 15ca 9B18     		adds	r3, r3, r2
 3687              	.LVL592:
 3688 15cc 2370     		strb	r3, [r4, #0]
 3689 15ce 3148     		ldr	r0, .L252+4
 3690 15d0 FFF7FEFF 		bl	uart_transmit
 3691              	.LVL593:
 3692              	.LBE326:
 3693              	.LBB327:
 3694 15d4 9DF80910 		ldrb	r1, [sp, #9]	@ zero_extendqisi2
 3695              	.LVL594:
 3696 15d8 2B78     		ldrb	r3, [r5, #0]	@ zero_extendqisi2
 3697 15da 2278     		ldrb	r2, [r4, #0]	@ zero_extendqisi2
 3698 15dc CB18     		adds	r3, r1, r3
 3699 15de DBB2     		uxtb	r3, r3
 3700              	.LVL595:
 3701 15e0 2B70     		strb	r3, [r5, #0]
 3702 15e2 9B18     		adds	r3, r3, r2
 3703              	.LVL596:
 3704 15e4 2370     		strb	r3, [r4, #0]
 3705 15e6 2B48     		ldr	r0, .L252+4
 3706 15e8 FFF7FEFF 		bl	uart_transmit
 3707              	.LVL597:
 3708              	.LBE327:
 3709              	.LBB328:
 3710 15ec 9DF80A10 		ldrb	r1, [sp, #10]	@ zero_extendqisi2
 3711              	.LVL598:
 3712 15f0 2B78     		ldrb	r3, [r5, #0]	@ zero_extendqisi2
 3713 15f2 2278     		ldrb	r2, [r4, #0]	@ zero_extendqisi2
 3714 15f4 CB18     		adds	r3, r1, r3
 3715 15f6 DBB2     		uxtb	r3, r3
 3716              	.LVL599:
 3717 15f8 2B70     		strb	r3, [r5, #0]
 3718 15fa 9B18     		adds	r3, r3, r2
 3719              	.LVL600:
 3720 15fc 2370     		strb	r3, [r4, #0]
 3721 15fe 2548     		ldr	r0, .L252+4
 3722 1600 FFF7FEFF 		bl	uart_transmit
 3723              	.LVL601:
 3724              	.LBE328:
 3725              	.LBB329:
 3726 1604 9DF80B10 		ldrb	r1, [sp, #11]	@ zero_extendqisi2
 3727              	.LVL602:
 3728 1608 2B78     		ldrb	r3, [r5, #0]	@ zero_extendqisi2
 3729 160a 2278     		ldrb	r2, [r4, #0]	@ zero_extendqisi2
 3730 160c CB18     		adds	r3, r1, r3
 3731 160e DBB2     		uxtb	r3, r3
 3732              	.LVL603:
 3733 1610 2B70     		strb	r3, [r5, #0]
 3734 1612 9B18     		adds	r3, r3, r2
 3735              	.LVL604:
 3736 1614 2370     		strb	r3, [r4, #0]
 3737 1616 1F48     		ldr	r0, .L252+4
 3738 1618 FFF7FEFF 		bl	uart_transmit
 3739              	.LVL605:
 3740              	.LBE329:
 3741              	.LBB330:
 3742 161c 9DF80C10 		ldrb	r1, [sp, #12]	@ zero_extendqisi2
 3743              	.LVL606:
 3744 1620 2B78     		ldrb	r3, [r5, #0]	@ zero_extendqisi2
 3745 1622 2278     		ldrb	r2, [r4, #0]	@ zero_extendqisi2
 3746 1624 CB18     		adds	r3, r1, r3
 3747 1626 DBB2     		uxtb	r3, r3
 3748              	.LVL607:
 3749 1628 2B70     		strb	r3, [r5, #0]
 3750 162a 9B18     		adds	r3, r3, r2
 3751              	.LVL608:
 3752 162c 2370     		strb	r3, [r4, #0]
 3753 162e 1948     		ldr	r0, .L252+4
 3754 1630 FFF7FEFF 		bl	uart_transmit
 3755              	.LVL609:
 3756              	.LBE330:
 3757              	.LBB331:
 3758 1634 9DF80D10 		ldrb	r1, [sp, #13]	@ zero_extendqisi2
 3759              	.LVL610:
 3760 1638 2B78     		ldrb	r3, [r5, #0]	@ zero_extendqisi2
 3761 163a 2278     		ldrb	r2, [r4, #0]	@ zero_extendqisi2
 3762 163c CB18     		adds	r3, r1, r3
 3763 163e DBB2     		uxtb	r3, r3
 3764              	.LVL611:
 3765 1640 2B70     		strb	r3, [r5, #0]
 3766 1642 9B18     		adds	r3, r3, r2
 3767              	.LVL612:
 3768 1644 2370     		strb	r3, [r4, #0]
 3769 1646 1348     		ldr	r0, .L252+4
 3770 1648 FFF7FEFF 		bl	uart_transmit
 3771              	.LVL613:
 3772              	.LBE331:
 3773              	.LBB332:
 3774 164c 9DF80E10 		ldrb	r1, [sp, #14]	@ zero_extendqisi2
 3775              	.LVL614:
 3776 1650 2B78     		ldrb	r3, [r5, #0]	@ zero_extendqisi2
 3777 1652 2278     		ldrb	r2, [r4, #0]	@ zero_extendqisi2
 3778 1654 CB18     		adds	r3, r1, r3
 3779 1656 DBB2     		uxtb	r3, r3
 3780              	.LVL615:
 3781 1658 2B70     		strb	r3, [r5, #0]
 3782 165a 9B18     		adds	r3, r3, r2
 3783              	.LVL616:
 3784 165c 2370     		strb	r3, [r4, #0]
 3785 165e 0D48     		ldr	r0, .L252+4
 3786 1660 FFF7FEFF 		bl	uart_transmit
 3787              	.LVL617:
 3788              	.LBE332:
 3789              	.LBB333:
 3790 1664 9DF80F10 		ldrb	r1, [sp, #15]	@ zero_extendqisi2
 3791              	.LVL618:
 3792              	.L214:
 3793 1668 2B78     		ldrb	r3, [r5, #0]	@ zero_extendqisi2
 3794 166a 2278     		ldrb	r2, [r4, #0]	@ zero_extendqisi2
 3795 166c CB18     		adds	r3, r1, r3
 3796 166e DBB2     		uxtb	r3, r3
 3797              	.LVL619:
 3798 1670 2B70     		strb	r3, [r5, #0]
 3799 1672 9B18     		adds	r3, r3, r2
 3800              	.LVL620:
 3801 1674 2370     		strb	r3, [r4, #0]
 3802 1676 0748     		ldr	r0, .L252+4
 3803 1678 FFF7FEFF 		bl	uart_transmit
 3804              	.LVL621:
 3805              	.LBE333:
 3806 167c 2978     		ldrb	r1, [r5, #0]	@ zero_extendqisi2
 3807 167e 0548     		ldr	r0, .L252+4
 3808 1680 FFF7FEFF 		bl	uart_transmit
 3809 1684 0348     		ldr	r0, .L252+4
 3810 1686 2178     		ldrb	r1, [r4, #0]	@ zero_extendqisi2
 3811 1688 FFF7FEFF 		bl	uart_transmit
 3812 168c 10E0     		b	.L45
 3813              	.L253:
 3814 168e 00BF     		.align	2
 3815              	.L252:
 3816 1690 00000000 		.word	imu
 3817 1694 00000000 		.word	uart2
 3818 1698 00000000 		.word	downlink_nb_bytes
 3819 169c 00000000 		.word	downlink_nb_msgs
 3820 16a0 00000000 		.word	ck_a
 3821 16a4 00000000 		.word	ck_b
 3822              	.L46:
 3823              		.loc 1 422 0 discriminator 49
 3824 16a8 954B     		ldr	r3, .L254
 3825 16aa 1A78     		ldrb	r2, [r3, #0]	@ zero_extendqisi2
 3826 16ac 0132     		adds	r2, r2, #1
 3827 16ae 1A70     		strb	r2, [r3, #0]
 3828              	.L45:
 3829              	.LBE318:
 3830              		.loc 1 422 0 discriminator 47
 3831 16b0 944B     		ldr	r3, .L254+4
 3832 16b2 1B78     		ldrb	r3, [r3, #0]	@ zero_extendqisi2
 3833 16b4 062B     		cmp	r3, #6
 3834 16b6 40F0F280 		bne	.L47
 3835              		.loc 1 422 0 discriminator 50
 3836 16ba 934B     		ldr	r3, .L254+8
 3837 16bc 1B78     		ldrb	r3, [r3, #0]	@ zero_extendqisi2
 3838 16be 002B     		cmp	r3, #0
 3839 16c0 00F0ED80 		beq	.L47
 3840              		.loc 1 422 0 discriminator 52
 3841 16c4 9148     		ldr	r0, .L254+12
 3842 16c6 1621     		movs	r1, #22
 3843 16c8 FFF7FEFF 		bl	uart_check_free_space
 3844 16cc 0028     		cmp	r0, #0
 3845 16ce 00F0E280 		beq	.L48
 3846              		.loc 1 422 0 discriminator 53
 3847 16d2 8F4B     		ldr	r3, .L254+16
 3848              	.LBB334:
 3849 16d4 9921     		movs	r1, #153
 3850              	.LBE334:
 3851 16d6 1A88     		ldrh	r2, [r3, #0]
 3852              	.LBB335:
 3853 16d8 8C48     		ldr	r0, .L254+12
 3854              	.LBE335:
 3855 16da 1632     		adds	r2, r2, #22
 3856 16dc 1A80     		strh	r2, [r3, #0]	@ movhi
 3857 16de 8D4B     		ldr	r3, .L254+20
 3858 16e0 8D4D     		ldr	r5, .L254+24
 3859 16e2 1A88     		ldrh	r2, [r3, #0]
 3860 16e4 8D4C     		ldr	r4, .L254+28
 3861 16e6 0132     		adds	r2, r2, #1
 3862 16e8 1A80     		strh	r2, [r3, #0]	@ movhi
 3863              	.LBB336:
 3864 16ea FFF7FEFF 		bl	uart_transmit
 3865              	.LVL622:
 3866 16ee 1621     		movs	r1, #22
 3867 16f0 8648     		ldr	r0, .L254+12
 3868 16f2 FFF7FEFF 		bl	uart_transmit
 3869              	.LBE336:
 3870 16f6 1723     		movs	r3, #23
 3871 16f8 2B70     		strb	r3, [r5, #0]
 3872 16fa 2D23     		movs	r3, #45
 3873 16fc 2370     		strb	r3, [r4, #0]
 3874 16fe 0121     		movs	r1, #1
 3875 1700 8248     		ldr	r0, .L254+12
 3876 1702 FFF7FEFF 		bl	uart_transmit
 3877 1706 2B78     		ldrb	r3, [r5, #0]	@ zero_extendqisi2
 3878 1708 2278     		ldrb	r2, [r4, #0]	@ zero_extendqisi2
 3879 170a 1633     		adds	r3, r3, #22
 3880 170c DBB2     		uxtb	r3, r3
 3881              	.LBB337:
 3882 170e 844E     		ldr	r6, .L254+32
 3883              	.LBE337:
 3884 1710 2B70     		strb	r3, [r5, #0]
 3885 1712 9B18     		adds	r3, r3, r2
 3886 1714 2370     		strb	r3, [r4, #0]
 3887 1716 1621     		movs	r1, #22
 3888 1718 7C48     		ldr	r0, .L254+12
 3889 171a FFF7FEFF 		bl	uart_transmit
 3890              	.LBB338:
 3891 171e 3178     		ldrb	r1, [r6, #0]	@ zero_extendqisi2
 3892              	.LVL623:
 3893 1720 2B78     		ldrb	r3, [r5, #0]	@ zero_extendqisi2
 3894 1722 2278     		ldrb	r2, [r4, #0]	@ zero_extendqisi2
 3895 1724 CB18     		adds	r3, r1, r3
 3896 1726 DBB2     		uxtb	r3, r3
 3897              	.LVL624:
 3898 1728 2B70     		strb	r3, [r5, #0]
 3899 172a 9B18     		adds	r3, r3, r2
 3900              	.LVL625:
 3901 172c 2370     		strb	r3, [r4, #0]
 3902 172e 7748     		ldr	r0, .L254+12
 3903 1730 FFF7FEFF 		bl	uart_transmit
 3904              	.LVL626:
 3905              	.LBE338:
 3906              	.LBB339:
 3907 1734 7178     		ldrb	r1, [r6, #1]	@ zero_extendqisi2
 3908              	.LVL627:
 3909 1736 2B78     		ldrb	r3, [r5, #0]	@ zero_extendqisi2
 3910 1738 2278     		ldrb	r2, [r4, #0]	@ zero_extendqisi2
 3911 173a CB18     		adds	r3, r1, r3
 3912 173c DBB2     		uxtb	r3, r3
 3913              	.LVL628:
 3914 173e 2B70     		strb	r3, [r5, #0]
 3915 1740 9B18     		adds	r3, r3, r2
 3916              	.LVL629:
 3917 1742 2370     		strb	r3, [r4, #0]
 3918 1744 7148     		ldr	r0, .L254+12
 3919 1746 FFF7FEFF 		bl	uart_transmit
 3920              	.LVL630:
 3921              	.LBE339:
 3922              	.LBB340:
 3923 174a B178     		ldrb	r1, [r6, #2]	@ zero_extendqisi2
 3924              	.LVL631:
 3925 174c 2B78     		ldrb	r3, [r5, #0]	@ zero_extendqisi2
 3926 174e 2278     		ldrb	r2, [r4, #0]	@ zero_extendqisi2
 3927 1750 CB18     		adds	r3, r1, r3
 3928 1752 DBB2     		uxtb	r3, r3
 3929              	.LVL632:
 3930 1754 2B70     		strb	r3, [r5, #0]
 3931 1756 9B18     		adds	r3, r3, r2
 3932              	.LVL633:
 3933 1758 2370     		strb	r3, [r4, #0]
 3934 175a 6C48     		ldr	r0, .L254+12
 3935 175c FFF7FEFF 		bl	uart_transmit
 3936              	.LVL634:
 3937              	.LBE340:
 3938              	.LBB341:
 3939 1760 F178     		ldrb	r1, [r6, #3]	@ zero_extendqisi2
 3940              	.LVL635:
 3941 1762 2B78     		ldrb	r3, [r5, #0]	@ zero_extendqisi2
 3942 1764 2278     		ldrb	r2, [r4, #0]	@ zero_extendqisi2
 3943 1766 CB18     		adds	r3, r1, r3
 3944 1768 DBB2     		uxtb	r3, r3
 3945              	.LBE341:
 3946              	.LBB342:
 3947 176a 6E4E     		ldr	r6, .L254+36
 3948              	.LVL636:
 3949              	.LBE342:
 3950              	.LBB343:
 3951 176c 2B70     		strb	r3, [r5, #0]
 3952 176e 9B18     		adds	r3, r3, r2
 3953              	.LVL637:
 3954 1770 2370     		strb	r3, [r4, #0]
 3955 1772 6648     		ldr	r0, .L254+12
 3956 1774 FFF7FEFF 		bl	uart_transmit
 3957              	.LVL638:
 3958              	.LBE343:
 3959              	.LBB344:
 3960 1778 3178     		ldrb	r1, [r6, #0]	@ zero_extendqisi2
 3961              	.LVL639:
 3962 177a 2B78     		ldrb	r3, [r5, #0]	@ zero_extendqisi2
 3963 177c 2278     		ldrb	r2, [r4, #0]	@ zero_extendqisi2
 3964 177e CB18     		adds	r3, r1, r3
 3965 1780 DBB2     		uxtb	r3, r3
 3966              	.LVL640:
 3967 1782 2B70     		strb	r3, [r5, #0]
 3968 1784 9B18     		adds	r3, r3, r2
 3969              	.LVL641:
 3970 1786 2370     		strb	r3, [r4, #0]
 3971 1788 6048     		ldr	r0, .L254+12
 3972 178a FFF7FEFF 		bl	uart_transmit
 3973              	.LVL642:
 3974              	.LBE344:
 3975              	.LBB345:
 3976 178e 7178     		ldrb	r1, [r6, #1]	@ zero_extendqisi2
 3977              	.LVL643:
 3978 1790 2B78     		ldrb	r3, [r5, #0]	@ zero_extendqisi2
 3979 1792 2278     		ldrb	r2, [r4, #0]	@ zero_extendqisi2
 3980 1794 CB18     		adds	r3, r1, r3
 3981 1796 DBB2     		uxtb	r3, r3
 3982              	.LVL644:
 3983 1798 2B70     		strb	r3, [r5, #0]
 3984 179a 9B18     		adds	r3, r3, r2
 3985              	.LVL645:
 3986 179c 2370     		strb	r3, [r4, #0]
 3987 179e 5B48     		ldr	r0, .L254+12
 3988 17a0 FFF7FEFF 		bl	uart_transmit
 3989              	.LVL646:
 3990              	.LBE345:
 3991              	.LBB346:
 3992 17a4 B178     		ldrb	r1, [r6, #2]	@ zero_extendqisi2
 3993              	.LVL647:
 3994 17a6 2B78     		ldrb	r3, [r5, #0]	@ zero_extendqisi2
 3995 17a8 2278     		ldrb	r2, [r4, #0]	@ zero_extendqisi2
 3996 17aa CB18     		adds	r3, r1, r3
 3997 17ac DBB2     		uxtb	r3, r3
 3998              	.LVL648:
 3999 17ae 2B70     		strb	r3, [r5, #0]
 4000 17b0 9B18     		adds	r3, r3, r2
 4001              	.LVL649:
 4002 17b2 2370     		strb	r3, [r4, #0]
 4003 17b4 5548     		ldr	r0, .L254+12
 4004 17b6 FFF7FEFF 		bl	uart_transmit
 4005              	.LVL650:
 4006              	.LBE346:
 4007              	.LBB347:
 4008 17ba F178     		ldrb	r1, [r6, #3]	@ zero_extendqisi2
 4009              	.LVL651:
 4010 17bc 2B78     		ldrb	r3, [r5, #0]	@ zero_extendqisi2
 4011 17be 2278     		ldrb	r2, [r4, #0]	@ zero_extendqisi2
 4012 17c0 CB18     		adds	r3, r1, r3
 4013 17c2 DBB2     		uxtb	r3, r3
 4014              	.LBE347:
 4015              	.LBB348:
 4016 17c4 584E     		ldr	r6, .L254+40
 4017              	.LVL652:
 4018              	.LBE348:
 4019              	.LBB349:
 4020 17c6 2B70     		strb	r3, [r5, #0]
 4021 17c8 9B18     		adds	r3, r3, r2
 4022              	.LVL653:
 4023 17ca 2370     		strb	r3, [r4, #0]
 4024 17cc 4F48     		ldr	r0, .L254+12
 4025 17ce FFF7FEFF 		bl	uart_transmit
 4026              	.LVL654:
 4027              	.LBE349:
 4028              	.LBB350:
 4029 17d2 3178     		ldrb	r1, [r6, #0]	@ zero_extendqisi2
 4030              	.LVL655:
 4031 17d4 2B78     		ldrb	r3, [r5, #0]	@ zero_extendqisi2
 4032 17d6 2278     		ldrb	r2, [r4, #0]	@ zero_extendqisi2
 4033 17d8 CB18     		adds	r3, r1, r3
 4034 17da DBB2     		uxtb	r3, r3
 4035              	.LVL656:
 4036 17dc 2B70     		strb	r3, [r5, #0]
 4037 17de 9B18     		adds	r3, r3, r2
 4038              	.LVL657:
 4039 17e0 2370     		strb	r3, [r4, #0]
 4040 17e2 4A48     		ldr	r0, .L254+12
 4041 17e4 FFF7FEFF 		bl	uart_transmit
 4042              	.LVL658:
 4043              	.LBE350:
 4044              	.LBB351:
 4045 17e8 7178     		ldrb	r1, [r6, #1]	@ zero_extendqisi2
 4046              	.LVL659:
 4047 17ea 2B78     		ldrb	r3, [r5, #0]	@ zero_extendqisi2
 4048 17ec 2278     		ldrb	r2, [r4, #0]	@ zero_extendqisi2
 4049 17ee CB18     		adds	r3, r1, r3
 4050 17f0 DBB2     		uxtb	r3, r3
 4051              	.LVL660:
 4052 17f2 2B70     		strb	r3, [r5, #0]
 4053 17f4 9B18     		adds	r3, r3, r2
 4054              	.LVL661:
 4055 17f6 2370     		strb	r3, [r4, #0]
 4056 17f8 4448     		ldr	r0, .L254+12
 4057 17fa FFF7FEFF 		bl	uart_transmit
 4058              	.LVL662:
 4059              	.LBE351:
 4060              	.LBB352:
 4061 17fe B178     		ldrb	r1, [r6, #2]	@ zero_extendqisi2
 4062              	.LVL663:
 4063 1800 2B78     		ldrb	r3, [r5, #0]	@ zero_extendqisi2
 4064 1802 2278     		ldrb	r2, [r4, #0]	@ zero_extendqisi2
 4065 1804 CB18     		adds	r3, r1, r3
 4066 1806 DBB2     		uxtb	r3, r3
 4067              	.LVL664:
 4068 1808 2B70     		strb	r3, [r5, #0]
 4069 180a 9B18     		adds	r3, r3, r2
 4070              	.LVL665:
 4071 180c 2370     		strb	r3, [r4, #0]
 4072 180e 3F48     		ldr	r0, .L254+12
 4073 1810 FFF7FEFF 		bl	uart_transmit
 4074              	.LVL666:
 4075              	.LBE352:
 4076              	.LBB353:
 4077 1814 F178     		ldrb	r1, [r6, #3]	@ zero_extendqisi2
 4078              	.LVL667:
 4079 1816 2B78     		ldrb	r3, [r5, #0]	@ zero_extendqisi2
 4080 1818 2278     		ldrb	r2, [r4, #0]	@ zero_extendqisi2
 4081 181a CB18     		adds	r3, r1, r3
 4082 181c DBB2     		uxtb	r3, r3
 4083              	.LBE353:
 4084              	.LBB354:
 4085 181e 434E     		ldr	r6, .L254+44
 4086              	.LVL668:
 4087              	.LBE354:
 4088              	.LBB355:
 4089 1820 2B70     		strb	r3, [r5, #0]
 4090 1822 9B18     		adds	r3, r3, r2
 4091              	.LVL669:
 4092 1824 2370     		strb	r3, [r4, #0]
 4093 1826 3948     		ldr	r0, .L254+12
 4094 1828 FFF7FEFF 		bl	uart_transmit
 4095              	.LVL670:
 4096              	.LBE355:
 4097              	.LBB356:
 4098 182c 3178     		ldrb	r1, [r6, #0]	@ zero_extendqisi2
 4099              	.LVL671:
 4100 182e 2B78     		ldrb	r3, [r5, #0]	@ zero_extendqisi2
 4101 1830 2278     		ldrb	r2, [r4, #0]	@ zero_extendqisi2
 4102 1832 CB18     		adds	r3, r1, r3
 4103 1834 DBB2     		uxtb	r3, r3
 4104              	.LVL672:
 4105 1836 2B70     		strb	r3, [r5, #0]
 4106 1838 9B18     		adds	r3, r3, r2
 4107              	.LVL673:
 4108 183a 2370     		strb	r3, [r4, #0]
 4109 183c 3348     		ldr	r0, .L254+12
 4110 183e FFF7FEFF 		bl	uart_transmit
 4111              	.LVL674:
 4112              	.LBE356:
 4113              	.LBB357:
 4114 1842 7178     		ldrb	r1, [r6, #1]	@ zero_extendqisi2
 4115              	.LVL675:
 4116 1844 2B78     		ldrb	r3, [r5, #0]	@ zero_extendqisi2
 4117 1846 2278     		ldrb	r2, [r4, #0]	@ zero_extendqisi2
 4118 1848 CB18     		adds	r3, r1, r3
 4119 184a DBB2     		uxtb	r3, r3
 4120              	.LVL676:
 4121 184c 2B70     		strb	r3, [r5, #0]
 4122 184e 9B18     		adds	r3, r3, r2
 4123              	.LVL677:
 4124 1850 2370     		strb	r3, [r4, #0]
 4125 1852 2E48     		ldr	r0, .L254+12
 4126 1854 FFF7FEFF 		bl	uart_transmit
 4127              	.LVL678:
 4128              	.LBE357:
 4129              	.LBB358:
 4130 1858 B178     		ldrb	r1, [r6, #2]	@ zero_extendqisi2
 4131              	.LVL679:
 4132 185a 2B78     		ldrb	r3, [r5, #0]	@ zero_extendqisi2
 4133 185c 2278     		ldrb	r2, [r4, #0]	@ zero_extendqisi2
 4134 185e CB18     		adds	r3, r1, r3
 4135 1860 DBB2     		uxtb	r3, r3
 4136              	.LVL680:
 4137 1862 2B70     		strb	r3, [r5, #0]
 4138 1864 9B18     		adds	r3, r3, r2
 4139              	.LVL681:
 4140 1866 2370     		strb	r3, [r4, #0]
 4141 1868 2848     		ldr	r0, .L254+12
 4142 186a FFF7FEFF 		bl	uart_transmit
 4143              	.LVL682:
 4144              	.LBE358:
 4145              	.LBB359:
 4146 186e F178     		ldrb	r1, [r6, #3]	@ zero_extendqisi2
 4147              	.LVL683:
 4148 1870 2B78     		ldrb	r3, [r5, #0]	@ zero_extendqisi2
 4149 1872 2278     		ldrb	r2, [r4, #0]	@ zero_extendqisi2
 4150 1874 CB18     		adds	r3, r1, r3
 4151 1876 DBB2     		uxtb	r3, r3
 4152              	.LVL684:
 4153 1878 2B70     		strb	r3, [r5, #0]
 4154 187a 9B18     		adds	r3, r3, r2
 4155              	.LVL685:
 4156 187c 2370     		strb	r3, [r4, #0]
 4157 187e 2348     		ldr	r0, .L254+12
 4158 1880 FFF7FEFF 		bl	uart_transmit
 4159              	.LVL686:
 4160              	.LBE359:
 4161 1884 2978     		ldrb	r1, [r5, #0]	@ zero_extendqisi2
 4162 1886 2148     		ldr	r0, .L254+12
 4163 1888 FFF7FEFF 		bl	uart_transmit
 4164 188c 1F48     		ldr	r0, .L254+12
 4165 188e 2178     		ldrb	r1, [r4, #0]	@ zero_extendqisi2
 4166 1890 FFF7FEFF 		bl	uart_transmit
 4167 1894 03E0     		b	.L47
 4168              	.LVL687:
 4169              	.L48:
 4170              		.loc 1 422 0 discriminator 54
 4171 1896 1A4B     		ldr	r3, .L254
 4172 1898 1A78     		ldrb	r2, [r3, #0]	@ zero_extendqisi2
 4173 189a 0132     		adds	r2, r2, #1
 4174 189c 1A70     		strb	r2, [r3, #0]
 4175              	.L47:
 4176              		.loc 1 422 0 discriminator 55
 4177 189e 244B     		ldr	r3, .L254+48
 4178 18a0 1B78     		ldrb	r3, [r3, #0]	@ zero_extendqisi2
 4179 18a2 122B     		cmp	r3, #18
 4180 18a4 40F0DC80 		bne	.L49
 4181              	.LBB360:
 4182              		.loc 1 422 0 discriminator 56
 4183 18a8 224B     		ldr	r3, .L254+52
 4184 18aa 1A78     		ldrb	r2, [r3, #0]	@ zero_extendqisi2
 4185 18ac 0B2A     		cmp	r2, #11
 4186 18ae 01D9     		bls	.L50
 4187              		.loc 1 422 0 discriminator 58
 4188 18b0 0022     		movs	r2, #0
 4189 18b2 1A70     		strb	r2, [r3, #0]
 4190              	.L50:
 4191              		.loc 1 422 0 discriminator 59
 4192 18b4 1B78     		ldrb	r3, [r3, #0]	@ zero_extendqisi2
 4193 18b6 0B2B     		cmp	r3, #11
 4194 18b8 58D8     		bhi	.L51
 4195 18ba DFE803F0 		tbb	[pc, r3]
 4196              	.L64:
 4197 18be 06       		.byte	(.L52-.L64)/2
 4198 18bf 08       		.byte	(.L53-.L64)/2
 4199 18c0 0E       		.byte	(.L54-.L64)/2
 4200 18c1 10       		.byte	(.L55-.L64)/2
 4201 18c2 12       		.byte	(.L56-.L64)/2
 4202 18c3 14       		.byte	(.L57-.L64)/2
 4203 18c4 17       		.byte	(.L58-.L64)/2
 4204 18c5 1A       		.byte	(.L59-.L64)/2
 4205 18c6 1C       		.byte	(.L60-.L64)/2
 4206 18c7 1E       		.byte	(.L61-.L64)/2
 4207 18c8 51       		.byte	(.L62-.L64)/2
 4208 18c9 55       		.byte	(.L63-.L64)/2
 4209              		.align	1
 4210              	.L52:
 4211              		.loc 1 422 0 discriminator 61
 4212 18ca 1B4B     		ldr	r3, .L254+56
 4213 18cc 00E0     		b	.L215
 4214              	.L53:
 4215              		.loc 1 422 0 discriminator 62
 4216 18ce 1B4B     		ldr	r3, .L254+60
 4217              	.L215:
 4218 18d0 1878     		ldrb	r0, [r3, #0]	@ zero_extendqisi2
 4219              	.L216:
 4220 18d2 FFF7FEFF 		bl	__aeabi_ui2f
 4221 18d6 0590     		str	r0, [sp, #20]	@ float
 4222              	.LVL688:
 4223 18d8 4AE0     		b	.L65
 4224              	.LVL689:
 4225              	.L54:
 4226              		.loc 1 422 0 discriminator 63
 4227 18da 194B     		ldr	r3, .L254+64
 4228 18dc 07E0     		b	.L226
 4229              	.L55:
 4230              		.loc 1 422 0 discriminator 64
 4231 18de 194B     		ldr	r3, .L254+68
 4232 18e0 05E0     		b	.L226
 4233              	.L56:
 4234              		.loc 1 422 0 discriminator 65
 4235 18e2 194B     		ldr	r3, .L254+72
 4236 18e4 03E0     		b	.L226
 4237              	.L57:
 4238              		.loc 1 422 0 discriminator 66
 4239 18e6 194B     		ldr	r3, .L254+76
 4240 18e8 1888     		ldrh	r0, [r3, #0]
 4241 18ea F2E7     		b	.L216
 4242              	.L58:
 4243              		.loc 1 422 0 discriminator 67
 4244 18ec 184B     		ldr	r3, .L254+80
 4245              	.L226:
 4246 18ee 1B68     		ldr	r3, [r3, #0]	@ float
 4247 18f0 3DE0     		b	.L217
 4248              	.L59:
 4249              		.loc 1 422 0 discriminator 68
 4250 18f2 184B     		ldr	r3, .L254+84
 4251 18f4 ECE7     		b	.L215
 4252              	.L60:
 4253              		.loc 1 422 0 discriminator 69
 4254 18f6 184B     		ldr	r3, .L254+88
 4255 18f8 EAE7     		b	.L215
 4256              	.L61:
 4257              		.loc 1 422 0 discriminator 70
 4258 18fa 184B     		ldr	r3, .L254+92
 4259 18fc E8E7     		b	.L215
 4260              	.L255:
 4261 18fe 00BF     		.align	2
 4262              	.L254:
 4263 1900 00000000 		.word	downlink_nb_ovrn
 4264 1904 00000000 		.word	.LANCHOR15
 4265 1908 00000000 		.word	nav_in_segment
 4266 190c 00000000 		.word	uart2
 4267 1910 00000000 		.word	downlink_nb_bytes
 4268 1914 00000000 		.word	downlink_nb_msgs
 4269 1918 00000000 		.word	ck_a
 4270 191c 00000000 		.word	ck_b
 4271 1920 00000000 		.word	nav_segment_x_1
 4272 1924 00000000 		.word	nav_segment_y_1
 4273 1928 00000000 		.word	nav_segment_x_2
 4274 192c 00000000 		.word	nav_segment_y_2
 4275 1930 00000000 		.word	.LANCHOR16
 4276 1934 00000000 		.word	.LANCHOR29
 4277 1938 00000000 		.word	telemetry_mode_Ap
 4278 193c 00000000 		.word	telemetry_mode_Fbw
 4279 1940 00000000 		.word	flight_altitude
 4280 1944 00000000 		.word	nav_course
 4281 1948 00000000 		.word	nav_shift
 4282 194c 00000000 		.word	estimator_flight_time
 4283 1950 00000000 		.word	nav_radius
 4284 1954 00000000 		.word	.LANCHOR30
 4285 1958 00000000 		.word	.LANCHOR31
 4286 195c 00000000 		.word	.LANCHOR28
 4287              	.L62:
 4288              		.loc 1 422 0 discriminator 71
 4289 1960 9F4B     		ldr	r3, .L256
 4290 1962 B3F8F000 		ldrh	r0, [r3, #240]
 4291 1966 B4E7     		b	.L216
 4292              	.L63:
 4293              		.loc 1 422 0 discriminator 72
 4294 1968 9E4B     		ldr	r3, .L256+4
 4295 196a B1E7     		b	.L215
 4296              	.L51:
 4297              		.loc 1 422 0 discriminator 60
 4298 196c 0023     		movs	r3, #0
 4299              	.L217:
 4300 196e 0593     		str	r3, [sp, #20]	@ float
 4301              	.LVL690:
 4302              	.L65:
 4303              		.loc 1 422 0 discriminator 73
 4304 1970 9D48     		ldr	r0, .L256+8
 4305 1972 0B21     		movs	r1, #11
 4306 1974 FFF7FEFF 		bl	uart_check_free_space
 4307 1978 0028     		cmp	r0, #0
 4308 197a 69D0     		beq	.L66
 4309              		.loc 1 422 0 discriminator 74
 4310 197c 9B4B     		ldr	r3, .L256+12
 4311              	.LBB361:
 4312 197e 9921     		movs	r1, #153
 4313              	.LBE361:
 4314 1980 1A88     		ldrh	r2, [r3, #0]
 4315              	.LBB362:
 4316 1982 9948     		ldr	r0, .L256+8
 4317              	.LBE362:
 4318 1984 0B32     		adds	r2, r2, #11
 4319 1986 1A80     		strh	r2, [r3, #0]	@ movhi
 4320 1988 994B     		ldr	r3, .L256+16
 4321 198a 9A4D     		ldr	r5, .L256+20
 4322 198c 1A88     		ldrh	r2, [r3, #0]
 4323 198e 9A4C     		ldr	r4, .L256+24
 4324 1990 0132     		adds	r2, r2, #1
 4325 1992 1A80     		strh	r2, [r3, #0]	@ movhi
 4326              	.LBB363:
 4327 1994 FFF7FEFF 		bl	uart_transmit
 4328              	.LVL691:
 4329 1998 0B21     		movs	r1, #11
 4330 199a 9348     		ldr	r0, .L256+8
 4331 199c FFF7FEFF 		bl	uart_transmit
 4332              	.LBE363:
 4333 19a0 0C23     		movs	r3, #12
 4334 19a2 2B70     		strb	r3, [r5, #0]
 4335 19a4 1723     		movs	r3, #23
 4336 19a6 2370     		strb	r3, [r4, #0]
 4337 19a8 0121     		movs	r1, #1
 4338 19aa 8F48     		ldr	r0, .L256+8
 4339 19ac FFF7FEFF 		bl	uart_transmit
 4340 19b0 2B78     		ldrb	r3, [r5, #0]	@ zero_extendqisi2
 4341 19b2 2278     		ldrb	r2, [r4, #0]	@ zero_extendqisi2
 4342 19b4 1F33     		adds	r3, r3, #31
 4343 19b6 DBB2     		uxtb	r3, r3
 4344 19b8 2B70     		strb	r3, [r5, #0]
 4345 19ba 9B18     		adds	r3, r3, r2
 4346 19bc 2370     		strb	r3, [r4, #0]
 4347 19be 1F21     		movs	r1, #31
 4348 19c0 8948     		ldr	r0, .L256+8
 4349 19c2 FFF7FEFF 		bl	uart_transmit
 4350              	.LBB364:
 4351 19c6 8D4B     		ldr	r3, .L256+28
 4352 19c8 2278     		ldrb	r2, [r4, #0]	@ zero_extendqisi2
 4353 19ca 1978     		ldrb	r1, [r3, #0]	@ zero_extendqisi2
 4354              	.LVL692:
 4355 19cc 2B78     		ldrb	r3, [r5, #0]	@ zero_extendqisi2
 4356 19ce 8648     		ldr	r0, .L256+8
 4357 19d0 CB18     		adds	r3, r1, r3
 4358 19d2 DBB2     		uxtb	r3, r3
 4359              	.LVL693:
 4360 19d4 2B70     		strb	r3, [r5, #0]
 4361 19d6 9B18     		adds	r3, r3, r2
 4362              	.LVL694:
 4363 19d8 2370     		strb	r3, [r4, #0]
 4364 19da FFF7FEFF 		bl	uart_transmit
 4365              	.LVL695:
 4366              	.LBE364:
 4367              	.LBB365:
 4368 19de 9DF81410 		ldrb	r1, [sp, #20]	@ zero_extendqisi2
 4369              	.LVL696:
 4370 19e2 2B78     		ldrb	r3, [r5, #0]	@ zero_extendqisi2
 4371 19e4 2278     		ldrb	r2, [r4, #0]	@ zero_extendqisi2
 4372 19e6 CB18     		adds	r3, r1, r3
 4373 19e8 DBB2     		uxtb	r3, r3
 4374              	.LVL697:
 4375 19ea 2B70     		strb	r3, [r5, #0]
 4376 19ec 9B18     		adds	r3, r3, r2
 4377              	.LVL698:
 4378 19ee 2370     		strb	r3, [r4, #0]
 4379 19f0 7D48     		ldr	r0, .L256+8
 4380 19f2 FFF7FEFF 		bl	uart_transmit
 4381              	.LVL699:
 4382              	.LBE365:
 4383              	.LBB366:
 4384 19f6 9DF81510 		ldrb	r1, [sp, #21]	@ zero_extendqisi2
 4385              	.LVL700:
 4386 19fa 2B78     		ldrb	r3, [r5, #0]	@ zero_extendqisi2
 4387 19fc 2278     		ldrb	r2, [r4, #0]	@ zero_extendqisi2
 4388 19fe CB18     		adds	r3, r1, r3
 4389 1a00 DBB2     		uxtb	r3, r3
 4390              	.LVL701:
 4391 1a02 2B70     		strb	r3, [r5, #0]
 4392 1a04 9B18     		adds	r3, r3, r2
 4393              	.LVL702:
 4394 1a06 2370     		strb	r3, [r4, #0]
 4395 1a08 7748     		ldr	r0, .L256+8
 4396 1a0a FFF7FEFF 		bl	uart_transmit
 4397              	.LVL703:
 4398              	.LBE366:
 4399              	.LBB367:
 4400 1a0e 9DF81610 		ldrb	r1, [sp, #22]	@ zero_extendqisi2
 4401              	.LVL704:
 4402 1a12 2B78     		ldrb	r3, [r5, #0]	@ zero_extendqisi2
 4403 1a14 2278     		ldrb	r2, [r4, #0]	@ zero_extendqisi2
 4404 1a16 CB18     		adds	r3, r1, r3
 4405 1a18 DBB2     		uxtb	r3, r3
 4406              	.LVL705:
 4407 1a1a 2B70     		strb	r3, [r5, #0]
 4408 1a1c 9B18     		adds	r3, r3, r2
 4409              	.LVL706:
 4410 1a1e 2370     		strb	r3, [r4, #0]
 4411 1a20 7148     		ldr	r0, .L256+8
 4412 1a22 FFF7FEFF 		bl	uart_transmit
 4413              	.LVL707:
 4414              	.LBE367:
 4415              	.LBB368:
 4416 1a26 9DF81710 		ldrb	r1, [sp, #23]	@ zero_extendqisi2
 4417              	.LVL708:
 4418 1a2a 2B78     		ldrb	r3, [r5, #0]	@ zero_extendqisi2
 4419 1a2c 2278     		ldrb	r2, [r4, #0]	@ zero_extendqisi2
 4420 1a2e CB18     		adds	r3, r1, r3
 4421 1a30 DBB2     		uxtb	r3, r3
 4422              	.LVL709:
 4423 1a32 2B70     		strb	r3, [r5, #0]
 4424 1a34 9B18     		adds	r3, r3, r2
 4425              	.LVL710:
 4426 1a36 2370     		strb	r3, [r4, #0]
 4427 1a38 6B48     		ldr	r0, .L256+8
 4428 1a3a FFF7FEFF 		bl	uart_transmit
 4429              	.LVL711:
 4430              	.LBE368:
 4431 1a3e 2978     		ldrb	r1, [r5, #0]	@ zero_extendqisi2
 4432 1a40 6948     		ldr	r0, .L256+8
 4433 1a42 FFF7FEFF 		bl	uart_transmit
 4434 1a46 6848     		ldr	r0, .L256+8
 4435 1a48 2178     		ldrb	r1, [r4, #0]	@ zero_extendqisi2
 4436 1a4a FFF7FEFF 		bl	uart_transmit
 4437 1a4e 03E0     		b	.L67
 4438              	.LVL712:
 4439              	.L66:
 4440              		.loc 1 422 0 discriminator 75
 4441 1a50 6B4B     		ldr	r3, .L256+32
 4442 1a52 1A78     		ldrb	r2, [r3, #0]	@ zero_extendqisi2
 4443 1a54 0132     		adds	r2, r2, #1
 4444 1a56 1A70     		strb	r2, [r3, #0]
 4445              	.L67:
 4446              		.loc 1 422 0 discriminator 76
 4447 1a58 684B     		ldr	r3, .L256+28
 4448 1a5a 1A78     		ldrb	r2, [r3, #0]	@ zero_extendqisi2
 4449 1a5c 0132     		adds	r2, r2, #1
 4450 1a5e 1A70     		strb	r2, [r3, #0]
 4451              	.L49:
 4452              	.LBE360:
 4453              		.loc 1 422 0 discriminator 57
 4454 1a60 684B     		ldr	r3, .L256+36
 4455 1a62 1B78     		ldrb	r3, [r3, #0]	@ zero_extendqisi2
 4456 1a64 182B     		cmp	r3, #24
 4457 1a66 40F0D380 		bne	.L68
 4458              		.loc 1 422 0 discriminator 77
 4459 1a6a 5F48     		ldr	r0, .L256+8
 4460 1a6c 1121     		movs	r1, #17
 4461 1a6e FFF7FEFF 		bl	uart_check_free_space
 4462 1a72 0028     		cmp	r0, #0
 4463 1a74 00F0C880 		beq	.L69
 4464              		.loc 1 422 0 discriminator 79
 4465 1a78 5C4B     		ldr	r3, .L256+12
 4466              	.LBB369:
 4467 1a7a 9921     		movs	r1, #153
 4468              	.LBE369:
 4469 1a7c 1A88     		ldrh	r2, [r3, #0]
 4470              	.LBB370:
 4471 1a7e 5A48     		ldr	r0, .L256+8
 4472              	.LBE370:
 4473 1a80 1132     		adds	r2, r2, #17
 4474 1a82 1A80     		strh	r2, [r3, #0]	@ movhi
 4475 1a84 5A4B     		ldr	r3, .L256+16
 4476 1a86 5B4D     		ldr	r5, .L256+20
 4477 1a88 1A88     		ldrh	r2, [r3, #0]
 4478 1a8a 5B4C     		ldr	r4, .L256+24
 4479 1a8c 0132     		adds	r2, r2, #1
 4480 1a8e 1A80     		strh	r2, [r3, #0]	@ movhi
 4481              	.LBB371:
 4482 1a90 FFF7FEFF 		bl	uart_transmit
 4483              	.LVL713:
 4484 1a94 1121     		movs	r1, #17
 4485 1a96 5448     		ldr	r0, .L256+8
 4486 1a98 FFF7FEFF 		bl	uart_transmit
 4487              	.LBE371:
 4488 1a9c 1223     		movs	r3, #18
 4489 1a9e 2B70     		strb	r3, [r5, #0]
 4490 1aa0 2323     		movs	r3, #35
 4491 1aa2 2370     		strb	r3, [r4, #0]
 4492 1aa4 0121     		movs	r1, #1
 4493 1aa6 5048     		ldr	r0, .L256+8
 4494 1aa8 FFF7FEFF 		bl	uart_transmit
 4495 1aac 2B78     		ldrb	r3, [r5, #0]	@ zero_extendqisi2
 4496 1aae 2278     		ldrb	r2, [r4, #0]	@ zero_extendqisi2
 4497 1ab0 1133     		adds	r3, r3, #17
 4498 1ab2 DBB2     		uxtb	r3, r3
 4499              	.LBB372:
 4500 1ab4 4A4E     		ldr	r6, .L256
 4501              	.LBE372:
 4502 1ab6 2B70     		strb	r3, [r5, #0]
 4503 1ab8 9B18     		adds	r3, r3, r2
 4504 1aba 2370     		strb	r3, [r4, #0]
 4505 1abc 1121     		movs	r1, #17
 4506 1abe 4A48     		ldr	r0, .L256+8
 4507 1ac0 FFF7FEFF 		bl	uart_transmit
 4508              	.LBB373:
 4509 1ac4 96F84C10 		ldrb	r1, [r6, #76]	@ zero_extendqisi2
 4510              	.LVL714:
 4511 1ac8 2B78     		ldrb	r3, [r5, #0]	@ zero_extendqisi2
 4512 1aca 2278     		ldrb	r2, [r4, #0]	@ zero_extendqisi2
 4513 1acc CB18     		adds	r3, r1, r3
 4514 1ace DBB2     		uxtb	r3, r3
 4515              	.LVL715:
 4516 1ad0 2B70     		strb	r3, [r5, #0]
 4517 1ad2 9B18     		adds	r3, r3, r2
 4518              	.LVL716:
 4519 1ad4 2370     		strb	r3, [r4, #0]
 4520 1ad6 4448     		ldr	r0, .L256+8
 4521 1ad8 FFF7FEFF 		bl	uart_transmit
 4522              	.LVL717:
 4523              	.LBE373:
 4524              	.LBB374:
 4525 1adc 96F84D10 		ldrb	r1, [r6, #77]	@ zero_extendqisi2
 4526              	.LVL718:
 4527 1ae0 2B78     		ldrb	r3, [r5, #0]	@ zero_extendqisi2
 4528 1ae2 2278     		ldrb	r2, [r4, #0]	@ zero_extendqisi2
 4529 1ae4 CB18     		adds	r3, r1, r3
 4530 1ae6 DBB2     		uxtb	r3, r3
 4531              	.LVL719:
 4532 1ae8 2B70     		strb	r3, [r5, #0]
 4533 1aea 9B18     		adds	r3, r3, r2
 4534              	.LVL720:
 4535 1aec 2370     		strb	r3, [r4, #0]
 4536 1aee 3E48     		ldr	r0, .L256+8
 4537 1af0 FFF7FEFF 		bl	uart_transmit
 4538              	.LVL721:
 4539              	.LBE374:
 4540              	.LBB375:
 4541 1af4 96F84E10 		ldrb	r1, [r6, #78]	@ zero_extendqisi2
 4542              	.LVL722:
 4543 1af8 2B78     		ldrb	r3, [r5, #0]	@ zero_extendqisi2
 4544 1afa 2278     		ldrb	r2, [r4, #0]	@ zero_extendqisi2
 4545 1afc CB18     		adds	r3, r1, r3
 4546 1afe DBB2     		uxtb	r3, r3
 4547              	.LVL723:
 4548 1b00 2B70     		strb	r3, [r5, #0]
 4549 1b02 9B18     		adds	r3, r3, r2
 4550              	.LVL724:
 4551 1b04 2370     		strb	r3, [r4, #0]
 4552 1b06 3848     		ldr	r0, .L256+8
 4553 1b08 FFF7FEFF 		bl	uart_transmit
 4554              	.LVL725:
 4555              	.LBE375:
 4556              	.LBB376:
 4557 1b0c 96F84F10 		ldrb	r1, [r6, #79]	@ zero_extendqisi2
 4558              	.LVL726:
 4559 1b10 2B78     		ldrb	r3, [r5, #0]	@ zero_extendqisi2
 4560 1b12 2278     		ldrb	r2, [r4, #0]	@ zero_extendqisi2
 4561 1b14 CB18     		adds	r3, r1, r3
 4562 1b16 DBB2     		uxtb	r3, r3
 4563              	.LVL727:
 4564 1b18 2B70     		strb	r3, [r5, #0]
 4565 1b1a 9B18     		adds	r3, r3, r2
 4566              	.LVL728:
 4567 1b1c 2370     		strb	r3, [r4, #0]
 4568 1b1e 3248     		ldr	r0, .L256+8
 4569 1b20 FFF7FEFF 		bl	uart_transmit
 4570              	.LVL729:
 4571              	.LBE376:
 4572              	.LBB377:
 4573 1b24 96F85010 		ldrb	r1, [r6, #80]	@ zero_extendqisi2
 4574              	.LVL730:
 4575 1b28 2B78     		ldrb	r3, [r5, #0]	@ zero_extendqisi2
 4576 1b2a 2278     		ldrb	r2, [r4, #0]	@ zero_extendqisi2
 4577 1b2c CB18     		adds	r3, r1, r3
 4578 1b2e DBB2     		uxtb	r3, r3
 4579              	.LVL731:
 4580 1b30 2B70     		strb	r3, [r5, #0]
 4581 1b32 9B18     		adds	r3, r3, r2
 4582              	.LVL732:
 4583 1b34 2370     		strb	r3, [r4, #0]
 4584 1b36 2C48     		ldr	r0, .L256+8
 4585 1b38 FFF7FEFF 		bl	uart_transmit
 4586              	.LVL733:
 4587              	.LBE377:
 4588              	.LBB378:
 4589 1b3c 96F85110 		ldrb	r1, [r6, #81]	@ zero_extendqisi2
 4590              	.LVL734:
 4591 1b40 2B78     		ldrb	r3, [r5, #0]	@ zero_extendqisi2
 4592 1b42 2278     		ldrb	r2, [r4, #0]	@ zero_extendqisi2
 4593 1b44 CB18     		adds	r3, r1, r3
 4594 1b46 DBB2     		uxtb	r3, r3
 4595              	.LVL735:
 4596 1b48 2B70     		strb	r3, [r5, #0]
 4597 1b4a 9B18     		adds	r3, r3, r2
 4598              	.LVL736:
 4599 1b4c 2370     		strb	r3, [r4, #0]
 4600 1b4e 2648     		ldr	r0, .L256+8
 4601 1b50 FFF7FEFF 		bl	uart_transmit
 4602              	.LVL737:
 4603              	.LBE378:
 4604              	.LBB379:
 4605 1b54 96F85210 		ldrb	r1, [r6, #82]	@ zero_extendqisi2
 4606              	.LVL738:
 4607 1b58 2B78     		ldrb	r3, [r5, #0]	@ zero_extendqisi2
 4608 1b5a 2278     		ldrb	r2, [r4, #0]	@ zero_extendqisi2
 4609 1b5c CB18     		adds	r3, r1, r3
 4610 1b5e DBB2     		uxtb	r3, r3
 4611              	.LVL739:
 4612 1b60 2B70     		strb	r3, [r5, #0]
 4613 1b62 9B18     		adds	r3, r3, r2
 4614              	.LVL740:
 4615 1b64 2370     		strb	r3, [r4, #0]
 4616 1b66 2048     		ldr	r0, .L256+8
 4617 1b68 FFF7FEFF 		bl	uart_transmit
 4618              	.LVL741:
 4619              	.LBE379:
 4620              	.LBB380:
 4621 1b6c 96F85310 		ldrb	r1, [r6, #83]	@ zero_extendqisi2
 4622              	.LVL742:
 4623 1b70 2B78     		ldrb	r3, [r5, #0]	@ zero_extendqisi2
 4624 1b72 2278     		ldrb	r2, [r4, #0]	@ zero_extendqisi2
 4625 1b74 CB18     		adds	r3, r1, r3
 4626 1b76 DBB2     		uxtb	r3, r3
 4627              	.LVL743:
 4628 1b78 2B70     		strb	r3, [r5, #0]
 4629 1b7a 9B18     		adds	r3, r3, r2
 4630              	.LVL744:
 4631 1b7c 2370     		strb	r3, [r4, #0]
 4632 1b7e 1A48     		ldr	r0, .L256+8
 4633 1b80 FFF7FEFF 		bl	uart_transmit
 4634              	.LVL745:
 4635              	.LBE380:
 4636              	.LBB381:
 4637 1b84 96F85810 		ldrb	r1, [r6, #88]	@ zero_extendqisi2
 4638              	.LVL746:
 4639 1b88 2B78     		ldrb	r3, [r5, #0]	@ zero_extendqisi2
 4640 1b8a 2278     		ldrb	r2, [r4, #0]	@ zero_extendqisi2
 4641 1b8c CB18     		adds	r3, r1, r3
 4642 1b8e DBB2     		uxtb	r3, r3
 4643              	.LVL747:
 4644 1b90 2B70     		strb	r3, [r5, #0]
 4645 1b92 9B18     		adds	r3, r3, r2
 4646              	.LVL748:
 4647 1b94 2370     		strb	r3, [r4, #0]
 4648 1b96 1448     		ldr	r0, .L256+8
 4649 1b98 FFF7FEFF 		bl	uart_transmit
 4650              	.LVL749:
 4651              	.LBE381:
 4652              	.LBB382:
 4653 1b9c 96F85910 		ldrb	r1, [r6, #89]	@ zero_extendqisi2
 4654              	.LVL750:
 4655 1ba0 2B78     		ldrb	r3, [r5, #0]	@ zero_extendqisi2
 4656 1ba2 2278     		ldrb	r2, [r4, #0]	@ zero_extendqisi2
 4657 1ba4 CB18     		adds	r3, r1, r3
 4658 1ba6 DBB2     		uxtb	r3, r3
 4659              	.LVL751:
 4660 1ba8 2B70     		strb	r3, [r5, #0]
 4661 1baa 9B18     		adds	r3, r3, r2
 4662              	.LVL752:
 4663 1bac 2370     		strb	r3, [r4, #0]
 4664 1bae 0E48     		ldr	r0, .L256+8
 4665 1bb0 FFF7FEFF 		bl	uart_transmit
 4666              	.LVL753:
 4667              	.LBE382:
 4668              	.LBB383:
 4669 1bb4 96F85A10 		ldrb	r1, [r6, #90]	@ zero_extendqisi2
 4670              	.LVL754:
 4671 1bb8 2B78     		ldrb	r3, [r5, #0]	@ zero_extendqisi2
 4672 1bba 2278     		ldrb	r2, [r4, #0]	@ zero_extendqisi2
 4673 1bbc CB18     		adds	r3, r1, r3
 4674 1bbe DBB2     		uxtb	r3, r3
 4675              	.LVL755:
 4676 1bc0 2B70     		strb	r3, [r5, #0]
 4677 1bc2 9B18     		adds	r3, r3, r2
 4678              	.LVL756:
 4679 1bc4 2370     		strb	r3, [r4, #0]
 4680 1bc6 0848     		ldr	r0, .L256+8
 4681 1bc8 FFF7FEFF 		bl	uart_transmit
 4682              	.LVL757:
 4683              	.LBE383:
 4684 1bcc 2978     		ldrb	r1, [r5, #0]	@ zero_extendqisi2
 4685 1bce 0648     		ldr	r0, .L256+8
 4686 1bd0 FFF7FEFF 		bl	uart_transmit
 4687 1bd4 0448     		ldr	r0, .L256+8
 4688 1bd6 2178     		ldrb	r1, [r4, #0]	@ zero_extendqisi2
 4689 1bd8 FFF7FEFF 		bl	uart_transmit
 4690 1bdc 18E0     		b	.L68
 4691              	.L257:
 4692 1bde 00BF     		.align	2
 4693              	.L256:
 4694 1be0 00000000 		.word	gps
 4695 1be4 00000000 		.word	.LANCHOR0
 4696 1be8 00000000 		.word	uart2
 4697 1bec 00000000 		.word	downlink_nb_bytes
 4698 1bf0 00000000 		.word	downlink_nb_msgs
 4699 1bf4 00000000 		.word	ck_a
 4700 1bf8 00000000 		.word	ck_b
 4701 1bfc 00000000 		.word	.LANCHOR29
 4702 1c00 00000000 		.word	downlink_nb_ovrn
 4703 1c04 00000000 		.word	.LANCHOR17
 4704              	.LVL758:
 4705              	.L69:
 4706              		.loc 1 422 0 discriminator 80
 4707 1c08 314B     		ldr	r3, .L258
 4708 1c0a 1A78     		ldrb	r2, [r3, #0]	@ zero_extendqisi2
 4709 1c0c 0132     		adds	r2, r2, #1
 4710 1c0e 1A70     		strb	r2, [r3, #0]
 4711              	.L68:
 4712              		.loc 1 422 0 discriminator 78
 4713 1c10 304B     		ldr	r3, .L258+4
 4714 1c12 1B78     		ldrb	r3, [r3, #0]	@ zero_extendqisi2
 4715 1c14 1E2B     		cmp	r3, #30
 4716 1c16 6DD1     		bne	.L70
 4717              		.loc 1 422 0 discriminator 81
 4718 1c18 2F48     		ldr	r0, .L258+8
 4719 1c1a 0B21     		movs	r1, #11
 4720 1c1c FFF7FEFF 		bl	uart_check_free_space
 4721 1c20 0028     		cmp	r0, #0
 4722 1c22 00F06D81 		beq	.L73
 4723              		.loc 1 422 0 discriminator 83
 4724 1c26 2D4B     		ldr	r3, .L258+12
 4725              	.LBB384:
 4726 1c28 2B48     		ldr	r0, .L258+8
 4727              	.LBE384:
 4728 1c2a 1A88     		ldrh	r2, [r3, #0]
 4729              	.LBB385:
 4730 1c2c 9921     		movs	r1, #153
 4731              	.LBE385:
 4732 1c2e 0B32     		adds	r2, r2, #11
 4733 1c30 1A80     		strh	r2, [r3, #0]	@ movhi
 4734 1c32 2B4B     		ldr	r3, .L258+16
 4735 1c34 2B4D     		ldr	r5, .L258+20
 4736 1c36 1A88     		ldrh	r2, [r3, #0]
 4737 1c38 2B4C     		ldr	r4, .L258+24
 4738 1c3a 0132     		adds	r2, r2, #1
 4739 1c3c 1A80     		strh	r2, [r3, #0]	@ movhi
 4740              	.LBB386:
 4741 1c3e FFF7FEFF 		bl	uart_transmit
 4742              	.LVL759:
 4743 1c42 2548     		ldr	r0, .L258+8
 4744 1c44 0B21     		movs	r1, #11
 4745 1c46 FFF7FEFF 		bl	uart_transmit
 4746              	.LBE386:
 4747 1c4a 0C23     		movs	r3, #12
 4748 1c4c 2B70     		strb	r3, [r5, #0]
 4749 1c4e 1723     		movs	r3, #23
 4750 1c50 2370     		strb	r3, [r4, #0]
 4751 1c52 2148     		ldr	r0, .L258+8
 4752 1c54 0121     		movs	r1, #1
 4753 1c56 FFF7FEFF 		bl	uart_transmit
 4754 1c5a 2B78     		ldrb	r3, [r5, #0]	@ zero_extendqisi2
 4755 1c5c 2278     		ldrb	r2, [r4, #0]	@ zero_extendqisi2
 4756 1c5e 0E33     		adds	r3, r3, #14
 4757 1c60 DBB2     		uxtb	r3, r3
 4758              	.LBB387:
 4759 1c62 224E     		ldr	r6, .L258+28
 4760              	.LBE387:
 4761 1c64 2B70     		strb	r3, [r5, #0]
 4762 1c66 9B18     		adds	r3, r3, r2
 4763 1c68 2370     		strb	r3, [r4, #0]
 4764 1c6a 1B48     		ldr	r0, .L258+8
 4765 1c6c 0E21     		movs	r1, #14
 4766 1c6e FFF7FEFF 		bl	uart_transmit
 4767              	.LBB388:
 4768 1c72 3178     		ldrb	r1, [r6, #0]	@ zero_extendqisi2
 4769              	.LVL760:
 4770 1c74 2B78     		ldrb	r3, [r5, #0]	@ zero_extendqisi2
 4771 1c76 2278     		ldrb	r2, [r4, #0]	@ zero_extendqisi2
 4772 1c78 CB18     		adds	r3, r1, r3
 4773 1c7a DBB2     		uxtb	r3, r3
 4774              	.LVL761:
 4775 1c7c 2B70     		strb	r3, [r5, #0]
 4776 1c7e 9B18     		adds	r3, r3, r2
 4777              	.LVL762:
 4778 1c80 2370     		strb	r3, [r4, #0]
 4779 1c82 1548     		ldr	r0, .L258+8
 4780 1c84 FFF7FEFF 		bl	uart_transmit
 4781              	.LVL763:
 4782              	.LBE388:
 4783              	.LBB389:
 4784 1c88 7178     		ldrb	r1, [r6, #1]	@ zero_extendqisi2
 4785              	.LVL764:
 4786 1c8a 2B78     		ldrb	r3, [r5, #0]	@ zero_extendqisi2
 4787 1c8c 2278     		ldrb	r2, [r4, #0]	@ zero_extendqisi2
 4788 1c8e CB18     		adds	r3, r1, r3
 4789 1c90 DBB2     		uxtb	r3, r3
 4790              	.LVL765:
 4791 1c92 2B70     		strb	r3, [r5, #0]
 4792 1c94 9B18     		adds	r3, r3, r2
 4793              	.LVL766:
 4794 1c96 2370     		strb	r3, [r4, #0]
 4795 1c98 0F48     		ldr	r0, .L258+8
 4796 1c9a FFF7FEFF 		bl	uart_transmit
 4797              	.LVL767:
 4798              	.LBE389:
 4799              	.LBB390:
 4800 1c9e B178     		ldrb	r1, [r6, #2]	@ zero_extendqisi2
 4801              	.LVL768:
 4802 1ca0 2B78     		ldrb	r3, [r5, #0]	@ zero_extendqisi2
 4803 1ca2 2278     		ldrb	r2, [r4, #0]	@ zero_extendqisi2
 4804 1ca4 CB18     		adds	r3, r1, r3
 4805 1ca6 DBB2     		uxtb	r3, r3
 4806              	.LVL769:
 4807 1ca8 2B70     		strb	r3, [r5, #0]
 4808 1caa 9B18     		adds	r3, r3, r2
 4809              	.LVL770:
 4810 1cac 2370     		strb	r3, [r4, #0]
 4811 1cae 0A48     		ldr	r0, .L258+8
 4812 1cb0 FFF7FEFF 		bl	uart_transmit
 4813              	.LVL771:
 4814              	.LBE390:
 4815              	.LBB391:
 4816 1cb4 F178     		ldrb	r1, [r6, #3]	@ zero_extendqisi2
 4817              	.LVL772:
 4818 1cb6 2B78     		ldrb	r3, [r5, #0]	@ zero_extendqisi2
 4819 1cb8 2278     		ldrb	r2, [r4, #0]	@ zero_extendqisi2
 4820 1cba CB18     		adds	r3, r1, r3
 4821 1cbc DBB2     		uxtb	r3, r3
 4822              	.LVL773:
 4823 1cbe 2B70     		strb	r3, [r5, #0]
 4824 1cc0 9B18     		adds	r3, r3, r2
 4825              	.LVL774:
 4826 1cc2 2370     		strb	r3, [r4, #0]
 4827 1cc4 0448     		ldr	r0, .L258+8
 4828 1cc6 FFF7FEFF 		bl	uart_transmit
 4829              	.LVL775:
 4830              	.LBE391:
 4831              	.LBB392:
 4832 1cca 094B     		ldr	r3, .L258+32
 4833 1ccc 1978     		ldrb	r1, [r3, #0]	@ zero_extendqisi2
 4834              	.LVL776:
 4835 1cce EFE0     		b	.L218
 4836              	.L259:
 4837              		.align	2
 4838              	.L258:
 4839 1cd0 00000000 		.word	downlink_nb_ovrn
 4840 1cd4 00000000 		.word	.LANCHOR18
 4841 1cd8 00000000 		.word	uart2
 4842 1cdc 00000000 		.word	downlink_nb_bytes
 4843 1ce0 00000000 		.word	downlink_nb_msgs
 4844 1ce4 00000000 		.word	ck_a
 4845 1ce8 00000000 		.word	ck_b
 4846 1cec 00000000 		.word	v_ctl_auto_throttle_sum_err
 4847 1cf0 00000000 		.word	v_ctl_auto_throttle_submode
 4848              	.LVL777:
 4849              	.L70:
 4850              	.LBE392:
 4851              		.loc 1 422 0 discriminator 82
 4852 1cf4 242B     		cmp	r3, #36
 4853 1cf6 40F00781 		bne	.L72
 4854              		.loc 1 422 0 discriminator 85
 4855 1cfa 774B     		ldr	r3, .L260
 4856 1cfc 1B78     		ldrb	r3, [r3, #0]	@ zero_extendqisi2
 4857 1cfe 002B     		cmp	r3, #0
 4858 1d00 00F00281 		beq	.L72
 4859              		.loc 1 422 0 discriminator 87
 4860 1d04 7548     		ldr	r0, .L260+4
 4861 1d06 1621     		movs	r1, #22
 4862 1d08 FFF7FEFF 		bl	uart_check_free_space
 4863 1d0c 0028     		cmp	r0, #0
 4864 1d0e 00F0F780 		beq	.L73
 4865              		.loc 1 422 0 discriminator 88
 4866 1d12 734B     		ldr	r3, .L260+8
 4867              	.LBB393:
 4868 1d14 7148     		ldr	r0, .L260+4
 4869              	.LBE393:
 4870 1d16 1A88     		ldrh	r2, [r3, #0]
 4871              	.LBB394:
 4872 1d18 9921     		movs	r1, #153
 4873              	.LBE394:
 4874 1d1a 1632     		adds	r2, r2, #22
 4875 1d1c 1A80     		strh	r2, [r3, #0]	@ movhi
 4876 1d1e 714B     		ldr	r3, .L260+12
 4877 1d20 714D     		ldr	r5, .L260+16
 4878 1d22 1A88     		ldrh	r2, [r3, #0]
 4879 1d24 714C     		ldr	r4, .L260+20
 4880 1d26 0132     		adds	r2, r2, #1
 4881 1d28 1A80     		strh	r2, [r3, #0]	@ movhi
 4882              	.LBB395:
 4883 1d2a FFF7FEFF 		bl	uart_transmit
 4884              	.LVL778:
 4885 1d2e 6B48     		ldr	r0, .L260+4
 4886 1d30 1621     		movs	r1, #22
 4887 1d32 FFF7FEFF 		bl	uart_transmit
 4888              	.LBE395:
 4889 1d36 1723     		movs	r3, #23
 4890 1d38 2B70     		strb	r3, [r5, #0]
 4891 1d3a 2D23     		movs	r3, #45
 4892 1d3c 2370     		strb	r3, [r4, #0]
 4893 1d3e 6748     		ldr	r0, .L260+4
 4894 1d40 0121     		movs	r1, #1
 4895 1d42 FFF7FEFF 		bl	uart_transmit
 4896 1d46 2B78     		ldrb	r3, [r5, #0]	@ zero_extendqisi2
 4897 1d48 2278     		ldrb	r2, [r4, #0]	@ zero_extendqisi2
 4898 1d4a 1B33     		adds	r3, r3, #27
 4899 1d4c DBB2     		uxtb	r3, r3
 4900              	.LBB396:
 4901 1d4e 684E     		ldr	r6, .L260+24
 4902              	.LBE396:
 4903 1d50 2B70     		strb	r3, [r5, #0]
 4904 1d52 9B18     		adds	r3, r3, r2
 4905 1d54 2370     		strb	r3, [r4, #0]
 4906 1d56 6148     		ldr	r0, .L260+4
 4907 1d58 1B21     		movs	r1, #27
 4908 1d5a FFF7FEFF 		bl	uart_transmit
 4909              	.LBB397:
 4910 1d5e 3178     		ldrb	r1, [r6, #0]	@ zero_extendqisi2
 4911              	.LVL779:
 4912 1d60 2B78     		ldrb	r3, [r5, #0]	@ zero_extendqisi2
 4913 1d62 2278     		ldrb	r2, [r4, #0]	@ zero_extendqisi2
 4914 1d64 CB18     		adds	r3, r1, r3
 4915 1d66 DBB2     		uxtb	r3, r3
 4916              	.LVL780:
 4917 1d68 2B70     		strb	r3, [r5, #0]
 4918 1d6a 9B18     		adds	r3, r3, r2
 4919              	.LVL781:
 4920 1d6c 2370     		strb	r3, [r4, #0]
 4921 1d6e 5B48     		ldr	r0, .L260+4
 4922 1d70 FFF7FEFF 		bl	uart_transmit
 4923              	.LVL782:
 4924              	.LBE397:
 4925              	.LBB398:
 4926 1d74 7178     		ldrb	r1, [r6, #1]	@ zero_extendqisi2
 4927              	.LVL783:
 4928 1d76 2B78     		ldrb	r3, [r5, #0]	@ zero_extendqisi2
 4929 1d78 2278     		ldrb	r2, [r4, #0]	@ zero_extendqisi2
 4930 1d7a CB18     		adds	r3, r1, r3
 4931 1d7c DBB2     		uxtb	r3, r3
 4932              	.LVL784:
 4933 1d7e 2B70     		strb	r3, [r5, #0]
 4934 1d80 9B18     		adds	r3, r3, r2
 4935              	.LVL785:
 4936 1d82 2370     		strb	r3, [r4, #0]
 4937 1d84 5548     		ldr	r0, .L260+4
 4938 1d86 FFF7FEFF 		bl	uart_transmit
 4939              	.LVL786:
 4940              	.LBE398:
 4941              	.LBB399:
 4942 1d8a B178     		ldrb	r1, [r6, #2]	@ zero_extendqisi2
 4943              	.LVL787:
 4944 1d8c 2B78     		ldrb	r3, [r5, #0]	@ zero_extendqisi2
 4945 1d8e 2278     		ldrb	r2, [r4, #0]	@ zero_extendqisi2
 4946 1d90 CB18     		adds	r3, r1, r3
 4947 1d92 DBB2     		uxtb	r3, r3
 4948              	.LVL788:
 4949 1d94 2B70     		strb	r3, [r5, #0]
 4950 1d96 9B18     		adds	r3, r3, r2
 4951              	.LVL789:
 4952 1d98 2370     		strb	r3, [r4, #0]
 4953 1d9a 5048     		ldr	r0, .L260+4
 4954 1d9c FFF7FEFF 		bl	uart_transmit
 4955              	.LVL790:
 4956              	.LBE399:
 4957              	.LBB400:
 4958 1da0 F178     		ldrb	r1, [r6, #3]	@ zero_extendqisi2
 4959              	.LVL791:
 4960 1da2 2B78     		ldrb	r3, [r5, #0]	@ zero_extendqisi2
 4961 1da4 2278     		ldrb	r2, [r4, #0]	@ zero_extendqisi2
 4962 1da6 CB18     		adds	r3, r1, r3
 4963 1da8 DBB2     		uxtb	r3, r3
 4964              	.LBE400:
 4965              	.LBB401:
 4966 1daa 524E     		ldr	r6, .L260+28
 4967              	.LVL792:
 4968              	.LBE401:
 4969              	.LBB402:
 4970 1dac 2B70     		strb	r3, [r5, #0]
 4971 1dae 9B18     		adds	r3, r3, r2
 4972              	.LVL793:
 4973 1db0 2370     		strb	r3, [r4, #0]
 4974 1db2 4A48     		ldr	r0, .L260+4
 4975 1db4 FFF7FEFF 		bl	uart_transmit
 4976              	.LVL794:
 4977              	.LBE402:
 4978              	.LBB403:
 4979 1db8 3178     		ldrb	r1, [r6, #0]	@ zero_extendqisi2
 4980              	.LVL795:
 4981 1dba 2B78     		ldrb	r3, [r5, #0]	@ zero_extendqisi2
 4982 1dbc 2278     		ldrb	r2, [r4, #0]	@ zero_extendqisi2
 4983 1dbe CB18     		adds	r3, r1, r3
 4984 1dc0 DBB2     		uxtb	r3, r3
 4985              	.LVL796:
 4986 1dc2 2B70     		strb	r3, [r5, #0]
 4987 1dc4 9B18     		adds	r3, r3, r2
 4988              	.LVL797:
 4989 1dc6 2370     		strb	r3, [r4, #0]
 4990 1dc8 4448     		ldr	r0, .L260+4
 4991 1dca FFF7FEFF 		bl	uart_transmit
 4992              	.LVL798:
 4993              	.LBE403:
 4994              	.LBB404:
 4995 1dce 7178     		ldrb	r1, [r6, #1]	@ zero_extendqisi2
 4996              	.LVL799:
 4997 1dd0 2B78     		ldrb	r3, [r5, #0]	@ zero_extendqisi2
 4998 1dd2 2278     		ldrb	r2, [r4, #0]	@ zero_extendqisi2
 4999 1dd4 CB18     		adds	r3, r1, r3
 5000 1dd6 DBB2     		uxtb	r3, r3
 5001              	.LVL800:
 5002 1dd8 2B70     		strb	r3, [r5, #0]
 5003 1dda 9B18     		adds	r3, r3, r2
 5004              	.LVL801:
 5005 1ddc 2370     		strb	r3, [r4, #0]
 5006 1dde 3F48     		ldr	r0, .L260+4
 5007 1de0 FFF7FEFF 		bl	uart_transmit
 5008              	.LVL802:
 5009              	.LBE404:
 5010              	.LBB405:
 5011 1de4 B178     		ldrb	r1, [r6, #2]	@ zero_extendqisi2
 5012              	.LVL803:
 5013 1de6 2B78     		ldrb	r3, [r5, #0]	@ zero_extendqisi2
 5014 1de8 2278     		ldrb	r2, [r4, #0]	@ zero_extendqisi2
 5015 1dea CB18     		adds	r3, r1, r3
 5016 1dec DBB2     		uxtb	r3, r3
 5017              	.LVL804:
 5018 1dee 2B70     		strb	r3, [r5, #0]
 5019 1df0 9B18     		adds	r3, r3, r2
 5020              	.LVL805:
 5021 1df2 2370     		strb	r3, [r4, #0]
 5022 1df4 3948     		ldr	r0, .L260+4
 5023 1df6 FFF7FEFF 		bl	uart_transmit
 5024              	.LVL806:
 5025              	.LBE405:
 5026              	.LBB406:
 5027 1dfa F178     		ldrb	r1, [r6, #3]	@ zero_extendqisi2
 5028              	.LVL807:
 5029 1dfc 2B78     		ldrb	r3, [r5, #0]	@ zero_extendqisi2
 5030 1dfe 2278     		ldrb	r2, [r4, #0]	@ zero_extendqisi2
 5031 1e00 CB18     		adds	r3, r1, r3
 5032 1e02 DBB2     		uxtb	r3, r3
 5033              	.LBE406:
 5034              	.LBB407:
 5035 1e04 3C4E     		ldr	r6, .L260+32
 5036              	.LVL808:
 5037              	.LBE407:
 5038              	.LBB408:
 5039 1e06 2B70     		strb	r3, [r5, #0]
 5040 1e08 9B18     		adds	r3, r3, r2
 5041              	.LVL809:
 5042 1e0a 2370     		strb	r3, [r4, #0]
 5043 1e0c 3348     		ldr	r0, .L260+4
 5044 1e0e FFF7FEFF 		bl	uart_transmit
 5045              	.LVL810:
 5046              	.LBE408:
 5047              	.LBB409:
 5048 1e12 3178     		ldrb	r1, [r6, #0]	@ zero_extendqisi2
 5049              	.LVL811:
 5050 1e14 2B78     		ldrb	r3, [r5, #0]	@ zero_extendqisi2
 5051 1e16 2278     		ldrb	r2, [r4, #0]	@ zero_extendqisi2
 5052 1e18 CB18     		adds	r3, r1, r3
 5053 1e1a DBB2     		uxtb	r3, r3
 5054              	.LVL812:
 5055 1e1c 2B70     		strb	r3, [r5, #0]
 5056 1e1e 9B18     		adds	r3, r3, r2
 5057              	.LVL813:
 5058 1e20 2370     		strb	r3, [r4, #0]
 5059 1e22 2E48     		ldr	r0, .L260+4
 5060 1e24 FFF7FEFF 		bl	uart_transmit
 5061              	.LVL814:
 5062              	.LBE409:
 5063              	.LBB410:
 5064 1e28 7178     		ldrb	r1, [r6, #1]	@ zero_extendqisi2
 5065              	.LVL815:
 5066 1e2a 2B78     		ldrb	r3, [r5, #0]	@ zero_extendqisi2
 5067 1e2c 2278     		ldrb	r2, [r4, #0]	@ zero_extendqisi2
 5068 1e2e CB18     		adds	r3, r1, r3
 5069 1e30 DBB2     		uxtb	r3, r3
 5070              	.LVL816:
 5071 1e32 2B70     		strb	r3, [r5, #0]
 5072 1e34 9B18     		adds	r3, r3, r2
 5073              	.LVL817:
 5074 1e36 2370     		strb	r3, [r4, #0]
 5075 1e38 2848     		ldr	r0, .L260+4
 5076 1e3a FFF7FEFF 		bl	uart_transmit
 5077              	.LVL818:
 5078              	.LBE410:
 5079              	.LBB411:
 5080 1e3e B178     		ldrb	r1, [r6, #2]	@ zero_extendqisi2
 5081              	.LVL819:
 5082 1e40 2B78     		ldrb	r3, [r5, #0]	@ zero_extendqisi2
 5083 1e42 2278     		ldrb	r2, [r4, #0]	@ zero_extendqisi2
 5084 1e44 CB18     		adds	r3, r1, r3
 5085 1e46 DBB2     		uxtb	r3, r3
 5086              	.LVL820:
 5087 1e48 2B70     		strb	r3, [r5, #0]
 5088 1e4a 9B18     		adds	r3, r3, r2
 5089              	.LVL821:
 5090 1e4c 2370     		strb	r3, [r4, #0]
 5091 1e4e 2348     		ldr	r0, .L260+4
 5092 1e50 FFF7FEFF 		bl	uart_transmit
 5093              	.LVL822:
 5094              	.LBE411:
 5095              	.LBB412:
 5096 1e54 F178     		ldrb	r1, [r6, #3]	@ zero_extendqisi2
 5097              	.LVL823:
 5098 1e56 2B78     		ldrb	r3, [r5, #0]	@ zero_extendqisi2
 5099 1e58 2278     		ldrb	r2, [r4, #0]	@ zero_extendqisi2
 5100 1e5a CB18     		adds	r3, r1, r3
 5101 1e5c DBB2     		uxtb	r3, r3
 5102              	.LBE412:
 5103              	.LBB413:
 5104 1e5e 274E     		ldr	r6, .L260+36
 5105              	.LVL824:
 5106              	.LBE413:
 5107              	.LBB414:
 5108 1e60 2B70     		strb	r3, [r5, #0]
 5109 1e62 9B18     		adds	r3, r3, r2
 5110              	.LVL825:
 5111 1e64 2370     		strb	r3, [r4, #0]
 5112 1e66 1D48     		ldr	r0, .L260+4
 5113 1e68 FFF7FEFF 		bl	uart_transmit
 5114              	.LVL826:
 5115              	.LBE414:
 5116              	.LBB415:
 5117 1e6c 3178     		ldrb	r1, [r6, #0]	@ zero_extendqisi2
 5118              	.LVL827:
 5119 1e6e 2B78     		ldrb	r3, [r5, #0]	@ zero_extendqisi2
 5120 1e70 2278     		ldrb	r2, [r4, #0]	@ zero_extendqisi2
 5121 1e72 CB18     		adds	r3, r1, r3
 5122 1e74 DBB2     		uxtb	r3, r3
 5123              	.LVL828:
 5124 1e76 2B70     		strb	r3, [r5, #0]
 5125 1e78 9B18     		adds	r3, r3, r2
 5126              	.LVL829:
 5127 1e7a 2370     		strb	r3, [r4, #0]
 5128 1e7c 1748     		ldr	r0, .L260+4
 5129 1e7e FFF7FEFF 		bl	uart_transmit
 5130              	.LVL830:
 5131              	.LBE415:
 5132              	.LBB416:
 5133 1e82 7178     		ldrb	r1, [r6, #1]	@ zero_extendqisi2
 5134              	.LVL831:
 5135 1e84 2B78     		ldrb	r3, [r5, #0]	@ zero_extendqisi2
 5136 1e86 2278     		ldrb	r2, [r4, #0]	@ zero_extendqisi2
 5137 1e88 CB18     		adds	r3, r1, r3
 5138 1e8a DBB2     		uxtb	r3, r3
 5139              	.LVL832:
 5140 1e8c 2B70     		strb	r3, [r5, #0]
 5141 1e8e 9B18     		adds	r3, r3, r2
 5142              	.LVL833:
 5143 1e90 2370     		strb	r3, [r4, #0]
 5144 1e92 1248     		ldr	r0, .L260+4
 5145 1e94 FFF7FEFF 		bl	uart_transmit
 5146              	.LVL834:
 5147              	.LBE416:
 5148              	.LBB417:
 5149 1e98 B178     		ldrb	r1, [r6, #2]	@ zero_extendqisi2
 5150              	.LVL835:
 5151 1e9a 2B78     		ldrb	r3, [r5, #0]	@ zero_extendqisi2
 5152 1e9c 2278     		ldrb	r2, [r4, #0]	@ zero_extendqisi2
 5153 1e9e CB18     		adds	r3, r1, r3
 5154 1ea0 DBB2     		uxtb	r3, r3
 5155              	.LVL836:
 5156 1ea2 2B70     		strb	r3, [r5, #0]
 5157 1ea4 9B18     		adds	r3, r3, r2
 5158              	.LVL837:
 5159 1ea6 2370     		strb	r3, [r4, #0]
 5160 1ea8 0C48     		ldr	r0, .L260+4
 5161 1eaa FFF7FEFF 		bl	uart_transmit
 5162              	.LVL838:
 5163              	.LBE417:
 5164              	.LBB418:
 5165 1eae F178     		ldrb	r1, [r6, #3]	@ zero_extendqisi2
 5166              	.LVL839:
 5167              	.L218:
 5168 1eb0 2B78     		ldrb	r3, [r5, #0]	@ zero_extendqisi2
 5169 1eb2 2278     		ldrb	r2, [r4, #0]	@ zero_extendqisi2
 5170 1eb4 CB18     		adds	r3, r1, r3
 5171 1eb6 DBB2     		uxtb	r3, r3
 5172              	.LVL840:
 5173 1eb8 2B70     		strb	r3, [r5, #0]
 5174 1eba 9B18     		adds	r3, r3, r2
 5175              	.LVL841:
 5176 1ebc 2370     		strb	r3, [r4, #0]
 5177 1ebe 0748     		ldr	r0, .L260+4
 5178 1ec0 FFF7FEFF 		bl	uart_transmit
 5179              	.LVL842:
 5180              	.LBE418:
 5181 1ec4 2978     		ldrb	r1, [r5, #0]	@ zero_extendqisi2
 5182 1ec6 0548     		ldr	r0, .L260+4
 5183 1ec8 FFF7FEFF 		bl	uart_transmit
 5184 1ecc 0348     		ldr	r0, .L260+4
 5185 1ece 2178     		ldrb	r1, [r4, #0]	@ zero_extendqisi2
 5186 1ed0 FFF7FEFF 		bl	uart_transmit
 5187 1ed4 18E0     		b	.L72
 5188              	.L261:
 5189 1ed6 00BF     		.align	2
 5190              	.L260:
 5191 1ed8 00000000 		.word	nav_survey_active
 5192 1edc 00000000 		.word	uart2
 5193 1ee0 00000000 		.word	downlink_nb_bytes
 5194 1ee4 00000000 		.word	downlink_nb_msgs
 5195 1ee8 00000000 		.word	ck_a
 5196 1eec 00000000 		.word	ck_b
 5197 1ef0 00000000 		.word	nav_survey_east
 5198 1ef4 00000000 		.word	nav_survey_north
 5199 1ef8 00000000 		.word	nav_survey_west
 5200 1efc 00000000 		.word	nav_survey_south
 5201              	.L73:
 5202              		.loc 1 422 0 discriminator 89
 5203 1f00 804B     		ldr	r3, .L262
 5204 1f02 1A78     		ldrb	r2, [r3, #0]	@ zero_extendqisi2
 5205 1f04 0132     		adds	r2, r2, #1
 5206 1f06 1A70     		strb	r2, [r3, #0]
 5207              	.L72:
 5208              		.loc 1 422 0 discriminator 86
 5209 1f08 7F4B     		ldr	r3, .L262+4
 5210 1f0a 1B78     		ldrb	r3, [r3, #0]	@ zero_extendqisi2
 5211 1f0c 2A2B     		cmp	r3, #42
 5212 1f0e 40F01581 		bne	.L74
 5213              	.LBB419:
 5214              		.loc 1 422 0 discriminator 90
 5215 1f12 7E4B     		ldr	r3, .L262+8
 5216 1f14 1868     		ldr	r0, [r3, #0]	@ float
 5217 1f16 FFF7FEFF 		bl	__aeabi_f2iz
 5218 1f1a 7D4B     		ldr	r3, .L262+12
 5219 1f1c ADF81C00 		strh	r0, [sp, #28]	@ movhi
 5220              	.LVL843:
 5221 1f20 1878     		ldrb	r0, [r3, #0]	@ zero_extendqisi2
 5222 1f22 FFF7FEFF 		bl	__aeabi_ui2f
 5223 1f26 7B49     		ldr	r1, .L262+16
 5224 1f28 FFF7FEFF 		bl	__aeabi_fdiv
 5225 1f2c 7A4B     		ldr	r3, .L262+20
 5226 1f2e 0446     		mov	r4, r0
 5227 1f30 0590     		str	r0, [sp, #20]	@ float
 5228              	.LVL844:
 5229 1f32 1868     		ldr	r0, [r3, #0]
 5230 1f34 FFF7FEFF 		bl	__aeabi_i2f
 5231 1f38 7849     		ldr	r1, .L262+24
 5232 1f3a FFF7FEFF 		bl	__aeabi_fdiv
 5233 1f3e 0146     		mov	r1, r0
 5234 1f40 0490     		str	r0, [sp, #16]	@ float
 5235              	.LVL845:
 5236 1f42 2046     		mov	r0, r4
 5237 1f44 FFF7FEFF 		bl	__aeabi_fmul
 5238 1f48 1421     		movs	r1, #20
 5239 1f4a 0690     		str	r0, [sp, #24]	@ float
 5240              	.LVL846:
 5241 1f4c 7448     		ldr	r0, .L262+28
 5242 1f4e FFF7FEFF 		bl	uart_check_free_space
 5243 1f52 0028     		cmp	r0, #0
 5244 1f54 00F0EE80 		beq	.L75
 5245              		.loc 1 422 0 discriminator 92
 5246 1f58 724B     		ldr	r3, .L262+32
 5247              	.LBB420:
 5248 1f5a 9921     		movs	r1, #153
 5249              	.LBE420:
 5250 1f5c 1A88     		ldrh	r2, [r3, #0]
 5251              	.LBB421:
 5252 1f5e 7048     		ldr	r0, .L262+28
 5253              	.LBE421:
 5254 1f60 1432     		adds	r2, r2, #20
 5255 1f62 1A80     		strh	r2, [r3, #0]	@ movhi
 5256 1f64 704B     		ldr	r3, .L262+36
 5257 1f66 714D     		ldr	r5, .L262+40
 5258 1f68 1A88     		ldrh	r2, [r3, #0]
 5259 1f6a 714C     		ldr	r4, .L262+44
 5260 1f6c 0132     		adds	r2, r2, #1
 5261 1f6e 1A80     		strh	r2, [r3, #0]	@ movhi
 5262              	.LBB422:
 5263 1f70 FFF7FEFF 		bl	uart_transmit
 5264              	.LVL847:
 5265 1f74 1421     		movs	r1, #20
 5266 1f76 6A48     		ldr	r0, .L262+28
 5267 1f78 FFF7FEFF 		bl	uart_transmit
 5268              	.LBE422:
 5269 1f7c 1523     		movs	r3, #21
 5270 1f7e 2B70     		strb	r3, [r5, #0]
 5271 1f80 2923     		movs	r3, #41
 5272 1f82 2370     		strb	r3, [r4, #0]
 5273 1f84 0121     		movs	r1, #1
 5274 1f86 6648     		ldr	r0, .L262+28
 5275 1f88 FFF7FEFF 		bl	uart_transmit
 5276 1f8c 2B78     		ldrb	r3, [r5, #0]	@ zero_extendqisi2
 5277 1f8e 2278     		ldrb	r2, [r4, #0]	@ zero_extendqisi2
 5278 1f90 2533     		adds	r3, r3, #37
 5279 1f92 DBB2     		uxtb	r3, r3
 5280              	.LVL848:
 5281 1f94 2B70     		strb	r3, [r5, #0]
 5282 1f96 9B18     		adds	r3, r3, r2
 5283              	.LVL849:
 5284 1f98 2370     		strb	r3, [r4, #0]
 5285 1f9a 2521     		movs	r1, #37
 5286 1f9c 6048     		ldr	r0, .L262+28
 5287 1f9e FFF7FEFF 		bl	uart_transmit
 5288              	.LBB423:
 5289 1fa2 9DF81410 		ldrb	r1, [sp, #20]	@ zero_extendqisi2
 5290              	.LVL850:
 5291 1fa6 2B78     		ldrb	r3, [r5, #0]	@ zero_extendqisi2
 5292 1fa8 2278     		ldrb	r2, [r4, #0]	@ zero_extendqisi2
 5293 1faa CB18     		adds	r3, r1, r3
 5294 1fac DBB2     		uxtb	r3, r3
 5295              	.LVL851:
 5296 1fae 2B70     		strb	r3, [r5, #0]
 5297 1fb0 9B18     		adds	r3, r3, r2
 5298              	.LVL852:
 5299 1fb2 2370     		strb	r3, [r4, #0]
 5300 1fb4 5A48     		ldr	r0, .L262+28
 5301 1fb6 FFF7FEFF 		bl	uart_transmit
 5302              	.LVL853:
 5303              	.LBE423:
 5304              	.LBB424:
 5305 1fba 9DF81510 		ldrb	r1, [sp, #21]	@ zero_extendqisi2
 5306              	.LVL854:
 5307 1fbe 2B78     		ldrb	r3, [r5, #0]	@ zero_extendqisi2
 5308 1fc0 2278     		ldrb	r2, [r4, #0]	@ zero_extendqisi2
 5309 1fc2 CB18     		adds	r3, r1, r3
 5310 1fc4 DBB2     		uxtb	r3, r3
 5311              	.LVL855:
 5312 1fc6 2B70     		strb	r3, [r5, #0]
 5313 1fc8 9B18     		adds	r3, r3, r2
 5314              	.LVL856:
 5315 1fca 2370     		strb	r3, [r4, #0]
 5316 1fcc 5448     		ldr	r0, .L262+28
 5317 1fce FFF7FEFF 		bl	uart_transmit
 5318              	.LVL857:
 5319              	.LBE424:
 5320              	.LBB425:
 5321 1fd2 9DF81610 		ldrb	r1, [sp, #22]	@ zero_extendqisi2
 5322              	.LVL858:
 5323 1fd6 2B78     		ldrb	r3, [r5, #0]	@ zero_extendqisi2
 5324 1fd8 2278     		ldrb	r2, [r4, #0]	@ zero_extendqisi2
 5325 1fda CB18     		adds	r3, r1, r3
 5326 1fdc DBB2     		uxtb	r3, r3
 5327              	.LVL859:
 5328 1fde 2B70     		strb	r3, [r5, #0]
 5329 1fe0 9B18     		adds	r3, r3, r2
 5330              	.LVL860:
 5331 1fe2 2370     		strb	r3, [r4, #0]
 5332 1fe4 4E48     		ldr	r0, .L262+28
 5333 1fe6 FFF7FEFF 		bl	uart_transmit
 5334              	.LVL861:
 5335              	.LBE425:
 5336              	.LBB426:
 5337 1fea 9DF81710 		ldrb	r1, [sp, #23]	@ zero_extendqisi2
 5338              	.LVL862:
 5339 1fee 2B78     		ldrb	r3, [r5, #0]	@ zero_extendqisi2
 5340 1ff0 2278     		ldrb	r2, [r4, #0]	@ zero_extendqisi2
 5341 1ff2 CB18     		adds	r3, r1, r3
 5342 1ff4 DBB2     		uxtb	r3, r3
 5343              	.LVL863:
 5344 1ff6 2B70     		strb	r3, [r5, #0]
 5345 1ff8 9B18     		adds	r3, r3, r2
 5346              	.LVL864:
 5347 1ffa 2370     		strb	r3, [r4, #0]
 5348 1ffc 4848     		ldr	r0, .L262+28
 5349 1ffe FFF7FEFF 		bl	uart_transmit
 5350              	.LVL865:
 5351              	.LBE426:
 5352              	.LBB427:
 5353 2002 9DF81010 		ldrb	r1, [sp, #16]	@ zero_extendqisi2
 5354              	.LVL866:
 5355 2006 2B78     		ldrb	r3, [r5, #0]	@ zero_extendqisi2
 5356 2008 2278     		ldrb	r2, [r4, #0]	@ zero_extendqisi2
 5357 200a CB18     		adds	r3, r1, r3
 5358 200c DBB2     		uxtb	r3, r3
 5359              	.LVL867:
 5360 200e 2B70     		strb	r3, [r5, #0]
 5361 2010 9B18     		adds	r3, r3, r2
 5362              	.LVL868:
 5363 2012 2370     		strb	r3, [r4, #0]
 5364 2014 4248     		ldr	r0, .L262+28
 5365 2016 FFF7FEFF 		bl	uart_transmit
 5366              	.LVL869:
 5367              	.LBE427:
 5368              	.LBB428:
 5369 201a 9DF81110 		ldrb	r1, [sp, #17]	@ zero_extendqisi2
 5370              	.LVL870:
 5371 201e 2B78     		ldrb	r3, [r5, #0]	@ zero_extendqisi2
 5372 2020 2278     		ldrb	r2, [r4, #0]	@ zero_extendqisi2
 5373 2022 CB18     		adds	r3, r1, r3
 5374 2024 DBB2     		uxtb	r3, r3
 5375              	.LVL871:
 5376 2026 2B70     		strb	r3, [r5, #0]
 5377 2028 9B18     		adds	r3, r3, r2
 5378              	.LVL872:
 5379 202a 2370     		strb	r3, [r4, #0]
 5380 202c 3C48     		ldr	r0, .L262+28
 5381 202e FFF7FEFF 		bl	uart_transmit
 5382              	.LVL873:
 5383              	.LBE428:
 5384              	.LBB429:
 5385 2032 9DF81210 		ldrb	r1, [sp, #18]	@ zero_extendqisi2
 5386              	.LVL874:
 5387 2036 2B78     		ldrb	r3, [r5, #0]	@ zero_extendqisi2
 5388 2038 2278     		ldrb	r2, [r4, #0]	@ zero_extendqisi2
 5389 203a CB18     		adds	r3, r1, r3
 5390 203c DBB2     		uxtb	r3, r3
 5391              	.LVL875:
 5392 203e 2B70     		strb	r3, [r5, #0]
 5393 2040 9B18     		adds	r3, r3, r2
 5394              	.LVL876:
 5395 2042 2370     		strb	r3, [r4, #0]
 5396 2044 3648     		ldr	r0, .L262+28
 5397 2046 FFF7FEFF 		bl	uart_transmit
 5398              	.LVL877:
 5399              	.LBE429:
 5400              	.LBB430:
 5401 204a 9DF81310 		ldrb	r1, [sp, #19]	@ zero_extendqisi2
 5402              	.LVL878:
 5403 204e 2B78     		ldrb	r3, [r5, #0]	@ zero_extendqisi2
 5404 2050 2278     		ldrb	r2, [r4, #0]	@ zero_extendqisi2
 5405 2052 CB18     		adds	r3, r1, r3
 5406 2054 DBB2     		uxtb	r3, r3
 5407              	.LVL879:
 5408 2056 2B70     		strb	r3, [r5, #0]
 5409 2058 9B18     		adds	r3, r3, r2
 5410              	.LVL880:
 5411 205a 2370     		strb	r3, [r4, #0]
 5412 205c 3048     		ldr	r0, .L262+28
 5413 205e FFF7FEFF 		bl	uart_transmit
 5414              	.LVL881:
 5415              	.LBE430:
 5416              	.LBB431:
 5417 2062 9DF81C10 		ldrb	r1, [sp, #28]	@ zero_extendqisi2
 5418              	.LVL882:
 5419 2066 2B78     		ldrb	r3, [r5, #0]	@ zero_extendqisi2
 5420 2068 2278     		ldrb	r2, [r4, #0]	@ zero_extendqisi2
 5421 206a CB18     		adds	r3, r1, r3
 5422 206c DBB2     		uxtb	r3, r3
 5423              	.LVL883:
 5424 206e 2B70     		strb	r3, [r5, #0]
 5425 2070 9B18     		adds	r3, r3, r2
 5426              	.LVL884:
 5427 2072 2370     		strb	r3, [r4, #0]
 5428 2074 2A48     		ldr	r0, .L262+28
 5429 2076 FFF7FEFF 		bl	uart_transmit
 5430              	.LVL885:
 5431              	.LBE431:
 5432              	.LBB432:
 5433 207a 9DF81D10 		ldrb	r1, [sp, #29]	@ zero_extendqisi2
 5434              	.LVL886:
 5435 207e 2B78     		ldrb	r3, [r5, #0]	@ zero_extendqisi2
 5436 2080 2278     		ldrb	r2, [r4, #0]	@ zero_extendqisi2
 5437 2082 CB18     		adds	r3, r1, r3
 5438 2084 DBB2     		uxtb	r3, r3
 5439              	.LVL887:
 5440 2086 2B70     		strb	r3, [r5, #0]
 5441 2088 9B18     		adds	r3, r3, r2
 5442              	.LVL888:
 5443 208a 2370     		strb	r3, [r4, #0]
 5444 208c 2448     		ldr	r0, .L262+28
 5445 208e FFF7FEFF 		bl	uart_transmit
 5446              	.LVL889:
 5447              	.LBE432:
 5448              	.LBB433:
 5449 2092 9DF81810 		ldrb	r1, [sp, #24]	@ zero_extendqisi2
 5450              	.LVL890:
 5451 2096 2B78     		ldrb	r3, [r5, #0]	@ zero_extendqisi2
 5452 2098 2278     		ldrb	r2, [r4, #0]	@ zero_extendqisi2
 5453 209a CB18     		adds	r3, r1, r3
 5454 209c DBB2     		uxtb	r3, r3
 5455              	.LVL891:
 5456 209e 2B70     		strb	r3, [r5, #0]
 5457 20a0 9B18     		adds	r3, r3, r2
 5458              	.LVL892:
 5459 20a2 2370     		strb	r3, [r4, #0]
 5460 20a4 1E48     		ldr	r0, .L262+28
 5461 20a6 FFF7FEFF 		bl	uart_transmit
 5462              	.LVL893:
 5463              	.LBE433:
 5464              	.LBB434:
 5465 20aa 9DF81910 		ldrb	r1, [sp, #25]	@ zero_extendqisi2
 5466              	.LVL894:
 5467 20ae 2B78     		ldrb	r3, [r5, #0]	@ zero_extendqisi2
 5468 20b0 2278     		ldrb	r2, [r4, #0]	@ zero_extendqisi2
 5469 20b2 CB18     		adds	r3, r1, r3
 5470 20b4 DBB2     		uxtb	r3, r3
 5471              	.LVL895:
 5472 20b6 2B70     		strb	r3, [r5, #0]
 5473 20b8 9B18     		adds	r3, r3, r2
 5474              	.LVL896:
 5475 20ba 2370     		strb	r3, [r4, #0]
 5476 20bc 1848     		ldr	r0, .L262+28
 5477 20be FFF7FEFF 		bl	uart_transmit
 5478              	.LVL897:
 5479              	.LBE434:
 5480              	.LBB435:
 5481 20c2 9DF81A10 		ldrb	r1, [sp, #26]	@ zero_extendqisi2
 5482              	.LVL898:
 5483 20c6 2B78     		ldrb	r3, [r5, #0]	@ zero_extendqisi2
 5484 20c8 2278     		ldrb	r2, [r4, #0]	@ zero_extendqisi2
 5485 20ca CB18     		adds	r3, r1, r3
 5486 20cc DBB2     		uxtb	r3, r3
 5487              	.LVL899:
 5488 20ce 2B70     		strb	r3, [r5, #0]
 5489 20d0 9B18     		adds	r3, r3, r2
 5490              	.LVL900:
 5491 20d2 2370     		strb	r3, [r4, #0]
 5492 20d4 1248     		ldr	r0, .L262+28
 5493 20d6 FFF7FEFF 		bl	uart_transmit
 5494              	.LVL901:
 5495              	.LBE435:
 5496              	.LBB436:
 5497 20da 9DF81B10 		ldrb	r1, [sp, #27]	@ zero_extendqisi2
 5498              	.LVL902:
 5499 20de 2B78     		ldrb	r3, [r5, #0]	@ zero_extendqisi2
 5500 20e0 2278     		ldrb	r2, [r4, #0]	@ zero_extendqisi2
 5501 20e2 CB18     		adds	r3, r1, r3
 5502 20e4 DBB2     		uxtb	r3, r3
 5503              	.LVL903:
 5504 20e6 2B70     		strb	r3, [r5, #0]
 5505 20e8 9B18     		adds	r3, r3, r2
 5506              	.LVL904:
 5507 20ea 2370     		strb	r3, [r4, #0]
 5508 20ec 0C48     		ldr	r0, .L262+28
 5509 20ee FFF7FEFF 		bl	uart_transmit
 5510              	.LVL905:
 5511              	.LBE436:
 5512 20f2 2978     		ldrb	r1, [r5, #0]	@ zero_extendqisi2
 5513 20f4 0A48     		ldr	r0, .L262+28
 5514 20f6 FFF7FEFF 		bl	uart_transmit
 5515 20fa 0948     		ldr	r0, .L262+28
 5516 20fc 2178     		ldrb	r1, [r4, #0]	@ zero_extendqisi2
 5517 20fe FFF7FEFF 		bl	uart_transmit
 5518 2102 1BE0     		b	.L74
 5519              	.L263:
 5520              		.align	2
 5521              	.L262:
 5522 2104 00000000 		.word	downlink_nb_ovrn
 5523 2108 00000000 		.word	.LANCHOR19
 5524 210c 00000000 		.word	.LANCHOR26
 5525 2110 00000000 		.word	.LANCHOR27
 5526 2114 00002041 		.word	1092616192
 5527 2118 00000000 		.word	.LANCHOR25
 5528 211c 00007A44 		.word	1148846080
 5529 2120 00000000 		.word	uart2
 5530 2124 00000000 		.word	downlink_nb_bytes
 5531 2128 00000000 		.word	downlink_nb_msgs
 5532 212c 00000000 		.word	ck_a
 5533 2130 00000000 		.word	ck_b
 5534              	.LVL906:
 5535              	.L75:
 5536              		.loc 1 422 0 discriminator 93
 5537 2134 954B     		ldr	r3, .L264
 5538 2136 1A78     		ldrb	r2, [r3, #0]	@ zero_extendqisi2
 5539 2138 0132     		adds	r2, r2, #1
 5540 213a 1A70     		strb	r2, [r3, #0]
 5541              	.L74:
 5542              	.LBE419:
 5543              		.loc 1 422 0 discriminator 91
 5544 213c 944B     		ldr	r3, .L264+4
 5545 213e 1B88     		ldrh	r3, [r3, #0]
 5546 2140 302B     		cmp	r3, #48
 5547 2142 4FD1     		bne	.L76
 5548              		.loc 1 422 0 discriminator 94
 5549 2144 9348     		ldr	r0, .L264+8
 5550 2146 1721     		movs	r1, #23
 5551 2148 FFF7FEFF 		bl	uart_check_free_space
 5552 214c 0028     		cmp	r0, #0
 5553 214e 00F03B81 		beq	.L84
 5554              		.loc 1 422 0 discriminator 96
 5555 2152 914B     		ldr	r3, .L264+12
 5556              	.LBB437:
 5557 2154 8F48     		ldr	r0, .L264+8
 5558              	.LBE437:
 5559 2156 1A88     		ldrh	r2, [r3, #0]
 5560              	.LBB438:
 5561 2158 9921     		movs	r1, #153
 5562              	.LBE438:
 5563 215a 1732     		adds	r2, r2, #23
 5564 215c 1A80     		strh	r2, [r3, #0]	@ movhi
 5565 215e 8F4B     		ldr	r3, .L264+16
 5566 2160 8F4D     		ldr	r5, .L264+20
 5567 2162 1A88     		ldrh	r2, [r3, #0]
 5568 2164 8F4C     		ldr	r4, .L264+24
 5569 2166 0132     		adds	r2, r2, #1
 5570 2168 1A80     		strh	r2, [r3, #0]	@ movhi
 5571              	.LBB439:
 5572 216a FFF7FEFF 		bl	uart_transmit
 5573              	.LVL907:
 5574 216e 8948     		ldr	r0, .L264+8
 5575 2170 1721     		movs	r1, #23
 5576 2172 FFF7FEFF 		bl	uart_transmit
 5577              	.LBE439:
 5578 2176 1823     		movs	r3, #24
 5579 2178 2B70     		strb	r3, [r5, #0]
 5580 217a 2F23     		movs	r3, #47
 5581 217c 2370     		strb	r3, [r4, #0]
 5582 217e 8548     		ldr	r0, .L264+8
 5583 2180 0121     		movs	r1, #1
 5584 2182 FFF7FEFF 		bl	uart_transmit
 5585 2186 2B78     		ldrb	r3, [r5, #0]	@ zero_extendqisi2
 5586 2188 2278     		ldrb	r2, [r4, #0]	@ zero_extendqisi2
 5587 218a 0233     		adds	r3, r3, #2
 5588 218c DBB2     		uxtb	r3, r3
 5589 218e 2B70     		strb	r3, [r5, #0]
 5590 2190 9B18     		adds	r3, r3, r2
 5591 2192 2370     		strb	r3, [r4, #0]
 5592 2194 7F48     		ldr	r0, .L264+8
 5593 2196 0221     		movs	r1, #2
 5594 2198 FFF7FEFF 		bl	uart_transmit
 5595              	.LBB440:
 5596 219c 2B78     		ldrb	r3, [r5, #0]	@ zero_extendqisi2
 5597 219e 2278     		ldrb	r2, [r4, #0]	@ zero_extendqisi2
 5598 21a0 1033     		adds	r3, r3, #16
 5599 21a2 DBB2     		uxtb	r3, r3
 5600 21a4 2B70     		strb	r3, [r5, #0]
 5601 21a6 9B18     		adds	r3, r3, r2
 5602 21a8 2370     		strb	r3, [r4, #0]
 5603 21aa 7A48     		ldr	r0, .L264+8
 5604 21ac 1021     		movs	r1, #16
 5605 21ae FFF7FEFF 		bl	uart_transmit
 5606              	.LVL908:
 5607              	.LBB441:
 5608 21b2 7D4F     		ldr	r7, .L264+28
 5609              	.LBE441:
 5610 21b4 0026     		movs	r6, #0
 5611              	.LVL909:
 5612              	.L78:
 5613              	.LBB442:
 5614              		.loc 1 422 0 discriminator 99
 5615 21b6 F15D     		ldrb	r1, [r6, r7]	@ zero_extendqisi2
 5616              	.LVL910:
 5617 21b8 2B78     		ldrb	r3, [r5, #0]	@ zero_extendqisi2
 5618 21ba 2278     		ldrb	r2, [r4, #0]	@ zero_extendqisi2
 5619 21bc CB18     		adds	r3, r1, r3
 5620 21be DBB2     		uxtb	r3, r3
 5621              	.LVL911:
 5622 21c0 2B70     		strb	r3, [r5, #0]
 5623 21c2 9B18     		adds	r3, r3, r2
 5624              	.LVL912:
 5625 21c4 2370     		strb	r3, [r4, #0]
 5626 21c6 7348     		ldr	r0, .L264+8
 5627 21c8 0136     		adds	r6, r6, #1
 5628 21ca FFF7FEFF 		bl	uart_transmit
 5629              	.LVL913:
 5630              	.LBE442:
 5631 21ce 102E     		cmp	r6, #16
 5632 21d0 F1D1     		bne	.L78
 5633              	.LBE440:
 5634              		.loc 1 422 0 discriminator 100
 5635 21d2 734B     		ldr	r3, .L264+20
 5636 21d4 6F48     		ldr	r0, .L264+8
 5637 21d6 1978     		ldrb	r1, [r3, #0]	@ zero_extendqisi2
 5638 21d8 FFF7FEFF 		bl	uart_transmit
 5639 21dc 714B     		ldr	r3, .L264+24
 5640 21de 6D48     		ldr	r0, .L264+8
 5641 21e0 1978     		ldrb	r1, [r3, #0]	@ zero_extendqisi2
 5642 21e2 77E0     		b	.L219
 5643              	.LVL914:
 5644              	.L76:
 5645              		.loc 1 422 0 discriminator 95
 5646 21e4 362B     		cmp	r3, #54
 5647 21e6 78D1     		bne	.L80
 5648              	.LVL915:
 5649              	.LBB443:
 5650              		.loc 1 422 0 discriminator 101
 5651 21e8 6A48     		ldr	r0, .L264+8
 5652 21ea 0C21     		movs	r1, #12
 5653 21ec FFF7FEFF 		bl	uart_check_free_space
 5654 21f0 0028     		cmp	r0, #0
 5655 21f2 00F0E980 		beq	.L84
 5656              		.loc 1 422 0 discriminator 103
 5657 21f6 684B     		ldr	r3, .L264+12
 5658              	.LBB444:
 5659 21f8 6648     		ldr	r0, .L264+8
 5660              	.LBE444:
 5661 21fa 1A88     		ldrh	r2, [r3, #0]
 5662              	.LBB445:
 5663 21fc 9921     		movs	r1, #153
 5664              	.LBE445:
 5665 21fe 0C32     		adds	r2, r2, #12
 5666 2200 1A80     		strh	r2, [r3, #0]	@ movhi
 5667 2202 664B     		ldr	r3, .L264+16
 5668 2204 664D     		ldr	r5, .L264+20
 5669 2206 1A88     		ldrh	r2, [r3, #0]
 5670 2208 664C     		ldr	r4, .L264+24
 5671 220a 0132     		adds	r2, r2, #1
 5672 220c 1A80     		strh	r2, [r3, #0]	@ movhi
 5673              	.LBB446:
 5674 220e FFF7FEFF 		bl	uart_transmit
 5675              	.LVL916:
 5676 2212 6048     		ldr	r0, .L264+8
 5677 2214 0C21     		movs	r1, #12
 5678 2216 FFF7FEFF 		bl	uart_transmit
 5679              	.LBE446:
 5680 221a 0D23     		movs	r3, #13
 5681 221c 2B70     		strb	r3, [r5, #0]
 5682 221e 1923     		movs	r3, #25
 5683 2220 2370     		strb	r3, [r4, #0]
 5684 2222 5C48     		ldr	r0, .L264+8
 5685 2224 0121     		movs	r1, #1
 5686 2226 FFF7FEFF 		bl	uart_transmit
 5687 222a 2B78     		ldrb	r3, [r5, #0]	@ zero_extendqisi2
 5688 222c 2278     		ldrb	r2, [r4, #0]	@ zero_extendqisi2
 5689 222e 0B33     		adds	r3, r3, #11
 5690 2230 DBB2     		uxtb	r3, r3
 5691 2232 2B70     		strb	r3, [r5, #0]
 5692 2234 9B18     		adds	r3, r3, r2
 5693 2236 2370     		strb	r3, [r4, #0]
 5694 2238 5648     		ldr	r0, .L264+8
 5695 223a 0B21     		movs	r1, #11
 5696 223c FFF7FEFF 		bl	uart_transmit
 5697              	.LBB447:
 5698 2240 5A4B     		ldr	r3, .L264+32
 5699 2242 2278     		ldrb	r2, [r4, #0]	@ zero_extendqisi2
 5700 2244 1978     		ldrb	r1, [r3, #0]	@ zero_extendqisi2
 5701              	.LVL917:
 5702 2246 2B78     		ldrb	r3, [r5, #0]	@ zero_extendqisi2
 5703 2248 5248     		ldr	r0, .L264+8
 5704 224a CB18     		adds	r3, r1, r3
 5705 224c DBB2     		uxtb	r3, r3
 5706              	.LVL918:
 5707 224e 2B70     		strb	r3, [r5, #0]
 5708 2250 9B18     		adds	r3, r3, r2
 5709              	.LVL919:
 5710 2252 2370     		strb	r3, [r4, #0]
 5711 2254 FFF7FEFF 		bl	uart_transmit
 5712              	.LVL920:
 5713              	.LBE447:
 5714              	.LBB448:
 5715 2258 554B     		ldr	r3, .L264+36
 5716 225a 2278     		ldrb	r2, [r4, #0]	@ zero_extendqisi2
 5717 225c 1978     		ldrb	r1, [r3, #0]	@ zero_extendqisi2
 5718              	.LVL921:
 5719 225e 2B78     		ldrb	r3, [r5, #0]	@ zero_extendqisi2
 5720 2260 4C48     		ldr	r0, .L264+8
 5721 2262 CB18     		adds	r3, r1, r3
 5722 2264 DBB2     		uxtb	r3, r3
 5723              	.LVL922:
 5724 2266 2B70     		strb	r3, [r5, #0]
 5725 2268 9B18     		adds	r3, r3, r2
 5726              	.LVL923:
 5727 226a 2370     		strb	r3, [r4, #0]
 5728 226c FFF7FEFF 		bl	uart_transmit
 5729              	.LVL924:
 5730              	.LBE448:
 5731              	.LBB449:
 5732 2270 504B     		ldr	r3, .L264+40
 5733 2272 2278     		ldrb	r2, [r4, #0]	@ zero_extendqisi2
 5734 2274 1978     		ldrb	r1, [r3, #0]	@ zero_extendqisi2
 5735              	.LVL925:
 5736 2276 2B78     		ldrb	r3, [r5, #0]	@ zero_extendqisi2
 5737 2278 4648     		ldr	r0, .L264+8
 5738 227a CB18     		adds	r3, r1, r3
 5739 227c DBB2     		uxtb	r3, r3
 5740              	.LVL926:
 5741 227e 2B70     		strb	r3, [r5, #0]
 5742 2280 9B18     		adds	r3, r3, r2
 5743              	.LVL927:
 5744 2282 2370     		strb	r3, [r4, #0]
 5745 2284 FFF7FEFF 		bl	uart_transmit
 5746              	.LVL928:
 5747              	.LBE449:
 5748              	.LBB450:
 5749 2288 4B4B     		ldr	r3, .L264+44
 5750 228a 2278     		ldrb	r2, [r4, #0]	@ zero_extendqisi2
 5751 228c 1978     		ldrb	r1, [r3, #0]	@ zero_extendqisi2
 5752              	.LVL929:
 5753 228e 2B78     		ldrb	r3, [r5, #0]	@ zero_extendqisi2
 5754 2290 4048     		ldr	r0, .L264+8
 5755 2292 CB18     		adds	r3, r1, r3
 5756 2294 DBB2     		uxtb	r3, r3
 5757              	.LVL930:
 5758 2296 2B70     		strb	r3, [r5, #0]
 5759 2298 9B18     		adds	r3, r3, r2
 5760              	.LVL931:
 5761 229a 2370     		strb	r3, [r4, #0]
 5762 229c FFF7FEFF 		bl	uart_transmit
 5763              	.LVL932:
 5764              	.LBE450:
 5765              	.LBB451:
 5766 22a0 2278     		ldrb	r2, [r4, #0]	@ zero_extendqisi2
 5767 22a2 2B78     		ldrb	r3, [r5, #0]	@ zero_extendqisi2
 5768 22a4 0021     		movs	r1, #0
 5769 22a6 D318     		adds	r3, r2, r3
 5770 22a8 2370     		strb	r3, [r4, #0]
 5771 22aa 3A48     		ldr	r0, .L264+8
 5772 22ac FFF7FEFF 		bl	uart_transmit
 5773              	.LBE451:
 5774              	.LBB452:
 5775 22b0 424B     		ldr	r3, .L264+48
 5776 22b2 1978     		ldrb	r1, [r3, #0]	@ zero_extendqisi2
 5777              	.LVL933:
 5778              	.L227:
 5779 22b4 2B78     		ldrb	r3, [r5, #0]	@ zero_extendqisi2
 5780 22b6 2278     		ldrb	r2, [r4, #0]	@ zero_extendqisi2
 5781 22b8 CB18     		adds	r3, r1, r3
 5782 22ba DBB2     		uxtb	r3, r3
 5783              	.LVL934:
 5784 22bc 2B70     		strb	r3, [r5, #0]
 5785 22be 9B18     		adds	r3, r3, r2
 5786              	.LVL935:
 5787 22c0 2370     		strb	r3, [r4, #0]
 5788 22c2 3448     		ldr	r0, .L264+8
 5789 22c4 FFF7FEFF 		bl	uart_transmit
 5790              	.LVL936:
 5791              	.LBE452:
 5792 22c8 3248     		ldr	r0, .L264+8
 5793 22ca 2978     		ldrb	r1, [r5, #0]	@ zero_extendqisi2
 5794 22cc FFF7FEFF 		bl	uart_transmit
 5795 22d0 3048     		ldr	r0, .L264+8
 5796 22d2 2178     		ldrb	r1, [r4, #0]	@ zero_extendqisi2
 5797              	.L219:
 5798 22d4 FFF7FEFF 		bl	uart_transmit
 5799 22d8 7AE0     		b	.L79
 5800              	.LVL937:
 5801              	.L80:
 5802              	.LBE443:
 5803              		.loc 1 422 0 discriminator 102
 5804 22da 3C2B     		cmp	r3, #60
 5805 22dc 78D0     		beq	.L79
 5806              		.loc 1 422 0 discriminator 105
 5807 22de 422B     		cmp	r3, #66
 5808 22e0 76D1     		bne	.L79
 5809              	.LVL938:
 5810              	.LBB453:
 5811              		.loc 1 422 0 discriminator 106
 5812 22e2 374B     		ldr	r3, .L264+52
 5813 22e4 2B48     		ldr	r0, .L264+8
 5814 22e6 93F89860 		ldrb	r6, [r3, #152]	@ zero_extendqisi2
 5815 22ea 364B     		ldr	r3, .L264+56
 5816 22ec 002E     		cmp	r6, #0
 5817 22ee 0CBF     		ite	eq
 5818 22f0 0226     		moveq	r6, #2
 5819 22f2 0326     		movne	r6, #3
 5820              	.LVL939:
 5821 22f4 1B78     		ldrb	r3, [r3, #0]	@ zero_extendqisi2
 5822 22f6 0921     		movs	r1, #9
 5823 22f8 0A2B     		cmp	r3, #10
 5824 22fa 88BF     		it	hi
 5825 22fc 0526     		movhi	r6, #5
 5826              	.LVL940:
 5827 22fe 0023     		movs	r3, #0
 5828 2300 ADF81C30 		strh	r3, [sp, #28]	@ movhi
 5829              	.LVL941:
 5830 2304 FFF7FEFF 		bl	uart_check_free_space
 5831 2308 0028     		cmp	r0, #0
 5832 230a 5DD0     		beq	.L84
 5833              		.loc 1 422 0 discriminator 112
 5834 230c 224B     		ldr	r3, .L264+12
 5835              	.LBB454:
 5836 230e 2148     		ldr	r0, .L264+8
 5837              	.LBE454:
 5838 2310 1A88     		ldrh	r2, [r3, #0]
 5839              	.LBB455:
 5840 2312 9921     		movs	r1, #153
 5841              	.LBE455:
 5842 2314 0932     		adds	r2, r2, #9
 5843 2316 1A80     		strh	r2, [r3, #0]	@ movhi
 5844 2318 204B     		ldr	r3, .L264+16
 5845 231a 214D     		ldr	r5, .L264+20
 5846 231c 1A88     		ldrh	r2, [r3, #0]
 5847 231e 214C     		ldr	r4, .L264+24
 5848 2320 0132     		adds	r2, r2, #1
 5849 2322 1A80     		strh	r2, [r3, #0]	@ movhi
 5850              	.LBB456:
 5851 2324 FFF7FEFF 		bl	uart_transmit
 5852              	.LVL942:
 5853 2328 1A48     		ldr	r0, .L264+8
 5854 232a 0921     		movs	r1, #9
 5855 232c FFF7FEFF 		bl	uart_transmit
 5856              	.LBE456:
 5857 2330 0A23     		movs	r3, #10
 5858 2332 2B70     		strb	r3, [r5, #0]
 5859 2334 1323     		movs	r3, #19
 5860 2336 2370     		strb	r3, [r4, #0]
 5861 2338 1648     		ldr	r0, .L264+8
 5862 233a 0121     		movs	r1, #1
 5863 233c FFF7FEFF 		bl	uart_transmit
 5864 2340 2B78     		ldrb	r3, [r5, #0]	@ zero_extendqisi2
 5865 2342 2278     		ldrb	r2, [r4, #0]	@ zero_extendqisi2
 5866 2344 183B     		subs	r3, r3, #24
 5867 2346 DBB2     		uxtb	r3, r3
 5868 2348 2B70     		strb	r3, [r5, #0]
 5869 234a 9B18     		adds	r3, r3, r2
 5870 234c 2370     		strb	r3, [r4, #0]
 5871 234e 1148     		ldr	r0, .L264+8
 5872 2350 E821     		movs	r1, #232
 5873 2352 FFF7FEFF 		bl	uart_transmit
 5874              	.LVL943:
 5875              	.LBB457:
 5876 2356 2B78     		ldrb	r3, [r5, #0]	@ zero_extendqisi2
 5877 2358 2278     		ldrb	r2, [r4, #0]	@ zero_extendqisi2
 5878 235a F318     		adds	r3, r6, r3
 5879 235c DBB2     		uxtb	r3, r3
 5880              	.LVL944:
 5881 235e 2B70     		strb	r3, [r5, #0]
 5882 2360 9B18     		adds	r3, r3, r2
 5883              	.LVL945:
 5884 2362 2370     		strb	r3, [r4, #0]
 5885 2364 0B48     		ldr	r0, .L264+8
 5886 2366 3146     		mov	r1, r6
 5887 2368 FFF7FEFF 		bl	uart_transmit
 5888              	.LBE457:
 5889              	.LBB458:
 5890 236c 9DF81C10 		ldrb	r1, [sp, #28]	@ zero_extendqisi2
 5891              	.LVL946:
 5892 2370 2B78     		ldrb	r3, [r5, #0]	@ zero_extendqisi2
 5893 2372 2278     		ldrb	r2, [r4, #0]	@ zero_extendqisi2
 5894 2374 CB18     		adds	r3, r1, r3
 5895 2376 DBB2     		uxtb	r3, r3
 5896              	.LVL947:
 5897 2378 2B70     		strb	r3, [r5, #0]
 5898 237a 9B18     		adds	r3, r3, r2
 5899              	.LVL948:
 5900 237c 2370     		strb	r3, [r4, #0]
 5901 237e 0548     		ldr	r0, .L264+8
 5902 2380 FFF7FEFF 		bl	uart_transmit
 5903              	.LVL949:
 5904              	.LBE458:
 5905              	.LBB459:
 5906 2384 9DF81D10 		ldrb	r1, [sp, #29]	@ zero_extendqisi2
 5907              	.LVL950:
 5908 2388 94E7     		b	.L227
 5909              	.L265:
 5910 238a 00BF     		.align	2
 5911              	.L264:
 5912 238c 00000000 		.word	downlink_nb_ovrn
 5913 2390 00000000 		.word	.LANCHOR20
 5914 2394 00000000 		.word	uart2
 5915 2398 00000000 		.word	downlink_nb_bytes
 5916 239c 00000000 		.word	downlink_nb_msgs
 5917 23a0 00000000 		.word	ck_a
 5918 23a4 00000000 		.word	ck_b
 5919 23a8 00000000 		.word	.LC0
 5920 23ac 00000000 		.word	.LANCHOR30
 5921 23b0 00000000 		.word	v_ctl_mode
 5922 23b4 00000000 		.word	.LANCHOR32
 5923 23b8 00000000 		.word	horizontal_mode
 5924 23bc 00000000 		.word	.LANCHOR33
 5925 23c0 00000000 		.word	ahrs
 5926 23c4 00000000 		.word	.LANCHOR34
 5927              	.LVL951:
 5928              	.L84:
 5929              	.LBE459:
 5930              		.loc 1 422 0 discriminator 113
 5931 23c8 974B     		ldr	r3, .L266+8
 5932 23ca 1A78     		ldrb	r2, [r3, #0]	@ zero_extendqisi2
 5933 23cc 0132     		adds	r2, r2, #1
 5934 23ce 1A70     		strb	r2, [r3, #0]
 5935              	.L79:
 5936              	.LBE453:
 5937              		.loc 1 422 0 discriminator 107
 5938 23d0 964B     		ldr	r3, .L266+12
 5939 23d2 1B88     		ldrh	r3, [r3, #0]
 5940 23d4 482B     		cmp	r3, #72
 5941 23d6 40F08280 		bne	.L85
 5942              	.LBB460:
 5943              		.loc 1 422 0 discriminator 114
 5944 23da 954D     		ldr	r5, .L266+16
 5945 23dc 954C     		ldr	r4, .L266+20
 5946 23de 2888     		ldrh	r0, [r5, #0]
 5947 23e0 2688     		ldrh	r6, [r4, #0]
 5948 23e2 301A     		subs	r0, r6, r0
 5949 23e4 FFF7FEFF 		bl	__aeabi_i2d
 5950 23e8 8DA3     		adr	r3, .L266
 5951 23ea D3E90023 		ldrd	r2, [r3]
 5952 23ee FFF7FEFF 		bl	__aeabi_ddiv
 5953 23f2 FFF7FEFF 		bl	__aeabi_d2uiz
 5954 23f6 2E80     		strh	r6, [r5, #0]	@ movhi
 5955 23f8 ADF81C00 		strh	r0, [sp, #28]	@ movhi
 5956              	.LVL952:
 5957 23fc 0B21     		movs	r1, #11
 5958 23fe 8E48     		ldr	r0, .L266+24
 5959 2400 FFF7FEFF 		bl	uart_check_free_space
 5960 2404 0028     		cmp	r0, #0
 5961 2406 66D0     		beq	.L86
 5962              		.loc 1 422 0 discriminator 116
 5963 2408 2388     		ldrh	r3, [r4, #0]
 5964 240a 8C4E     		ldr	r6, .L266+28
 5965 240c 0B33     		adds	r3, r3, #11
 5966 240e 2380     		strh	r3, [r4, #0]	@ movhi
 5967 2410 3388     		ldrh	r3, [r6, #0]
 5968              	.LBB461:
 5969 2412 9921     		movs	r1, #153
 5970              	.LBE461:
 5971 2414 0133     		adds	r3, r3, #1
 5972 2416 3380     		strh	r3, [r6, #0]	@ movhi
 5973              	.LBB462:
 5974 2418 8748     		ldr	r0, .L266+24
 5975              	.LBE462:
 5976 241a 894D     		ldr	r5, .L266+32
 5977              	.LBB463:
 5978 241c FFF7FEFF 		bl	uart_transmit
 5979              	.LVL953:
 5980 2420 0B21     		movs	r1, #11
 5981 2422 8548     		ldr	r0, .L266+24
 5982              	.LBE463:
 5983 2424 874C     		ldr	r4, .L266+36
 5984              	.LBB464:
 5985 2426 FFF7FEFF 		bl	uart_transmit
 5986              	.LBE464:
 5987 242a 0C23     		movs	r3, #12
 5988 242c 2B70     		strb	r3, [r5, #0]
 5989 242e 1723     		movs	r3, #23
 5990 2430 2370     		strb	r3, [r4, #0]
 5991 2432 0121     		movs	r1, #1
 5992 2434 8048     		ldr	r0, .L266+24
 5993 2436 FFF7FEFF 		bl	uart_transmit
 5994 243a 2B78     		ldrb	r3, [r5, #0]	@ zero_extendqisi2
 5995 243c 2278     		ldrb	r2, [r4, #0]	@ zero_extendqisi2
 5996 243e 1E33     		adds	r3, r3, #30
 5997 2440 DBB2     		uxtb	r3, r3
 5998 2442 2B70     		strb	r3, [r5, #0]
 5999 2444 9B18     		adds	r3, r3, r2
 6000 2446 2370     		strb	r3, [r4, #0]
 6001 2448 1E21     		movs	r1, #30
 6002 244a 7B48     		ldr	r0, .L266+24
 6003 244c FFF7FEFF 		bl	uart_transmit
 6004              	.LBB465:
 6005 2450 754B     		ldr	r3, .L266+8
 6006 2452 2278     		ldrb	r2, [r4, #0]	@ zero_extendqisi2
 6007 2454 1978     		ldrb	r1, [r3, #0]	@ zero_extendqisi2
 6008              	.LVL954:
 6009 2456 2B78     		ldrb	r3, [r5, #0]	@ zero_extendqisi2
 6010 2458 7748     		ldr	r0, .L266+24
 6011 245a CB18     		adds	r3, r1, r3
 6012 245c DBB2     		uxtb	r3, r3
 6013              	.LVL955:
 6014 245e 2B70     		strb	r3, [r5, #0]
 6015 2460 9B18     		adds	r3, r3, r2
 6016              	.LVL956:
 6017 2462 2370     		strb	r3, [r4, #0]
 6018 2464 FFF7FEFF 		bl	uart_transmit
 6019              	.LVL957:
 6020              	.LBE465:
 6021              	.LBB466:
 6022 2468 9DF81C10 		ldrb	r1, [sp, #28]	@ zero_extendqisi2
 6023              	.LVL958:
 6024 246c 2B78     		ldrb	r3, [r5, #0]	@ zero_extendqisi2
 6025 246e 2278     		ldrb	r2, [r4, #0]	@ zero_extendqisi2
 6026 2470 CB18     		adds	r3, r1, r3
 6027 2472 DBB2     		uxtb	r3, r3
 6028              	.LVL959:
 6029 2474 2B70     		strb	r3, [r5, #0]
 6030 2476 9B18     		adds	r3, r3, r2
 6031              	.LVL960:
 6032 2478 2370     		strb	r3, [r4, #0]
 6033 247a 6F48     		ldr	r0, .L266+24
 6034 247c FFF7FEFF 		bl	uart_transmit
 6035              	.LVL961:
 6036              	.LBE466:
 6037              	.LBB467:
 6038 2480 9DF81D10 		ldrb	r1, [sp, #29]	@ zero_extendqisi2
 6039              	.LVL962:
 6040 2484 2B78     		ldrb	r3, [r5, #0]	@ zero_extendqisi2
 6041 2486 2278     		ldrb	r2, [r4, #0]	@ zero_extendqisi2
 6042 2488 CB18     		adds	r3, r1, r3
 6043 248a DBB2     		uxtb	r3, r3
 6044              	.LVL963:
 6045 248c 2B70     		strb	r3, [r5, #0]
 6046 248e 9B18     		adds	r3, r3, r2
 6047              	.LVL964:
 6048 2490 2370     		strb	r3, [r4, #0]
 6049 2492 6948     		ldr	r0, .L266+24
 6050 2494 FFF7FEFF 		bl	uart_transmit
 6051              	.LVL965:
 6052              	.LBE467:
 6053              	.LBB468:
 6054 2498 3178     		ldrb	r1, [r6, #0]	@ zero_extendqisi2
 6055              	.LVL966:
 6056 249a 2B78     		ldrb	r3, [r5, #0]	@ zero_extendqisi2
 6057 249c 2278     		ldrb	r2, [r4, #0]	@ zero_extendqisi2
 6058 249e CB18     		adds	r3, r1, r3
 6059 24a0 DBB2     		uxtb	r3, r3
 6060              	.LVL967:
 6061 24a2 2B70     		strb	r3, [r5, #0]
 6062 24a4 9B18     		adds	r3, r3, r2
 6063              	.LVL968:
 6064 24a6 2370     		strb	r3, [r4, #0]
 6065 24a8 6348     		ldr	r0, .L266+24
 6066 24aa FFF7FEFF 		bl	uart_transmit
 6067              	.LVL969:
 6068              	.LBE468:
 6069              	.LBB469:
 6070 24ae 7178     		ldrb	r1, [r6, #1]	@ zero_extendqisi2
 6071              	.LVL970:
 6072 24b0 2B78     		ldrb	r3, [r5, #0]	@ zero_extendqisi2
 6073 24b2 2278     		ldrb	r2, [r4, #0]	@ zero_extendqisi2
 6074 24b4 CB18     		adds	r3, r1, r3
 6075 24b6 DBB2     		uxtb	r3, r3
 6076              	.LVL971:
 6077 24b8 2B70     		strb	r3, [r5, #0]
 6078 24ba 9B18     		adds	r3, r3, r2
 6079              	.LVL972:
 6080 24bc 2370     		strb	r3, [r4, #0]
 6081 24be 5E48     		ldr	r0, .L266+24
 6082 24c0 FFF7FEFF 		bl	uart_transmit
 6083              	.LVL973:
 6084              	.LBE469:
 6085 24c4 2978     		ldrb	r1, [r5, #0]	@ zero_extendqisi2
 6086 24c6 5C48     		ldr	r0, .L266+24
 6087 24c8 FFF7FEFF 		bl	uart_transmit
 6088 24cc 5A48     		ldr	r0, .L266+24
 6089 24ce 2178     		ldrb	r1, [r4, #0]	@ zero_extendqisi2
 6090 24d0 FFF7FEFF 		bl	uart_transmit
 6091 24d4 03E0     		b	.L85
 6092              	.LVL974:
 6093              	.L86:
 6094              		.loc 1 422 0 discriminator 117
 6095 24d6 544B     		ldr	r3, .L266+8
 6096 24d8 1A78     		ldrb	r2, [r3, #0]	@ zero_extendqisi2
 6097 24da 0132     		adds	r2, r2, #1
 6098 24dc 1A70     		strb	r2, [r3, #0]
 6099              	.L85:
 6100              	.LBE460:
 6101              		.loc 1 422 0 discriminator 115
 6102 24de 5A4B     		ldr	r3, .L266+40
 6103 24e0 1B88     		ldrh	r3, [r3, #0]
 6104 24e2 4E2B     		cmp	r3, #78
 6105 24e4 40F0BC80 		bne	.L9
 6106              		.loc 1 422 0 discriminator 118
 6107 24e8 5348     		ldr	r0, .L266+24
 6108 24ea 0F21     		movs	r1, #15
 6109 24ec FFF7FEFF 		bl	uart_check_free_space
 6110 24f0 0028     		cmp	r0, #0
 6111 24f2 00F0B180 		beq	.L87
 6112              		.loc 1 422 0 discriminator 119
 6113 24f6 4F4B     		ldr	r3, .L266+20
 6114              	.LBB470:
 6115 24f8 9921     		movs	r1, #153
 6116              	.LBE470:
 6117 24fa 1A88     		ldrh	r2, [r3, #0]
 6118              	.LBB471:
 6119 24fc 4E48     		ldr	r0, .L266+24
 6120              	.LBE471:
 6121 24fe 0F32     		adds	r2, r2, #15
 6122 2500 1A80     		strh	r2, [r3, #0]	@ movhi
 6123 2502 4E4B     		ldr	r3, .L266+28
 6124 2504 4E4D     		ldr	r5, .L266+32
 6125 2506 1A88     		ldrh	r2, [r3, #0]
 6126 2508 4E4C     		ldr	r4, .L266+36
 6127 250a 0132     		adds	r2, r2, #1
 6128 250c 1A80     		strh	r2, [r3, #0]	@ movhi
 6129              	.LBB472:
 6130 250e FFF7FEFF 		bl	uart_transmit
 6131              	.LVL975:
 6132 2512 0F21     		movs	r1, #15
 6133 2514 4848     		ldr	r0, .L266+24
 6134 2516 FFF7FEFF 		bl	uart_transmit
 6135              	.LBE472:
 6136 251a 1023     		movs	r3, #16
 6137 251c 2B70     		strb	r3, [r5, #0]
 6138 251e 1F23     		movs	r3, #31
 6139 2520 2370     		strb	r3, [r4, #0]
 6140 2522 0121     		movs	r1, #1
 6141 2524 4448     		ldr	r0, .L266+24
 6142 2526 FFF7FEFF 		bl	uart_transmit
 6143 252a 2B78     		ldrb	r3, [r5, #0]	@ zero_extendqisi2
 6144 252c 2278     		ldrb	r2, [r4, #0]	@ zero_extendqisi2
 6145 252e 0933     		adds	r3, r3, #9
 6146 2530 DBB2     		uxtb	r3, r3
 6147              	.LBB473:
 6148 2532 464E     		ldr	r6, .L266+44
 6149              	.LBE473:
 6150 2534 2B70     		strb	r3, [r5, #0]
 6151 2536 9B18     		adds	r3, r3, r2
 6152 2538 2370     		strb	r3, [r4, #0]
 6153 253a 0921     		movs	r1, #9
 6154 253c 3E48     		ldr	r0, .L266+24
 6155 253e FFF7FEFF 		bl	uart_transmit
 6156              	.LBB474:
 6157 2542 3178     		ldrb	r1, [r6, #0]	@ zero_extendqisi2
 6158              	.LVL976:
 6159 2544 2B78     		ldrb	r3, [r5, #0]	@ zero_extendqisi2
 6160 2546 2278     		ldrb	r2, [r4, #0]	@ zero_extendqisi2
 6161 2548 CB18     		adds	r3, r1, r3
 6162 254a DBB2     		uxtb	r3, r3
 6163              	.LVL977:
 6164 254c 2B70     		strb	r3, [r5, #0]
 6165 254e 9B18     		adds	r3, r3, r2
 6166              	.LVL978:
 6167 2550 2370     		strb	r3, [r4, #0]
 6168 2552 3948     		ldr	r0, .L266+24
 6169 2554 FFF7FEFF 		bl	uart_transmit
 6170              	.LVL979:
 6171              	.LBE474:
 6172              	.LBB475:
 6173 2558 7178     		ldrb	r1, [r6, #1]	@ zero_extendqisi2
 6174              	.LVL980:
 6175 255a 2B78     		ldrb	r3, [r5, #0]	@ zero_extendqisi2
 6176 255c 2278     		ldrb	r2, [r4, #0]	@ zero_extendqisi2
 6177 255e CB18     		adds	r3, r1, r3
 6178 2560 DBB2     		uxtb	r3, r3
 6179              	.LVL981:
 6180 2562 2B70     		strb	r3, [r5, #0]
 6181 2564 9B18     		adds	r3, r3, r2
 6182              	.LVL982:
 6183 2566 2370     		strb	r3, [r4, #0]
 6184 2568 3348     		ldr	r0, .L266+24
 6185 256a FFF7FEFF 		bl	uart_transmit
 6186              	.LVL983:
 6187              	.LBE475:
 6188              	.LBB476:
 6189 256e B178     		ldrb	r1, [r6, #2]	@ zero_extendqisi2
 6190              	.LVL984:
 6191 2570 2B78     		ldrb	r3, [r5, #0]	@ zero_extendqisi2
 6192 2572 2278     		ldrb	r2, [r4, #0]	@ zero_extendqisi2
 6193 2574 CB18     		adds	r3, r1, r3
 6194 2576 DBB2     		uxtb	r3, r3
 6195              	.LVL985:
 6196 2578 2B70     		strb	r3, [r5, #0]
 6197 257a 9B18     		adds	r3, r3, r2
 6198              	.LVL986:
 6199 257c 2370     		strb	r3, [r4, #0]
 6200 257e 2E48     		ldr	r0, .L266+24
 6201 2580 FFF7FEFF 		bl	uart_transmit
 6202              	.LVL987:
 6203              	.LBE476:
 6204              	.LBB477:
 6205 2584 F178     		ldrb	r1, [r6, #3]	@ zero_extendqisi2
 6206              	.LVL988:
 6207 2586 2B78     		ldrb	r3, [r5, #0]	@ zero_extendqisi2
 6208 2588 2278     		ldrb	r2, [r4, #0]	@ zero_extendqisi2
 6209 258a CB18     		adds	r3, r1, r3
 6210 258c DBB2     		uxtb	r3, r3
 6211              	.LBE477:
 6212              	.LBB478:
 6213 258e 304E     		ldr	r6, .L266+48
 6214              	.LVL989:
 6215              	.LBE478:
 6216              	.LBB479:
 6217 2590 2B70     		strb	r3, [r5, #0]
 6218 2592 9B18     		adds	r3, r3, r2
 6219              	.LVL990:
 6220 2594 2370     		strb	r3, [r4, #0]
 6221 2596 2848     		ldr	r0, .L266+24
 6222 2598 FFF7FEFF 		bl	uart_transmit
 6223              	.LVL991:
 6224              	.LBE479:
 6225              	.LBB480:
 6226 259c 3178     		ldrb	r1, [r6, #0]	@ zero_extendqisi2
 6227              	.LVL992:
 6228 259e 2B78     		ldrb	r3, [r5, #0]	@ zero_extendqisi2
 6229 25a0 2278     		ldrb	r2, [r4, #0]	@ zero_extendqisi2
 6230 25a2 CB18     		adds	r3, r1, r3
 6231 25a4 DBB2     		uxtb	r3, r3
 6232              	.LVL993:
 6233 25a6 2B70     		strb	r3, [r5, #0]
 6234 25a8 9B18     		adds	r3, r3, r2
 6235              	.LVL994:
 6236 25aa 2370     		strb	r3, [r4, #0]
 6237 25ac 2248     		ldr	r0, .L266+24
 6238 25ae FFF7FEFF 		bl	uart_transmit
 6239              	.LVL995:
 6240              	.LBE480:
 6241              	.LBB481:
 6242 25b2 7178     		ldrb	r1, [r6, #1]	@ zero_extendqisi2
 6243              	.LVL996:
 6244 25b4 2B78     		ldrb	r3, [r5, #0]	@ zero_extendqisi2
 6245 25b6 2278     		ldrb	r2, [r4, #0]	@ zero_extendqisi2
 6246 25b8 CB18     		adds	r3, r1, r3
 6247 25ba DBB2     		uxtb	r3, r3
 6248              	.LVL997:
 6249 25bc 2B70     		strb	r3, [r5, #0]
 6250 25be 9B18     		adds	r3, r3, r2
 6251              	.LVL998:
 6252 25c0 2370     		strb	r3, [r4, #0]
 6253 25c2 1D48     		ldr	r0, .L266+24
 6254 25c4 FFF7FEFF 		bl	uart_transmit
 6255              	.LVL999:
 6256              	.LBE481:
 6257              	.LBB482:
 6258 25c8 B178     		ldrb	r1, [r6, #2]	@ zero_extendqisi2
 6259              	.LVL1000:
 6260 25ca 2B78     		ldrb	r3, [r5, #0]	@ zero_extendqisi2
 6261 25cc 2278     		ldrb	r2, [r4, #0]	@ zero_extendqisi2
 6262 25ce CB18     		adds	r3, r1, r3
 6263 25d0 DBB2     		uxtb	r3, r3
 6264              	.LVL1001:
 6265 25d2 2B70     		strb	r3, [r5, #0]
 6266 25d4 9B18     		adds	r3, r3, r2
 6267              	.LVL1002:
 6268 25d6 2370     		strb	r3, [r4, #0]
 6269 25d8 1748     		ldr	r0, .L266+24
 6270 25da FFF7FEFF 		bl	uart_transmit
 6271              	.LVL1003:
 6272              	.LBE482:
 6273              	.LBB483:
 6274 25de F178     		ldrb	r1, [r6, #3]	@ zero_extendqisi2
 6275              	.LVL1004:
 6276 25e0 2B78     		ldrb	r3, [r5, #0]	@ zero_extendqisi2
 6277 25e2 2278     		ldrb	r2, [r4, #0]	@ zero_extendqisi2
 6278 25e4 CB18     		adds	r3, r1, r3
 6279 25e6 DBB2     		uxtb	r3, r3
 6280              	.LVL1005:
 6281 25e8 2B70     		strb	r3, [r5, #0]
 6282 25ea 9B18     		adds	r3, r3, r2
 6283              	.LVL1006:
 6284 25ec 2370     		strb	r3, [r4, #0]
 6285 25ee 1248     		ldr	r0, .L266+24
 6286 25f0 FFF7FEFF 		bl	uart_transmit
 6287              	.LVL1007:
 6288              	.LBE483:
 6289              	.LBB484:
 6290 25f4 174B     		ldr	r3, .L266+52
 6291 25f6 2278     		ldrb	r2, [r4, #0]	@ zero_extendqisi2
 6292 25f8 1978     		ldrb	r1, [r3, #0]	@ zero_extendqisi2
 6293              	.LVL1008:
 6294 25fa 2B78     		ldrb	r3, [r5, #0]	@ zero_extendqisi2
 6295 25fc 0E48     		ldr	r0, .L266+24
 6296 25fe CB18     		adds	r3, r1, r3
 6297 2600 DBB2     		uxtb	r3, r3
 6298              	.LVL1009:
 6299 2602 2B70     		strb	r3, [r5, #0]
 6300 2604 9B18     		adds	r3, r3, r2
 6301              	.LVL1010:
 6302 2606 2370     		strb	r3, [r4, #0]
 6303 2608 FFF7FEFF 		bl	uart_transmit
 6304              	.LVL1011:
 6305              	.LBE484:
 6306 260c 2978     		ldrb	r1, [r5, #0]	@ zero_extendqisi2
 6307 260e 0A48     		ldr	r0, .L266+24
 6308 2610 FFF7FEFF 		bl	uart_transmit
 6309 2614 0848     		ldr	r0, .L266+24
 6310 2616 2178     		ldrb	r1, [r4, #0]	@ zero_extendqisi2
 6311 2618 FFF7FEFF 		bl	uart_transmit
 6312 261c 20E0     		b	.L9
 6313              	.L267:
 6314 261e 00BF     		.align	3
 6315              	.L266:
 6316 2620 66666666 		.word	1717986918
 6317 2624 66661440 		.word	1075078758
 6318 2628 00000000 		.word	downlink_nb_ovrn
 6319 262c 00000000 		.word	.LANCHOR21
 6320 2630 00000000 		.word	.LANCHOR35
 6321 2634 00000000 		.word	downlink_nb_bytes
 6322 2638 00000000 		.word	uart2
 6323 263c 00000000 		.word	downlink_nb_msgs
 6324 2640 00000000 		.word	ck_a
 6325 2644 00000000 		.word	ck_b
 6326 2648 00000000 		.word	.LANCHOR22
 6327 264c 00000000 		.word	nav_utm_east0
 6328 2650 00000000 		.word	nav_utm_north0
 6329 2654 00000000 		.word	nav_utm_zone0
 6330              	.LVL1012:
 6331              	.L87:
 6332              		.loc 1 422 0 discriminator 120
 6333 2658 A14B     		ldr	r3, .L268+16
 6334 265a 1A78     		ldrb	r2, [r3, #0]	@ zero_extendqisi2
 6335 265c 0132     		adds	r2, r2, #1
 6336 265e 1A70     		strb	r2, [r3, #0]
 6337              	.L9:
 6338              	.LBE113:
 6339              		.loc 1 422 0 discriminator 2
 6340 2660 A04B     		ldr	r3, .L268+20
 6341 2662 1B78     		ldrb	r3, [r3, #0]	@ zero_extendqisi2
 6342 2664 012B     		cmp	r3, #1
 6343 2666 42F07B82 		bne	.L88
 6344              	.LBB485:
 6345              		.loc 1 422 0 discriminator 121
 6346 266a 9F4B     		ldr	r3, .L268+24
 6347 266c 1A78     		ldrb	r2, [r3, #0]	@ zero_extendqisi2
 6348 266e 0132     		adds	r2, r2, #1
 6349 2670 D2B2     		uxtb	r2, r2
 6350 2672 3E2A     		cmp	r2, #62
 6351 2674 1A70     		strb	r2, [r3, #0]
 6352 2676 01D9     		bls	.L89
 6353              		.loc 1 422 0 discriminator 123
 6354 2678 0022     		movs	r2, #0
 6355 267a 1A70     		strb	r2, [r3, #0]
 6356              	.L89:
 6357              		.loc 1 422 0 discriminator 124
 6358 267c 9B4B     		ldr	r3, .L268+28
 6359 267e 1A78     		ldrb	r2, [r3, #0]	@ zero_extendqisi2
 6360 2680 0132     		adds	r2, r2, #1
 6361 2682 D2B2     		uxtb	r2, r2
 6362 2684 412A     		cmp	r2, #65
 6363 2686 1A70     		strb	r2, [r3, #0]
 6364 2688 01D9     		bls	.L90
 6365              		.loc 1 422 0 discriminator 125
 6366 268a 0022     		movs	r2, #0
 6367 268c 1A70     		strb	r2, [r3, #0]
 6368              	.L90:
 6369              		.loc 1 422 0 discriminator 126
 6370 268e 984B     		ldr	r3, .L268+32
 6371 2690 1A78     		ldrb	r2, [r3, #0]	@ zero_extendqisi2
 6372 2692 0132     		adds	r2, r2, #1
 6373 2694 D2B2     		uxtb	r2, r2
 6374 2696 4D2A     		cmp	r2, #77
 6375 2698 1A70     		strb	r2, [r3, #0]
 6376 269a 01D9     		bls	.L91
 6377              		.loc 1 422 0 discriminator 127
 6378 269c 0022     		movs	r2, #0
 6379 269e 1A70     		strb	r2, [r3, #0]
 6380              	.L91:
 6381              		.loc 1 422 0 discriminator 128
 6382 26a0 944B     		ldr	r3, .L268+36
 6383 26a2 1A78     		ldrb	r2, [r3, #0]	@ zero_extendqisi2
 6384 26a4 0132     		adds	r2, r2, #1
 6385 26a6 D2B2     		uxtb	r2, r2
 6386 26a8 532A     		cmp	r2, #83
 6387 26aa 1A70     		strb	r2, [r3, #0]
 6388 26ac 01D9     		bls	.L92
 6389              		.loc 1 422 0 discriminator 129
 6390 26ae 0022     		movs	r2, #0
 6391 26b0 1A70     		strb	r2, [r3, #0]
 6392              	.L92:
 6393              		.loc 1 422 0 discriminator 130
 6394 26b2 914B     		ldr	r3, .L268+40
 6395 26b4 1A78     		ldrb	r2, [r3, #0]	@ zero_extendqisi2
 6396 26b6 0132     		adds	r2, r2, #1
 6397 26b8 D2B2     		uxtb	r2, r2
 6398 26ba 592A     		cmp	r2, #89
 6399 26bc 1A70     		strb	r2, [r3, #0]
 6400 26be 01D9     		bls	.L93
 6401              		.loc 1 422 0 discriminator 131
 6402 26c0 0022     		movs	r2, #0
 6403 26c2 1A70     		strb	r2, [r3, #0]
 6404              	.L93:
 6405              		.loc 1 422 0 discriminator 132
 6406 26c4 8D4B     		ldr	r3, .L268+44
 6407 26c6 1A78     		ldrb	r2, [r3, #0]	@ zero_extendqisi2
 6408 26c8 0132     		adds	r2, r2, #1
 6409 26ca D2B2     		uxtb	r2, r2
 6410 26cc 7D2A     		cmp	r2, #125
 6411 26ce 1A70     		strb	r2, [r3, #0]
 6412 26d0 01D9     		bls	.L94
 6413              		.loc 1 422 0 discriminator 133
 6414 26d2 0022     		movs	r2, #0
 6415 26d4 1A70     		strb	r2, [r3, #0]
 6416              	.L94:
 6417              		.loc 1 422 0 discriminator 134
 6418 26d6 8A4B     		ldr	r3, .L268+48
 6419 26d8 1A78     		ldrb	r2, [r3, #0]	@ zero_extendqisi2
 6420 26da 0132     		adds	r2, r2, #1
 6421 26dc D2B2     		uxtb	r2, r2
 6422 26de B32A     		cmp	r2, #179
 6423 26e0 1A70     		strb	r2, [r3, #0]
 6424 26e2 01D9     		bls	.L95
 6425              		.loc 1 422 0 discriminator 135
 6426 26e4 0022     		movs	r2, #0
 6427 26e6 1A70     		strb	r2, [r3, #0]
 6428              	.L95:
 6429              		.loc 1 422 0 discriminator 136
 6430 26e8 864B     		ldr	r3, .L268+52
 6431 26ea 1A78     		ldrb	r2, [r3, #0]	@ zero_extendqisi2
 6432 26ec 0132     		adds	r2, r2, #1
 6433 26ee D2B2     		uxtb	r2, r2
 6434 26f0 B62A     		cmp	r2, #182
 6435 26f2 1A70     		strb	r2, [r3, #0]
 6436 26f4 01D9     		bls	.L96
 6437              		.loc 1 422 0 discriminator 137
 6438 26f6 0022     		movs	r2, #0
 6439 26f8 1A70     		strb	r2, [r3, #0]
 6440              	.L96:
 6441              		.loc 1 422 0 discriminator 138
 6442 26fa 834B     		ldr	r3, .L268+56
 6443 26fc 1A78     		ldrb	r2, [r3, #0]	@ zero_extendqisi2
 6444 26fe 0132     		adds	r2, r2, #1
 6445 2700 D2B2     		uxtb	r2, r2
 6446 2702 BF2A     		cmp	r2, #191
 6447 2704 1A70     		strb	r2, [r3, #0]
 6448 2706 01D9     		bls	.L97
 6449              		.loc 1 422 0 discriminator 139
 6450 2708 0022     		movs	r2, #0
 6451 270a 1A70     		strb	r2, [r3, #0]
 6452              	.L97:
 6453              		.loc 1 422 0 discriminator 140
 6454 270c 7F4B     		ldr	r3, .L268+60
 6455 270e 1A78     		ldrb	r2, [r3, #0]	@ zero_extendqisi2
 6456 2710 0132     		adds	r2, r2, #1
 6457 2712 D2B2     		uxtb	r2, r2
 6458 2714 EF2A     		cmp	r2, #239
 6459 2716 1A70     		strb	r2, [r3, #0]
 6460 2718 01D9     		bls	.L98
 6461              		.loc 1 422 0 discriminator 141
 6462 271a 0022     		movs	r2, #0
 6463 271c 1A70     		strb	r2, [r3, #0]
 6464              	.L98:
 6465              		.loc 1 422 0 discriminator 142
 6466 271e 7C4B     		ldr	r3, .L268+64
 6467 2720 1A78     		ldrb	r2, [r3, #0]	@ zero_extendqisi2
 6468 2722 0132     		adds	r2, r2, #1
 6469 2724 D2B2     		uxtb	r2, r2
 6470 2726 F22A     		cmp	r2, #242
 6471 2728 1A70     		strb	r2, [r3, #0]
 6472 272a 01D9     		bls	.L99
 6473              		.loc 1 422 0 discriminator 143
 6474 272c 0022     		movs	r2, #0
 6475 272e 1A70     		strb	r2, [r3, #0]
 6476              	.L99:
 6477              		.loc 1 422 0 discriminator 144
 6478 2730 784B     		ldr	r3, .L268+68
 6479 2732 1A88     		ldrh	r2, [r3, #0]
 6480 2734 0132     		adds	r2, r2, #1
 6481 2736 92B2     		uxth	r2, r2
 6482 2738 B2F5967F 		cmp	r2, #300
 6483 273c 1A80     		strh	r2, [r3, #0]	@ movhi
 6484 273e 01D3     		bcc	.L100
 6485              		.loc 1 422 0 discriminator 145
 6486 2740 0022     		movs	r2, #0
 6487 2742 1A80     		strh	r2, [r3, #0]	@ movhi
 6488              	.L100:
 6489              		.loc 1 422 0 discriminator 146
 6490 2744 744B     		ldr	r3, .L268+72
 6491 2746 1A88     		ldrh	r2, [r3, #0]
 6492 2748 0132     		adds	r2, r2, #1
 6493 274a 92B2     		uxth	r2, r2
 6494 274c B2F5997F 		cmp	r2, #306
 6495 2750 1A80     		strh	r2, [r3, #0]	@ movhi
 6496 2752 01D3     		bcc	.L101
 6497              		.loc 1 422 0 discriminator 147
 6498 2754 0022     		movs	r2, #0
 6499 2756 1A80     		strh	r2, [r3, #0]	@ movhi
 6500              	.L101:
 6501              		.loc 1 422 0 discriminator 148
 6502 2758 704B     		ldr	r3, .L268+76
 6503 275a 1A88     		ldrh	r2, [r3, #0]
 6504 275c 0132     		adds	r2, r2, #1
 6505 275e 92B2     		uxth	r2, r2
 6506 2760 B2F59C7F 		cmp	r2, #312
 6507 2764 1A80     		strh	r2, [r3, #0]	@ movhi
 6508 2766 01D3     		bcc	.L102
 6509              		.loc 1 422 0 discriminator 149
 6510 2768 0022     		movs	r2, #0
 6511 276a 1A80     		strh	r2, [r3, #0]	@ movhi
 6512              	.L102:
 6513              		.loc 1 422 0 discriminator 150
 6514 276c 6C4B     		ldr	r3, .L268+80
 6515 276e 1A88     		ldrh	r2, [r3, #0]
 6516 2770 0132     		adds	r2, r2, #1
 6517 2772 92B2     		uxth	r2, r2
 6518 2774 B2F5077F 		cmp	r2, #540
 6519 2778 1A80     		strh	r2, [r3, #0]	@ movhi
 6520 277a 01D3     		bcc	.L103
 6521              		.loc 1 422 0 discriminator 151
 6522 277c 0022     		movs	r2, #0
 6523 277e 1A80     		strh	r2, [r3, #0]	@ movhi
 6524              	.L103:
 6525              		.loc 1 422 0 discriminator 152
 6526 2780 684B     		ldr	r3, .L268+84
 6527 2782 40F25D21 		movw	r1, #605
 6528 2786 1A88     		ldrh	r2, [r3, #0]
 6529 2788 0132     		adds	r2, r2, #1
 6530 278a 92B2     		uxth	r2, r2
 6531 278c 8A42     		cmp	r2, r1
 6532 278e 1A80     		strh	r2, [r3, #0]	@ movhi
 6533 2790 01D9     		bls	.L104
 6534              		.loc 1 422 0 discriminator 153
 6535 2792 0022     		movs	r2, #0
 6536 2794 1A80     		strh	r2, [r3, #0]	@ movhi
 6537              	.L104:
 6538              		.loc 1 422 0 discriminator 154
 6539 2796 544B     		ldr	r3, .L268+24
 6540 2798 1B78     		ldrb	r3, [r3, #0]	@ zero_extendqisi2
 6541 279a 002B     		cmp	r3, #0
 6542 279c 40F0AC82 		bne	.L105
 6543              	.LBB486:
 6544              		.loc 1 422 0 discriminator 155
 6545 27a0 614C     		ldr	r4, .L268+88
 6546 27a2 236C     		ldr	r3, [r4, #64]
 6547 27a4 A06C     		ldr	r0, [r4, #72]
 6548 27a6 5B42     		negs	r3, r3
 6549 27a8 ADF81C30 		strh	r3, [sp, #28]	@ movhi
 6550              	.LVL1013:
 6551 27ac FFF7FEFF 		bl	__aeabi_i2d
 6552 27b0 47A3     		adr	r3, .L268
 6553 27b2 D3E90023 		ldrd	r2, [r3]
 6554 27b6 FFF7FEFF 		bl	__aeabi_dmul
 6555 27ba 47A3     		adr	r3, .L268+8
 6556 27bc D3E90023 		ldrd	r2, [r3]
 6557 27c0 FFF7FEFF 		bl	__aeabi_ddiv
 6558 27c4 FFF7FEFF 		bl	__aeabi_d2iz
 6559 27c8 2121     		movs	r1, #33
 6560 27ca ADF81E00 		strh	r0, [sp, #30]	@ movhi
 6561              	.LVL1014:
 6562 27ce 5748     		ldr	r0, .L268+92
 6563 27d0 FFF7FEFF 		bl	uart_check_free_space
 6564 27d4 0028     		cmp	r0, #0
 6565 27d6 00F0A781 		beq	.L106
 6566              		.loc 1 422 0 discriminator 157
 6567 27da 554B     		ldr	r3, .L268+96
 6568              	.LBB487:
 6569 27dc 9921     		movs	r1, #153
 6570              	.LBE487:
 6571 27de 1A88     		ldrh	r2, [r3, #0]
 6572              	.LBB488:
 6573 27e0 5248     		ldr	r0, .L268+92
 6574              	.LBE488:
 6575 27e2 2132     		adds	r2, r2, #33
 6576 27e4 1A80     		strh	r2, [r3, #0]	@ movhi
 6577 27e6 534B     		ldr	r3, .L268+100
 6578 27e8 534E     		ldr	r6, .L268+104
 6579 27ea 1A88     		ldrh	r2, [r3, #0]
 6580 27ec 534D     		ldr	r5, .L268+108
 6581 27ee 0132     		adds	r2, r2, #1
 6582 27f0 1A80     		strh	r2, [r3, #0]	@ movhi
 6583              	.LBB489:
 6584 27f2 FFF7FEFF 		bl	uart_transmit
 6585              	.LVL1015:
 6586 27f6 2121     		movs	r1, #33
 6587 27f8 4C48     		ldr	r0, .L268+92
 6588 27fa FFF7FEFF 		bl	uart_transmit
 6589              	.LBE489:
 6590 27fe 2223     		movs	r3, #34
 6591 2800 3370     		strb	r3, [r6, #0]
 6592 2802 4323     		movs	r3, #67
 6593 2804 2B70     		strb	r3, [r5, #0]
 6594 2806 0121     		movs	r1, #1
 6595 2808 4848     		ldr	r0, .L268+92
 6596 280a FFF7FEFF 		bl	uart_transmit
 6597 280e 3378     		ldrb	r3, [r6, #0]	@ zero_extendqisi2
 6598 2810 2A78     		ldrb	r2, [r5, #0]	@ zero_extendqisi2
 6599 2812 0833     		adds	r3, r3, #8
 6600 2814 DBB2     		uxtb	r3, r3
 6601 2816 3370     		strb	r3, [r6, #0]
 6602 2818 9B18     		adds	r3, r3, r2
 6603 281a 2B70     		strb	r3, [r5, #0]
 6604 281c 0821     		movs	r1, #8
 6605 281e 4348     		ldr	r0, .L268+92
 6606 2820 FFF7FEFF 		bl	uart_transmit
 6607              	.LBB490:
 6608 2824 94F85B10 		ldrb	r1, [r4, #91]	@ zero_extendqisi2
 6609              	.LVL1016:
 6610 2828 3378     		ldrb	r3, [r6, #0]	@ zero_extendqisi2
 6611 282a 2A78     		ldrb	r2, [r5, #0]	@ zero_extendqisi2
 6612 282c CB18     		adds	r3, r1, r3
 6613 282e DBB2     		uxtb	r3, r3
 6614              	.LVL1017:
 6615 2830 3370     		strb	r3, [r6, #0]
 6616 2832 9B18     		adds	r3, r3, r2
 6617              	.LVL1018:
 6618 2834 2B70     		strb	r3, [r5, #0]
 6619 2836 3D48     		ldr	r0, .L268+92
 6620 2838 FFF7FEFF 		bl	uart_transmit
 6621              	.LVL1019:
 6622              	.LBE490:
 6623              	.LBB491:
 6624 283c 217F     		ldrb	r1, [r4, #28]	@ zero_extendqisi2
 6625              	.LVL1020:
 6626 283e 3378     		ldrb	r3, [r6, #0]	@ zero_extendqisi2
 6627 2840 2A78     		ldrb	r2, [r5, #0]	@ zero_extendqisi2
 6628 2842 CB18     		adds	r3, r1, r3
 6629 2844 DBB2     		uxtb	r3, r3
 6630              	.LVL1021:
 6631 2846 3370     		strb	r3, [r6, #0]
 6632 2848 9B18     		adds	r3, r3, r2
 6633              	.LVL1022:
 6634 284a 2B70     		strb	r3, [r5, #0]
 6635 284c 3748     		ldr	r0, .L268+92
 6636 284e FFF7FEFF 		bl	uart_transmit
 6637              	.LVL1023:
 6638              	.LBE491:
 6639              	.LBB492:
 6640 2852 617F     		ldrb	r1, [r4, #29]	@ zero_extendqisi2
 6641              	.LVL1024:
 6642 2854 3378     		ldrb	r3, [r6, #0]	@ zero_extendqisi2
 6643 2856 2A78     		ldrb	r2, [r5, #0]	@ zero_extendqisi2
 6644 2858 CB18     		adds	r3, r1, r3
 6645 285a DBB2     		uxtb	r3, r3
 6646              	.LVL1025:
 6647 285c 3370     		strb	r3, [r6, #0]
 6648 285e 9B18     		adds	r3, r3, r2
 6649              	.LVL1026:
 6650 2860 2B70     		strb	r3, [r5, #0]
 6651 2862 3248     		ldr	r0, .L268+92
 6652 2864 FFF7FEFF 		bl	uart_transmit
 6653              	.LVL1027:
 6654              	.LBE492:
 6655              	.LBB493:
 6656 2868 A17F     		ldrb	r1, [r4, #30]	@ zero_extendqisi2
 6657              	.LVL1028:
 6658 286a 3378     		ldrb	r3, [r6, #0]	@ zero_extendqisi2
 6659 286c 2A78     		ldrb	r2, [r5, #0]	@ zero_extendqisi2
 6660 286e CB18     		adds	r3, r1, r3
 6661 2870 DBB2     		uxtb	r3, r3
 6662              	.LVL1029:
 6663 2872 3370     		strb	r3, [r6, #0]
 6664 2874 9B18     		adds	r3, r3, r2
 6665              	.LVL1030:
 6666 2876 2B70     		strb	r3, [r5, #0]
 6667 2878 2C48     		ldr	r0, .L268+92
 6668 287a FFF7FEFF 		bl	uart_transmit
 6669              	.LVL1031:
 6670              	.LBE493:
 6671              	.LBB494:
 6672 287e E17F     		ldrb	r1, [r4, #31]	@ zero_extendqisi2
 6673              	.LVL1032:
 6674 2880 3378     		ldrb	r3, [r6, #0]	@ zero_extendqisi2
 6675 2882 2A78     		ldrb	r2, [r5, #0]	@ zero_extendqisi2
 6676 2884 CB18     		adds	r3, r1, r3
 6677 2886 DBB2     		uxtb	r3, r3
 6678              	.LVL1033:
 6679 2888 3370     		strb	r3, [r6, #0]
 6680 288a 9B18     		adds	r3, r3, r2
 6681              	.LVL1034:
 6682 288c 2B70     		strb	r3, [r5, #0]
 6683 288e 2748     		ldr	r0, .L268+92
 6684 2890 FFF7FEFF 		bl	uart_transmit
 6685              	.LVL1035:
 6686              	.LBE494:
 6687              	.LBB495:
 6688 2894 217E     		ldrb	r1, [r4, #24]	@ zero_extendqisi2
 6689              	.LVL1036:
 6690 2896 3378     		ldrb	r3, [r6, #0]	@ zero_extendqisi2
 6691 2898 2A78     		ldrb	r2, [r5, #0]	@ zero_extendqisi2
 6692 289a CB18     		adds	r3, r1, r3
 6693 289c DBB2     		uxtb	r3, r3
 6694              	.LVL1037:
 6695 289e 3370     		strb	r3, [r6, #0]
 6696 28a0 9B18     		adds	r3, r3, r2
 6697              	.LVL1038:
 6698 28a2 2B70     		strb	r3, [r5, #0]
 6699 28a4 2148     		ldr	r0, .L268+92
 6700 28a6 FFF7FEFF 		bl	uart_transmit
 6701              	.LVL1039:
 6702              	.LBE495:
 6703              	.LBB496:
 6704 28aa 617E     		ldrb	r1, [r4, #25]	@ zero_extendqisi2
 6705              	.LVL1040:
 6706 28ac 3378     		ldrb	r3, [r6, #0]	@ zero_extendqisi2
 6707 28ae 2A78     		ldrb	r2, [r5, #0]	@ zero_extendqisi2
 6708 28b0 CB18     		adds	r3, r1, r3
 6709 28b2 DBB2     		uxtb	r3, r3
 6710              	.LVL1041:
 6711 28b4 3370     		strb	r3, [r6, #0]
 6712 28b6 9B18     		adds	r3, r3, r2
 6713              	.LVL1042:
 6714 28b8 2B70     		strb	r3, [r5, #0]
 6715 28ba 1C48     		ldr	r0, .L268+92
 6716 28bc FFF7FEFF 		bl	uart_transmit
 6717              	.LVL1043:
 6718              	.LBE496:
 6719              	.LBB497:
 6720 28c0 A17E     		ldrb	r1, [r4, #26]	@ zero_extendqisi2
 6721              	.LVL1044:
 6722 28c2 3378     		ldrb	r3, [r6, #0]	@ zero_extendqisi2
 6723 28c4 2A78     		ldrb	r2, [r5, #0]	@ zero_extendqisi2
 6724 28c6 CB18     		adds	r3, r1, r3
 6725 28c8 DBB2     		uxtb	r3, r3
 6726              	.LVL1045:
 6727 28ca 3370     		strb	r3, [r6, #0]
 6728 28cc 9B18     		adds	r3, r3, r2
 6729 28ce 37E0     		b	.L269
 6730              	.L270:
 6731              		.align	3
 6732              	.L268:
 6733 28d0 F8C1631A 		.word	442745336
 6734 28d4 DCA54C40 		.word	1078765020
 6735 28d8 00000000 		.word	0
 6736 28dc 80842E41 		.word	1093567616
 6737 28e0 00000000 		.word	downlink_nb_ovrn
 6738 28e4 00000000 		.word	telemetry_mode_Ap
 6739 28e8 00000000 		.word	.LANCHOR36
 6740 28ec 00000000 		.word	.LANCHOR37
 6741 28f0 00000000 		.word	.LANCHOR38
 6742 28f4 00000000 		.word	.LANCHOR39
 6743 28f8 00000000 		.word	.LANCHOR40
 6744 28fc 00000000 		.word	.LANCHOR41
 6745 2900 00000000 		.word	.LANCHOR42
 6746 2904 00000000 		.word	.LANCHOR43
 6747 2908 00000000 		.word	.LANCHOR44
 6748 290c 00000000 		.word	.LANCHOR45
 6749 2910 00000000 		.word	.LANCHOR46
 6750 2914 00000000 		.word	.LANCHOR47
 6751 2918 00000000 		.word	.LANCHOR48
 6752 291c 00000000 		.word	.LANCHOR49
 6753 2920 00000000 		.word	.LANCHOR50
 6754 2924 00000000 		.word	.LANCHOR51
 6755 2928 00000000 		.word	gps
 6756 292c 00000000 		.word	uart2
 6757 2930 00000000 		.word	downlink_nb_bytes
 6758 2934 00000000 		.word	downlink_nb_msgs
 6759 2938 00000000 		.word	ck_a
 6760 293c 00000000 		.word	ck_b
 6761              	.L269:
 6762              	.LVL1046:
 6763 2940 2B70     		strb	r3, [r5, #0]
 6764 2942 7748     		ldr	r0, .L271
 6765 2944 FFF7FEFF 		bl	uart_transmit
 6766              	.LVL1047:
 6767              	.LBE497:
 6768              	.LBB498:
 6769 2948 E17E     		ldrb	r1, [r4, #27]	@ zero_extendqisi2
 6770              	.LVL1048:
 6771 294a 3378     		ldrb	r3, [r6, #0]	@ zero_extendqisi2
 6772 294c 2A78     		ldrb	r2, [r5, #0]	@ zero_extendqisi2
 6773 294e CB18     		adds	r3, r1, r3
 6774 2950 DBB2     		uxtb	r3, r3
 6775              	.LVL1049:
 6776 2952 3370     		strb	r3, [r6, #0]
 6777 2954 9B18     		adds	r3, r3, r2
 6778              	.LVL1050:
 6779 2956 2B70     		strb	r3, [r5, #0]
 6780 2958 7148     		ldr	r0, .L271
 6781 295a FFF7FEFF 		bl	uart_transmit
 6782              	.LVL1051:
 6783              	.LBE498:
 6784              	.LBB499:
 6785 295e 9DF81E10 		ldrb	r1, [sp, #30]	@ zero_extendqisi2
 6786              	.LVL1052:
 6787 2962 3378     		ldrb	r3, [r6, #0]	@ zero_extendqisi2
 6788 2964 2A78     		ldrb	r2, [r5, #0]	@ zero_extendqisi2
 6789 2966 CB18     		adds	r3, r1, r3
 6790 2968 DBB2     		uxtb	r3, r3
 6791              	.LVL1053:
 6792 296a 3370     		strb	r3, [r6, #0]
 6793 296c 9B18     		adds	r3, r3, r2
 6794              	.LVL1054:
 6795 296e 2B70     		strb	r3, [r5, #0]
 6796 2970 6B48     		ldr	r0, .L271
 6797 2972 FFF7FEFF 		bl	uart_transmit
 6798              	.LVL1055:
 6799              	.LBE499:
 6800              	.LBB500:
 6801 2976 9DF81F10 		ldrb	r1, [sp, #31]	@ zero_extendqisi2
 6802              	.LVL1056:
 6803 297a 3378     		ldrb	r3, [r6, #0]	@ zero_extendqisi2
 6804 297c 2A78     		ldrb	r2, [r5, #0]	@ zero_extendqisi2
 6805 297e CB18     		adds	r3, r1, r3
 6806 2980 DBB2     		uxtb	r3, r3
 6807              	.LVL1057:
 6808 2982 3370     		strb	r3, [r6, #0]
 6809 2984 9B18     		adds	r3, r3, r2
 6810              	.LVL1058:
 6811 2986 2B70     		strb	r3, [r5, #0]
 6812 2988 6548     		ldr	r0, .L271
 6813 298a FFF7FEFF 		bl	uart_transmit
 6814              	.LVL1059:
 6815              	.LBE500:
 6816              	.LBB501:
 6817 298e 94F82810 		ldrb	r1, [r4, #40]	@ zero_extendqisi2
 6818              	.LVL1060:
 6819 2992 3378     		ldrb	r3, [r6, #0]	@ zero_extendqisi2
 6820 2994 2A78     		ldrb	r2, [r5, #0]	@ zero_extendqisi2
 6821 2996 CB18     		adds	r3, r1, r3
 6822 2998 DBB2     		uxtb	r3, r3
 6823              	.LVL1061:
 6824 299a 3370     		strb	r3, [r6, #0]
 6825 299c 9B18     		adds	r3, r3, r2
 6826              	.LVL1062:
 6827 299e 2B70     		strb	r3, [r5, #0]
 6828 29a0 5F48     		ldr	r0, .L271
 6829 29a2 FFF7FEFF 		bl	uart_transmit
 6830              	.LVL1063:
 6831              	.LBE501:
 6832              	.LBB502:
 6833 29a6 94F82910 		ldrb	r1, [r4, #41]	@ zero_extendqisi2
 6834              	.LVL1064:
 6835 29aa 3378     		ldrb	r3, [r6, #0]	@ zero_extendqisi2
 6836 29ac 2A78     		ldrb	r2, [r5, #0]	@ zero_extendqisi2
 6837 29ae CB18     		adds	r3, r1, r3
 6838 29b0 DBB2     		uxtb	r3, r3
 6839              	.LVL1065:
 6840 29b2 3370     		strb	r3, [r6, #0]
 6841 29b4 9B18     		adds	r3, r3, r2
 6842              	.LVL1066:
 6843 29b6 2B70     		strb	r3, [r5, #0]
 6844 29b8 5948     		ldr	r0, .L271
 6845 29ba FFF7FEFF 		bl	uart_transmit
 6846              	.LVL1067:
 6847              	.LBE502:
 6848              	.LBB503:
 6849 29be 94F82A10 		ldrb	r1, [r4, #42]	@ zero_extendqisi2
 6850              	.LVL1068:
 6851 29c2 3378     		ldrb	r3, [r6, #0]	@ zero_extendqisi2
 6852 29c4 2A78     		ldrb	r2, [r5, #0]	@ zero_extendqisi2
 6853 29c6 CB18     		adds	r3, r1, r3
 6854 29c8 DBB2     		uxtb	r3, r3
 6855              	.LVL1069:
 6856 29ca 3370     		strb	r3, [r6, #0]
 6857 29cc 9B18     		adds	r3, r3, r2
 6858              	.LVL1070:
 6859 29ce 2B70     		strb	r3, [r5, #0]
 6860 29d0 5348     		ldr	r0, .L271
 6861 29d2 FFF7FEFF 		bl	uart_transmit
 6862              	.LVL1071:
 6863              	.LBE503:
 6864              	.LBB504:
 6865 29d6 94F82B10 		ldrb	r1, [r4, #43]	@ zero_extendqisi2
 6866              	.LVL1072:
 6867 29da 3378     		ldrb	r3, [r6, #0]	@ zero_extendqisi2
 6868 29dc 2A78     		ldrb	r2, [r5, #0]	@ zero_extendqisi2
 6869 29de CB18     		adds	r3, r1, r3
 6870 29e0 DBB2     		uxtb	r3, r3
 6871              	.LVL1073:
 6872 29e2 3370     		strb	r3, [r6, #0]
 6873 29e4 9B18     		adds	r3, r3, r2
 6874              	.LVL1074:
 6875 29e6 2B70     		strb	r3, [r5, #0]
 6876 29e8 4D48     		ldr	r0, .L271
 6877 29ea FFF7FEFF 		bl	uart_transmit
 6878              	.LVL1075:
 6879              	.LBE504:
 6880              	.LBB505:
 6881 29ee 94F84410 		ldrb	r1, [r4, #68]	@ zero_extendqisi2
 6882              	.LVL1076:
 6883 29f2 3378     		ldrb	r3, [r6, #0]	@ zero_extendqisi2
 6884 29f4 2A78     		ldrb	r2, [r5, #0]	@ zero_extendqisi2
 6885 29f6 CB18     		adds	r3, r1, r3
 6886 29f8 DBB2     		uxtb	r3, r3
 6887              	.LVL1077:
 6888 29fa 3370     		strb	r3, [r6, #0]
 6889 29fc 9B18     		adds	r3, r3, r2
 6890              	.LVL1078:
 6891 29fe 2B70     		strb	r3, [r5, #0]
 6892 2a00 4748     		ldr	r0, .L271
 6893 2a02 FFF7FEFF 		bl	uart_transmit
 6894              	.LVL1079:
 6895              	.LBE505:
 6896              	.LBB506:
 6897 2a06 94F84510 		ldrb	r1, [r4, #69]	@ zero_extendqisi2
 6898              	.LVL1080:
 6899 2a0a 3378     		ldrb	r3, [r6, #0]	@ zero_extendqisi2
 6900 2a0c 2A78     		ldrb	r2, [r5, #0]	@ zero_extendqisi2
 6901 2a0e CB18     		adds	r3, r1, r3
 6902 2a10 DBB2     		uxtb	r3, r3
 6903              	.LVL1081:
 6904 2a12 3370     		strb	r3, [r6, #0]
 6905 2a14 9B18     		adds	r3, r3, r2
 6906              	.LVL1082:
 6907 2a16 2B70     		strb	r3, [r5, #0]
 6908 2a18 4148     		ldr	r0, .L271
 6909 2a1a FFF7FEFF 		bl	uart_transmit
 6910              	.LVL1083:
 6911              	.LBE506:
 6912              	.LBB507:
 6913 2a1e 9DF81C10 		ldrb	r1, [sp, #28]	@ zero_extendqisi2
 6914              	.LVL1084:
 6915 2a22 3378     		ldrb	r3, [r6, #0]	@ zero_extendqisi2
 6916 2a24 2A78     		ldrb	r2, [r5, #0]	@ zero_extendqisi2
 6917 2a26 CB18     		adds	r3, r1, r3
 6918 2a28 DBB2     		uxtb	r3, r3
 6919              	.LVL1085:
 6920 2a2a 3370     		strb	r3, [r6, #0]
 6921 2a2c 9B18     		adds	r3, r3, r2
 6922              	.LVL1086:
 6923 2a2e 2B70     		strb	r3, [r5, #0]
 6924 2a30 3B48     		ldr	r0, .L271
 6925 2a32 FFF7FEFF 		bl	uart_transmit
 6926              	.LVL1087:
 6927              	.LBE507:
 6928              	.LBB508:
 6929 2a36 9DF81D10 		ldrb	r1, [sp, #29]	@ zero_extendqisi2
 6930              	.LVL1088:
 6931 2a3a 3378     		ldrb	r3, [r6, #0]	@ zero_extendqisi2
 6932 2a3c 2A78     		ldrb	r2, [r5, #0]	@ zero_extendqisi2
 6933 2a3e CB18     		adds	r3, r1, r3
 6934 2a40 DBB2     		uxtb	r3, r3
 6935              	.LVL1089:
 6936 2a42 3370     		strb	r3, [r6, #0]
 6937 2a44 9B18     		adds	r3, r3, r2
 6938              	.LVL1090:
 6939 2a46 2B70     		strb	r3, [r5, #0]
 6940 2a48 3548     		ldr	r0, .L271
 6941 2a4a FFF7FEFF 		bl	uart_transmit
 6942              	.LVL1091:
 6943              	.LBE508:
 6944              	.LBB509:
 6945 2a4e 94F85C10 		ldrb	r1, [r4, #92]	@ zero_extendqisi2
 6946              	.LVL1092:
 6947 2a52 3378     		ldrb	r3, [r6, #0]	@ zero_extendqisi2
 6948 2a54 2A78     		ldrb	r2, [r5, #0]	@ zero_extendqisi2
 6949 2a56 CB18     		adds	r3, r1, r3
 6950 2a58 DBB2     		uxtb	r3, r3
 6951              	.LVL1093:
 6952 2a5a 3370     		strb	r3, [r6, #0]
 6953 2a5c 9B18     		adds	r3, r3, r2
 6954              	.LVL1094:
 6955 2a5e 2B70     		strb	r3, [r5, #0]
 6956 2a60 2F48     		ldr	r0, .L271
 6957 2a62 FFF7FEFF 		bl	uart_transmit
 6958              	.LVL1095:
 6959              	.LBE509:
 6960              	.LBB510:
 6961 2a66 94F85D10 		ldrb	r1, [r4, #93]	@ zero_extendqisi2
 6962              	.LVL1096:
 6963 2a6a 3378     		ldrb	r3, [r6, #0]	@ zero_extendqisi2
 6964 2a6c 2A78     		ldrb	r2, [r5, #0]	@ zero_extendqisi2
 6965 2a6e CB18     		adds	r3, r1, r3
 6966 2a70 DBB2     		uxtb	r3, r3
 6967              	.LVL1097:
 6968 2a72 3370     		strb	r3, [r6, #0]
 6969 2a74 9B18     		adds	r3, r3, r2
 6970              	.LVL1098:
 6971 2a76 2B70     		strb	r3, [r5, #0]
 6972 2a78 2948     		ldr	r0, .L271
 6973 2a7a FFF7FEFF 		bl	uart_transmit
 6974              	.LVL1099:
 6975              	.LBE510:
 6976              	.LBB511:
 6977 2a7e 94F86010 		ldrb	r1, [r4, #96]	@ zero_extendqisi2
 6978              	.LVL1100:
 6979 2a82 3378     		ldrb	r3, [r6, #0]	@ zero_extendqisi2
 6980 2a84 2A78     		ldrb	r2, [r5, #0]	@ zero_extendqisi2
 6981 2a86 CB18     		adds	r3, r1, r3
 6982 2a88 DBB2     		uxtb	r3, r3
 6983              	.LVL1101:
 6984 2a8a 3370     		strb	r3, [r6, #0]
 6985 2a8c 9B18     		adds	r3, r3, r2
 6986              	.LVL1102:
 6987 2a8e 2B70     		strb	r3, [r5, #0]
 6988 2a90 2348     		ldr	r0, .L271
 6989 2a92 FFF7FEFF 		bl	uart_transmit
 6990              	.LVL1103:
 6991              	.LBE511:
 6992              	.LBB512:
 6993 2a96 94F86110 		ldrb	r1, [r4, #97]	@ zero_extendqisi2
 6994              	.LVL1104:
 6995 2a9a 3378     		ldrb	r3, [r6, #0]	@ zero_extendqisi2
 6996 2a9c 2A78     		ldrb	r2, [r5, #0]	@ zero_extendqisi2
 6997 2a9e CB18     		adds	r3, r1, r3
 6998 2aa0 DBB2     		uxtb	r3, r3
 6999              	.LVL1105:
 7000 2aa2 3370     		strb	r3, [r6, #0]
 7001 2aa4 9B18     		adds	r3, r3, r2
 7002              	.LVL1106:
 7003 2aa6 2B70     		strb	r3, [r5, #0]
 7004 2aa8 1D48     		ldr	r0, .L271
 7005 2aaa FFF7FEFF 		bl	uart_transmit
 7006              	.LVL1107:
 7007              	.LBE512:
 7008              	.LBB513:
 7009 2aae 94F86210 		ldrb	r1, [r4, #98]	@ zero_extendqisi2
 7010              	.LVL1108:
 7011 2ab2 3378     		ldrb	r3, [r6, #0]	@ zero_extendqisi2
 7012 2ab4 2A78     		ldrb	r2, [r5, #0]	@ zero_extendqisi2
 7013 2ab6 CB18     		adds	r3, r1, r3
 7014 2ab8 DBB2     		uxtb	r3, r3
 7015              	.LVL1109:
 7016 2aba 3370     		strb	r3, [r6, #0]
 7017 2abc 9B18     		adds	r3, r3, r2
 7018              	.LVL1110:
 7019 2abe 2B70     		strb	r3, [r5, #0]
 7020 2ac0 1748     		ldr	r0, .L271
 7021 2ac2 FFF7FEFF 		bl	uart_transmit
 7022              	.LVL1111:
 7023              	.LBE513:
 7024              	.LBB514:
 7025 2ac6 94F86310 		ldrb	r1, [r4, #99]	@ zero_extendqisi2
 7026              	.LVL1112:
 7027 2aca 3378     		ldrb	r3, [r6, #0]	@ zero_extendqisi2
 7028 2acc 2A78     		ldrb	r2, [r5, #0]	@ zero_extendqisi2
 7029 2ace CB18     		adds	r3, r1, r3
 7030 2ad0 DBB2     		uxtb	r3, r3
 7031              	.LVL1113:
 7032 2ad2 3370     		strb	r3, [r6, #0]
 7033 2ad4 9B18     		adds	r3, r3, r2
 7034              	.LVL1114:
 7035 2ad6 2B70     		strb	r3, [r5, #0]
 7036 2ad8 1148     		ldr	r0, .L271
 7037 2ada FFF7FEFF 		bl	uart_transmit
 7038              	.LVL1115:
 7039              	.LBE514:
 7040              	.LBB515:
 7041 2ade 94F82410 		ldrb	r1, [r4, #36]	@ zero_extendqisi2
 7042              	.LVL1116:
 7043 2ae2 3378     		ldrb	r3, [r6, #0]	@ zero_extendqisi2
 7044 2ae4 2A78     		ldrb	r2, [r5, #0]	@ zero_extendqisi2
 7045 2ae6 CB18     		adds	r3, r1, r3
 7046 2ae8 DBB2     		uxtb	r3, r3
 7047              	.LVL1117:
 7048 2aea 3370     		strb	r3, [r6, #0]
 7049 2aec 9B18     		adds	r3, r3, r2
 7050              	.LVL1118:
 7051 2aee 2B70     		strb	r3, [r5, #0]
 7052 2af0 0B48     		ldr	r0, .L271
 7053 2af2 FFF7FEFF 		bl	uart_transmit
 7054              	.LVL1119:
 7055              	.LBE515:
 7056              	.LBB516:
 7057 2af6 0B4B     		ldr	r3, .L271+4
 7058 2af8 2A78     		ldrb	r2, [r5, #0]	@ zero_extendqisi2
 7059 2afa 1978     		ldrb	r1, [r3, #0]	@ zero_extendqisi2
 7060              	.LVL1120:
 7061 2afc 3378     		ldrb	r3, [r6, #0]	@ zero_extendqisi2
 7062 2afe 0848     		ldr	r0, .L271
 7063 2b00 CB18     		adds	r3, r1, r3
 7064 2b02 DBB2     		uxtb	r3, r3
 7065              	.LVL1121:
 7066 2b04 3370     		strb	r3, [r6, #0]
 7067 2b06 9B18     		adds	r3, r3, r2
 7068              	.LVL1122:
 7069 2b08 2B70     		strb	r3, [r5, #0]
 7070 2b0a FFF7FEFF 		bl	uart_transmit
 7071              	.LVL1123:
 7072              	.LBE516:
 7073 2b0e 3178     		ldrb	r1, [r6, #0]	@ zero_extendqisi2
 7074 2b10 0348     		ldr	r0, .L271
 7075 2b12 FFF7FEFF 		bl	uart_transmit
 7076 2b16 0248     		ldr	r0, .L271
 7077 2b18 2978     		ldrb	r1, [r5, #0]	@ zero_extendqisi2
 7078 2b1a FFF7FEFF 		bl	uart_transmit
 7079 2b1e 07E0     		b	.L107
 7080              	.L272:
 7081              		.align	2
 7082              	.L271:
 7083 2b20 00000000 		.word	uart2
 7084 2b24 00000000 		.word	.LANCHOR52
 7085              	.LVL1124:
 7086              	.L106:
 7087              		.loc 1 422 0 discriminator 158
 7088 2b28 674B     		ldr	r3, .L273
 7089 2b2a 1A78     		ldrb	r2, [r3, #0]	@ zero_extendqisi2
 7090 2b2c 0132     		adds	r2, r2, #1
 7091 2b2e 1A70     		strb	r2, [r3, #0]
 7092              	.L107:
 7093              		.loc 1 422 0 discriminator 159
 7094 2b30 664A     		ldr	r2, .L273+4
 7095 2b32 92F85B30 		ldrb	r3, [r2, #91]	@ zero_extendqisi2
 7096 2b36 032B     		cmp	r3, #3
 7097 2b38 654B     		ldr	r3, .L273+8
 7098 2b3a 06D0     		beq	.L108
 7099              		.loc 1 422 0 discriminator 160
 7100 2b3c 1878     		ldrb	r0, [r3, #0]	@ zero_extendqisi2
 7101 2b3e 92F86410 		ldrb	r1, [r2, #100]	@ zero_extendqisi2
 7102 2b42 8842     		cmp	r0, r1
 7103 2b44 01D3     		bcc	.L108
 7104              		.loc 1 422 0 discriminator 162
 7105 2b46 0021     		movs	r1, #0
 7106 2b48 1970     		strb	r1, [r3, #0]
 7107              	.L108:
 7108              		.loc 1 422 0 discriminator 161
 7109 2b4a 92F86420 		ldrb	r2, [r2, #100]	@ zero_extendqisi2
 7110 2b4e 1B78     		ldrb	r3, [r3, #0]	@ zero_extendqisi2
 7111 2b50 B3EB420F 		cmp	r3, r2, lsl #1
 7112 2b54 02DB     		blt	.L109
 7113              		.loc 1 422 0 discriminator 163
 7114 2b56 5E4B     		ldr	r3, .L273+8
 7115 2b58 0021     		movs	r1, #0
 7116 2b5a 1970     		strb	r1, [r3, #0]
 7117              	.L109:
 7118              		.loc 1 422 0 discriminator 164
 7119 2b5c 5C4E     		ldr	r6, .L273+8
 7120 2b5e 3378     		ldrb	r3, [r6, #0]	@ zero_extendqisi2
 7121 2b60 9342     		cmp	r3, r2
 7122 2b62 80F0C580 		bcs	.L110
 7123              		.loc 1 422 0 discriminator 165
 7124 2b66 594F     		ldr	r7, .L273+4
 7125 2b68 07EBC303 		add	r3, r7, r3, lsl #3
 7126 2b6c 93F86930 		ldrb	r3, [r3, #105]	@ zero_extendqisi2
 7127 2b70 002B     		cmp	r3, #0
 7128 2b72 00F0BD80 		beq	.L110
 7129              		.loc 1 422 0 discriminator 167
 7130 2b76 5748     		ldr	r0, .L273+12
 7131 2b78 0E21     		movs	r1, #14
 7132 2b7a FFF7FEFF 		bl	uart_check_free_space
 7133 2b7e 0028     		cmp	r0, #0
 7134 2b80 00F0B280 		beq	.L111
 7135              		.loc 1 422 0 discriminator 168
 7136 2b84 544B     		ldr	r3, .L273+16
 7137              	.LBB517:
 7138 2b86 9921     		movs	r1, #153
 7139              	.LBE517:
 7140 2b88 1A88     		ldrh	r2, [r3, #0]
 7141              	.LBB518:
 7142 2b8a 5248     		ldr	r0, .L273+12
 7143              	.LBE518:
 7144 2b8c 0E32     		adds	r2, r2, #14
 7145 2b8e 1A80     		strh	r2, [r3, #0]	@ movhi
 7146 2b90 524B     		ldr	r3, .L273+20
 7147 2b92 534D     		ldr	r5, .L273+24
 7148 2b94 1A88     		ldrh	r2, [r3, #0]
 7149 2b96 534C     		ldr	r4, .L273+28
 7150 2b98 0132     		adds	r2, r2, #1
 7151 2b9a 1A80     		strh	r2, [r3, #0]	@ movhi
 7152              	.LBB519:
 7153 2b9c FFF7FEFF 		bl	uart_transmit
 7154              	.LVL1125:
 7155 2ba0 0E21     		movs	r1, #14
 7156 2ba2 4C48     		ldr	r0, .L273+12
 7157 2ba4 FFF7FEFF 		bl	uart_transmit
 7158              	.LBE519:
 7159 2ba8 0F23     		movs	r3, #15
 7160 2baa 2B70     		strb	r3, [r5, #0]
 7161 2bac 1D23     		movs	r3, #29
 7162 2bae 2370     		strb	r3, [r4, #0]
 7163 2bb0 0121     		movs	r1, #1
 7164 2bb2 4848     		ldr	r0, .L273+12
 7165 2bb4 FFF7FEFF 		bl	uart_transmit
 7166 2bb8 2B78     		ldrb	r3, [r5, #0]	@ zero_extendqisi2
 7167 2bba 2278     		ldrb	r2, [r4, #0]	@ zero_extendqisi2
 7168 2bbc 1933     		adds	r3, r3, #25
 7169 2bbe DBB2     		uxtb	r3, r3
 7170 2bc0 2B70     		strb	r3, [r5, #0]
 7171 2bc2 9B18     		adds	r3, r3, r2
 7172 2bc4 2370     		strb	r3, [r4, #0]
 7173 2bc6 1921     		movs	r1, #25
 7174 2bc8 4248     		ldr	r0, .L273+12
 7175 2bca FFF7FEFF 		bl	uart_transmit
 7176              	.LBB520:
 7177 2bce 3178     		ldrb	r1, [r6, #0]	@ zero_extendqisi2
 7178              	.LVL1126:
 7179 2bd0 2B78     		ldrb	r3, [r5, #0]	@ zero_extendqisi2
 7180 2bd2 2278     		ldrb	r2, [r4, #0]	@ zero_extendqisi2
 7181 2bd4 CB18     		adds	r3, r1, r3
 7182 2bd6 DBB2     		uxtb	r3, r3
 7183              	.LVL1127:
 7184 2bd8 2B70     		strb	r3, [r5, #0]
 7185 2bda 9B18     		adds	r3, r3, r2
 7186              	.LVL1128:
 7187 2bdc 2370     		strb	r3, [r4, #0]
 7188 2bde 3D48     		ldr	r0, .L273+12
 7189 2be0 FFF7FEFF 		bl	uart_transmit
 7190              	.LVL1129:
 7191              	.LBE520:
 7192              	.LBB521:
 7193 2be4 3378     		ldrb	r3, [r6, #0]	@ zero_extendqisi2
 7194 2be6 2278     		ldrb	r2, [r4, #0]	@ zero_extendqisi2
 7195 2be8 07EBC303 		add	r3, r7, r3, lsl #3
 7196 2bec 93F86610 		ldrb	r1, [r3, #102]	@ zero_extendqisi2
 7197              	.LVL1130:
 7198 2bf0 2B78     		ldrb	r3, [r5, #0]	@ zero_extendqisi2
 7199 2bf2 3848     		ldr	r0, .L273+12
 7200 2bf4 CB18     		adds	r3, r1, r3
 7201 2bf6 DBB2     		uxtb	r3, r3
 7202              	.LVL1131:
 7203 2bf8 2B70     		strb	r3, [r5, #0]
 7204 2bfa 9B18     		adds	r3, r3, r2
 7205              	.LVL1132:
 7206 2bfc 2370     		strb	r3, [r4, #0]
 7207 2bfe FFF7FEFF 		bl	uart_transmit
 7208              	.LVL1133:
 7209              	.LBE521:
 7210              	.LBB522:
 7211 2c02 3378     		ldrb	r3, [r6, #0]	@ zero_extendqisi2
 7212 2c04 2278     		ldrb	r2, [r4, #0]	@ zero_extendqisi2
 7213 2c06 07EBC303 		add	r3, r7, r3, lsl #3
 7214 2c0a 93F86710 		ldrb	r1, [r3, #103]	@ zero_extendqisi2
 7215              	.LVL1134:
 7216 2c0e 2B78     		ldrb	r3, [r5, #0]	@ zero_extendqisi2
 7217 2c10 3048     		ldr	r0, .L273+12
 7218 2c12 CB18     		adds	r3, r1, r3
 7219 2c14 DBB2     		uxtb	r3, r3
 7220              	.LVL1135:
 7221 2c16 2B70     		strb	r3, [r5, #0]
 7222 2c18 9B18     		adds	r3, r3, r2
 7223              	.LVL1136:
 7224 2c1a 2370     		strb	r3, [r4, #0]
 7225 2c1c FFF7FEFF 		bl	uart_transmit
 7226              	.LVL1137:
 7227              	.LBE522:
 7228              	.LBB523:
 7229 2c20 3378     		ldrb	r3, [r6, #0]	@ zero_extendqisi2
 7230 2c22 2278     		ldrb	r2, [r4, #0]	@ zero_extendqisi2
 7231 2c24 07EBC303 		add	r3, r7, r3, lsl #3
 7232 2c28 93F86810 		ldrb	r1, [r3, #104]	@ zero_extendqisi2
 7233              	.LVL1138:
 7234 2c2c 2B78     		ldrb	r3, [r5, #0]	@ zero_extendqisi2
 7235 2c2e 2948     		ldr	r0, .L273+12
 7236 2c30 CB18     		adds	r3, r1, r3
 7237 2c32 DBB2     		uxtb	r3, r3
 7238              	.LVL1139:
 7239 2c34 2B70     		strb	r3, [r5, #0]
 7240 2c36 9B18     		adds	r3, r3, r2
 7241              	.LVL1140:
 7242 2c38 2370     		strb	r3, [r4, #0]
 7243 2c3a FFF7FEFF 		bl	uart_transmit
 7244              	.LVL1141:
 7245              	.LBE523:
 7246              	.LBB524:
 7247 2c3e 3378     		ldrb	r3, [r6, #0]	@ zero_extendqisi2
 7248 2c40 2278     		ldrb	r2, [r4, #0]	@ zero_extendqisi2
 7249 2c42 07EBC303 		add	r3, r7, r3, lsl #3
 7250 2c46 93F86910 		ldrb	r1, [r3, #105]	@ zero_extendqisi2
 7251              	.LVL1142:
 7252 2c4a 2B78     		ldrb	r3, [r5, #0]	@ zero_extendqisi2
 7253 2c4c 2148     		ldr	r0, .L273+12
 7254 2c4e CB18     		adds	r3, r1, r3
 7255 2c50 DBB2     		uxtb	r3, r3
 7256              	.LVL1143:
 7257 2c52 2B70     		strb	r3, [r5, #0]
 7258 2c54 9B18     		adds	r3, r3, r2
 7259              	.LVL1144:
 7260 2c56 2370     		strb	r3, [r4, #0]
 7261 2c58 FFF7FEFF 		bl	uart_transmit
 7262              	.LVL1145:
 7263              	.LBE524:
 7264              	.LBB525:
 7265 2c5c 3378     		ldrb	r3, [r6, #0]	@ zero_extendqisi2
 7266 2c5e 2278     		ldrb	r2, [r4, #0]	@ zero_extendqisi2
 7267 2c60 07EBC303 		add	r3, r7, r3, lsl #3
 7268 2c64 93F86A10 		ldrb	r1, [r3, #106]	@ zero_extendqisi2
 7269              	.LVL1146:
 7270 2c68 2B78     		ldrb	r3, [r5, #0]	@ zero_extendqisi2
 7271 2c6a 1A48     		ldr	r0, .L273+12
 7272 2c6c CB18     		adds	r3, r1, r3
 7273 2c6e DBB2     		uxtb	r3, r3
 7274              	.LVL1147:
 7275 2c70 2B70     		strb	r3, [r5, #0]
 7276 2c72 9B18     		adds	r3, r3, r2
 7277              	.LVL1148:
 7278 2c74 2370     		strb	r3, [r4, #0]
 7279 2c76 FFF7FEFF 		bl	uart_transmit
 7280              	.LVL1149:
 7281              	.LBE525:
 7282              	.LBB526:
 7283 2c7a 3378     		ldrb	r3, [r6, #0]	@ zero_extendqisi2
 7284 2c7c 0C37     		adds	r7, r7, #12
 7285 2c7e 0C33     		adds	r3, r3, #12
 7286 2c80 17F83310 		ldrb	r1, [r7, r3, lsl #3]	@ zero_extendqisi2
 7287              	.LVL1150:
 7288 2c84 2B78     		ldrb	r3, [r5, #0]	@ zero_extendqisi2
 7289 2c86 2278     		ldrb	r2, [r4, #0]	@ zero_extendqisi2
 7290 2c88 CB18     		adds	r3, r1, r3
 7291 2c8a DBB2     		uxtb	r3, r3
 7292              	.LVL1151:
 7293 2c8c 2B70     		strb	r3, [r5, #0]
 7294 2c8e 9B18     		adds	r3, r3, r2
 7295              	.LVL1152:
 7296 2c90 2370     		strb	r3, [r4, #0]
 7297 2c92 1048     		ldr	r0, .L273+12
 7298 2c94 FFF7FEFF 		bl	uart_transmit
 7299              	.LVL1153:
 7300              	.LBE526:
 7301              	.LBB527:
 7302 2c98 3378     		ldrb	r3, [r6, #0]	@ zero_extendqisi2
 7303 2c9a 2278     		ldrb	r2, [r4, #0]	@ zero_extendqisi2
 7304 2c9c 07EBC307 		add	r7, r7, r3, lsl #3
 7305 2ca0 97F86110 		ldrb	r1, [r7, #97]	@ zero_extendqisi2
 7306              	.LVL1154:
 7307 2ca4 2B78     		ldrb	r3, [r5, #0]	@ zero_extendqisi2
 7308 2ca6 0B48     		ldr	r0, .L273+12
 7309 2ca8 CB18     		adds	r3, r1, r3
 7310 2caa DBB2     		uxtb	r3, r3
 7311              	.LVL1155:
 7312 2cac 2B70     		strb	r3, [r5, #0]
 7313 2cae 9B18     		adds	r3, r3, r2
 7314              	.LVL1156:
 7315 2cb0 2370     		strb	r3, [r4, #0]
 7316 2cb2 FFF7FEFF 		bl	uart_transmit
 7317              	.LVL1157:
 7318              	.LBE527:
 7319 2cb6 2978     		ldrb	r1, [r5, #0]	@ zero_extendqisi2
 7320 2cb8 0648     		ldr	r0, .L273+12
 7321 2cba FFF7FEFF 		bl	uart_transmit
 7322 2cbe 0548     		ldr	r0, .L273+12
 7323 2cc0 2178     		ldrb	r1, [r4, #0]	@ zero_extendqisi2
 7324 2cc2 FFF7FEFF 		bl	uart_transmit
 7325 2cc6 13E0     		b	.L110
 7326              	.L274:
 7327              		.align	2
 7328              	.L273:
 7329 2cc8 00000000 		.word	downlink_nb_ovrn
 7330 2ccc 00000000 		.word	gps
 7331 2cd0 00000000 		.word	.LANCHOR52
 7332 2cd4 00000000 		.word	uart2
 7333 2cd8 00000000 		.word	downlink_nb_bytes
 7334 2cdc 00000000 		.word	downlink_nb_msgs
 7335 2ce0 00000000 		.word	ck_a
 7336 2ce4 00000000 		.word	ck_b
 7337              	.LVL1158:
 7338              	.L111:
 7339              		.loc 1 422 0 discriminator 169
 7340 2ce8 794B     		ldr	r3, .L275
 7341 2cea 1A78     		ldrb	r2, [r3, #0]	@ zero_extendqisi2
 7342 2cec 0132     		adds	r2, r2, #1
 7343 2cee 1A70     		strb	r2, [r3, #0]
 7344              	.L110:
 7345              		.loc 1 422 0 discriminator 166
 7346 2cf0 784B     		ldr	r3, .L275+4
 7347 2cf2 1A78     		ldrb	r2, [r3, #0]	@ zero_extendqisi2
 7348 2cf4 0132     		adds	r2, r2, #1
 7349 2cf6 1A70     		strb	r2, [r3, #0]
 7350              	.L105:
 7351              	.LBE486:
 7352              		.loc 1 422 0 discriminator 156
 7353 2cf8 774B     		ldr	r3, .L275+8
 7354 2cfa 1B78     		ldrb	r3, [r3, #0]	@ zero_extendqisi2
 7355 2cfc 062B     		cmp	r3, #6
 7356 2cfe 40F00B81 		bne	.L112
 7357              	.LBB528:
 7358              		.loc 1 422 0 discriminator 170
 7359 2d02 764B     		ldr	r3, .L275+12
 7360 2d04 1A68     		ldr	r2, [r3, #0]
 7361 2d06 0A23     		movs	r3, #10
 7362 2d08 92FBF3F3 		sdiv	r3, r2, r3
 7363 2d0c ADF81E30 		strh	r3, [sp, #30]	@ movhi
 7364              	.LVL1159:
 7365              	.LBB529:
 7366 2d10 734B     		ldr	r3, .L275+16
 7367 2d12 1868     		ldr	r0, [r3, #0]	@ float
 7368 2d14 FFF7FEFF 		bl	__aeabi_f2iz
 7369 2d18 1421     		movs	r1, #20
 7370 2d1a ADF81C00 		strh	r0, [sp, #28]	@ movhi
 7371              	.LVL1160:
 7372 2d1e 7148     		ldr	r0, .L275+20
 7373 2d20 FFF7FEFF 		bl	uart_check_free_space
 7374 2d24 0028     		cmp	r0, #0
 7375 2d26 00F0F380 		beq	.L113
 7376              		.loc 1 422 0 discriminator 172
 7377 2d2a 6F4B     		ldr	r3, .L275+24
 7378              	.LBB530:
 7379 2d2c 9921     		movs	r1, #153
 7380              	.LBE530:
 7381 2d2e 1A88     		ldrh	r2, [r3, #0]
 7382              	.LBB531:
 7383 2d30 6C48     		ldr	r0, .L275+20
 7384              	.LBE531:
 7385 2d32 1432     		adds	r2, r2, #20
 7386 2d34 1A80     		strh	r2, [r3, #0]	@ movhi
 7387 2d36 6D4B     		ldr	r3, .L275+28
 7388 2d38 6D4D     		ldr	r5, .L275+32
 7389 2d3a 1A88     		ldrh	r2, [r3, #0]
 7390 2d3c 6D4C     		ldr	r4, .L275+36
 7391 2d3e 0132     		adds	r2, r2, #1
 7392 2d40 1A80     		strh	r2, [r3, #0]	@ movhi
 7393              	.LBB532:
 7394 2d42 FFF7FEFF 		bl	uart_transmit
 7395              	.LVL1161:
 7396 2d46 1421     		movs	r1, #20
 7397 2d48 6648     		ldr	r0, .L275+20
 7398 2d4a FFF7FEFF 		bl	uart_transmit
 7399              	.LBE532:
 7400 2d4e 1523     		movs	r3, #21
 7401 2d50 2B70     		strb	r3, [r5, #0]
 7402 2d52 2923     		movs	r3, #41
 7403 2d54 2370     		strb	r3, [r4, #0]
 7404 2d56 0121     		movs	r1, #1
 7405 2d58 6248     		ldr	r0, .L275+20
 7406 2d5a FFF7FEFF 		bl	uart_transmit
 7407 2d5e 2B78     		ldrb	r3, [r5, #0]	@ zero_extendqisi2
 7408 2d60 2278     		ldrb	r2, [r4, #0]	@ zero_extendqisi2
 7409 2d62 0C33     		adds	r3, r3, #12
 7410 2d64 DBB2     		uxtb	r3, r3
 7411 2d66 2B70     		strb	r3, [r5, #0]
 7412              	.LBB533:
 7413 2d68 634E     		ldr	r6, .L275+40
 7414              	.LBE533:
 7415 2d6a 9B18     		adds	r3, r3, r2
 7416 2d6c 2370     		strb	r3, [r4, #0]
 7417 2d6e 0C21     		movs	r1, #12
 7418 2d70 5C48     		ldr	r0, .L275+20
 7419 2d72 FFF7FEFF 		bl	uart_transmit
 7420              	.LBB534:
 7421 2d76 3178     		ldrb	r1, [r6, #0]	@ zero_extendqisi2
 7422              	.LVL1162:
 7423 2d78 2B78     		ldrb	r3, [r5, #0]	@ zero_extendqisi2
 7424 2d7a 2278     		ldrb	r2, [r4, #0]	@ zero_extendqisi2
 7425 2d7c CB18     		adds	r3, r1, r3
 7426 2d7e DBB2     		uxtb	r3, r3
 7427              	.LVL1163:
 7428 2d80 2B70     		strb	r3, [r5, #0]
 7429 2d82 9B18     		adds	r3, r3, r2
 7430              	.LVL1164:
 7431 2d84 2370     		strb	r3, [r4, #0]
 7432 2d86 5748     		ldr	r0, .L275+20
 7433 2d88 FFF7FEFF 		bl	uart_transmit
 7434              	.LVL1165:
 7435              	.LBE534:
 7436              	.LBB535:
 7437 2d8c 7178     		ldrb	r1, [r6, #1]	@ zero_extendqisi2
 7438              	.LVL1166:
 7439 2d8e 2B78     		ldrb	r3, [r5, #0]	@ zero_extendqisi2
 7440 2d90 2278     		ldrb	r2, [r4, #0]	@ zero_extendqisi2
 7441 2d92 CB18     		adds	r3, r1, r3
 7442 2d94 DBB2     		uxtb	r3, r3
 7443              	.LVL1167:
 7444 2d96 2B70     		strb	r3, [r5, #0]
 7445 2d98 9B18     		adds	r3, r3, r2
 7446              	.LVL1168:
 7447 2d9a 2370     		strb	r3, [r4, #0]
 7448 2d9c 5148     		ldr	r0, .L275+20
 7449 2d9e FFF7FEFF 		bl	uart_transmit
 7450              	.LVL1169:
 7451              	.LBE535:
 7452              	.LBB536:
 7453 2da2 564B     		ldr	r3, .L275+44
 7454 2da4 2278     		ldrb	r2, [r4, #0]	@ zero_extendqisi2
 7455 2da6 1978     		ldrb	r1, [r3, #0]	@ zero_extendqisi2
 7456              	.LVL1170:
 7457 2da8 2B78     		ldrb	r3, [r5, #0]	@ zero_extendqisi2
 7458 2daa 4E48     		ldr	r0, .L275+20
 7459 2dac CB18     		adds	r3, r1, r3
 7460 2dae DBB2     		uxtb	r3, r3
 7461              	.LVL1171:
 7462 2db0 2B70     		strb	r3, [r5, #0]
 7463 2db2 9B18     		adds	r3, r3, r2
 7464              	.LVL1172:
 7465 2db4 2370     		strb	r3, [r4, #0]
 7466 2db6 FFF7FEFF 		bl	uart_transmit
 7467              	.LVL1173:
 7468              	.LBE536:
 7469              	.LBB537:
 7470 2dba 9DF81E10 		ldrb	r1, [sp, #30]	@ zero_extendqisi2
 7471              	.LVL1174:
 7472 2dbe 2B78     		ldrb	r3, [r5, #0]	@ zero_extendqisi2
 7473 2dc0 2278     		ldrb	r2, [r4, #0]	@ zero_extendqisi2
 7474 2dc2 CB18     		adds	r3, r1, r3
 7475 2dc4 DBB2     		uxtb	r3, r3
 7476              	.LVL1175:
 7477 2dc6 2B70     		strb	r3, [r5, #0]
 7478 2dc8 9B18     		adds	r3, r3, r2
 7479              	.LVL1176:
 7480 2dca 2370     		strb	r3, [r4, #0]
 7481 2dcc 4548     		ldr	r0, .L275+20
 7482 2dce FFF7FEFF 		bl	uart_transmit
 7483              	.LVL1177:
 7484              	.LBE537:
 7485              	.LBB538:
 7486 2dd2 9DF81F10 		ldrb	r1, [sp, #31]	@ zero_extendqisi2
 7487              	.LVL1178:
 7488 2dd6 2B78     		ldrb	r3, [r5, #0]	@ zero_extendqisi2
 7489 2dd8 2278     		ldrb	r2, [r4, #0]	@ zero_extendqisi2
 7490 2dda CB18     		adds	r3, r1, r3
 7491 2ddc DBB2     		uxtb	r3, r3
 7492              	.LVL1179:
 7493 2dde 2B70     		strb	r3, [r5, #0]
 7494              	.LBE538:
 7495              	.LBB539:
 7496 2de0 474E     		ldr	r6, .L275+48
 7497              	.LBE539:
 7498              	.LBB540:
 7499 2de2 9B18     		adds	r3, r3, r2
 7500              	.LVL1180:
 7501 2de4 2370     		strb	r3, [r4, #0]
 7502 2de6 3F48     		ldr	r0, .L275+20
 7503 2de8 FFF7FEFF 		bl	uart_transmit
 7504              	.LVL1181:
 7505              	.LBE540:
 7506              	.LBB541:
 7507 2dec 3178     		ldrb	r1, [r6, #0]	@ zero_extendqisi2
 7508              	.LVL1182:
 7509 2dee 2B78     		ldrb	r3, [r5, #0]	@ zero_extendqisi2
 7510 2df0 2278     		ldrb	r2, [r4, #0]	@ zero_extendqisi2
 7511 2df2 CB18     		adds	r3, r1, r3
 7512 2df4 DBB2     		uxtb	r3, r3
 7513              	.LVL1183:
 7514 2df6 2B70     		strb	r3, [r5, #0]
 7515 2df8 9B18     		adds	r3, r3, r2
 7516              	.LVL1184:
 7517 2dfa 2370     		strb	r3, [r4, #0]
 7518 2dfc 3948     		ldr	r0, .L275+20
 7519 2dfe FFF7FEFF 		bl	uart_transmit
 7520              	.LVL1185:
 7521              	.LBE541:
 7522              	.LBB542:
 7523 2e02 7178     		ldrb	r1, [r6, #1]	@ zero_extendqisi2
 7524              	.LVL1186:
 7525 2e04 2B78     		ldrb	r3, [r5, #0]	@ zero_extendqisi2
 7526 2e06 2278     		ldrb	r2, [r4, #0]	@ zero_extendqisi2
 7527 2e08 CB18     		adds	r3, r1, r3
 7528 2e0a DBB2     		uxtb	r3, r3
 7529              	.LVL1187:
 7530 2e0c 2B70     		strb	r3, [r5, #0]
 7531 2e0e 9B18     		adds	r3, r3, r2
 7532              	.LVL1188:
 7533 2e10 2370     		strb	r3, [r4, #0]
 7534 2e12 3448     		ldr	r0, .L275+20
 7535 2e14 FFF7FEFF 		bl	uart_transmit
 7536              	.LVL1189:
 7537              	.LBE542:
 7538              	.LBB543:
 7539 2e18 3A4B     		ldr	r3, .L275+52
 7540 2e1a 2278     		ldrb	r2, [r4, #0]	@ zero_extendqisi2
 7541 2e1c 1978     		ldrb	r1, [r3, #0]	@ zero_extendqisi2
 7542              	.LVL1190:
 7543 2e1e 2B78     		ldrb	r3, [r5, #0]	@ zero_extendqisi2
 7544              	.LBE543:
 7545              	.LBB544:
 7546 2e20 394E     		ldr	r6, .L275+56
 7547              	.LBE544:
 7548              	.LBB545:
 7549 2e22 CB18     		adds	r3, r1, r3
 7550 2e24 DBB2     		uxtb	r3, r3
 7551              	.LVL1191:
 7552 2e26 2B70     		strb	r3, [r5, #0]
 7553 2e28 9B18     		adds	r3, r3, r2
 7554              	.LVL1192:
 7555 2e2a 2370     		strb	r3, [r4, #0]
 7556 2e2c 2D48     		ldr	r0, .L275+20
 7557 2e2e FFF7FEFF 		bl	uart_transmit
 7558              	.LVL1193:
 7559              	.LBE545:
 7560              	.LBB546:
 7561 2e32 3178     		ldrb	r1, [r6, #0]	@ zero_extendqisi2
 7562              	.LVL1194:
 7563 2e34 2B78     		ldrb	r3, [r5, #0]	@ zero_extendqisi2
 7564 2e36 2278     		ldrb	r2, [r4, #0]	@ zero_extendqisi2
 7565 2e38 CB18     		adds	r3, r1, r3
 7566 2e3a DBB2     		uxtb	r3, r3
 7567              	.LVL1195:
 7568 2e3c 2B70     		strb	r3, [r5, #0]
 7569 2e3e 9B18     		adds	r3, r3, r2
 7570              	.LVL1196:
 7571 2e40 2370     		strb	r3, [r4, #0]
 7572 2e42 2848     		ldr	r0, .L275+20
 7573 2e44 FFF7FEFF 		bl	uart_transmit
 7574              	.LVL1197:
 7575              	.LBE546:
 7576              	.LBB547:
 7577 2e48 7178     		ldrb	r1, [r6, #1]	@ zero_extendqisi2
 7578              	.LVL1198:
 7579 2e4a 2B78     		ldrb	r3, [r5, #0]	@ zero_extendqisi2
 7580 2e4c 2278     		ldrb	r2, [r4, #0]	@ zero_extendqisi2
 7581 2e4e CB18     		adds	r3, r1, r3
 7582 2e50 DBB2     		uxtb	r3, r3
 7583              	.LVL1199:
 7584 2e52 2B70     		strb	r3, [r5, #0]
 7585              	.LBE547:
 7586              	.LBB548:
 7587 2e54 2D4E     		ldr	r6, .L275+60
 7588              	.LBE548:
 7589              	.LBB549:
 7590 2e56 9B18     		adds	r3, r3, r2
 7591              	.LVL1200:
 7592 2e58 2370     		strb	r3, [r4, #0]
 7593 2e5a 2248     		ldr	r0, .L275+20
 7594 2e5c FFF7FEFF 		bl	uart_transmit
 7595              	.LVL1201:
 7596              	.LBE549:
 7597              	.LBB550:
 7598 2e60 3178     		ldrb	r1, [r6, #0]	@ zero_extendqisi2
 7599              	.LVL1202:
 7600 2e62 2B78     		ldrb	r3, [r5, #0]	@ zero_extendqisi2
 7601 2e64 2278     		ldrb	r2, [r4, #0]	@ zero_extendqisi2
 7602 2e66 CB18     		adds	r3, r1, r3
 7603 2e68 DBB2     		uxtb	r3, r3
 7604              	.LVL1203:
 7605 2e6a 2B70     		strb	r3, [r5, #0]
 7606 2e6c 9B18     		adds	r3, r3, r2
 7607              	.LVL1204:
 7608 2e6e 2370     		strb	r3, [r4, #0]
 7609 2e70 1C48     		ldr	r0, .L275+20
 7610 2e72 FFF7FEFF 		bl	uart_transmit
 7611              	.LVL1205:
 7612              	.LBE550:
 7613              	.LBB551:
 7614 2e76 7178     		ldrb	r1, [r6, #1]	@ zero_extendqisi2
 7615              	.LVL1206:
 7616 2e78 2B78     		ldrb	r3, [r5, #0]	@ zero_extendqisi2
 7617 2e7a 2278     		ldrb	r2, [r4, #0]	@ zero_extendqisi2
 7618 2e7c CB18     		adds	r3, r1, r3
 7619 2e7e DBB2     		uxtb	r3, r3
 7620              	.LVL1207:
 7621 2e80 2B70     		strb	r3, [r5, #0]
 7622 2e82 9B18     		adds	r3, r3, r2
 7623              	.LVL1208:
 7624 2e84 2370     		strb	r3, [r4, #0]
 7625 2e86 1748     		ldr	r0, .L275+20
 7626 2e88 FFF7FEFF 		bl	uart_transmit
 7627              	.LVL1209:
 7628              	.LBE551:
 7629              	.LBB552:
 7630 2e8c 9DF81C10 		ldrb	r1, [sp, #28]	@ zero_extendqisi2
 7631              	.LVL1210:
 7632 2e90 2B78     		ldrb	r3, [r5, #0]	@ zero_extendqisi2
 7633 2e92 2278     		ldrb	r2, [r4, #0]	@ zero_extendqisi2
 7634 2e94 CB18     		adds	r3, r1, r3
 7635 2e96 DBB2     		uxtb	r3, r3
 7636              	.LVL1211:
 7637 2e98 2B70     		strb	r3, [r5, #0]
 7638 2e9a 9B18     		adds	r3, r3, r2
 7639              	.LVL1212:
 7640 2e9c 2370     		strb	r3, [r4, #0]
 7641 2e9e 1148     		ldr	r0, .L275+20
 7642 2ea0 FFF7FEFF 		bl	uart_transmit
 7643              	.LVL1213:
 7644              	.LBE552:
 7645              	.LBB553:
 7646 2ea4 9DF81D10 		ldrb	r1, [sp, #29]	@ zero_extendqisi2
 7647              	.LVL1214:
 7648 2ea8 2B78     		ldrb	r3, [r5, #0]	@ zero_extendqisi2
 7649 2eaa 2278     		ldrb	r2, [r4, #0]	@ zero_extendqisi2
 7650 2eac CB18     		adds	r3, r1, r3
 7651 2eae DBB2     		uxtb	r3, r3
 7652              	.LVL1215:
 7653 2eb0 2B70     		strb	r3, [r5, #0]
 7654 2eb2 9B18     		adds	r3, r3, r2
 7655              	.LVL1216:
 7656 2eb4 2370     		strb	r3, [r4, #0]
 7657 2eb6 0B48     		ldr	r0, .L275+20
 7658 2eb8 FFF7FEFF 		bl	uart_transmit
 7659              	.LVL1217:
 7660              	.LBE553:
 7661 2ebc 2978     		ldrb	r1, [r5, #0]	@ zero_extendqisi2
 7662 2ebe 0948     		ldr	r0, .L275+20
 7663 2ec0 FFF7FEFF 		bl	uart_transmit
 7664 2ec4 0748     		ldr	r0, .L275+20
 7665 2ec6 2178     		ldrb	r1, [r4, #0]	@ zero_extendqisi2
 7666 2ec8 FFF7FEFF 		bl	uart_transmit
 7667 2ecc 24E0     		b	.L112
 7668              	.L276:
 7669 2ece 00BF     		.align	2
 7670              	.L275:
 7671 2ed0 00000000 		.word	downlink_nb_ovrn
 7672 2ed4 00000000 		.word	.LANCHOR52
 7673 2ed8 00000000 		.word	.LANCHOR37
 7674 2edc 00000000 		.word	.LANCHOR25
 7675 2ee0 00000000 		.word	.LANCHOR26
 7676 2ee4 00000000 		.word	uart2
 7677 2ee8 00000000 		.word	downlink_nb_bytes
 7678 2eec 00000000 		.word	downlink_nb_msgs
 7679 2ef0 00000000 		.word	ck_a
 7680 2ef4 00000000 		.word	ck_b
 7681 2ef8 00000000 		.word	v_ctl_throttle_slewed
 7682 2efc 00000000 		.word	.LANCHOR27
 7683 2f00 00000000 		.word	estimator_flight_time
 7684 2f04 00000000 		.word	.LANCHOR28
 7685 2f08 00000000 		.word	block_time
 7686 2f0c 00000000 		.word	stage_time
 7687              	.LVL1218:
 7688              	.L113:
 7689              		.loc 1 422 0 discriminator 173
 7690 2f10 4B4B     		ldr	r3, .L277
 7691 2f12 1A78     		ldrb	r2, [r3, #0]	@ zero_extendqisi2
 7692 2f14 0132     		adds	r2, r2, #1
 7693 2f16 1A70     		strb	r2, [r3, #0]
 7694              	.L112:
 7695              	.LBE529:
 7696              	.LBE528:
 7697              		.loc 1 422 0 discriminator 171
 7698 2f18 4A4B     		ldr	r3, .L277+4
 7699 2f1a 1B78     		ldrb	r3, [r3, #0]	@ zero_extendqisi2
 7700 2f1c 0C2B     		cmp	r3, #12
 7701 2f1e 40F0A580 		bne	.L114
 7702              		.loc 1 422 0 discriminator 174
 7703 2f22 4948     		ldr	r0, .L277+8
 7704 2f24 0E21     		movs	r1, #14
 7705 2f26 FFF7FEFF 		bl	uart_check_free_space
 7706 2f2a 0028     		cmp	r0, #0
 7707 2f2c 00F09A80 		beq	.L115
 7708              		.loc 1 422 0 discriminator 176
 7709 2f30 464B     		ldr	r3, .L277+12
 7710              	.LBB554:
 7711 2f32 9921     		movs	r1, #153
 7712              	.LBE554:
 7713 2f34 1A88     		ldrh	r2, [r3, #0]
 7714              	.LBB555:
 7715 2f36 4448     		ldr	r0, .L277+8
 7716              	.LBE555:
 7717 2f38 0E32     		adds	r2, r2, #14
 7718 2f3a 1A80     		strh	r2, [r3, #0]	@ movhi
 7719 2f3c 444B     		ldr	r3, .L277+16
 7720 2f3e 454D     		ldr	r5, .L277+20
 7721 2f40 1A88     		ldrh	r2, [r3, #0]
 7722 2f42 454C     		ldr	r4, .L277+24
 7723 2f44 0132     		adds	r2, r2, #1
 7724 2f46 1A80     		strh	r2, [r3, #0]	@ movhi
 7725              	.LBB556:
 7726 2f48 FFF7FEFF 		bl	uart_transmit
 7727              	.LVL1219:
 7728 2f4c 0E21     		movs	r1, #14
 7729 2f4e 3E48     		ldr	r0, .L277+8
 7730 2f50 FFF7FEFF 		bl	uart_transmit
 7731              	.LBE556:
 7732 2f54 0F23     		movs	r3, #15
 7733 2f56 2B70     		strb	r3, [r5, #0]
 7734 2f58 1D23     		movs	r3, #29
 7735 2f5a 2370     		strb	r3, [r4, #0]
 7736 2f5c 0121     		movs	r1, #1
 7737 2f5e 3A48     		ldr	r0, .L277+8
 7738 2f60 FFF7FEFF 		bl	uart_transmit
 7739 2f64 2B78     		ldrb	r3, [r5, #0]	@ zero_extendqisi2
 7740 2f66 2278     		ldrb	r2, [r4, #0]	@ zero_extendqisi2
 7741 2f68 2A33     		adds	r3, r3, #42
 7742 2f6a DBB2     		uxtb	r3, r3
 7743              	.LBB557:
 7744 2f6c 3B4E     		ldr	r6, .L277+28
 7745              	.LBE557:
 7746 2f6e 2B70     		strb	r3, [r5, #0]
 7747 2f70 9B18     		adds	r3, r3, r2
 7748 2f72 2370     		strb	r3, [r4, #0]
 7749 2f74 2A21     		movs	r1, #42
 7750 2f76 3448     		ldr	r0, .L277+8
 7751 2f78 FFF7FEFF 		bl	uart_transmit
 7752              	.LBB558:
 7753 2f7c 3178     		ldrb	r1, [r6, #0]	@ zero_extendqisi2
 7754              	.LVL1220:
 7755 2f7e 2B78     		ldrb	r3, [r5, #0]	@ zero_extendqisi2
 7756 2f80 2278     		ldrb	r2, [r4, #0]	@ zero_extendqisi2
 7757 2f82 CB18     		adds	r3, r1, r3
 7758 2f84 DBB2     		uxtb	r3, r3
 7759              	.LVL1221:
 7760 2f86 2B70     		strb	r3, [r5, #0]
 7761 2f88 9B18     		adds	r3, r3, r2
 7762              	.LVL1222:
 7763 2f8a 2370     		strb	r3, [r4, #0]
 7764 2f8c 2E48     		ldr	r0, .L277+8
 7765 2f8e FFF7FEFF 		bl	uart_transmit
 7766              	.LVL1223:
 7767              	.LBE558:
 7768              	.LBB559:
 7769 2f92 7178     		ldrb	r1, [r6, #1]	@ zero_extendqisi2
 7770              	.LVL1224:
 7771 2f94 2B78     		ldrb	r3, [r5, #0]	@ zero_extendqisi2
 7772 2f96 2278     		ldrb	r2, [r4, #0]	@ zero_extendqisi2
 7773 2f98 CB18     		adds	r3, r1, r3
 7774 2f9a DBB2     		uxtb	r3, r3
 7775              	.LVL1225:
 7776 2f9c 2B70     		strb	r3, [r5, #0]
 7777 2f9e 9B18     		adds	r3, r3, r2
 7778              	.LVL1226:
 7779 2fa0 2370     		strb	r3, [r4, #0]
 7780 2fa2 2948     		ldr	r0, .L277+8
 7781 2fa4 FFF7FEFF 		bl	uart_transmit
 7782              	.LVL1227:
 7783              	.LBE559:
 7784              	.LBB560:
 7785 2fa8 B178     		ldrb	r1, [r6, #2]	@ zero_extendqisi2
 7786              	.LVL1228:
 7787 2faa 2B78     		ldrb	r3, [r5, #0]	@ zero_extendqisi2
 7788 2fac 2278     		ldrb	r2, [r4, #0]	@ zero_extendqisi2
 7789 2fae CB18     		adds	r3, r1, r3
 7790 2fb0 DBB2     		uxtb	r3, r3
 7791              	.LVL1229:
 7792 2fb2 2B70     		strb	r3, [r5, #0]
 7793 2fb4 9B18     		adds	r3, r3, r2
 7794              	.LVL1230:
 7795 2fb6 2370     		strb	r3, [r4, #0]
 7796 2fb8 2348     		ldr	r0, .L277+8
 7797 2fba FFF7FEFF 		bl	uart_transmit
 7798              	.LVL1231:
 7799              	.LBE560:
 7800              	.LBB561:
 7801 2fbe F178     		ldrb	r1, [r6, #3]	@ zero_extendqisi2
 7802              	.LVL1232:
 7803 2fc0 2B78     		ldrb	r3, [r5, #0]	@ zero_extendqisi2
 7804 2fc2 2278     		ldrb	r2, [r4, #0]	@ zero_extendqisi2
 7805 2fc4 CB18     		adds	r3, r1, r3
 7806 2fc6 DBB2     		uxtb	r3, r3
 7807              	.LBE561:
 7808              	.LBB562:
 7809 2fc8 254E     		ldr	r6, .L277+32
 7810              	.LVL1233:
 7811              	.LBE562:
 7812              	.LBB563:
 7813 2fca 2B70     		strb	r3, [r5, #0]
 7814 2fcc 9B18     		adds	r3, r3, r2
 7815              	.LVL1234:
 7816 2fce 2370     		strb	r3, [r4, #0]
 7817 2fd0 1D48     		ldr	r0, .L277+8
 7818 2fd2 FFF7FEFF 		bl	uart_transmit
 7819              	.LVL1235:
 7820              	.LBE563:
 7821              	.LBB564:
 7822 2fd6 3178     		ldrb	r1, [r6, #0]	@ zero_extendqisi2
 7823              	.LVL1236:
 7824 2fd8 2B78     		ldrb	r3, [r5, #0]	@ zero_extendqisi2
 7825 2fda 2278     		ldrb	r2, [r4, #0]	@ zero_extendqisi2
 7826 2fdc CB18     		adds	r3, r1, r3
 7827 2fde DBB2     		uxtb	r3, r3
 7828              	.LVL1237:
 7829 2fe0 2B70     		strb	r3, [r5, #0]
 7830 2fe2 9B18     		adds	r3, r3, r2
 7831              	.LVL1238:
 7832 2fe4 2370     		strb	r3, [r4, #0]
 7833 2fe6 1848     		ldr	r0, .L277+8
 7834 2fe8 FFF7FEFF 		bl	uart_transmit
 7835              	.LVL1239:
 7836              	.LBE564:
 7837              	.LBB565:
 7838 2fec 7178     		ldrb	r1, [r6, #1]	@ zero_extendqisi2
 7839              	.LVL1240:
 7840 2fee 2B78     		ldrb	r3, [r5, #0]	@ zero_extendqisi2
 7841 2ff0 2278     		ldrb	r2, [r4, #0]	@ zero_extendqisi2
 7842 2ff2 CB18     		adds	r3, r1, r3
 7843 2ff4 DBB2     		uxtb	r3, r3
 7844              	.LVL1241:
 7845 2ff6 2B70     		strb	r3, [r5, #0]
 7846 2ff8 9B18     		adds	r3, r3, r2
 7847              	.LVL1242:
 7848 2ffa 2370     		strb	r3, [r4, #0]
 7849 2ffc 1248     		ldr	r0, .L277+8
 7850 2ffe FFF7FEFF 		bl	uart_transmit
 7851              	.LVL1243:
 7852              	.LBE565:
 7853              	.LBB566:
 7854 3002 B178     		ldrb	r1, [r6, #2]	@ zero_extendqisi2
 7855              	.LVL1244:
 7856 3004 2B78     		ldrb	r3, [r5, #0]	@ zero_extendqisi2
 7857 3006 2278     		ldrb	r2, [r4, #0]	@ zero_extendqisi2
 7858 3008 CB18     		adds	r3, r1, r3
 7859 300a DBB2     		uxtb	r3, r3
 7860              	.LVL1245:
 7861 300c 2B70     		strb	r3, [r5, #0]
 7862 300e 9B18     		adds	r3, r3, r2
 7863              	.LVL1246:
 7864 3010 2370     		strb	r3, [r4, #0]
 7865 3012 0D48     		ldr	r0, .L277+8
 7866 3014 FFF7FEFF 		bl	uart_transmit
 7867              	.LVL1247:
 7868              	.LBE566:
 7869              	.LBB567:
 7870 3018 F178     		ldrb	r1, [r6, #3]	@ zero_extendqisi2
 7871              	.LVL1248:
 7872 301a 2B78     		ldrb	r3, [r5, #0]	@ zero_extendqisi2
 7873 301c 2278     		ldrb	r2, [r4, #0]	@ zero_extendqisi2
 7874 301e CB18     		adds	r3, r1, r3
 7875 3020 DBB2     		uxtb	r3, r3
 7876              	.LVL1249:
 7877 3022 2B70     		strb	r3, [r5, #0]
 7878 3024 9B18     		adds	r3, r3, r2
 7879              	.LVL1250:
 7880 3026 2370     		strb	r3, [r4, #0]
 7881 3028 0748     		ldr	r0, .L277+8
 7882 302a FFF7FEFF 		bl	uart_transmit
 7883              	.LVL1251:
 7884              	.LBE567:
 7885 302e 2978     		ldrb	r1, [r5, #0]	@ zero_extendqisi2
 7886 3030 0548     		ldr	r0, .L277+8
 7887 3032 FFF7FEFF 		bl	uart_transmit
 7888 3036 0448     		ldr	r0, .L277+8
 7889 3038 2178     		ldrb	r1, [r4, #0]	@ zero_extendqisi2
 7890 303a FFF7FEFF 		bl	uart_transmit
 7891 303e 15E0     		b	.L114
 7892              	.L278:
 7893              		.align	2
 7894              	.L277:
 7895 3040 00000000 		.word	downlink_nb_ovrn
 7896 3044 00000000 		.word	.LANCHOR38
 7897 3048 00000000 		.word	uart2
 7898 304c 00000000 		.word	downlink_nb_bytes
 7899 3050 00000000 		.word	downlink_nb_msgs
 7900 3054 00000000 		.word	ck_a
 7901 3058 00000000 		.word	ck_b
 7902 305c 00000000 		.word	estimator_z
 7903 3060 00000000 		.word	estimator_z_dot
 7904              	.LVL1252:
 7905              	.L115:
 7906              		.loc 1 422 0 discriminator 177
 7907 3064 9F4B     		ldr	r3, .L279
 7908 3066 1A78     		ldrb	r2, [r3, #0]	@ zero_extendqisi2
 7909 3068 0132     		adds	r2, r2, #1
 7910 306a 1A70     		strb	r2, [r3, #0]
 7911              	.L114:
 7912              		.loc 1 422 0 discriminator 175
 7913 306c 9E4B     		ldr	r3, .L279+4
 7914 306e 1B78     		ldrb	r3, [r3, #0]	@ zero_extendqisi2
 7915 3070 122B     		cmp	r3, #18
 7916 3072 40F01081 		bne	.L116
 7917              	.LBB568:
 7918              		.loc 1 422 0 discriminator 178
 7919 3076 9D4B     		ldr	r3, .L279+8
 7920 3078 9D49     		ldr	r1, .L279+12
 7921 307a 1A78     		ldrb	r2, [r3, #0]	@ zero_extendqisi2
 7922 307c 0978     		ldrb	r1, [r1, #0]	@ zero_extendqisi2
 7923 307e 0132     		adds	r2, r2, #1
 7924 3080 D2B2     		uxtb	r2, r2
 7925 3082 9142     		cmp	r1, r2
 7926 3084 1A70     		strb	r2, [r3, #0]
 7927 3086 01D8     		bhi	.L117
 7928              		.loc 1 422 0 discriminator 180
 7929 3088 0022     		movs	r2, #0
 7930 308a 1A70     		strb	r2, [r3, #0]
 7931              	.L117:
 7932              	.LBB569:
 7933              		.loc 1 422 0 discriminator 181
 7934 308c 1C78     		ldrb	r4, [r3, #0]	@ zero_extendqisi2
 7935 308e 994B     		ldr	r3, .L279+16
 7936 3090 0C27     		movs	r7, #12
 7937 3092 1868     		ldr	r0, [r3, #0]
 7938 3094 FFF7FEFF 		bl	__aeabi_i2f
 7939 3098 07FB04F3 		mul	r3, r7, r4
 7940 309c 964E     		ldr	r6, .L279+20
 7941 309e DFF84C82 		ldr	r8, .L279+8
 7942 30a2 F158     		ldr	r1, [r6, r3]	@ float
 7943 30a4 F418     		adds	r4, r6, r3
 7944 30a6 FFF7FEFF 		bl	__aeabi_fadd
 7945 30aa 944B     		ldr	r3, .L279+24
 7946 30ac 0690     		str	r0, [sp, #24]	@ float
 7947              	.LVL1253:
 7948 30ae 1868     		ldr	r0, [r3, #0]
 7949 30b0 FFF7FEFF 		bl	__aeabi_i2f
 7950 30b4 6168     		ldr	r1, [r4, #4]	@ float
 7951 30b6 FFF7FEFF 		bl	__aeabi_fadd
 7952 30ba 1421     		movs	r1, #20
 7953 30bc 0490     		str	r0, [sp, #16]	@ float
 7954              	.LVL1254:
 7955 30be 9048     		ldr	r0, .L279+28
 7956 30c0 FFF7FEFF 		bl	uart_check_free_space
 7957 30c4 0028     		cmp	r0, #0
 7958 30c6 00F0E280 		beq	.L118
 7959              		.loc 1 422 0 discriminator 182
 7960 30ca 8E4B     		ldr	r3, .L279+32
 7961              	.LBB570:
 7962 30cc 9921     		movs	r1, #153
 7963              	.LBE570:
 7964 30ce 1A88     		ldrh	r2, [r3, #0]
 7965              	.LBB571:
 7966 30d0 8B48     		ldr	r0, .L279+28
 7967              	.LBE571:
 7968 30d2 1432     		adds	r2, r2, #20
 7969 30d4 1A80     		strh	r2, [r3, #0]	@ movhi
 7970 30d6 8C4B     		ldr	r3, .L279+36
 7971 30d8 8C4D     		ldr	r5, .L279+40
 7972 30da 1A88     		ldrh	r2, [r3, #0]
 7973 30dc 8C4C     		ldr	r4, .L279+44
 7974 30de 0132     		adds	r2, r2, #1
 7975 30e0 1A80     		strh	r2, [r3, #0]	@ movhi
 7976              	.LBB572:
 7977 30e2 FFF7FEFF 		bl	uart_transmit
 7978              	.LVL1255:
 7979 30e6 1421     		movs	r1, #20
 7980 30e8 8548     		ldr	r0, .L279+28
 7981 30ea FFF7FEFF 		bl	uart_transmit
 7982              	.LBE572:
 7983 30ee 1523     		movs	r3, #21
 7984 30f0 2B70     		strb	r3, [r5, #0]
 7985 30f2 2923     		movs	r3, #41
 7986 30f4 2370     		strb	r3, [r4, #0]
 7987 30f6 0121     		movs	r1, #1
 7988 30f8 8148     		ldr	r0, .L279+28
 7989 30fa FFF7FEFF 		bl	uart_transmit
 7990 30fe 2B78     		ldrb	r3, [r5, #0]	@ zero_extendqisi2
 7991 3100 2278     		ldrb	r2, [r4, #0]	@ zero_extendqisi2
 7992 3102 2333     		adds	r3, r3, #35
 7993 3104 DBB2     		uxtb	r3, r3
 7994 3106 2B70     		strb	r3, [r5, #0]
 7995 3108 9B18     		adds	r3, r3, r2
 7996 310a 2370     		strb	r3, [r4, #0]
 7997 310c 2321     		movs	r1, #35
 7998 310e 7C48     		ldr	r0, .L279+28
 7999 3110 FFF7FEFF 		bl	uart_transmit
 8000              	.LBB573:
 8001 3114 98F80010 		ldrb	r1, [r8, #0]	@ zero_extendqisi2
 8002              	.LVL1256:
 8003 3118 2B78     		ldrb	r3, [r5, #0]	@ zero_extendqisi2
 8004 311a 2278     		ldrb	r2, [r4, #0]	@ zero_extendqisi2
 8005 311c CB18     		adds	r3, r1, r3
 8006 311e DBB2     		uxtb	r3, r3
 8007              	.LVL1257:
 8008 3120 2B70     		strb	r3, [r5, #0]
 8009 3122 9B18     		adds	r3, r3, r2
 8010              	.LVL1258:
 8011 3124 2370     		strb	r3, [r4, #0]
 8012 3126 7648     		ldr	r0, .L279+28
 8013 3128 FFF7FEFF 		bl	uart_transmit
 8014              	.LVL1259:
 8015              	.LBE573:
 8016              	.LBB574:
 8017 312c 9DF81810 		ldrb	r1, [sp, #24]	@ zero_extendqisi2
 8018              	.LVL1260:
 8019 3130 2B78     		ldrb	r3, [r5, #0]	@ zero_extendqisi2
 8020 3132 2278     		ldrb	r2, [r4, #0]	@ zero_extendqisi2
 8021 3134 CB18     		adds	r3, r1, r3
 8022 3136 DBB2     		uxtb	r3, r3
 8023              	.LVL1261:
 8024 3138 2B70     		strb	r3, [r5, #0]
 8025 313a 9B18     		adds	r3, r3, r2
 8026              	.LVL1262:
 8027 313c 2370     		strb	r3, [r4, #0]
 8028 313e 7048     		ldr	r0, .L279+28
 8029 3140 FFF7FEFF 		bl	uart_transmit
 8030              	.LVL1263:
 8031              	.LBE574:
 8032              	.LBB575:
 8033 3144 9DF81910 		ldrb	r1, [sp, #25]	@ zero_extendqisi2
 8034              	.LVL1264:
 8035 3148 2B78     		ldrb	r3, [r5, #0]	@ zero_extendqisi2
 8036 314a 2278     		ldrb	r2, [r4, #0]	@ zero_extendqisi2
 8037 314c CB18     		adds	r3, r1, r3
 8038 314e DBB2     		uxtb	r3, r3
 8039              	.LVL1265:
 8040 3150 2B70     		strb	r3, [r5, #0]
 8041 3152 9B18     		adds	r3, r3, r2
 8042              	.LVL1266:
 8043 3154 2370     		strb	r3, [r4, #0]
 8044 3156 6A48     		ldr	r0, .L279+28
 8045 3158 FFF7FEFF 		bl	uart_transmit
 8046              	.LVL1267:
 8047              	.LBE575:
 8048              	.LBB576:
 8049 315c 9DF81A10 		ldrb	r1, [sp, #26]	@ zero_extendqisi2
 8050              	.LVL1268:
 8051 3160 2B78     		ldrb	r3, [r5, #0]	@ zero_extendqisi2
 8052 3162 2278     		ldrb	r2, [r4, #0]	@ zero_extendqisi2
 8053 3164 CB18     		adds	r3, r1, r3
 8054 3166 DBB2     		uxtb	r3, r3
 8055              	.LVL1269:
 8056 3168 2B70     		strb	r3, [r5, #0]
 8057 316a 9B18     		adds	r3, r3, r2
 8058              	.LVL1270:
 8059 316c 2370     		strb	r3, [r4, #0]
 8060 316e 6448     		ldr	r0, .L279+28
 8061 3170 FFF7FEFF 		bl	uart_transmit
 8062              	.LVL1271:
 8063              	.LBE576:
 8064              	.LBB577:
 8065 3174 9DF81B10 		ldrb	r1, [sp, #27]	@ zero_extendqisi2
 8066              	.LVL1272:
 8067 3178 2B78     		ldrb	r3, [r5, #0]	@ zero_extendqisi2
 8068 317a 2278     		ldrb	r2, [r4, #0]	@ zero_extendqisi2
 8069 317c CB18     		adds	r3, r1, r3
 8070 317e DBB2     		uxtb	r3, r3
 8071              	.LVL1273:
 8072 3180 2B70     		strb	r3, [r5, #0]
 8073 3182 9B18     		adds	r3, r3, r2
 8074              	.LVL1274:
 8075 3184 2370     		strb	r3, [r4, #0]
 8076 3186 5E48     		ldr	r0, .L279+28
 8077 3188 FFF7FEFF 		bl	uart_transmit
 8078              	.LVL1275:
 8079              	.LBE577:
 8080              	.LBB578:
 8081 318c 9DF81010 		ldrb	r1, [sp, #16]	@ zero_extendqisi2
 8082              	.LVL1276:
 8083 3190 2B78     		ldrb	r3, [r5, #0]	@ zero_extendqisi2
 8084 3192 2278     		ldrb	r2, [r4, #0]	@ zero_extendqisi2
 8085 3194 CB18     		adds	r3, r1, r3
 8086 3196 DBB2     		uxtb	r3, r3
 8087              	.LVL1277:
 8088 3198 2B70     		strb	r3, [r5, #0]
 8089 319a 9B18     		adds	r3, r3, r2
 8090              	.LVL1278:
 8091 319c 2370     		strb	r3, [r4, #0]
 8092 319e 5848     		ldr	r0, .L279+28
 8093 31a0 FFF7FEFF 		bl	uart_transmit
 8094              	.LVL1279:
 8095              	.LBE578:
 8096              	.LBB579:
 8097 31a4 9DF81110 		ldrb	r1, [sp, #17]	@ zero_extendqisi2
 8098              	.LVL1280:
 8099 31a8 2B78     		ldrb	r3, [r5, #0]	@ zero_extendqisi2
 8100 31aa 2278     		ldrb	r2, [r4, #0]	@ zero_extendqisi2
 8101 31ac CB18     		adds	r3, r1, r3
 8102 31ae DBB2     		uxtb	r3, r3
 8103              	.LVL1281:
 8104 31b0 2B70     		strb	r3, [r5, #0]
 8105 31b2 9B18     		adds	r3, r3, r2
 8106              	.LVL1282:
 8107 31b4 2370     		strb	r3, [r4, #0]
 8108 31b6 5248     		ldr	r0, .L279+28
 8109 31b8 FFF7FEFF 		bl	uart_transmit
 8110              	.LVL1283:
 8111              	.LBE579:
 8112              	.LBB580:
 8113 31bc 9DF81210 		ldrb	r1, [sp, #18]	@ zero_extendqisi2
 8114              	.LVL1284:
 8115 31c0 2B78     		ldrb	r3, [r5, #0]	@ zero_extendqisi2
 8116 31c2 2278     		ldrb	r2, [r4, #0]	@ zero_extendqisi2
 8117 31c4 CB18     		adds	r3, r1, r3
 8118 31c6 DBB2     		uxtb	r3, r3
 8119              	.LVL1285:
 8120 31c8 2B70     		strb	r3, [r5, #0]
 8121 31ca 9B18     		adds	r3, r3, r2
 8122              	.LVL1286:
 8123 31cc 2370     		strb	r3, [r4, #0]
 8124 31ce 4C48     		ldr	r0, .L279+28
 8125 31d0 FFF7FEFF 		bl	uart_transmit
 8126              	.LVL1287:
 8127              	.LBE580:
 8128              	.LBB581:
 8129 31d4 9DF81310 		ldrb	r1, [sp, #19]	@ zero_extendqisi2
 8130              	.LVL1288:
 8131 31d8 2B78     		ldrb	r3, [r5, #0]	@ zero_extendqisi2
 8132 31da 2278     		ldrb	r2, [r4, #0]	@ zero_extendqisi2
 8133 31dc CB18     		adds	r3, r1, r3
 8134 31de DBB2     		uxtb	r3, r3
 8135              	.LVL1289:
 8136 31e0 2B70     		strb	r3, [r5, #0]
 8137 31e2 9B18     		adds	r3, r3, r2
 8138              	.LVL1290:
 8139 31e4 2370     		strb	r3, [r4, #0]
 8140 31e6 4648     		ldr	r0, .L279+28
 8141 31e8 FFF7FEFF 		bl	uart_transmit
 8142              	.LVL1291:
 8143              	.LBE581:
 8144              	.LBB582:
 8145 31ec 98F80030 		ldrb	r3, [r8, #0]	@ zero_extendqisi2
 8146 31f0 2278     		ldrb	r2, [r4, #0]	@ zero_extendqisi2
 8147 31f2 07FB0363 		mla	r3, r7, r3, r6
 8148 31f6 197A     		ldrb	r1, [r3, #8]	@ zero_extendqisi2
 8149              	.LVL1292:
 8150 31f8 2B78     		ldrb	r3, [r5, #0]	@ zero_extendqisi2
 8151 31fa 4148     		ldr	r0, .L279+28
 8152 31fc CB18     		adds	r3, r1, r3
 8153 31fe DBB2     		uxtb	r3, r3
 8154              	.LVL1293:
 8155 3200 2B70     		strb	r3, [r5, #0]
 8156 3202 9B18     		adds	r3, r3, r2
 8157              	.LVL1294:
 8158 3204 2370     		strb	r3, [r4, #0]
 8159 3206 FFF7FEFF 		bl	uart_transmit
 8160              	.LVL1295:
 8161              	.LBE582:
 8162              	.LBB583:
 8163 320a 98F80030 		ldrb	r3, [r8, #0]	@ zero_extendqisi2
 8164 320e 2278     		ldrb	r2, [r4, #0]	@ zero_extendqisi2
 8165 3210 07FB0363 		mla	r3, r7, r3, r6
 8166 3214 597A     		ldrb	r1, [r3, #9]	@ zero_extendqisi2
 8167              	.LVL1296:
 8168 3216 2B78     		ldrb	r3, [r5, #0]	@ zero_extendqisi2
 8169 3218 3948     		ldr	r0, .L279+28
 8170 321a CB18     		adds	r3, r1, r3
 8171 321c DBB2     		uxtb	r3, r3
 8172              	.LVL1297:
 8173 321e 2B70     		strb	r3, [r5, #0]
 8174 3220 9B18     		adds	r3, r3, r2
 8175              	.LVL1298:
 8176 3222 2370     		strb	r3, [r4, #0]
 8177 3224 FFF7FEFF 		bl	uart_transmit
 8178              	.LVL1299:
 8179              	.LBE583:
 8180              	.LBB584:
 8181 3228 98F80030 		ldrb	r3, [r8, #0]	@ zero_extendqisi2
 8182 322c 2278     		ldrb	r2, [r4, #0]	@ zero_extendqisi2
 8183 322e 07FB0363 		mla	r3, r7, r3, r6
 8184 3232 997A     		ldrb	r1, [r3, #10]	@ zero_extendqisi2
 8185              	.LVL1300:
 8186 3234 2B78     		ldrb	r3, [r5, #0]	@ zero_extendqisi2
 8187 3236 3248     		ldr	r0, .L279+28
 8188 3238 CB18     		adds	r3, r1, r3
 8189 323a DBB2     		uxtb	r3, r3
 8190              	.LVL1301:
 8191 323c 2B70     		strb	r3, [r5, #0]
 8192 323e 9B18     		adds	r3, r3, r2
 8193              	.LVL1302:
 8194 3240 2370     		strb	r3, [r4, #0]
 8195 3242 FFF7FEFF 		bl	uart_transmit
 8196              	.LVL1303:
 8197              	.LBE584:
 8198              	.LBB585:
 8199 3246 98F80030 		ldrb	r3, [r8, #0]	@ zero_extendqisi2
 8200 324a 2278     		ldrb	r2, [r4, #0]	@ zero_extendqisi2
 8201 324c 07FB0366 		mla	r6, r7, r3, r6
 8202 3250 2B78     		ldrb	r3, [r5, #0]	@ zero_extendqisi2
 8203 3252 F17A     		ldrb	r1, [r6, #11]	@ zero_extendqisi2
 8204              	.LVL1304:
 8205 3254 2A48     		ldr	r0, .L279+28
 8206 3256 CB18     		adds	r3, r1, r3
 8207 3258 DBB2     		uxtb	r3, r3
 8208              	.LVL1305:
 8209 325a 2B70     		strb	r3, [r5, #0]
 8210 325c 9B18     		adds	r3, r3, r2
 8211              	.LVL1306:
 8212 325e 2370     		strb	r3, [r4, #0]
 8213 3260 FFF7FEFF 		bl	uart_transmit
 8214              	.LVL1307:
 8215              	.LBE585:
 8216              	.LBB586:
 8217 3264 2B4B     		ldr	r3, .L279+48
 8218 3266 2278     		ldrb	r2, [r4, #0]	@ zero_extendqisi2
 8219 3268 1978     		ldrb	r1, [r3, #0]	@ zero_extendqisi2
 8220              	.LVL1308:
 8221 326a 2B78     		ldrb	r3, [r5, #0]	@ zero_extendqisi2
 8222 326c 2448     		ldr	r0, .L279+28
 8223 326e CB18     		adds	r3, r1, r3
 8224 3270 DBB2     		uxtb	r3, r3
 8225              	.LVL1309:
 8226 3272 2B70     		strb	r3, [r5, #0]
 8227 3274 9B18     		adds	r3, r3, r2
 8228              	.LVL1310:
 8229 3276 2370     		strb	r3, [r4, #0]
 8230 3278 FFF7FEFF 		bl	uart_transmit
 8231              	.LVL1311:
 8232              	.LBE586:
 8233 327c 2978     		ldrb	r1, [r5, #0]	@ zero_extendqisi2
 8234 327e 2048     		ldr	r0, .L279+28
 8235 3280 FFF7FEFF 		bl	uart_transmit
 8236 3284 1E48     		ldr	r0, .L279+28
 8237 3286 2178     		ldrb	r1, [r4, #0]	@ zero_extendqisi2
 8238 3288 FFF7FEFF 		bl	uart_transmit
 8239 328c 03E0     		b	.L116
 8240              	.LVL1312:
 8241              	.L118:
 8242              		.loc 1 422 0 discriminator 183
 8243 328e 154B     		ldr	r3, .L279
 8244 3290 1A78     		ldrb	r2, [r3, #0]	@ zero_extendqisi2
 8245 3292 0132     		adds	r2, r2, #1
 8246 3294 1A70     		strb	r2, [r3, #0]
 8247              	.L116:
 8248              	.LBE569:
 8249              	.LBE568:
 8250              		.loc 1 422 0 discriminator 179
 8251 3296 204B     		ldr	r3, .L279+52
 8252 3298 1B78     		ldrb	r3, [r3, #0]	@ zero_extendqisi2
 8253 329a 182B     		cmp	r3, #24
 8254 329c 40F0EE80 		bne	.L119
 8255              	.LBB587:
 8256              		.loc 1 422 0 discriminator 184
 8257 32a0 1E4B     		ldr	r3, .L279+56
 8258 32a2 1A78     		ldrb	r2, [r3, #0]	@ zero_extendqisi2
 8259 32a4 0B2A     		cmp	r2, #11
 8260 32a6 01D9     		bls	.L120
 8261              		.loc 1 422 0 discriminator 186
 8262 32a8 0022     		movs	r2, #0
 8263 32aa 1A70     		strb	r2, [r3, #0]
 8264              	.L120:
 8265              		.loc 1 422 0 discriminator 187
 8266 32ac 1B78     		ldrb	r3, [r3, #0]	@ zero_extendqisi2
 8267 32ae 0B2B     		cmp	r3, #11
 8268 32b0 51D8     		bhi	.L121
 8269 32b2 DFE803F0 		tbb	[pc, r3]
 8270              	.L134:
 8271 32b6 06       		.byte	(.L122-.L134)/2
 8272 32b7 08       		.byte	(.L123-.L134)/2
 8273 32b8 0E       		.byte	(.L124-.L134)/2
 8274 32b9 10       		.byte	(.L125-.L134)/2
 8275 32ba 12       		.byte	(.L126-.L134)/2
 8276 32bb 14       		.byte	(.L127-.L134)/2
 8277 32bc 41       		.byte	(.L128-.L134)/2
 8278 32bd 44       		.byte	(.L129-.L134)/2
 8279 32be 46       		.byte	(.L130-.L134)/2
 8280 32bf 48       		.byte	(.L131-.L134)/2
 8281 32c0 4A       		.byte	(.L132-.L134)/2
 8282 32c1 4E       		.byte	(.L133-.L134)/2
 8283              		.align	1
 8284              	.L122:
 8285              		.loc 1 422 0 discriminator 189
 8286 32c2 174B     		ldr	r3, .L279+60
 8287 32c4 00E0     		b	.L220
 8288              	.L123:
 8289              		.loc 1 422 0 discriminator 190
 8290 32c6 174B     		ldr	r3, .L279+64
 8291              	.L220:
 8292 32c8 1878     		ldrb	r0, [r3, #0]	@ zero_extendqisi2
 8293              	.L221:
 8294 32ca FFF7FEFF 		bl	__aeabi_ui2f
 8295 32ce 0490     		str	r0, [sp, #16]	@ float
 8296              	.LVL1313:
 8297 32d0 43E0     		b	.L135
 8298              	.LVL1314:
 8299              	.L124:
 8300              		.loc 1 422 0 discriminator 191
 8301 32d2 154B     		ldr	r3, .L279+68
 8302 32d4 31E0     		b	.L228
 8303              	.L125:
 8304              		.loc 1 422 0 discriminator 192
 8305 32d6 154B     		ldr	r3, .L279+72
 8306 32d8 2FE0     		b	.L228
 8307              	.L126:
 8308              		.loc 1 422 0 discriminator 193
 8309 32da 154B     		ldr	r3, .L279+76
 8310 32dc 2DE0     		b	.L228
 8311              	.L127:
 8312              		.loc 1 422 0 discriminator 194
 8313 32de 154B     		ldr	r3, .L279+80
 8314 32e0 1888     		ldrh	r0, [r3, #0]
 8315 32e2 F2E7     		b	.L221
 8316              	.L280:
 8317              		.align	2
 8318              	.L279:
 8319 32e4 00000000 		.word	downlink_nb_ovrn
 8320 32e8 00000000 		.word	.LANCHOR39
 8321 32ec 00000000 		.word	.LANCHOR53
 8322 32f0 00000000 		.word	nb_waypoint
 8323 32f4 00000000 		.word	nav_utm_east0
 8324 32f8 00000000 		.word	waypoints
 8325 32fc 00000000 		.word	nav_utm_north0
 8326 3300 00000000 		.word	uart2
 8327 3304 00000000 		.word	downlink_nb_bytes
 8328 3308 00000000 		.word	downlink_nb_msgs
 8329 330c 00000000 		.word	ck_a
 8330 3310 00000000 		.word	ck_b
 8331 3314 00000000 		.word	nav_utm_zone0
 8332 3318 00000000 		.word	.LANCHOR40
 8333 331c 00000000 		.word	.LANCHOR54
 8334 3320 00000000 		.word	telemetry_mode_Ap
 8335 3324 00000000 		.word	telemetry_mode_Fbw
 8336 3328 00000000 		.word	flight_altitude
 8337 332c 00000000 		.word	nav_course
 8338 3330 00000000 		.word	nav_shift
 8339 3334 00000000 		.word	estimator_flight_time
 8340              	.L128:
 8341              		.loc 1 422 0 discriminator 195
 8342 3338 404B     		ldr	r3, .L281
 8343              	.L228:
 8344 333a 1B68     		ldr	r3, [r3, #0]	@ float
 8345 333c 0CE0     		b	.L222
 8346              	.L129:
 8347              		.loc 1 422 0 discriminator 196
 8348 333e 404B     		ldr	r3, .L281+4
 8349 3340 C2E7     		b	.L220
 8350              	.L130:
 8351              		.loc 1 422 0 discriminator 197
 8352 3342 404B     		ldr	r3, .L281+8
 8353 3344 C0E7     		b	.L220
 8354              	.L131:
 8355              		.loc 1 422 0 discriminator 198
 8356 3346 404B     		ldr	r3, .L281+12
 8357 3348 BEE7     		b	.L220
 8358              	.L132:
 8359              		.loc 1 422 0 discriminator 199
 8360 334a 404B     		ldr	r3, .L281+16
 8361 334c B3F8F000 		ldrh	r0, [r3, #240]
 8362 3350 BBE7     		b	.L221
 8363              	.L133:
 8364              		.loc 1 422 0 discriminator 200
 8365 3352 3F4B     		ldr	r3, .L281+20
 8366 3354 B8E7     		b	.L220
 8367              	.L121:
 8368              		.loc 1 422 0 discriminator 188
 8369 3356 0023     		movs	r3, #0
 8370              	.L222:
 8371 3358 0493     		str	r3, [sp, #16]	@ float
 8372              	.LVL1315:
 8373              	.L135:
 8374              		.loc 1 422 0 discriminator 201
 8375 335a 3E48     		ldr	r0, .L281+24
 8376 335c 0B21     		movs	r1, #11
 8377 335e FFF7FEFF 		bl	uart_check_free_space
 8378 3362 0028     		cmp	r0, #0
 8379 3364 00F08280 		beq	.L136
 8380              		.loc 1 422 0 discriminator 202
 8381 3368 3B4B     		ldr	r3, .L281+28
 8382              	.LBB588:
 8383 336a 9921     		movs	r1, #153
 8384              	.LBE588:
 8385 336c 1A88     		ldrh	r2, [r3, #0]
 8386              	.LBB589:
 8387 336e 3948     		ldr	r0, .L281+24
 8388              	.LBE589:
 8389 3370 0B32     		adds	r2, r2, #11
 8390 3372 1A80     		strh	r2, [r3, #0]	@ movhi
 8391 3374 394B     		ldr	r3, .L281+32
 8392 3376 3A4D     		ldr	r5, .L281+36
 8393 3378 1A88     		ldrh	r2, [r3, #0]
 8394 337a 3A4C     		ldr	r4, .L281+40
 8395 337c 0132     		adds	r2, r2, #1
 8396 337e 1A80     		strh	r2, [r3, #0]	@ movhi
 8397              	.LBB590:
 8398 3380 FFF7FEFF 		bl	uart_transmit
 8399              	.LVL1316:
 8400 3384 0B21     		movs	r1, #11
 8401 3386 3348     		ldr	r0, .L281+24
 8402 3388 FFF7FEFF 		bl	uart_transmit
 8403              	.LBE590:
 8404 338c 0C23     		movs	r3, #12
 8405 338e 2B70     		strb	r3, [r5, #0]
 8406 3390 1723     		movs	r3, #23
 8407 3392 2370     		strb	r3, [r4, #0]
 8408 3394 0121     		movs	r1, #1
 8409 3396 2F48     		ldr	r0, .L281+24
 8410 3398 FFF7FEFF 		bl	uart_transmit
 8411 339c 2B78     		ldrb	r3, [r5, #0]	@ zero_extendqisi2
 8412 339e 2278     		ldrb	r2, [r4, #0]	@ zero_extendqisi2
 8413 33a0 1F33     		adds	r3, r3, #31
 8414 33a2 DBB2     		uxtb	r3, r3
 8415 33a4 2B70     		strb	r3, [r5, #0]
 8416 33a6 9B18     		adds	r3, r3, r2
 8417 33a8 2370     		strb	r3, [r4, #0]
 8418 33aa 1F21     		movs	r1, #31
 8419 33ac 2948     		ldr	r0, .L281+24
 8420 33ae FFF7FEFF 		bl	uart_transmit
 8421              	.LBB591:
 8422 33b2 2D4B     		ldr	r3, .L281+44
 8423 33b4 2278     		ldrb	r2, [r4, #0]	@ zero_extendqisi2
 8424 33b6 1978     		ldrb	r1, [r3, #0]	@ zero_extendqisi2
 8425              	.LVL1317:
 8426 33b8 2B78     		ldrb	r3, [r5, #0]	@ zero_extendqisi2
 8427 33ba 2648     		ldr	r0, .L281+24
 8428 33bc CB18     		adds	r3, r1, r3
 8429 33be DBB2     		uxtb	r3, r3
 8430              	.LVL1318:
 8431 33c0 2B70     		strb	r3, [r5, #0]
 8432 33c2 9B18     		adds	r3, r3, r2
 8433              	.LVL1319:
 8434 33c4 2370     		strb	r3, [r4, #0]
 8435 33c6 FFF7FEFF 		bl	uart_transmit
 8436              	.LVL1320:
 8437              	.LBE591:
 8438              	.LBB592:
 8439 33ca 9DF81010 		ldrb	r1, [sp, #16]	@ zero_extendqisi2
 8440              	.LVL1321:
 8441 33ce 2B78     		ldrb	r3, [r5, #0]	@ zero_extendqisi2
 8442 33d0 2278     		ldrb	r2, [r4, #0]	@ zero_extendqisi2
 8443 33d2 CB18     		adds	r3, r1, r3
 8444 33d4 DBB2     		uxtb	r3, r3
 8445              	.LVL1322:
 8446 33d6 2B70     		strb	r3, [r5, #0]
 8447 33d8 9B18     		adds	r3, r3, r2
 8448              	.LVL1323:
 8449 33da 2370     		strb	r3, [r4, #0]
 8450 33dc 1D48     		ldr	r0, .L281+24
 8451 33de FFF7FEFF 		bl	uart_transmit
 8452              	.LVL1324:
 8453              	.LBE592:
 8454              	.LBB593:
 8455 33e2 9DF81110 		ldrb	r1, [sp, #17]	@ zero_extendqisi2
 8456              	.LVL1325:
 8457 33e6 2B78     		ldrb	r3, [r5, #0]	@ zero_extendqisi2
 8458 33e8 2278     		ldrb	r2, [r4, #0]	@ zero_extendqisi2
 8459 33ea CB18     		adds	r3, r1, r3
 8460 33ec DBB2     		uxtb	r3, r3
 8461              	.LVL1326:
 8462 33ee 2B70     		strb	r3, [r5, #0]
 8463 33f0 9B18     		adds	r3, r3, r2
 8464              	.LVL1327:
 8465 33f2 2370     		strb	r3, [r4, #0]
 8466 33f4 1748     		ldr	r0, .L281+24
 8467 33f6 FFF7FEFF 		bl	uart_transmit
 8468              	.LVL1328:
 8469              	.LBE593:
 8470              	.LBB594:
 8471 33fa 9DF81210 		ldrb	r1, [sp, #18]	@ zero_extendqisi2
 8472              	.LVL1329:
 8473 33fe 2B78     		ldrb	r3, [r5, #0]	@ zero_extendqisi2
 8474 3400 2278     		ldrb	r2, [r4, #0]	@ zero_extendqisi2
 8475 3402 CB18     		adds	r3, r1, r3
 8476 3404 DBB2     		uxtb	r3, r3
 8477              	.LVL1330:
 8478 3406 2B70     		strb	r3, [r5, #0]
 8479 3408 9B18     		adds	r3, r3, r2
 8480              	.LVL1331:
 8481 340a 2370     		strb	r3, [r4, #0]
 8482 340c 1148     		ldr	r0, .L281+24
 8483 340e FFF7FEFF 		bl	uart_transmit
 8484              	.LVL1332:
 8485              	.LBE594:
 8486              	.LBB595:
 8487 3412 9DF81310 		ldrb	r1, [sp, #19]	@ zero_extendqisi2
 8488              	.LVL1333:
 8489 3416 2B78     		ldrb	r3, [r5, #0]	@ zero_extendqisi2
 8490 3418 2278     		ldrb	r2, [r4, #0]	@ zero_extendqisi2
 8491 341a CB18     		adds	r3, r1, r3
 8492 341c DBB2     		uxtb	r3, r3
 8493              	.LVL1334:
 8494 341e 2B70     		strb	r3, [r5, #0]
 8495 3420 9B18     		adds	r3, r3, r2
 8496              	.LVL1335:
 8497 3422 2370     		strb	r3, [r4, #0]
 8498 3424 0B48     		ldr	r0, .L281+24
 8499 3426 FFF7FEFF 		bl	uart_transmit
 8500              	.LVL1336:
 8501              	.LBE595:
 8502 342a 2978     		ldrb	r1, [r5, #0]	@ zero_extendqisi2
 8503 342c 0948     		ldr	r0, .L281+24
 8504 342e FFF7FEFF 		bl	uart_transmit
 8505 3432 0848     		ldr	r0, .L281+24
 8506 3434 2178     		ldrb	r1, [r4, #0]	@ zero_extendqisi2
 8507 3436 FFF7FEFF 		bl	uart_transmit
 8508 343a 1BE0     		b	.L137
 8509              	.L282:
 8510              		.align	2
 8511              	.L281:
 8512 343c 00000000 		.word	nav_radius
 8513 3440 00000000 		.word	.LANCHOR30
 8514 3444 00000000 		.word	.LANCHOR31
 8515 3448 00000000 		.word	.LANCHOR28
 8516 344c 00000000 		.word	gps
 8517 3450 00000000 		.word	.LANCHOR0
 8518 3454 00000000 		.word	uart2
 8519 3458 00000000 		.word	downlink_nb_bytes
 8520 345c 00000000 		.word	downlink_nb_msgs
 8521 3460 00000000 		.word	ck_a
 8522 3464 00000000 		.word	ck_b
 8523 3468 00000000 		.word	.LANCHOR54
 8524              	.LVL1337:
 8525              	.L136:
 8526              		.loc 1 422 0 discriminator 203
 8527 346c 7D4B     		ldr	r3, .L283
 8528 346e 1A78     		ldrb	r2, [r3, #0]	@ zero_extendqisi2
 8529 3470 0132     		adds	r2, r2, #1
 8530 3472 1A70     		strb	r2, [r3, #0]
 8531              	.L137:
 8532              		.loc 1 422 0 discriminator 204
 8533 3474 7C4B     		ldr	r3, .L283+4
 8534 3476 1A78     		ldrb	r2, [r3, #0]	@ zero_extendqisi2
 8535 3478 0132     		adds	r2, r2, #1
 8536 347a 1A70     		strb	r2, [r3, #0]
 8537              	.L119:
 8538              	.LBE587:
 8539              		.loc 1 422 0 discriminator 185
 8540 347c 7B4B     		ldr	r3, .L283+8
 8541 347e 1B78     		ldrb	r3, [r3, #0]	@ zero_extendqisi2
 8542 3480 1E2B     		cmp	r3, #30
 8543 3482 40F00D81 		bne	.L138
 8544              		.loc 1 422 0 discriminator 205
 8545 3486 7A4B     		ldr	r3, .L283+12
 8546 3488 1B78     		ldrb	r3, [r3, #0]	@ zero_extendqisi2
 8547 348a 002B     		cmp	r3, #0
 8548 348c 00F00881 		beq	.L138
 8549              		.loc 1 422 0 discriminator 207
 8550 3490 7848     		ldr	r0, .L283+16
 8551 3492 1621     		movs	r1, #22
 8552 3494 FFF7FEFF 		bl	uart_check_free_space
 8553 3498 0028     		cmp	r0, #0
 8554 349a 00F0FD80 		beq	.L139
 8555              		.loc 1 422 0 discriminator 208
 8556 349e 764B     		ldr	r3, .L283+20
 8557              	.LBB596:
 8558 34a0 9921     		movs	r1, #153
 8559              	.LBE596:
 8560 34a2 1A88     		ldrh	r2, [r3, #0]
 8561              	.LBB597:
 8562 34a4 7348     		ldr	r0, .L283+16
 8563              	.LBE597:
 8564 34a6 1632     		adds	r2, r2, #22
 8565 34a8 1A80     		strh	r2, [r3, #0]	@ movhi
 8566 34aa 744B     		ldr	r3, .L283+24
 8567 34ac 744D     		ldr	r5, .L283+28
 8568 34ae 1A88     		ldrh	r2, [r3, #0]
 8569 34b0 744C     		ldr	r4, .L283+32
 8570 34b2 0132     		adds	r2, r2, #1
 8571 34b4 1A80     		strh	r2, [r3, #0]	@ movhi
 8572              	.LBB598:
 8573 34b6 FFF7FEFF 		bl	uart_transmit
 8574              	.LVL1338:
 8575 34ba 1621     		movs	r1, #22
 8576 34bc 6D48     		ldr	r0, .L283+16
 8577 34be FFF7FEFF 		bl	uart_transmit
 8578              	.LBE598:
 8579 34c2 1723     		movs	r3, #23
 8580 34c4 2B70     		strb	r3, [r5, #0]
 8581 34c6 2D23     		movs	r3, #45
 8582 34c8 2370     		strb	r3, [r4, #0]
 8583 34ca 0121     		movs	r1, #1
 8584 34cc 6948     		ldr	r0, .L283+16
 8585 34ce FFF7FEFF 		bl	uart_transmit
 8586 34d2 2B78     		ldrb	r3, [r5, #0]	@ zero_extendqisi2
 8587 34d4 2278     		ldrb	r2, [r4, #0]	@ zero_extendqisi2
 8588 34d6 1B33     		adds	r3, r3, #27
 8589 34d8 DBB2     		uxtb	r3, r3
 8590              	.LBB599:
 8591 34da 6B4E     		ldr	r6, .L283+36
 8592              	.LBE599:
 8593 34dc 2B70     		strb	r3, [r5, #0]
 8594 34de 9B18     		adds	r3, r3, r2
 8595 34e0 2370     		strb	r3, [r4, #0]
 8596 34e2 1B21     		movs	r1, #27
 8597 34e4 6348     		ldr	r0, .L283+16
 8598 34e6 FFF7FEFF 		bl	uart_transmit
 8599              	.LBB600:
 8600 34ea 3178     		ldrb	r1, [r6, #0]	@ zero_extendqisi2
 8601              	.LVL1339:
 8602 34ec 2B78     		ldrb	r3, [r5, #0]	@ zero_extendqisi2
 8603 34ee 2278     		ldrb	r2, [r4, #0]	@ zero_extendqisi2
 8604 34f0 CB18     		adds	r3, r1, r3
 8605 34f2 DBB2     		uxtb	r3, r3
 8606              	.LVL1340:
 8607 34f4 2B70     		strb	r3, [r5, #0]
 8608 34f6 9B18     		adds	r3, r3, r2
 8609              	.LVL1341:
 8610 34f8 2370     		strb	r3, [r4, #0]
 8611 34fa 5E48     		ldr	r0, .L283+16
 8612 34fc FFF7FEFF 		bl	uart_transmit
 8613              	.LVL1342:
 8614              	.LBE600:
 8615              	.LBB601:
 8616 3500 7178     		ldrb	r1, [r6, #1]	@ zero_extendqisi2
 8617              	.LVL1343:
 8618 3502 2B78     		ldrb	r3, [r5, #0]	@ zero_extendqisi2
 8619 3504 2278     		ldrb	r2, [r4, #0]	@ zero_extendqisi2
 8620 3506 CB18     		adds	r3, r1, r3
 8621 3508 DBB2     		uxtb	r3, r3
 8622              	.LVL1344:
 8623 350a 2B70     		strb	r3, [r5, #0]
 8624 350c 9B18     		adds	r3, r3, r2
 8625              	.LVL1345:
 8626 350e 2370     		strb	r3, [r4, #0]
 8627 3510 5848     		ldr	r0, .L283+16
 8628 3512 FFF7FEFF 		bl	uart_transmit
 8629              	.LVL1346:
 8630              	.LBE601:
 8631              	.LBB602:
 8632 3516 B178     		ldrb	r1, [r6, #2]	@ zero_extendqisi2
 8633              	.LVL1347:
 8634 3518 2B78     		ldrb	r3, [r5, #0]	@ zero_extendqisi2
 8635 351a 2278     		ldrb	r2, [r4, #0]	@ zero_extendqisi2
 8636 351c CB18     		adds	r3, r1, r3
 8637 351e DBB2     		uxtb	r3, r3
 8638              	.LVL1348:
 8639 3520 2B70     		strb	r3, [r5, #0]
 8640 3522 9B18     		adds	r3, r3, r2
 8641              	.LVL1349:
 8642 3524 2370     		strb	r3, [r4, #0]
 8643 3526 5348     		ldr	r0, .L283+16
 8644 3528 FFF7FEFF 		bl	uart_transmit
 8645              	.LVL1350:
 8646              	.LBE602:
 8647              	.LBB603:
 8648 352c F178     		ldrb	r1, [r6, #3]	@ zero_extendqisi2
 8649              	.LVL1351:
 8650 352e 2B78     		ldrb	r3, [r5, #0]	@ zero_extendqisi2
 8651 3530 2278     		ldrb	r2, [r4, #0]	@ zero_extendqisi2
 8652 3532 CB18     		adds	r3, r1, r3
 8653 3534 DBB2     		uxtb	r3, r3
 8654              	.LBE603:
 8655              	.LBB604:
 8656 3536 554E     		ldr	r6, .L283+40
 8657              	.LVL1352:
 8658              	.LBE604:
 8659              	.LBB605:
 8660 3538 2B70     		strb	r3, [r5, #0]
 8661 353a 9B18     		adds	r3, r3, r2
 8662              	.LVL1353:
 8663 353c 2370     		strb	r3, [r4, #0]
 8664 353e 4D48     		ldr	r0, .L283+16
 8665 3540 FFF7FEFF 		bl	uart_transmit
 8666              	.LVL1354:
 8667              	.LBE605:
 8668              	.LBB606:
 8669 3544 3178     		ldrb	r1, [r6, #0]	@ zero_extendqisi2
 8670              	.LVL1355:
 8671 3546 2B78     		ldrb	r3, [r5, #0]	@ zero_extendqisi2
 8672 3548 2278     		ldrb	r2, [r4, #0]	@ zero_extendqisi2
 8673 354a CB18     		adds	r3, r1, r3
 8674 354c DBB2     		uxtb	r3, r3
 8675              	.LVL1356:
 8676 354e 2B70     		strb	r3, [r5, #0]
 8677 3550 9B18     		adds	r3, r3, r2
 8678              	.LVL1357:
 8679 3552 2370     		strb	r3, [r4, #0]
 8680 3554 4748     		ldr	r0, .L283+16
 8681 3556 FFF7FEFF 		bl	uart_transmit
 8682              	.LVL1358:
 8683              	.LBE606:
 8684              	.LBB607:
 8685 355a 7178     		ldrb	r1, [r6, #1]	@ zero_extendqisi2
 8686              	.LVL1359:
 8687 355c 2B78     		ldrb	r3, [r5, #0]	@ zero_extendqisi2
 8688 355e 2278     		ldrb	r2, [r4, #0]	@ zero_extendqisi2
 8689 3560 CB18     		adds	r3, r1, r3
 8690 3562 DBB2     		uxtb	r3, r3
 8691              	.LVL1360:
 8692 3564 2B70     		strb	r3, [r5, #0]
 8693 3566 9B18     		adds	r3, r3, r2
 8694              	.LVL1361:
 8695 3568 2370     		strb	r3, [r4, #0]
 8696 356a 4248     		ldr	r0, .L283+16
 8697 356c FFF7FEFF 		bl	uart_transmit
 8698              	.LVL1362:
 8699              	.LBE607:
 8700              	.LBB608:
 8701 3570 B178     		ldrb	r1, [r6, #2]	@ zero_extendqisi2
 8702              	.LVL1363:
 8703 3572 2B78     		ldrb	r3, [r5, #0]	@ zero_extendqisi2
 8704 3574 2278     		ldrb	r2, [r4, #0]	@ zero_extendqisi2
 8705 3576 CB18     		adds	r3, r1, r3
 8706 3578 DBB2     		uxtb	r3, r3
 8707              	.LVL1364:
 8708 357a 2B70     		strb	r3, [r5, #0]
 8709 357c 9B18     		adds	r3, r3, r2
 8710              	.LVL1365:
 8711 357e 2370     		strb	r3, [r4, #0]
 8712 3580 3C48     		ldr	r0, .L283+16
 8713 3582 FFF7FEFF 		bl	uart_transmit
 8714              	.LVL1366:
 8715              	.LBE608:
 8716              	.LBB609:
 8717 3586 F178     		ldrb	r1, [r6, #3]	@ zero_extendqisi2
 8718              	.LVL1367:
 8719 3588 2B78     		ldrb	r3, [r5, #0]	@ zero_extendqisi2
 8720 358a 2278     		ldrb	r2, [r4, #0]	@ zero_extendqisi2
 8721 358c CB18     		adds	r3, r1, r3
 8722 358e DBB2     		uxtb	r3, r3
 8723              	.LBE609:
 8724              	.LBB610:
 8725 3590 3F4E     		ldr	r6, .L283+44
 8726              	.LVL1368:
 8727              	.LBE610:
 8728              	.LBB611:
 8729 3592 2B70     		strb	r3, [r5, #0]
 8730 3594 9B18     		adds	r3, r3, r2
 8731              	.LVL1369:
 8732 3596 2370     		strb	r3, [r4, #0]
 8733 3598 3648     		ldr	r0, .L283+16
 8734 359a FFF7FEFF 		bl	uart_transmit
 8735              	.LVL1370:
 8736              	.LBE611:
 8737              	.LBB612:
 8738 359e 3178     		ldrb	r1, [r6, #0]	@ zero_extendqisi2
 8739              	.LVL1371:
 8740 35a0 2B78     		ldrb	r3, [r5, #0]	@ zero_extendqisi2
 8741 35a2 2278     		ldrb	r2, [r4, #0]	@ zero_extendqisi2
 8742 35a4 CB18     		adds	r3, r1, r3
 8743 35a6 DBB2     		uxtb	r3, r3
 8744              	.LVL1372:
 8745 35a8 2B70     		strb	r3, [r5, #0]
 8746 35aa 9B18     		adds	r3, r3, r2
 8747              	.LVL1373:
 8748 35ac 2370     		strb	r3, [r4, #0]
 8749 35ae 3148     		ldr	r0, .L283+16
 8750 35b0 FFF7FEFF 		bl	uart_transmit
 8751              	.LVL1374:
 8752              	.LBE612:
 8753              	.LBB613:
 8754 35b4 7178     		ldrb	r1, [r6, #1]	@ zero_extendqisi2
 8755              	.LVL1375:
 8756 35b6 2B78     		ldrb	r3, [r5, #0]	@ zero_extendqisi2
 8757 35b8 2278     		ldrb	r2, [r4, #0]	@ zero_extendqisi2
 8758 35ba CB18     		adds	r3, r1, r3
 8759 35bc DBB2     		uxtb	r3, r3
 8760              	.LVL1376:
 8761 35be 2B70     		strb	r3, [r5, #0]
 8762 35c0 9B18     		adds	r3, r3, r2
 8763              	.LVL1377:
 8764 35c2 2370     		strb	r3, [r4, #0]
 8765 35c4 2B48     		ldr	r0, .L283+16
 8766 35c6 FFF7FEFF 		bl	uart_transmit
 8767              	.LVL1378:
 8768              	.LBE613:
 8769              	.LBB614:
 8770 35ca B178     		ldrb	r1, [r6, #2]	@ zero_extendqisi2
 8771              	.LVL1379:
 8772 35cc 2B78     		ldrb	r3, [r5, #0]	@ zero_extendqisi2
 8773 35ce 2278     		ldrb	r2, [r4, #0]	@ zero_extendqisi2
 8774 35d0 CB18     		adds	r3, r1, r3
 8775 35d2 DBB2     		uxtb	r3, r3
 8776              	.LVL1380:
 8777 35d4 2B70     		strb	r3, [r5, #0]
 8778 35d6 9B18     		adds	r3, r3, r2
 8779              	.LVL1381:
 8780 35d8 2370     		strb	r3, [r4, #0]
 8781 35da 2648     		ldr	r0, .L283+16
 8782 35dc FFF7FEFF 		bl	uart_transmit
 8783              	.LVL1382:
 8784              	.LBE614:
 8785              	.LBB615:
 8786 35e0 F178     		ldrb	r1, [r6, #3]	@ zero_extendqisi2
 8787              	.LVL1383:
 8788 35e2 2B78     		ldrb	r3, [r5, #0]	@ zero_extendqisi2
 8789 35e4 2278     		ldrb	r2, [r4, #0]	@ zero_extendqisi2
 8790 35e6 CB18     		adds	r3, r1, r3
 8791 35e8 DBB2     		uxtb	r3, r3
 8792              	.LBE615:
 8793              	.LBB616:
 8794 35ea 2A4E     		ldr	r6, .L283+48
 8795              	.LVL1384:
 8796              	.LBE616:
 8797              	.LBB617:
 8798 35ec 2B70     		strb	r3, [r5, #0]
 8799 35ee 9B18     		adds	r3, r3, r2
 8800              	.LVL1385:
 8801 35f0 2370     		strb	r3, [r4, #0]
 8802 35f2 2048     		ldr	r0, .L283+16
 8803 35f4 FFF7FEFF 		bl	uart_transmit
 8804              	.LVL1386:
 8805              	.LBE617:
 8806              	.LBB618:
 8807 35f8 3178     		ldrb	r1, [r6, #0]	@ zero_extendqisi2
 8808              	.LVL1387:
 8809 35fa 2B78     		ldrb	r3, [r5, #0]	@ zero_extendqisi2
 8810 35fc 2278     		ldrb	r2, [r4, #0]	@ zero_extendqisi2
 8811 35fe CB18     		adds	r3, r1, r3
 8812 3600 DBB2     		uxtb	r3, r3
 8813              	.LVL1388:
 8814 3602 2B70     		strb	r3, [r5, #0]
 8815 3604 9B18     		adds	r3, r3, r2
 8816              	.LVL1389:
 8817 3606 2370     		strb	r3, [r4, #0]
 8818 3608 1A48     		ldr	r0, .L283+16
 8819 360a FFF7FEFF 		bl	uart_transmit
 8820              	.LVL1390:
 8821              	.LBE618:
 8822              	.LBB619:
 8823 360e 7178     		ldrb	r1, [r6, #1]	@ zero_extendqisi2
 8824              	.LVL1391:
 8825 3610 2B78     		ldrb	r3, [r5, #0]	@ zero_extendqisi2
 8826 3612 2278     		ldrb	r2, [r4, #0]	@ zero_extendqisi2
 8827 3614 CB18     		adds	r3, r1, r3
 8828 3616 DBB2     		uxtb	r3, r3
 8829              	.LVL1392:
 8830 3618 2B70     		strb	r3, [r5, #0]
 8831 361a 9B18     		adds	r3, r3, r2
 8832              	.LVL1393:
 8833 361c 2370     		strb	r3, [r4, #0]
 8834 361e 1548     		ldr	r0, .L283+16
 8835 3620 FFF7FEFF 		bl	uart_transmit
 8836              	.LVL1394:
 8837              	.LBE619:
 8838              	.LBB620:
 8839 3624 B178     		ldrb	r1, [r6, #2]	@ zero_extendqisi2
 8840              	.LVL1395:
 8841 3626 2B78     		ldrb	r3, [r5, #0]	@ zero_extendqisi2
 8842 3628 2278     		ldrb	r2, [r4, #0]	@ zero_extendqisi2
 8843 362a CB18     		adds	r3, r1, r3
 8844 362c DBB2     		uxtb	r3, r3
 8845              	.LVL1396:
 8846 362e 2B70     		strb	r3, [r5, #0]
 8847 3630 9B18     		adds	r3, r3, r2
 8848              	.LVL1397:
 8849 3632 2370     		strb	r3, [r4, #0]
 8850 3634 0F48     		ldr	r0, .L283+16
 8851 3636 FFF7FEFF 		bl	uart_transmit
 8852              	.LVL1398:
 8853              	.LBE620:
 8854              	.LBB621:
 8855 363a F178     		ldrb	r1, [r6, #3]	@ zero_extendqisi2
 8856              	.LVL1399:
 8857 363c 2B78     		ldrb	r3, [r5, #0]	@ zero_extendqisi2
 8858 363e 2278     		ldrb	r2, [r4, #0]	@ zero_extendqisi2
 8859 3640 CB18     		adds	r3, r1, r3
 8860 3642 DBB2     		uxtb	r3, r3
 8861              	.LVL1400:
 8862 3644 2B70     		strb	r3, [r5, #0]
 8863 3646 9B18     		adds	r3, r3, r2
 8864              	.LVL1401:
 8865 3648 2370     		strb	r3, [r4, #0]
 8866 364a 0A48     		ldr	r0, .L283+16
 8867 364c FFF7FEFF 		bl	uart_transmit
 8868              	.LVL1402:
 8869              	.LBE621:
 8870 3650 2978     		ldrb	r1, [r5, #0]	@ zero_extendqisi2
 8871 3652 0848     		ldr	r0, .L283+16
 8872 3654 FFF7FEFF 		bl	uart_transmit
 8873 3658 0648     		ldr	r0, .L283+16
 8874 365a 2178     		ldrb	r1, [r4, #0]	@ zero_extendqisi2
 8875 365c FFF7FEFF 		bl	uart_transmit
 8876 3660 1EE0     		b	.L138
 8877              	.L284:
 8878 3662 00BF     		.align	2
 8879              	.L283:
 8880 3664 00000000 		.word	downlink_nb_ovrn
 8881 3668 00000000 		.word	.LANCHOR54
 8882 366c 00000000 		.word	.LANCHOR41
 8883 3670 00000000 		.word	nav_survey_active
 8884 3674 00000000 		.word	uart2
 8885 3678 00000000 		.word	downlink_nb_bytes
 8886 367c 00000000 		.word	downlink_nb_msgs
 8887 3680 00000000 		.word	ck_a
 8888 3684 00000000 		.word	ck_b
 8889 3688 00000000 		.word	nav_survey_east
 8890 368c 00000000 		.word	nav_survey_north
 8891 3690 00000000 		.word	nav_survey_west
 8892 3694 00000000 		.word	nav_survey_south
 8893              	.LVL1403:
 8894              	.L139:
 8895              		.loc 1 422 0 discriminator 209
 8896 3698 994B     		ldr	r3, .L285+8
 8897 369a 1A78     		ldrb	r2, [r3, #0]	@ zero_extendqisi2
 8898 369c 0132     		adds	r2, r2, #1
 8899 369e 1A70     		strb	r2, [r3, #0]
 8900              	.L138:
 8901              		.loc 1 422 0 discriminator 206
 8902 36a0 984B     		ldr	r3, .L285+12
 8903 36a2 1B78     		ldrb	r3, [r3, #0]	@ zero_extendqisi2
 8904 36a4 242B     		cmp	r3, #36
 8905 36a6 40F04D81 		bne	.L140
 8906              	.LBB622:
 8907              		.loc 1 422 0 discriminator 210
 8908 36aa 974B     		ldr	r3, .L285+16
 8909 36ac 9748     		ldr	r0, .L285+20
 8910 36ae 1A21     		movs	r1, #26
 8911 36b0 1C68     		ldr	r4, [r3, #0]	@ float
 8912              	.LVL1404:
 8913 36b2 FFF7FEFF 		bl	uart_check_free_space
 8914              	.LVL1405:
 8915 36b6 0028     		cmp	r0, #0
 8916 36b8 00F04081 		beq	.L141
 8917              		.loc 1 422 0 discriminator 212
 8918 36bc 24F00040 		bic	r0, r4, #-2147483648
 8919 36c0 FFF7FEFF 		bl	__aeabi_f2d
 8920 36c4 8CA3     		adr	r3, .L285
 8921 36c6 D3E90023 		ldrd	r2, [r3]
 8922 36ca FFF7FEFF 		bl	__aeabi_ddiv
 8923 36ce FFF7FEFF 		bl	__aeabi_d2uiz
 8924 36d2 8F4B     		ldr	r3, .L285+24
 8925 36d4 C7B2     		uxtb	r7, r0
 8926 36d6 1A88     		ldrh	r2, [r3, #0]
 8927              	.LBB623:
 8928 36d8 9921     		movs	r1, #153
 8929              	.LBE623:
 8930 36da 1A32     		adds	r2, r2, #26
 8931 36dc 1A80     		strh	r2, [r3, #0]	@ movhi
 8932 36de 8D4B     		ldr	r3, .L285+28
 8933              	.LBB624:
 8934 36e0 8A48     		ldr	r0, .L285+20
 8935              	.LBE624:
 8936 36e2 1A88     		ldrh	r2, [r3, #0]
 8937 36e4 8C4D     		ldr	r5, .L285+32
 8938 36e6 0132     		adds	r2, r2, #1
 8939 36e8 1A80     		strh	r2, [r3, #0]	@ movhi
 8940              	.LBB625:
 8941 36ea FFF7FEFF 		bl	uart_transmit
 8942              	.LVL1406:
 8943 36ee 1A21     		movs	r1, #26
 8944 36f0 8648     		ldr	r0, .L285+20
 8945              	.LBE625:
 8946 36f2 8A4C     		ldr	r4, .L285+36
 8947              	.LVL1407:
 8948              	.LBB626:
 8949 36f4 FFF7FEFF 		bl	uart_transmit
 8950              	.LBE626:
 8951 36f8 1B23     		movs	r3, #27
 8952 36fa 2B70     		strb	r3, [r5, #0]
 8953 36fc 3523     		movs	r3, #53
 8954 36fe 2370     		strb	r3, [r4, #0]
 8955 3700 0121     		movs	r1, #1
 8956 3702 8248     		ldr	r0, .L285+20
 8957 3704 FFF7FEFF 		bl	uart_transmit
 8958 3708 2B78     		ldrb	r3, [r5, #0]	@ zero_extendqisi2
 8959 370a 2278     		ldrb	r2, [r4, #0]	@ zero_extendqisi2
 8960 370c 0A33     		adds	r3, r3, #10
 8961 370e DBB2     		uxtb	r3, r3
 8962 3710 2B70     		strb	r3, [r5, #0]
 8963 3712 9B18     		adds	r3, r3, r2
 8964 3714 2370     		strb	r3, [r4, #0]
 8965 3716 0A21     		movs	r1, #10
 8966 3718 7C48     		ldr	r0, .L285+20
 8967 371a FFF7FEFF 		bl	uart_transmit
 8968              	.LBB627:
 8969 371e 804B     		ldr	r3, .L285+40
 8970 3720 2278     		ldrb	r2, [r4, #0]	@ zero_extendqisi2
 8971 3722 1978     		ldrb	r1, [r3, #0]	@ zero_extendqisi2
 8972              	.LVL1408:
 8973 3724 2B78     		ldrb	r3, [r5, #0]	@ zero_extendqisi2
 8974 3726 7948     		ldr	r0, .L285+20
 8975 3728 CB18     		adds	r3, r1, r3
 8976 372a DBB2     		uxtb	r3, r3
 8977              	.LVL1409:
 8978 372c 2B70     		strb	r3, [r5, #0]
 8979 372e 9B18     		adds	r3, r3, r2
 8980              	.LVL1410:
 8981 3730 2370     		strb	r3, [r4, #0]
 8982 3732 FFF7FEFF 		bl	uart_transmit
 8983              	.LVL1411:
 8984              	.LBE627:
 8985              	.LBB628:
 8986 3736 7B4B     		ldr	r3, .L285+44
 8987 3738 2278     		ldrb	r2, [r4, #0]	@ zero_extendqisi2
 8988 373a 1978     		ldrb	r1, [r3, #0]	@ zero_extendqisi2
 8989              	.LVL1412:
 8990 373c 2B78     		ldrb	r3, [r5, #0]	@ zero_extendqisi2
 8991              	.LBE628:
 8992              	.LBB629:
 8993 373e 7A4E     		ldr	r6, .L285+48
 8994              	.LBE629:
 8995              	.LBB630:
 8996 3740 CB18     		adds	r3, r1, r3
 8997 3742 DBB2     		uxtb	r3, r3
 8998              	.LVL1413:
 8999 3744 2B70     		strb	r3, [r5, #0]
 9000 3746 9B18     		adds	r3, r3, r2
 9001              	.LVL1414:
 9002 3748 2370     		strb	r3, [r4, #0]
 9003 374a 7048     		ldr	r0, .L285+20
 9004 374c FFF7FEFF 		bl	uart_transmit
 9005              	.LVL1415:
 9006              	.LBE630:
 9007              	.LBB631:
 9008 3750 3178     		ldrb	r1, [r6, #0]	@ zero_extendqisi2
 9009              	.LVL1416:
 9010 3752 2B78     		ldrb	r3, [r5, #0]	@ zero_extendqisi2
 9011 3754 2278     		ldrb	r2, [r4, #0]	@ zero_extendqisi2
 9012 3756 CB18     		adds	r3, r1, r3
 9013 3758 DBB2     		uxtb	r3, r3
 9014              	.LVL1417:
 9015 375a 2B70     		strb	r3, [r5, #0]
 9016 375c 9B18     		adds	r3, r3, r2
 9017              	.LVL1418:
 9018 375e 2370     		strb	r3, [r4, #0]
 9019 3760 6A48     		ldr	r0, .L285+20
 9020 3762 FFF7FEFF 		bl	uart_transmit
 9021              	.LVL1419:
 9022              	.LBE631:
 9023              	.LBB632:
 9024 3766 7178     		ldrb	r1, [r6, #1]	@ zero_extendqisi2
 9025              	.LVL1420:
 9026 3768 2B78     		ldrb	r3, [r5, #0]	@ zero_extendqisi2
 9027 376a 2278     		ldrb	r2, [r4, #0]	@ zero_extendqisi2
 9028 376c CB18     		adds	r3, r1, r3
 9029 376e DBB2     		uxtb	r3, r3
 9030              	.LVL1421:
 9031 3770 2B70     		strb	r3, [r5, #0]
 9032 3772 9B18     		adds	r3, r3, r2
 9033              	.LVL1422:
 9034 3774 2370     		strb	r3, [r4, #0]
 9035 3776 6548     		ldr	r0, .L285+20
 9036 3778 FFF7FEFF 		bl	uart_transmit
 9037              	.LVL1423:
 9038              	.LBE632:
 9039              	.LBB633:
 9040 377c B178     		ldrb	r1, [r6, #2]	@ zero_extendqisi2
 9041              	.LVL1424:
 9042 377e 2B78     		ldrb	r3, [r5, #0]	@ zero_extendqisi2
 9043 3780 2278     		ldrb	r2, [r4, #0]	@ zero_extendqisi2
 9044 3782 CB18     		adds	r3, r1, r3
 9045 3784 DBB2     		uxtb	r3, r3
 9046              	.LVL1425:
 9047 3786 2B70     		strb	r3, [r5, #0]
 9048 3788 9B18     		adds	r3, r3, r2
 9049              	.LVL1426:
 9050 378a 2370     		strb	r3, [r4, #0]
 9051 378c 5F48     		ldr	r0, .L285+20
 9052 378e FFF7FEFF 		bl	uart_transmit
 9053              	.LVL1427:
 9054              	.LBE633:
 9055              	.LBB634:
 9056 3792 F178     		ldrb	r1, [r6, #3]	@ zero_extendqisi2
 9057              	.LVL1428:
 9058 3794 2B78     		ldrb	r3, [r5, #0]	@ zero_extendqisi2
 9059 3796 2278     		ldrb	r2, [r4, #0]	@ zero_extendqisi2
 9060 3798 CB18     		adds	r3, r1, r3
 9061 379a DBB2     		uxtb	r3, r3
 9062              	.LBE634:
 9063              	.LBB635:
 9064 379c 634E     		ldr	r6, .L285+52
 9065              	.LVL1429:
 9066              	.LBE635:
 9067              	.LBB636:
 9068 379e 2B70     		strb	r3, [r5, #0]
 9069 37a0 9B18     		adds	r3, r3, r2
 9070              	.LVL1430:
 9071 37a2 2370     		strb	r3, [r4, #0]
 9072 37a4 5948     		ldr	r0, .L285+20
 9073 37a6 FFF7FEFF 		bl	uart_transmit
 9074              	.LVL1431:
 9075              	.LBE636:
 9076              	.LBB637:
 9077 37aa 3178     		ldrb	r1, [r6, #0]	@ zero_extendqisi2
 9078              	.LVL1432:
 9079 37ac 2B78     		ldrb	r3, [r5, #0]	@ zero_extendqisi2
 9080 37ae 2278     		ldrb	r2, [r4, #0]	@ zero_extendqisi2
 9081 37b0 CB18     		adds	r3, r1, r3
 9082 37b2 DBB2     		uxtb	r3, r3
 9083              	.LVL1433:
 9084 37b4 2B70     		strb	r3, [r5, #0]
 9085 37b6 9B18     		adds	r3, r3, r2
 9086              	.LVL1434:
 9087 37b8 2370     		strb	r3, [r4, #0]
 9088 37ba 5448     		ldr	r0, .L285+20
 9089 37bc FFF7FEFF 		bl	uart_transmit
 9090              	.LVL1435:
 9091              	.LBE637:
 9092              	.LBB638:
 9093 37c0 7178     		ldrb	r1, [r6, #1]	@ zero_extendqisi2
 9094              	.LVL1436:
 9095 37c2 2B78     		ldrb	r3, [r5, #0]	@ zero_extendqisi2
 9096 37c4 2278     		ldrb	r2, [r4, #0]	@ zero_extendqisi2
 9097 37c6 CB18     		adds	r3, r1, r3
 9098 37c8 DBB2     		uxtb	r3, r3
 9099              	.LVL1437:
 9100 37ca 2B70     		strb	r3, [r5, #0]
 9101 37cc 9B18     		adds	r3, r3, r2
 9102              	.LVL1438:
 9103 37ce 2370     		strb	r3, [r4, #0]
 9104 37d0 4E48     		ldr	r0, .L285+20
 9105 37d2 FFF7FEFF 		bl	uart_transmit
 9106              	.LVL1439:
 9107              	.LBE638:
 9108              	.LBB639:
 9109 37d6 B178     		ldrb	r1, [r6, #2]	@ zero_extendqisi2
 9110              	.LVL1440:
 9111 37d8 2B78     		ldrb	r3, [r5, #0]	@ zero_extendqisi2
 9112 37da 2278     		ldrb	r2, [r4, #0]	@ zero_extendqisi2
 9113 37dc CB18     		adds	r3, r1, r3
 9114 37de DBB2     		uxtb	r3, r3
 9115              	.LVL1441:
 9116 37e0 2B70     		strb	r3, [r5, #0]
 9117 37e2 9B18     		adds	r3, r3, r2
 9118              	.LVL1442:
 9119 37e4 2370     		strb	r3, [r4, #0]
 9120 37e6 4948     		ldr	r0, .L285+20
 9121 37e8 FFF7FEFF 		bl	uart_transmit
 9122              	.LVL1443:
 9123              	.LBE639:
 9124              	.LBB640:
 9125 37ec F178     		ldrb	r1, [r6, #3]	@ zero_extendqisi2
 9126              	.LVL1444:
 9127 37ee 2B78     		ldrb	r3, [r5, #0]	@ zero_extendqisi2
 9128 37f0 2278     		ldrb	r2, [r4, #0]	@ zero_extendqisi2
 9129 37f2 CB18     		adds	r3, r1, r3
 9130 37f4 DBB2     		uxtb	r3, r3
 9131              	.LBE640:
 9132              	.LBB641:
 9133 37f6 4E4E     		ldr	r6, .L285+56
 9134              	.LVL1445:
 9135              	.LBE641:
 9136              	.LBB642:
 9137 37f8 2B70     		strb	r3, [r5, #0]
 9138 37fa 9B18     		adds	r3, r3, r2
 9139              	.LVL1446:
 9140 37fc 2370     		strb	r3, [r4, #0]
 9141 37fe 4348     		ldr	r0, .L285+20
 9142 3800 FFF7FEFF 		bl	uart_transmit
 9143              	.LVL1447:
 9144              	.LBE642:
 9145              	.LBB643:
 9146 3804 3178     		ldrb	r1, [r6, #0]	@ zero_extendqisi2
 9147              	.LVL1448:
 9148 3806 2B78     		ldrb	r3, [r5, #0]	@ zero_extendqisi2
 9149 3808 2278     		ldrb	r2, [r4, #0]	@ zero_extendqisi2
 9150 380a CB18     		adds	r3, r1, r3
 9151 380c DBB2     		uxtb	r3, r3
 9152              	.LVL1449:
 9153 380e 2B70     		strb	r3, [r5, #0]
 9154 3810 9B18     		adds	r3, r3, r2
 9155              	.LVL1450:
 9156 3812 2370     		strb	r3, [r4, #0]
 9157 3814 3D48     		ldr	r0, .L285+20
 9158 3816 FFF7FEFF 		bl	uart_transmit
 9159              	.LVL1451:
 9160              	.LBE643:
 9161              	.LBB644:
 9162 381a 7178     		ldrb	r1, [r6, #1]	@ zero_extendqisi2
 9163              	.LVL1452:
 9164 381c 2B78     		ldrb	r3, [r5, #0]	@ zero_extendqisi2
 9165 381e 2278     		ldrb	r2, [r4, #0]	@ zero_extendqisi2
 9166 3820 CB18     		adds	r3, r1, r3
 9167 3822 DBB2     		uxtb	r3, r3
 9168              	.LVL1453:
 9169 3824 2B70     		strb	r3, [r5, #0]
 9170 3826 9B18     		adds	r3, r3, r2
 9171              	.LVL1454:
 9172 3828 2370     		strb	r3, [r4, #0]
 9173 382a 3848     		ldr	r0, .L285+20
 9174 382c FFF7FEFF 		bl	uart_transmit
 9175              	.LVL1455:
 9176              	.LBE644:
 9177              	.LBB645:
 9178 3830 B178     		ldrb	r1, [r6, #2]	@ zero_extendqisi2
 9179              	.LVL1456:
 9180 3832 2B78     		ldrb	r3, [r5, #0]	@ zero_extendqisi2
 9181 3834 2278     		ldrb	r2, [r4, #0]	@ zero_extendqisi2
 9182 3836 CB18     		adds	r3, r1, r3
 9183 3838 DBB2     		uxtb	r3, r3
 9184              	.LVL1457:
 9185 383a 2B70     		strb	r3, [r5, #0]
 9186 383c 9B18     		adds	r3, r3, r2
 9187              	.LVL1458:
 9188 383e 2370     		strb	r3, [r4, #0]
 9189 3840 3248     		ldr	r0, .L285+20
 9190 3842 FFF7FEFF 		bl	uart_transmit
 9191              	.LVL1459:
 9192              	.LBE645:
 9193              	.LBB646:
 9194 3846 F178     		ldrb	r1, [r6, #3]	@ zero_extendqisi2
 9195              	.LVL1460:
 9196 3848 2B78     		ldrb	r3, [r5, #0]	@ zero_extendqisi2
 9197 384a 2278     		ldrb	r2, [r4, #0]	@ zero_extendqisi2
 9198 384c CB18     		adds	r3, r1, r3
 9199 384e DBB2     		uxtb	r3, r3
 9200              	.LBE646:
 9201              	.LBB647:
 9202 3850 384E     		ldr	r6, .L285+60
 9203              	.LVL1461:
 9204              	.LBE647:
 9205              	.LBB648:
 9206 3852 2B70     		strb	r3, [r5, #0]
 9207 3854 9B18     		adds	r3, r3, r2
 9208              	.LVL1462:
 9209 3856 2370     		strb	r3, [r4, #0]
 9210 3858 2C48     		ldr	r0, .L285+20
 9211 385a FFF7FEFF 		bl	uart_transmit
 9212              	.LVL1463:
 9213              	.LBE648:
 9214              	.LBB649:
 9215 385e 3178     		ldrb	r1, [r6, #0]	@ zero_extendqisi2
 9216              	.LVL1464:
 9217 3860 2B78     		ldrb	r3, [r5, #0]	@ zero_extendqisi2
 9218 3862 2278     		ldrb	r2, [r4, #0]	@ zero_extendqisi2
 9219 3864 CB18     		adds	r3, r1, r3
 9220 3866 DBB2     		uxtb	r3, r3
 9221              	.LVL1465:
 9222 3868 2B70     		strb	r3, [r5, #0]
 9223 386a 9B18     		adds	r3, r3, r2
 9224              	.LVL1466:
 9225 386c 2370     		strb	r3, [r4, #0]
 9226 386e 2748     		ldr	r0, .L285+20
 9227 3870 FFF7FEFF 		bl	uart_transmit
 9228              	.LVL1467:
 9229              	.LBE649:
 9230              	.LBB650:
 9231 3874 7178     		ldrb	r1, [r6, #1]	@ zero_extendqisi2
 9232              	.LVL1468:
 9233 3876 2B78     		ldrb	r3, [r5, #0]	@ zero_extendqisi2
 9234 3878 2278     		ldrb	r2, [r4, #0]	@ zero_extendqisi2
 9235 387a CB18     		adds	r3, r1, r3
 9236 387c DBB2     		uxtb	r3, r3
 9237              	.LVL1469:
 9238 387e 2B70     		strb	r3, [r5, #0]
 9239 3880 9B18     		adds	r3, r3, r2
 9240              	.LVL1470:
 9241 3882 2370     		strb	r3, [r4, #0]
 9242 3884 2148     		ldr	r0, .L285+20
 9243 3886 FFF7FEFF 		bl	uart_transmit
 9244              	.LVL1471:
 9245              	.LBE650:
 9246              	.LBB651:
 9247 388a B178     		ldrb	r1, [r6, #2]	@ zero_extendqisi2
 9248              	.LVL1472:
 9249 388c 2B78     		ldrb	r3, [r5, #0]	@ zero_extendqisi2
 9250 388e 2278     		ldrb	r2, [r4, #0]	@ zero_extendqisi2
 9251 3890 CB18     		adds	r3, r1, r3
 9252 3892 DBB2     		uxtb	r3, r3
 9253              	.LVL1473:
 9254 3894 2B70     		strb	r3, [r5, #0]
 9255 3896 9B18     		adds	r3, r3, r2
 9256              	.LVL1474:
 9257 3898 2370     		strb	r3, [r4, #0]
 9258 389a 1C48     		ldr	r0, .L285+20
 9259 389c FFF7FEFF 		bl	uart_transmit
 9260              	.LVL1475:
 9261              	.LBE651:
 9262              	.LBB652:
 9263 38a0 F178     		ldrb	r1, [r6, #3]	@ zero_extendqisi2
 9264              	.LVL1476:
 9265 38a2 2B78     		ldrb	r3, [r5, #0]	@ zero_extendqisi2
 9266 38a4 2278     		ldrb	r2, [r4, #0]	@ zero_extendqisi2
 9267 38a6 CB18     		adds	r3, r1, r3
 9268 38a8 DBB2     		uxtb	r3, r3
 9269              	.LVL1477:
 9270 38aa 2B70     		strb	r3, [r5, #0]
 9271 38ac 9B18     		adds	r3, r3, r2
 9272              	.LVL1478:
 9273 38ae 2370     		strb	r3, [r4, #0]
 9274 38b0 1648     		ldr	r0, .L285+20
 9275 38b2 FFF7FEFF 		bl	uart_transmit
 9276              	.LVL1479:
 9277              	.LBE652:
 9278              	.LBB653:
 9279 38b6 2B78     		ldrb	r3, [r5, #0]	@ zero_extendqisi2
 9280 38b8 2278     		ldrb	r2, [r4, #0]	@ zero_extendqisi2
 9281 38ba FB18     		adds	r3, r7, r3
 9282 38bc DBB2     		uxtb	r3, r3
 9283              	.LVL1480:
 9284 38be 2B70     		strb	r3, [r5, #0]
 9285 38c0 9B18     		adds	r3, r3, r2
 9286              	.LVL1481:
 9287 38c2 2370     		strb	r3, [r4, #0]
 9288 38c4 3946     		mov	r1, r7
 9289 38c6 1148     		ldr	r0, .L285+20
 9290 38c8 FFF7FEFF 		bl	uart_transmit
 9291              	.LBE653:
 9292              	.LBB654:
 9293 38cc 1A4B     		ldr	r3, .L285+64
 9294 38ce 2278     		ldrb	r2, [r4, #0]	@ zero_extendqisi2
 9295 38d0 1978     		ldrb	r1, [r3, #0]	@ zero_extendqisi2
 9296              	.LVL1482:
 9297 38d2 2B78     		ldrb	r3, [r5, #0]	@ zero_extendqisi2
 9298 38d4 0D48     		ldr	r0, .L285+20
 9299 38d6 CB18     		adds	r3, r1, r3
 9300 38d8 DBB2     		uxtb	r3, r3
 9301              	.LVL1483:
 9302 38da 2B70     		strb	r3, [r5, #0]
 9303 38dc 9B18     		adds	r3, r3, r2
 9304              	.LVL1484:
 9305 38de 2370     		strb	r3, [r4, #0]
 9306 38e0 FFF7FEFF 		bl	uart_transmit
 9307              	.LVL1485:
 9308              	.LBE654:
 9309 38e4 2978     		ldrb	r1, [r5, #0]	@ zero_extendqisi2
 9310 38e6 0948     		ldr	r0, .L285+20
 9311 38e8 FFF7FEFF 		bl	uart_transmit
 9312 38ec 0748     		ldr	r0, .L285+20
 9313 38ee 2178     		ldrb	r1, [r4, #0]	@ zero_extendqisi2
 9314 38f0 FFF7FEFF 		bl	uart_transmit
 9315 38f4 26E0     		b	.L140
 9316              	.L286:
 9317 38f6 00BF     		.align	3
 9318              	.L285:
 9319 38f8 182D4454 		.word	1413754136
 9320 38fc FB211940 		.word	1075388923
 9321 3900 00000000 		.word	downlink_nb_ovrn
 9322 3904 00000000 		.word	.LANCHOR42
 9323 3908 00000000 		.word	nav_circle_radians
 9324 390c 00000000 		.word	uart2
 9325 3910 00000000 		.word	downlink_nb_bytes
 9326 3914 00000000 		.word	downlink_nb_msgs
 9327 3918 00000000 		.word	ck_a
 9328 391c 00000000 		.word	ck_b
 9329 3920 00000000 		.word	nav_block
 9330 3924 00000000 		.word	nav_stage
 9331 3928 00000000 		.word	estimator_x
 9332 392c 00000000 		.word	estimator_y
 9333 3930 00000000 		.word	dist2_to_wp
 9334 3934 00000000 		.word	dist2_to_home
 9335 3938 00000000 		.word	nav_oval_count
 9336              	.LVL1486:
 9337              	.L141:
 9338              		.loc 1 422 0 discriminator 213
 9339 393c 644B     		ldr	r3, .L287
 9340 393e 1A78     		ldrb	r2, [r3, #0]	@ zero_extendqisi2
 9341 3940 0132     		adds	r2, r2, #1
 9342 3942 1A70     		strb	r2, [r3, #0]
 9343              	.LVL1487:
 9344              	.L140:
 9345              	.LBE622:
 9346              		.loc 1 422 0 discriminator 211
 9347 3944 634B     		ldr	r3, .L287+4
 9348 3946 1B78     		ldrb	r3, [r3, #0]	@ zero_extendqisi2
 9349 3948 2A2B     		cmp	r3, #42
 9350 394a 40F0DB80 		bne	.L142
 9351              		.loc 1 422 0 discriminator 214
 9352 394e 624B     		ldr	r3, .L287+8
 9353 3950 1B78     		ldrb	r3, [r3, #0]	@ zero_extendqisi2
 9354 3952 002B     		cmp	r3, #0
 9355 3954 00F0D680 		beq	.L142
 9356              		.loc 1 422 0 discriminator 216
 9357 3958 6048     		ldr	r0, .L287+12
 9358 395a 1221     		movs	r1, #18
 9359 395c FFF7FEFF 		bl	uart_check_free_space
 9360 3960 0028     		cmp	r0, #0
 9361 3962 00F0CB80 		beq	.L143
 9362              		.loc 1 422 0 discriminator 217
 9363 3966 5E4B     		ldr	r3, .L287+16
 9364              	.LBB655:
 9365 3968 9921     		movs	r1, #153
 9366              	.LBE655:
 9367 396a 1A88     		ldrh	r2, [r3, #0]
 9368              	.LBB656:
 9369 396c 5B48     		ldr	r0, .L287+12
 9370              	.LBE656:
 9371 396e 1232     		adds	r2, r2, #18
 9372 3970 1A80     		strh	r2, [r3, #0]	@ movhi
 9373 3972 5C4B     		ldr	r3, .L287+20
 9374 3974 5C4D     		ldr	r5, .L287+24
 9375 3976 1A88     		ldrh	r2, [r3, #0]
 9376 3978 5C4C     		ldr	r4, .L287+28
 9377 397a 0132     		adds	r2, r2, #1
 9378 397c 1A80     		strh	r2, [r3, #0]	@ movhi
 9379              	.LBB657:
 9380 397e FFF7FEFF 		bl	uart_transmit
 9381              	.LVL1488:
 9382 3982 1221     		movs	r1, #18
 9383 3984 5548     		ldr	r0, .L287+12
 9384 3986 FFF7FEFF 		bl	uart_transmit
 9385              	.LBE657:
 9386 398a 1323     		movs	r3, #19
 9387 398c 2B70     		strb	r3, [r5, #0]
 9388 398e 2523     		movs	r3, #37
 9389 3990 2370     		strb	r3, [r4, #0]
 9390 3992 0121     		movs	r1, #1
 9391 3994 5148     		ldr	r0, .L287+12
 9392 3996 FFF7FEFF 		bl	uart_transmit
 9393 399a 2B78     		ldrb	r3, [r5, #0]	@ zero_extendqisi2
 9394 399c 2278     		ldrb	r2, [r4, #0]	@ zero_extendqisi2
 9395 399e 1533     		adds	r3, r3, #21
 9396 39a0 DBB2     		uxtb	r3, r3
 9397              	.LBB658:
 9398 39a2 534E     		ldr	r6, .L287+32
 9399              	.LBE658:
 9400 39a4 2B70     		strb	r3, [r5, #0]
 9401 39a6 9B18     		adds	r3, r3, r2
 9402 39a8 2370     		strb	r3, [r4, #0]
 9403 39aa 1521     		movs	r1, #21
 9404 39ac 4B48     		ldr	r0, .L287+12
 9405 39ae FFF7FEFF 		bl	uart_transmit
 9406              	.LBB659:
 9407 39b2 3178     		ldrb	r1, [r6, #0]	@ zero_extendqisi2
 9408              	.LVL1489:
 9409 39b4 2B78     		ldrb	r3, [r5, #0]	@ zero_extendqisi2
 9410 39b6 2278     		ldrb	r2, [r4, #0]	@ zero_extendqisi2
 9411 39b8 CB18     		adds	r3, r1, r3
 9412 39ba DBB2     		uxtb	r3, r3
 9413              	.LVL1490:
 9414 39bc 2B70     		strb	r3, [r5, #0]
 9415 39be 9B18     		adds	r3, r3, r2
 9416              	.LVL1491:
 9417 39c0 2370     		strb	r3, [r4, #0]
 9418 39c2 4648     		ldr	r0, .L287+12
 9419 39c4 FFF7FEFF 		bl	uart_transmit
 9420              	.LVL1492:
 9421              	.LBE659:
 9422              	.LBB660:
 9423 39c8 7178     		ldrb	r1, [r6, #1]	@ zero_extendqisi2
 9424              	.LVL1493:
 9425 39ca 2B78     		ldrb	r3, [r5, #0]	@ zero_extendqisi2
 9426 39cc 2278     		ldrb	r2, [r4, #0]	@ zero_extendqisi2
 9427 39ce CB18     		adds	r3, r1, r3
 9428 39d0 DBB2     		uxtb	r3, r3
 9429              	.LVL1494:
 9430 39d2 2B70     		strb	r3, [r5, #0]
 9431 39d4 9B18     		adds	r3, r3, r2
 9432              	.LVL1495:
 9433 39d6 2370     		strb	r3, [r4, #0]
 9434 39d8 4048     		ldr	r0, .L287+12
 9435 39da FFF7FEFF 		bl	uart_transmit
 9436              	.LVL1496:
 9437              	.LBE660:
 9438              	.LBB661:
 9439 39de B178     		ldrb	r1, [r6, #2]	@ zero_extendqisi2
 9440              	.LVL1497:
 9441 39e0 2B78     		ldrb	r3, [r5, #0]	@ zero_extendqisi2
 9442 39e2 2278     		ldrb	r2, [r4, #0]	@ zero_extendqisi2
 9443 39e4 CB18     		adds	r3, r1, r3
 9444 39e6 DBB2     		uxtb	r3, r3
 9445              	.LVL1498:
 9446 39e8 2B70     		strb	r3, [r5, #0]
 9447 39ea 9B18     		adds	r3, r3, r2
 9448              	.LVL1499:
 9449 39ec 2370     		strb	r3, [r4, #0]
 9450 39ee 3B48     		ldr	r0, .L287+12
 9451 39f0 FFF7FEFF 		bl	uart_transmit
 9452              	.LVL1500:
 9453              	.LBE661:
 9454              	.LBB662:
 9455 39f4 F178     		ldrb	r1, [r6, #3]	@ zero_extendqisi2
 9456              	.LVL1501:
 9457 39f6 2B78     		ldrb	r3, [r5, #0]	@ zero_extendqisi2
 9458 39f8 2278     		ldrb	r2, [r4, #0]	@ zero_extendqisi2
 9459 39fa CB18     		adds	r3, r1, r3
 9460 39fc DBB2     		uxtb	r3, r3
 9461              	.LBE662:
 9462              	.LBB663:
 9463 39fe 3D4E     		ldr	r6, .L287+36
 9464              	.LVL1502:
 9465              	.LBE663:
 9466              	.LBB664:
 9467 3a00 2B70     		strb	r3, [r5, #0]
 9468 3a02 9B18     		adds	r3, r3, r2
 9469              	.LVL1503:
 9470 3a04 2370     		strb	r3, [r4, #0]
 9471 3a06 3548     		ldr	r0, .L287+12
 9472 3a08 FFF7FEFF 		bl	uart_transmit
 9473              	.LVL1504:
 9474              	.LBE664:
 9475              	.LBB665:
 9476 3a0c 3178     		ldrb	r1, [r6, #0]	@ zero_extendqisi2
 9477              	.LVL1505:
 9478 3a0e 2B78     		ldrb	r3, [r5, #0]	@ zero_extendqisi2
 9479 3a10 2278     		ldrb	r2, [r4, #0]	@ zero_extendqisi2
 9480 3a12 CB18     		adds	r3, r1, r3
 9481 3a14 DBB2     		uxtb	r3, r3
 9482              	.LVL1506:
 9483 3a16 2B70     		strb	r3, [r5, #0]
 9484 3a18 9B18     		adds	r3, r3, r2
 9485              	.LVL1507:
 9486 3a1a 2370     		strb	r3, [r4, #0]
 9487 3a1c 2F48     		ldr	r0, .L287+12
 9488 3a1e FFF7FEFF 		bl	uart_transmit
 9489              	.LVL1508:
 9490              	.LBE665:
 9491              	.LBB666:
 9492 3a22 7178     		ldrb	r1, [r6, #1]	@ zero_extendqisi2
 9493              	.LVL1509:
 9494 3a24 2B78     		ldrb	r3, [r5, #0]	@ zero_extendqisi2
 9495 3a26 2278     		ldrb	r2, [r4, #0]	@ zero_extendqisi2
 9496 3a28 CB18     		adds	r3, r1, r3
 9497 3a2a DBB2     		uxtb	r3, r3
 9498              	.LVL1510:
 9499 3a2c 2B70     		strb	r3, [r5, #0]
 9500 3a2e 9B18     		adds	r3, r3, r2
 9501              	.LVL1511:
 9502 3a30 2370     		strb	r3, [r4, #0]
 9503 3a32 2A48     		ldr	r0, .L287+12
 9504 3a34 FFF7FEFF 		bl	uart_transmit
 9505              	.LVL1512:
 9506              	.LBE666:
 9507              	.LBB667:
 9508 3a38 B178     		ldrb	r1, [r6, #2]	@ zero_extendqisi2
 9509              	.LVL1513:
 9510 3a3a 2B78     		ldrb	r3, [r5, #0]	@ zero_extendqisi2
 9511 3a3c 2278     		ldrb	r2, [r4, #0]	@ zero_extendqisi2
 9512 3a3e CB18     		adds	r3, r1, r3
 9513 3a40 DBB2     		uxtb	r3, r3
 9514              	.LVL1514:
 9515 3a42 2B70     		strb	r3, [r5, #0]
 9516 3a44 9B18     		adds	r3, r3, r2
 9517              	.LVL1515:
 9518 3a46 2370     		strb	r3, [r4, #0]
 9519 3a48 2448     		ldr	r0, .L287+12
 9520 3a4a FFF7FEFF 		bl	uart_transmit
 9521              	.LVL1516:
 9522              	.LBE667:
 9523              	.LBB668:
 9524 3a4e F178     		ldrb	r1, [r6, #3]	@ zero_extendqisi2
 9525              	.LVL1517:
 9526 3a50 2B78     		ldrb	r3, [r5, #0]	@ zero_extendqisi2
 9527 3a52 2278     		ldrb	r2, [r4, #0]	@ zero_extendqisi2
 9528 3a54 CB18     		adds	r3, r1, r3
 9529 3a56 DBB2     		uxtb	r3, r3
 9530              	.LBE668:
 9531              	.LBB669:
 9532 3a58 274E     		ldr	r6, .L287+40
 9533              	.LVL1518:
 9534              	.LBE669:
 9535              	.LBB670:
 9536 3a5a 2B70     		strb	r3, [r5, #0]
 9537 3a5c 9B18     		adds	r3, r3, r2
 9538              	.LVL1519:
 9539 3a5e 2370     		strb	r3, [r4, #0]
 9540 3a60 1E48     		ldr	r0, .L287+12
 9541 3a62 FFF7FEFF 		bl	uart_transmit
 9542              	.LVL1520:
 9543              	.LBE670:
 9544              	.LBB671:
 9545 3a66 3178     		ldrb	r1, [r6, #0]	@ zero_extendqisi2
 9546              	.LVL1521:
 9547 3a68 2B78     		ldrb	r3, [r5, #0]	@ zero_extendqisi2
 9548 3a6a 2278     		ldrb	r2, [r4, #0]	@ zero_extendqisi2
 9549 3a6c CB18     		adds	r3, r1, r3
 9550 3a6e DBB2     		uxtb	r3, r3
 9551              	.LVL1522:
 9552 3a70 2B70     		strb	r3, [r5, #0]
 9553 3a72 9B18     		adds	r3, r3, r2
 9554              	.LVL1523:
 9555 3a74 2370     		strb	r3, [r4, #0]
 9556 3a76 1948     		ldr	r0, .L287+12
 9557 3a78 FFF7FEFF 		bl	uart_transmit
 9558              	.LVL1524:
 9559              	.LBE671:
 9560              	.LBB672:
 9561 3a7c 7178     		ldrb	r1, [r6, #1]	@ zero_extendqisi2
 9562              	.LVL1525:
 9563 3a7e 2B78     		ldrb	r3, [r5, #0]	@ zero_extendqisi2
 9564 3a80 2278     		ldrb	r2, [r4, #0]	@ zero_extendqisi2
 9565 3a82 CB18     		adds	r3, r1, r3
 9566 3a84 DBB2     		uxtb	r3, r3
 9567              	.LVL1526:
 9568 3a86 2B70     		strb	r3, [r5, #0]
 9569 3a88 9B18     		adds	r3, r3, r2
 9570              	.LVL1527:
 9571 3a8a 2370     		strb	r3, [r4, #0]
 9572 3a8c 1348     		ldr	r0, .L287+12
 9573 3a8e FFF7FEFF 		bl	uart_transmit
 9574              	.LVL1528:
 9575              	.LBE672:
 9576              	.LBB673:
 9577 3a92 B178     		ldrb	r1, [r6, #2]	@ zero_extendqisi2
 9578              	.LVL1529:
 9579 3a94 2B78     		ldrb	r3, [r5, #0]	@ zero_extendqisi2
 9580 3a96 2278     		ldrb	r2, [r4, #0]	@ zero_extendqisi2
 9581 3a98 CB18     		adds	r3, r1, r3
 9582 3a9a DBB2     		uxtb	r3, r3
 9583              	.LVL1530:
 9584 3a9c 2B70     		strb	r3, [r5, #0]
 9585 3a9e 9B18     		adds	r3, r3, r2
 9586              	.LVL1531:
 9587 3aa0 2370     		strb	r3, [r4, #0]
 9588 3aa2 0E48     		ldr	r0, .L287+12
 9589 3aa4 FFF7FEFF 		bl	uart_transmit
 9590              	.LVL1532:
 9591              	.LBE673:
 9592              	.LBB674:
 9593 3aa8 F178     		ldrb	r1, [r6, #3]	@ zero_extendqisi2
 9594              	.LVL1533:
 9595 3aaa 2B78     		ldrb	r3, [r5, #0]	@ zero_extendqisi2
 9596 3aac 2278     		ldrb	r2, [r4, #0]	@ zero_extendqisi2
 9597 3aae CB18     		adds	r3, r1, r3
 9598 3ab0 DBB2     		uxtb	r3, r3
 9599              	.LVL1534:
 9600 3ab2 2B70     		strb	r3, [r5, #0]
 9601 3ab4 9B18     		adds	r3, r3, r2
 9602              	.LVL1535:
 9603 3ab6 2370     		strb	r3, [r4, #0]
 9604 3ab8 0848     		ldr	r0, .L287+12
 9605 3aba FFF7FEFF 		bl	uart_transmit
 9606              	.LVL1536:
 9607              	.LBE674:
 9608 3abe 2978     		ldrb	r1, [r5, #0]	@ zero_extendqisi2
 9609 3ac0 0648     		ldr	r0, .L287+12
 9610 3ac2 FFF7FEFF 		bl	uart_transmit
 9611 3ac6 0548     		ldr	r0, .L287+12
 9612 3ac8 2178     		ldrb	r1, [r4, #0]	@ zero_extendqisi2
 9613 3aca FFF7FEFF 		bl	uart_transmit
 9614 3ace 19E0     		b	.L142
 9615              	.L288:
 9616              		.align	2
 9617              	.L287:
 9618 3ad0 00000000 		.word	downlink_nb_ovrn
 9619 3ad4 00000000 		.word	.LANCHOR43
 9620 3ad8 00000000 		.word	nav_in_circle
 9621 3adc 00000000 		.word	uart2
 9622 3ae0 00000000 		.word	downlink_nb_bytes
 9623 3ae4 00000000 		.word	downlink_nb_msgs
 9624 3ae8 00000000 		.word	ck_a
 9625 3aec 00000000 		.word	ck_b
 9626 3af0 00000000 		.word	nav_circle_x
 9627 3af4 00000000 		.word	nav_circle_y
 9628 3af8 00000000 		.word	nav_circle_radius
 9629              	.LVL1537:
 9630              	.L143:
 9631              		.loc 1 422 0 discriminator 218
 9632 3afc 7B4B     		ldr	r3, .L289
 9633 3afe 1A78     		ldrb	r2, [r3, #0]	@ zero_extendqisi2
 9634 3b00 0132     		adds	r2, r2, #1
 9635 3b02 1A70     		strb	r2, [r3, #0]
 9636              	.L142:
 9637              		.loc 1 422 0 discriminator 215
 9638 3b04 7A4B     		ldr	r3, .L289+4
 9639 3b06 1B78     		ldrb	r3, [r3, #0]	@ zero_extendqisi2
 9640 3b08 302B     		cmp	r3, #48
 9641 3b0a 40F00B81 		bne	.L144
 9642              		.loc 1 422 0 discriminator 219
 9643 3b0e 794B     		ldr	r3, .L289+8
 9644 3b10 1B78     		ldrb	r3, [r3, #0]	@ zero_extendqisi2
 9645 3b12 002B     		cmp	r3, #0
 9646 3b14 00F00681 		beq	.L144
 9647              		.loc 1 422 0 discriminator 221
 9648 3b18 7748     		ldr	r0, .L289+12
 9649 3b1a 1621     		movs	r1, #22
 9650 3b1c FFF7FEFF 		bl	uart_check_free_space
 9651 3b20 0028     		cmp	r0, #0
 9652 3b22 00F0FB80 		beq	.L145
 9653              		.loc 1 422 0 discriminator 222
 9654 3b26 754B     		ldr	r3, .L289+16
 9655              	.LBB675:
 9656 3b28 9921     		movs	r1, #153
 9657              	.LBE675:
 9658 3b2a 1A88     		ldrh	r2, [r3, #0]
 9659              	.LBB676:
 9660 3b2c 7248     		ldr	r0, .L289+12
 9661              	.LBE676:
 9662 3b2e 1632     		adds	r2, r2, #22
 9663 3b30 1A80     		strh	r2, [r3, #0]	@ movhi
 9664 3b32 734B     		ldr	r3, .L289+20
 9665 3b34 734D     		ldr	r5, .L289+24
 9666 3b36 1A88     		ldrh	r2, [r3, #0]
 9667 3b38 734C     		ldr	r4, .L289+28
 9668 3b3a 0132     		adds	r2, r2, #1
 9669 3b3c 1A80     		strh	r2, [r3, #0]	@ movhi
 9670              	.LBB677:
 9671 3b3e FFF7FEFF 		bl	uart_transmit
 9672              	.LVL1538:
 9673 3b42 1621     		movs	r1, #22
 9674 3b44 6C48     		ldr	r0, .L289+12
 9675 3b46 FFF7FEFF 		bl	uart_transmit
 9676              	.LBE677:
 9677 3b4a 1723     		movs	r3, #23
 9678 3b4c 2B70     		strb	r3, [r5, #0]
 9679 3b4e 2D23     		movs	r3, #45
 9680 3b50 2370     		strb	r3, [r4, #0]
 9681 3b52 0121     		movs	r1, #1
 9682 3b54 6848     		ldr	r0, .L289+12
 9683 3b56 FFF7FEFF 		bl	uart_transmit
 9684 3b5a 2B78     		ldrb	r3, [r5, #0]	@ zero_extendqisi2
 9685 3b5c 2278     		ldrb	r2, [r4, #0]	@ zero_extendqisi2
 9686 3b5e 1633     		adds	r3, r3, #22
 9687 3b60 DBB2     		uxtb	r3, r3
 9688              	.LBB678:
 9689 3b62 6A4E     		ldr	r6, .L289+32
 9690              	.LBE678:
 9691 3b64 2B70     		strb	r3, [r5, #0]
 9692 3b66 9B18     		adds	r3, r3, r2
 9693 3b68 2370     		strb	r3, [r4, #0]
 9694 3b6a 1621     		movs	r1, #22
 9695 3b6c 6248     		ldr	r0, .L289+12
 9696 3b6e FFF7FEFF 		bl	uart_transmit
 9697              	.LBB679:
 9698 3b72 3178     		ldrb	r1, [r6, #0]	@ zero_extendqisi2
 9699              	.LVL1539:
 9700 3b74 2B78     		ldrb	r3, [r5, #0]	@ zero_extendqisi2
 9701 3b76 2278     		ldrb	r2, [r4, #0]	@ zero_extendqisi2
 9702 3b78 CB18     		adds	r3, r1, r3
 9703 3b7a DBB2     		uxtb	r3, r3
 9704              	.LVL1540:
 9705 3b7c 2B70     		strb	r3, [r5, #0]
 9706 3b7e 9B18     		adds	r3, r3, r2
 9707              	.LVL1541:
 9708 3b80 2370     		strb	r3, [r4, #0]
 9709 3b82 5D48     		ldr	r0, .L289+12
 9710 3b84 FFF7FEFF 		bl	uart_transmit
 9711              	.LVL1542:
 9712              	.LBE679:
 9713              	.LBB680:
 9714 3b88 7178     		ldrb	r1, [r6, #1]	@ zero_extendqisi2
 9715              	.LVL1543:
 9716 3b8a 2B78     		ldrb	r3, [r5, #0]	@ zero_extendqisi2
 9717 3b8c 2278     		ldrb	r2, [r4, #0]	@ zero_extendqisi2
 9718 3b8e CB18     		adds	r3, r1, r3
 9719 3b90 DBB2     		uxtb	r3, r3
 9720              	.LVL1544:
 9721 3b92 2B70     		strb	r3, [r5, #0]
 9722 3b94 9B18     		adds	r3, r3, r2
 9723              	.LVL1545:
 9724 3b96 2370     		strb	r3, [r4, #0]
 9725 3b98 5748     		ldr	r0, .L289+12
 9726 3b9a FFF7FEFF 		bl	uart_transmit
 9727              	.LVL1546:
 9728              	.LBE680:
 9729              	.LBB681:
 9730 3b9e B178     		ldrb	r1, [r6, #2]	@ zero_extendqisi2
 9731              	.LVL1547:
 9732 3ba0 2B78     		ldrb	r3, [r5, #0]	@ zero_extendqisi2
 9733 3ba2 2278     		ldrb	r2, [r4, #0]	@ zero_extendqisi2
 9734 3ba4 CB18     		adds	r3, r1, r3
 9735 3ba6 DBB2     		uxtb	r3, r3
 9736              	.LVL1548:
 9737 3ba8 2B70     		strb	r3, [r5, #0]
 9738 3baa 9B18     		adds	r3, r3, r2
 9739              	.LVL1549:
 9740 3bac 2370     		strb	r3, [r4, #0]
 9741 3bae 5248     		ldr	r0, .L289+12
 9742 3bb0 FFF7FEFF 		bl	uart_transmit
 9743              	.LVL1550:
 9744              	.LBE681:
 9745              	.LBB682:
 9746 3bb4 F178     		ldrb	r1, [r6, #3]	@ zero_extendqisi2
 9747              	.LVL1551:
 9748 3bb6 2B78     		ldrb	r3, [r5, #0]	@ zero_extendqisi2
 9749 3bb8 2278     		ldrb	r2, [r4, #0]	@ zero_extendqisi2
 9750 3bba CB18     		adds	r3, r1, r3
 9751 3bbc DBB2     		uxtb	r3, r3
 9752              	.LBE682:
 9753              	.LBB683:
 9754 3bbe 544E     		ldr	r6, .L289+36
 9755              	.LVL1552:
 9756              	.LBE683:
 9757              	.LBB684:
 9758 3bc0 2B70     		strb	r3, [r5, #0]
 9759 3bc2 9B18     		adds	r3, r3, r2
 9760              	.LVL1553:
 9761 3bc4 2370     		strb	r3, [r4, #0]
 9762 3bc6 4C48     		ldr	r0, .L289+12
 9763 3bc8 FFF7FEFF 		bl	uart_transmit
 9764              	.LVL1554:
 9765              	.LBE684:
 9766              	.LBB685:
 9767 3bcc 3178     		ldrb	r1, [r6, #0]	@ zero_extendqisi2
 9768              	.LVL1555:
 9769 3bce 2B78     		ldrb	r3, [r5, #0]	@ zero_extendqisi2
 9770 3bd0 2278     		ldrb	r2, [r4, #0]	@ zero_extendqisi2
 9771 3bd2 CB18     		adds	r3, r1, r3
 9772 3bd4 DBB2     		uxtb	r3, r3
 9773              	.LVL1556:
 9774 3bd6 2B70     		strb	r3, [r5, #0]
 9775 3bd8 9B18     		adds	r3, r3, r2
 9776              	.LVL1557:
 9777 3bda 2370     		strb	r3, [r4, #0]
 9778 3bdc 4648     		ldr	r0, .L289+12
 9779 3bde FFF7FEFF 		bl	uart_transmit
 9780              	.LVL1558:
 9781              	.LBE685:
 9782              	.LBB686:
 9783 3be2 7178     		ldrb	r1, [r6, #1]	@ zero_extendqisi2
 9784              	.LVL1559:
 9785 3be4 2B78     		ldrb	r3, [r5, #0]	@ zero_extendqisi2
 9786 3be6 2278     		ldrb	r2, [r4, #0]	@ zero_extendqisi2
 9787 3be8 CB18     		adds	r3, r1, r3
 9788 3bea DBB2     		uxtb	r3, r3
 9789              	.LVL1560:
 9790 3bec 2B70     		strb	r3, [r5, #0]
 9791 3bee 9B18     		adds	r3, r3, r2
 9792              	.LVL1561:
 9793 3bf0 2370     		strb	r3, [r4, #0]
 9794 3bf2 4148     		ldr	r0, .L289+12
 9795 3bf4 FFF7FEFF 		bl	uart_transmit
 9796              	.LVL1562:
 9797              	.LBE686:
 9798              	.LBB687:
 9799 3bf8 B178     		ldrb	r1, [r6, #2]	@ zero_extendqisi2
 9800              	.LVL1563:
 9801 3bfa 2B78     		ldrb	r3, [r5, #0]	@ zero_extendqisi2
 9802 3bfc 2278     		ldrb	r2, [r4, #0]	@ zero_extendqisi2
 9803 3bfe CB18     		adds	r3, r1, r3
 9804 3c00 DBB2     		uxtb	r3, r3
 9805              	.LVL1564:
 9806 3c02 2B70     		strb	r3, [r5, #0]
 9807 3c04 9B18     		adds	r3, r3, r2
 9808              	.LVL1565:
 9809 3c06 2370     		strb	r3, [r4, #0]
 9810 3c08 3B48     		ldr	r0, .L289+12
 9811 3c0a FFF7FEFF 		bl	uart_transmit
 9812              	.LVL1566:
 9813              	.LBE687:
 9814              	.LBB688:
 9815 3c0e F178     		ldrb	r1, [r6, #3]	@ zero_extendqisi2
 9816              	.LVL1567:
 9817 3c10 2B78     		ldrb	r3, [r5, #0]	@ zero_extendqisi2
 9818 3c12 2278     		ldrb	r2, [r4, #0]	@ zero_extendqisi2
 9819 3c14 CB18     		adds	r3, r1, r3
 9820 3c16 DBB2     		uxtb	r3, r3
 9821              	.LBE688:
 9822              	.LBB689:
 9823 3c18 3E4E     		ldr	r6, .L289+40
 9824              	.LVL1568:
 9825              	.LBE689:
 9826              	.LBB690:
 9827 3c1a 2B70     		strb	r3, [r5, #0]
 9828 3c1c 9B18     		adds	r3, r3, r2
 9829              	.LVL1569:
 9830 3c1e 2370     		strb	r3, [r4, #0]
 9831 3c20 3548     		ldr	r0, .L289+12
 9832 3c22 FFF7FEFF 		bl	uart_transmit
 9833              	.LVL1570:
 9834              	.LBE690:
 9835              	.LBB691:
 9836 3c26 3178     		ldrb	r1, [r6, #0]	@ zero_extendqisi2
 9837              	.LVL1571:
 9838 3c28 2B78     		ldrb	r3, [r5, #0]	@ zero_extendqisi2
 9839 3c2a 2278     		ldrb	r2, [r4, #0]	@ zero_extendqisi2
 9840 3c2c CB18     		adds	r3, r1, r3
 9841 3c2e DBB2     		uxtb	r3, r3
 9842              	.LVL1572:
 9843 3c30 2B70     		strb	r3, [r5, #0]
 9844 3c32 9B18     		adds	r3, r3, r2
 9845              	.LVL1573:
 9846 3c34 2370     		strb	r3, [r4, #0]
 9847 3c36 3048     		ldr	r0, .L289+12
 9848 3c38 FFF7FEFF 		bl	uart_transmit
 9849              	.LVL1574:
 9850              	.LBE691:
 9851              	.LBB692:
 9852 3c3c 7178     		ldrb	r1, [r6, #1]	@ zero_extendqisi2
 9853              	.LVL1575:
 9854 3c3e 2B78     		ldrb	r3, [r5, #0]	@ zero_extendqisi2
 9855 3c40 2278     		ldrb	r2, [r4, #0]	@ zero_extendqisi2
 9856 3c42 CB18     		adds	r3, r1, r3
 9857 3c44 DBB2     		uxtb	r3, r3
 9858              	.LVL1576:
 9859 3c46 2B70     		strb	r3, [r5, #0]
 9860 3c48 9B18     		adds	r3, r3, r2
 9861              	.LVL1577:
 9862 3c4a 2370     		strb	r3, [r4, #0]
 9863 3c4c 2A48     		ldr	r0, .L289+12
 9864 3c4e FFF7FEFF 		bl	uart_transmit
 9865              	.LVL1578:
 9866              	.LBE692:
 9867              	.LBB693:
 9868 3c52 B178     		ldrb	r1, [r6, #2]	@ zero_extendqisi2
 9869              	.LVL1579:
 9870 3c54 2B78     		ldrb	r3, [r5, #0]	@ zero_extendqisi2
 9871 3c56 2278     		ldrb	r2, [r4, #0]	@ zero_extendqisi2
 9872 3c58 CB18     		adds	r3, r1, r3
 9873 3c5a DBB2     		uxtb	r3, r3
 9874              	.LVL1580:
 9875 3c5c 2B70     		strb	r3, [r5, #0]
 9876 3c5e 9B18     		adds	r3, r3, r2
 9877              	.LVL1581:
 9878 3c60 2370     		strb	r3, [r4, #0]
 9879 3c62 2548     		ldr	r0, .L289+12
 9880 3c64 FFF7FEFF 		bl	uart_transmit
 9881              	.LVL1582:
 9882              	.LBE693:
 9883              	.LBB694:
 9884 3c68 F178     		ldrb	r1, [r6, #3]	@ zero_extendqisi2
 9885              	.LVL1583:
 9886 3c6a 2B78     		ldrb	r3, [r5, #0]	@ zero_extendqisi2
 9887 3c6c 2278     		ldrb	r2, [r4, #0]	@ zero_extendqisi2
 9888 3c6e CB18     		adds	r3, r1, r3
 9889 3c70 DBB2     		uxtb	r3, r3
 9890              	.LBE694:
 9891              	.LBB695:
 9892 3c72 294E     		ldr	r6, .L289+44
 9893              	.LVL1584:
 9894              	.LBE695:
 9895              	.LBB696:
 9896 3c74 2B70     		strb	r3, [r5, #0]
 9897 3c76 9B18     		adds	r3, r3, r2
 9898              	.LVL1585:
 9899 3c78 2370     		strb	r3, [r4, #0]
 9900 3c7a 1F48     		ldr	r0, .L289+12
 9901 3c7c FFF7FEFF 		bl	uart_transmit
 9902              	.LVL1586:
 9903              	.LBE696:
 9904              	.LBB697:
 9905 3c80 3178     		ldrb	r1, [r6, #0]	@ zero_extendqisi2
 9906              	.LVL1587:
 9907 3c82 2B78     		ldrb	r3, [r5, #0]	@ zero_extendqisi2
 9908 3c84 2278     		ldrb	r2, [r4, #0]	@ zero_extendqisi2
 9909 3c86 CB18     		adds	r3, r1, r3
 9910 3c88 DBB2     		uxtb	r3, r3
 9911              	.LVL1588:
 9912 3c8a 2B70     		strb	r3, [r5, #0]
 9913 3c8c 9B18     		adds	r3, r3, r2
 9914              	.LVL1589:
 9915 3c8e 2370     		strb	r3, [r4, #0]
 9916 3c90 1948     		ldr	r0, .L289+12
 9917 3c92 FFF7FEFF 		bl	uart_transmit
 9918              	.LVL1590:
 9919              	.LBE697:
 9920              	.LBB698:
 9921 3c96 7178     		ldrb	r1, [r6, #1]	@ zero_extendqisi2
 9922              	.LVL1591:
 9923 3c98 2B78     		ldrb	r3, [r5, #0]	@ zero_extendqisi2
 9924 3c9a 2278     		ldrb	r2, [r4, #0]	@ zero_extendqisi2
 9925 3c9c CB18     		adds	r3, r1, r3
 9926 3c9e DBB2     		uxtb	r3, r3
 9927              	.LVL1592:
 9928 3ca0 2B70     		strb	r3, [r5, #0]
 9929 3ca2 9B18     		adds	r3, r3, r2
 9930              	.LVL1593:
 9931 3ca4 2370     		strb	r3, [r4, #0]
 9932 3ca6 1448     		ldr	r0, .L289+12
 9933 3ca8 FFF7FEFF 		bl	uart_transmit
 9934              	.LVL1594:
 9935              	.LBE698:
 9936              	.LBB699:
 9937 3cac B178     		ldrb	r1, [r6, #2]	@ zero_extendqisi2
 9938              	.LVL1595:
 9939 3cae 2B78     		ldrb	r3, [r5, #0]	@ zero_extendqisi2
 9940 3cb0 2278     		ldrb	r2, [r4, #0]	@ zero_extendqisi2
 9941 3cb2 CB18     		adds	r3, r1, r3
 9942 3cb4 DBB2     		uxtb	r3, r3
 9943              	.LVL1596:
 9944 3cb6 2B70     		strb	r3, [r5, #0]
 9945 3cb8 9B18     		adds	r3, r3, r2
 9946              	.LVL1597:
 9947 3cba 2370     		strb	r3, [r4, #0]
 9948 3cbc 0E48     		ldr	r0, .L289+12
 9949 3cbe FFF7FEFF 		bl	uart_transmit
 9950              	.LVL1598:
 9951              	.LBE699:
 9952              	.LBB700:
 9953 3cc2 F178     		ldrb	r1, [r6, #3]	@ zero_extendqisi2
 9954              	.LVL1599:
 9955 3cc4 2B78     		ldrb	r3, [r5, #0]	@ zero_extendqisi2
 9956 3cc6 2278     		ldrb	r2, [r4, #0]	@ zero_extendqisi2
 9957 3cc8 CB18     		adds	r3, r1, r3
 9958 3cca DBB2     		uxtb	r3, r3
 9959              	.LVL1600:
 9960 3ccc 2B70     		strb	r3, [r5, #0]
 9961 3cce 9B18     		adds	r3, r3, r2
 9962              	.LVL1601:
 9963 3cd0 2370     		strb	r3, [r4, #0]
 9964 3cd2 0948     		ldr	r0, .L289+12
 9965 3cd4 FFF7FEFF 		bl	uart_transmit
 9966              	.LVL1602:
 9967              	.LBE700:
 9968 3cd8 2978     		ldrb	r1, [r5, #0]	@ zero_extendqisi2
 9969 3cda 0748     		ldr	r0, .L289+12
 9970 3cdc FFF7FEFF 		bl	uart_transmit
 9971 3ce0 0548     		ldr	r0, .L289+12
 9972 3ce2 2178     		ldrb	r1, [r4, #0]	@ zero_extendqisi2
 9973 3ce4 FFF7FEFF 		bl	uart_transmit
 9974 3ce8 1CE0     		b	.L144
 9975              	.L290:
 9976 3cea 00BF     		.align	2
 9977              	.L289:
 9978 3cec 00000000 		.word	downlink_nb_ovrn
 9979 3cf0 00000000 		.word	.LANCHOR44
 9980 3cf4 00000000 		.word	nav_in_segment
 9981 3cf8 00000000 		.word	uart2
 9982 3cfc 00000000 		.word	downlink_nb_bytes
 9983 3d00 00000000 		.word	downlink_nb_msgs
 9984 3d04 00000000 		.word	ck_a
 9985 3d08 00000000 		.word	ck_b
 9986 3d0c 00000000 		.word	nav_segment_x_1
 9987 3d10 00000000 		.word	nav_segment_y_1
 9988 3d14 00000000 		.word	nav_segment_x_2
 9989 3d18 00000000 		.word	nav_segment_y_2
 9990              	.LVL1603:
 9991              	.L145:
 9992              		.loc 1 422 0 discriminator 223
 9993 3d1c 624B     		ldr	r3, .L291
 9994 3d1e 1A78     		ldrb	r2, [r3, #0]	@ zero_extendqisi2
 9995 3d20 0132     		adds	r2, r2, #1
 9996 3d22 1A70     		strb	r2, [r3, #0]
 9997              	.L144:
 9998              		.loc 1 422 0 discriminator 220
 9999 3d24 614B     		ldr	r3, .L291+4
 10000 3d26 1B78     		ldrb	r3, [r3, #0]	@ zero_extendqisi2
 10001 3d28 362B     		cmp	r3, #54
 10002 3d2a 40F0D580 		bne	.L146
 10003              		.loc 1 422 0 discriminator 224
 10004 3d2e 6048     		ldr	r0, .L291+8
 10005 3d30 1221     		movs	r1, #18
 10006 3d32 FFF7FEFF 		bl	uart_check_free_space
 10007 3d36 0028     		cmp	r0, #0
 10008 3d38 00F0CA80 		beq	.L147
 10009              		.loc 1 422 0 discriminator 226
 10010 3d3c 5D4B     		ldr	r3, .L291+12
 10011              	.LBB701:
 10012 3d3e 9921     		movs	r1, #153
 10013              	.LBE701:
 10014 3d40 1A88     		ldrh	r2, [r3, #0]
 10015              	.LBB702:
 10016 3d42 5B48     		ldr	r0, .L291+8
 10017              	.LBE702:
 10018 3d44 1232     		adds	r2, r2, #18
 10019 3d46 1A80     		strh	r2, [r3, #0]	@ movhi
 10020 3d48 5B4B     		ldr	r3, .L291+16
 10021 3d4a 5C4D     		ldr	r5, .L291+20
 10022 3d4c 1A88     		ldrh	r2, [r3, #0]
 10023 3d4e 5C4C     		ldr	r4, .L291+24
 10024 3d50 0132     		adds	r2, r2, #1
 10025 3d52 1A80     		strh	r2, [r3, #0]	@ movhi
 10026              	.LBB703:
 10027 3d54 FFF7FEFF 		bl	uart_transmit
 10028              	.LVL1604:
 10029 3d58 1221     		movs	r1, #18
 10030 3d5a 5548     		ldr	r0, .L291+8
 10031 3d5c FFF7FEFF 		bl	uart_transmit
 10032              	.LBE703:
 10033 3d60 1323     		movs	r3, #19
 10034 3d62 2B70     		strb	r3, [r5, #0]
 10035 3d64 2523     		movs	r3, #37
 10036 3d66 2370     		strb	r3, [r4, #0]
 10037 3d68 0121     		movs	r1, #1
 10038 3d6a 5148     		ldr	r0, .L291+8
 10039 3d6c FFF7FEFF 		bl	uart_transmit
 10040 3d70 2B78     		ldrb	r3, [r5, #0]	@ zero_extendqisi2
 10041 3d72 2278     		ldrb	r2, [r4, #0]	@ zero_extendqisi2
 10042 3d74 0633     		adds	r3, r3, #6
 10043 3d76 DBB2     		uxtb	r3, r3
 10044              	.LBB704:
 10045 3d78 524E     		ldr	r6, .L291+28
 10046              	.LBE704:
 10047 3d7a 2B70     		strb	r3, [r5, #0]
 10048 3d7c 9B18     		adds	r3, r3, r2
 10049 3d7e 2370     		strb	r3, [r4, #0]
 10050 3d80 0621     		movs	r1, #6
 10051 3d82 4B48     		ldr	r0, .L291+8
 10052 3d84 FFF7FEFF 		bl	uart_transmit
 10053              	.LBB705:
 10054 3d88 3178     		ldrb	r1, [r6, #0]	@ zero_extendqisi2
 10055              	.LVL1605:
 10056 3d8a 2B78     		ldrb	r3, [r5, #0]	@ zero_extendqisi2
 10057 3d8c 2278     		ldrb	r2, [r4, #0]	@ zero_extendqisi2
 10058 3d8e CB18     		adds	r3, r1, r3
 10059 3d90 DBB2     		uxtb	r3, r3
 10060              	.LVL1606:
 10061 3d92 2B70     		strb	r3, [r5, #0]
 10062 3d94 9B18     		adds	r3, r3, r2
 10063              	.LVL1607:
 10064 3d96 2370     		strb	r3, [r4, #0]
 10065 3d98 4548     		ldr	r0, .L291+8
 10066 3d9a FFF7FEFF 		bl	uart_transmit
 10067              	.LVL1608:
 10068              	.LBE705:
 10069              	.LBB706:
 10070 3d9e 7178     		ldrb	r1, [r6, #1]	@ zero_extendqisi2
 10071              	.LVL1609:
 10072 3da0 2B78     		ldrb	r3, [r5, #0]	@ zero_extendqisi2
 10073 3da2 2278     		ldrb	r2, [r4, #0]	@ zero_extendqisi2
 10074 3da4 CB18     		adds	r3, r1, r3
 10075 3da6 DBB2     		uxtb	r3, r3
 10076              	.LVL1610:
 10077 3da8 2B70     		strb	r3, [r5, #0]
 10078 3daa 9B18     		adds	r3, r3, r2
 10079              	.LVL1611:
 10080 3dac 2370     		strb	r3, [r4, #0]
 10081 3dae 4048     		ldr	r0, .L291+8
 10082 3db0 FFF7FEFF 		bl	uart_transmit
 10083              	.LVL1612:
 10084              	.LBE706:
 10085              	.LBB707:
 10086 3db4 B178     		ldrb	r1, [r6, #2]	@ zero_extendqisi2
 10087              	.LVL1613:
 10088 3db6 2B78     		ldrb	r3, [r5, #0]	@ zero_extendqisi2
 10089 3db8 2278     		ldrb	r2, [r4, #0]	@ zero_extendqisi2
 10090 3dba CB18     		adds	r3, r1, r3
 10091 3dbc DBB2     		uxtb	r3, r3
 10092              	.LVL1614:
 10093 3dbe 2B70     		strb	r3, [r5, #0]
 10094 3dc0 9B18     		adds	r3, r3, r2
 10095              	.LVL1615:
 10096 3dc2 2370     		strb	r3, [r4, #0]
 10097 3dc4 3A48     		ldr	r0, .L291+8
 10098 3dc6 FFF7FEFF 		bl	uart_transmit
 10099              	.LVL1616:
 10100              	.LBE707:
 10101              	.LBB708:
 10102 3dca F178     		ldrb	r1, [r6, #3]	@ zero_extendqisi2
 10103              	.LVL1617:
 10104 3dcc 2B78     		ldrb	r3, [r5, #0]	@ zero_extendqisi2
 10105 3dce 2278     		ldrb	r2, [r4, #0]	@ zero_extendqisi2
 10106 3dd0 CB18     		adds	r3, r1, r3
 10107 3dd2 DBB2     		uxtb	r3, r3
 10108              	.LBE708:
 10109              	.LBB709:
 10110 3dd4 3C4E     		ldr	r6, .L291+32
 10111              	.LVL1618:
 10112              	.LBE709:
 10113              	.LBB710:
 10114 3dd6 2B70     		strb	r3, [r5, #0]
 10115 3dd8 9B18     		adds	r3, r3, r2
 10116              	.LVL1619:
 10117 3dda 2370     		strb	r3, [r4, #0]
 10118 3ddc 3448     		ldr	r0, .L291+8
 10119 3dde FFF7FEFF 		bl	uart_transmit
 10120              	.LVL1620:
 10121              	.LBE710:
 10122              	.LBB711:
 10123 3de2 3178     		ldrb	r1, [r6, #0]	@ zero_extendqisi2
 10124              	.LVL1621:
 10125 3de4 2B78     		ldrb	r3, [r5, #0]	@ zero_extendqisi2
 10126 3de6 2278     		ldrb	r2, [r4, #0]	@ zero_extendqisi2
 10127 3de8 CB18     		adds	r3, r1, r3
 10128 3dea DBB2     		uxtb	r3, r3
 10129              	.LVL1622:
 10130 3dec 2B70     		strb	r3, [r5, #0]
 10131 3dee 9B18     		adds	r3, r3, r2
 10132              	.LVL1623:
 10133 3df0 2370     		strb	r3, [r4, #0]
 10134 3df2 2F48     		ldr	r0, .L291+8
 10135 3df4 FFF7FEFF 		bl	uart_transmit
 10136              	.LVL1624:
 10137              	.LBE711:
 10138              	.LBB712:
 10139 3df8 7178     		ldrb	r1, [r6, #1]	@ zero_extendqisi2
 10140              	.LVL1625:
 10141 3dfa 2B78     		ldrb	r3, [r5, #0]	@ zero_extendqisi2
 10142 3dfc 2278     		ldrb	r2, [r4, #0]	@ zero_extendqisi2
 10143 3dfe CB18     		adds	r3, r1, r3
 10144 3e00 DBB2     		uxtb	r3, r3
 10145              	.LVL1626:
 10146 3e02 2B70     		strb	r3, [r5, #0]
 10147 3e04 9B18     		adds	r3, r3, r2
 10148              	.LVL1627:
 10149 3e06 2370     		strb	r3, [r4, #0]
 10150 3e08 2948     		ldr	r0, .L291+8
 10151 3e0a FFF7FEFF 		bl	uart_transmit
 10152              	.LVL1628:
 10153              	.LBE712:
 10154              	.LBB713:
 10155 3e0e B178     		ldrb	r1, [r6, #2]	@ zero_extendqisi2
 10156              	.LVL1629:
 10157 3e10 2B78     		ldrb	r3, [r5, #0]	@ zero_extendqisi2
 10158 3e12 2278     		ldrb	r2, [r4, #0]	@ zero_extendqisi2
 10159 3e14 CB18     		adds	r3, r1, r3
 10160 3e16 DBB2     		uxtb	r3, r3
 10161              	.LVL1630:
 10162 3e18 2B70     		strb	r3, [r5, #0]
 10163 3e1a 9B18     		adds	r3, r3, r2
 10164              	.LVL1631:
 10165 3e1c 2370     		strb	r3, [r4, #0]
 10166 3e1e 2448     		ldr	r0, .L291+8
 10167 3e20 FFF7FEFF 		bl	uart_transmit
 10168              	.LVL1632:
 10169              	.LBE713:
 10170              	.LBB714:
 10171 3e24 F178     		ldrb	r1, [r6, #3]	@ zero_extendqisi2
 10172              	.LVL1633:
 10173 3e26 2B78     		ldrb	r3, [r5, #0]	@ zero_extendqisi2
 10174 3e28 2278     		ldrb	r2, [r4, #0]	@ zero_extendqisi2
 10175 3e2a CB18     		adds	r3, r1, r3
 10176 3e2c DBB2     		uxtb	r3, r3
 10177              	.LBE714:
 10178              	.LBB715:
 10179 3e2e 274E     		ldr	r6, .L291+36
 10180              	.LVL1634:
 10181              	.LBE715:
 10182              	.LBB716:
 10183 3e30 2B70     		strb	r3, [r5, #0]
 10184 3e32 9B18     		adds	r3, r3, r2
 10185              	.LVL1635:
 10186 3e34 2370     		strb	r3, [r4, #0]
 10187 3e36 1E48     		ldr	r0, .L291+8
 10188 3e38 FFF7FEFF 		bl	uart_transmit
 10189              	.LVL1636:
 10190              	.LBE716:
 10191              	.LBB717:
 10192 3e3c 3178     		ldrb	r1, [r6, #0]	@ zero_extendqisi2
 10193              	.LVL1637:
 10194 3e3e 2B78     		ldrb	r3, [r5, #0]	@ zero_extendqisi2
 10195 3e40 2278     		ldrb	r2, [r4, #0]	@ zero_extendqisi2
 10196 3e42 CB18     		adds	r3, r1, r3
 10197 3e44 DBB2     		uxtb	r3, r3
 10198              	.LVL1638:
 10199 3e46 2B70     		strb	r3, [r5, #0]
 10200 3e48 9B18     		adds	r3, r3, r2
 10201              	.LVL1639:
 10202 3e4a 2370     		strb	r3, [r4, #0]
 10203 3e4c 1848     		ldr	r0, .L291+8
 10204 3e4e FFF7FEFF 		bl	uart_transmit
 10205              	.LVL1640:
 10206              	.LBE717:
 10207              	.LBB718:
 10208 3e52 7178     		ldrb	r1, [r6, #1]	@ zero_extendqisi2
 10209              	.LVL1641:
 10210 3e54 2B78     		ldrb	r3, [r5, #0]	@ zero_extendqisi2
 10211 3e56 2278     		ldrb	r2, [r4, #0]	@ zero_extendqisi2
 10212 3e58 CB18     		adds	r3, r1, r3
 10213 3e5a DBB2     		uxtb	r3, r3
 10214              	.LVL1642:
 10215 3e5c 2B70     		strb	r3, [r5, #0]
 10216 3e5e 9B18     		adds	r3, r3, r2
 10217              	.LVL1643:
 10218 3e60 2370     		strb	r3, [r4, #0]
 10219 3e62 1348     		ldr	r0, .L291+8
 10220 3e64 FFF7FEFF 		bl	uart_transmit
 10221              	.LVL1644:
 10222              	.LBE718:
 10223              	.LBB719:
 10224 3e68 B178     		ldrb	r1, [r6, #2]	@ zero_extendqisi2
 10225              	.LVL1645:
 10226 3e6a 2B78     		ldrb	r3, [r5, #0]	@ zero_extendqisi2
 10227 3e6c 2278     		ldrb	r2, [r4, #0]	@ zero_extendqisi2
 10228 3e6e CB18     		adds	r3, r1, r3
 10229 3e70 DBB2     		uxtb	r3, r3
 10230              	.LVL1646:
 10231 3e72 2B70     		strb	r3, [r5, #0]
 10232 3e74 9B18     		adds	r3, r3, r2
 10233              	.LVL1647:
 10234 3e76 2370     		strb	r3, [r4, #0]
 10235 3e78 0D48     		ldr	r0, .L291+8
 10236 3e7a FFF7FEFF 		bl	uart_transmit
 10237              	.LVL1648:
 10238              	.LBE719:
 10239              	.LBB720:
 10240 3e7e F178     		ldrb	r1, [r6, #3]	@ zero_extendqisi2
 10241              	.LVL1649:
 10242 3e80 2B78     		ldrb	r3, [r5, #0]	@ zero_extendqisi2
 10243 3e82 2278     		ldrb	r2, [r4, #0]	@ zero_extendqisi2
 10244 3e84 CB18     		adds	r3, r1, r3
 10245 3e86 DBB2     		uxtb	r3, r3
 10246              	.LVL1650:
 10247 3e88 2B70     		strb	r3, [r5, #0]
 10248 3e8a 9B18     		adds	r3, r3, r2
 10249              	.LVL1651:
 10250 3e8c 2370     		strb	r3, [r4, #0]
 10251 3e8e 0848     		ldr	r0, .L291+8
 10252 3e90 FFF7FEFF 		bl	uart_transmit
 10253              	.LVL1652:
 10254              	.LBE720:
 10255 3e94 2978     		ldrb	r1, [r5, #0]	@ zero_extendqisi2
 10256 3e96 0648     		ldr	r0, .L291+8
 10257 3e98 FFF7FEFF 		bl	uart_transmit
 10258 3e9c 0448     		ldr	r0, .L291+8
 10259 3e9e 2178     		ldrb	r1, [r4, #0]	@ zero_extendqisi2
 10260 3ea0 FFF7FEFF 		bl	uart_transmit
 10261 3ea4 18E0     		b	.L146
 10262              	.L292:
 10263 3ea6 00BF     		.align	2
 10264              	.L291:
 10265 3ea8 00000000 		.word	downlink_nb_ovrn
 10266 3eac 00000000 		.word	.LANCHOR45
 10267 3eb0 00000000 		.word	uart2
 10268 3eb4 00000000 		.word	downlink_nb_bytes
 10269 3eb8 00000000 		.word	downlink_nb_msgs
 10270 3ebc 00000000 		.word	ck_a
 10271 3ec0 00000000 		.word	ck_b
 10272 3ec4 00000000 		.word	estimator_phi
 10273 3ec8 00000000 		.word	estimator_psi
 10274 3ecc 00000000 		.word	estimator_theta
 10275              	.LVL1653:
 10276              	.L147:
 10277              		.loc 1 422 0 discriminator 227
 10278 3ed0 9C4B     		ldr	r3, .L293
 10279 3ed2 1A78     		ldrb	r2, [r3, #0]	@ zero_extendqisi2
 10280 3ed4 0132     		adds	r2, r2, #1
 10281 3ed6 1A70     		strb	r2, [r3, #0]
 10282              	.L146:
 10283              		.loc 1 422 0 discriminator 225
 10284 3ed8 9B4B     		ldr	r3, .L293+4
 10285 3eda 1B78     		ldrb	r3, [r3, #0]	@ zero_extendqisi2
 10286 3edc 3C2B     		cmp	r3, #60
 10287 3ede 40F08F81 		bne	.L148
 10288              		.loc 1 422 0 discriminator 228
 10289 3ee2 9A48     		ldr	r0, .L293+8
 10290 3ee4 2221     		movs	r1, #34
 10291 3ee6 FFF7FEFF 		bl	uart_check_free_space
 10292 3eea 0028     		cmp	r0, #0
 10293 3eec 00F08481 		beq	.L149
 10294              		.loc 1 422 0 discriminator 230
 10295 3ef0 974B     		ldr	r3, .L293+12
 10296              	.LBB721:
 10297 3ef2 9921     		movs	r1, #153
 10298              	.LBE721:
 10299 3ef4 1A88     		ldrh	r2, [r3, #0]
 10300              	.LBB722:
 10301 3ef6 9548     		ldr	r0, .L293+8
 10302              	.LBE722:
 10303 3ef8 2232     		adds	r2, r2, #34
 10304 3efa 1A80     		strh	r2, [r3, #0]	@ movhi
 10305 3efc 954B     		ldr	r3, .L293+16
 10306 3efe 964D     		ldr	r5, .L293+20
 10307 3f00 1A88     		ldrh	r2, [r3, #0]
 10308 3f02 964C     		ldr	r4, .L293+24
 10309 3f04 0132     		adds	r2, r2, #1
 10310 3f06 1A80     		strh	r2, [r3, #0]	@ movhi
 10311              	.LBB723:
 10312 3f08 FFF7FEFF 		bl	uart_transmit
 10313              	.LVL1654:
 10314 3f0c 2221     		movs	r1, #34
 10315 3f0e 8F48     		ldr	r0, .L293+8
 10316 3f10 FFF7FEFF 		bl	uart_transmit
 10317              	.LBE723:
 10318 3f14 2323     		movs	r3, #35
 10319 3f16 2B70     		strb	r3, [r5, #0]
 10320 3f18 4523     		movs	r3, #69
 10321 3f1a 2370     		strb	r3, [r4, #0]
 10322 3f1c 0121     		movs	r1, #1
 10323 3f1e 8B48     		ldr	r0, .L293+8
 10324 3f20 FFF7FEFF 		bl	uart_transmit
 10325 3f24 2B78     		ldrb	r3, [r5, #0]	@ zero_extendqisi2
 10326 3f26 2278     		ldrb	r2, [r4, #0]	@ zero_extendqisi2
 10327 3f28 1033     		adds	r3, r3, #16
 10328 3f2a DBB2     		uxtb	r3, r3
 10329              	.LBB724:
 10330 3f2c 8C4E     		ldr	r6, .L293+28
 10331              	.LBE724:
 10332 3f2e 2B70     		strb	r3, [r5, #0]
 10333 3f30 9B18     		adds	r3, r3, r2
 10334 3f32 2370     		strb	r3, [r4, #0]
 10335 3f34 1021     		movs	r1, #16
 10336 3f36 8548     		ldr	r0, .L293+8
 10337 3f38 FFF7FEFF 		bl	uart_transmit
 10338              	.LBB725:
 10339 3f3c 3178     		ldrb	r1, [r6, #0]	@ zero_extendqisi2
 10340              	.LVL1655:
 10341 3f3e 2B78     		ldrb	r3, [r5, #0]	@ zero_extendqisi2
 10342 3f40 2278     		ldrb	r2, [r4, #0]	@ zero_extendqisi2
 10343 3f42 CB18     		adds	r3, r1, r3
 10344 3f44 DBB2     		uxtb	r3, r3
 10345              	.LVL1656:
 10346 3f46 2B70     		strb	r3, [r5, #0]
 10347 3f48 9B18     		adds	r3, r3, r2
 10348              	.LVL1657:
 10349 3f4a 2370     		strb	r3, [r4, #0]
 10350 3f4c 7F48     		ldr	r0, .L293+8
 10351 3f4e FFF7FEFF 		bl	uart_transmit
 10352              	.LVL1658:
 10353              	.LBE725:
 10354              	.LBB726:
 10355 3f52 7178     		ldrb	r1, [r6, #1]	@ zero_extendqisi2
 10356              	.LVL1659:
 10357 3f54 2B78     		ldrb	r3, [r5, #0]	@ zero_extendqisi2
 10358 3f56 2278     		ldrb	r2, [r4, #0]	@ zero_extendqisi2
 10359 3f58 CB18     		adds	r3, r1, r3
 10360 3f5a DBB2     		uxtb	r3, r3
 10361              	.LVL1660:
 10362 3f5c 2B70     		strb	r3, [r5, #0]
 10363 3f5e 9B18     		adds	r3, r3, r2
 10364              	.LVL1661:
 10365 3f60 2370     		strb	r3, [r4, #0]
 10366 3f62 7A48     		ldr	r0, .L293+8
 10367 3f64 FFF7FEFF 		bl	uart_transmit
 10368              	.LVL1662:
 10369              	.LBE726:
 10370              	.LBB727:
 10371 3f68 B178     		ldrb	r1, [r6, #2]	@ zero_extendqisi2
 10372              	.LVL1663:
 10373 3f6a 2B78     		ldrb	r3, [r5, #0]	@ zero_extendqisi2
 10374 3f6c 2278     		ldrb	r2, [r4, #0]	@ zero_extendqisi2
 10375 3f6e CB18     		adds	r3, r1, r3
 10376 3f70 DBB2     		uxtb	r3, r3
 10377              	.LVL1664:
 10378 3f72 2B70     		strb	r3, [r5, #0]
 10379 3f74 9B18     		adds	r3, r3, r2
 10380              	.LVL1665:
 10381 3f76 2370     		strb	r3, [r4, #0]
 10382 3f78 7448     		ldr	r0, .L293+8
 10383 3f7a FFF7FEFF 		bl	uart_transmit
 10384              	.LVL1666:
 10385              	.LBE727:
 10386              	.LBB728:
 10387 3f7e F178     		ldrb	r1, [r6, #3]	@ zero_extendqisi2
 10388              	.LVL1667:
 10389 3f80 2B78     		ldrb	r3, [r5, #0]	@ zero_extendqisi2
 10390 3f82 2278     		ldrb	r2, [r4, #0]	@ zero_extendqisi2
 10391 3f84 CB18     		adds	r3, r1, r3
 10392 3f86 DBB2     		uxtb	r3, r3
 10393              	.LBE728:
 10394              	.LBB729:
 10395 3f88 764E     		ldr	r6, .L293+32
 10396              	.LVL1668:
 10397              	.LBE729:
 10398              	.LBB730:
 10399 3f8a 2B70     		strb	r3, [r5, #0]
 10400 3f8c 9B18     		adds	r3, r3, r2
 10401              	.LVL1669:
 10402 3f8e 2370     		strb	r3, [r4, #0]
 10403 3f90 6E48     		ldr	r0, .L293+8
 10404 3f92 FFF7FEFF 		bl	uart_transmit
 10405              	.LVL1670:
 10406              	.LBE730:
 10407              	.LBB731:
 10408 3f96 3178     		ldrb	r1, [r6, #0]	@ zero_extendqisi2
 10409              	.LVL1671:
 10410 3f98 2B78     		ldrb	r3, [r5, #0]	@ zero_extendqisi2
 10411 3f9a 2278     		ldrb	r2, [r4, #0]	@ zero_extendqisi2
 10412 3f9c CB18     		adds	r3, r1, r3
 10413 3f9e DBB2     		uxtb	r3, r3
 10414              	.LVL1672:
 10415 3fa0 2B70     		strb	r3, [r5, #0]
 10416 3fa2 9B18     		adds	r3, r3, r2
 10417              	.LVL1673:
 10418 3fa4 2370     		strb	r3, [r4, #0]
 10419 3fa6 6948     		ldr	r0, .L293+8
 10420 3fa8 FFF7FEFF 		bl	uart_transmit
 10421              	.LVL1674:
 10422              	.LBE731:
 10423              	.LBB732:
 10424 3fac 7178     		ldrb	r1, [r6, #1]	@ zero_extendqisi2
 10425              	.LVL1675:
 10426 3fae 2B78     		ldrb	r3, [r5, #0]	@ zero_extendqisi2
 10427 3fb0 2278     		ldrb	r2, [r4, #0]	@ zero_extendqisi2
 10428 3fb2 CB18     		adds	r3, r1, r3
 10429 3fb4 DBB2     		uxtb	r3, r3
 10430              	.LVL1676:
 10431 3fb6 2B70     		strb	r3, [r5, #0]
 10432 3fb8 9B18     		adds	r3, r3, r2
 10433              	.LVL1677:
 10434 3fba 2370     		strb	r3, [r4, #0]
 10435 3fbc 6348     		ldr	r0, .L293+8
 10436 3fbe FFF7FEFF 		bl	uart_transmit
 10437              	.LVL1678:
 10438              	.LBE732:
 10439              	.LBB733:
 10440 3fc2 B178     		ldrb	r1, [r6, #2]	@ zero_extendqisi2
 10441              	.LVL1679:
 10442 3fc4 2B78     		ldrb	r3, [r5, #0]	@ zero_extendqisi2
 10443 3fc6 2278     		ldrb	r2, [r4, #0]	@ zero_extendqisi2
 10444 3fc8 CB18     		adds	r3, r1, r3
 10445 3fca DBB2     		uxtb	r3, r3
 10446              	.LVL1680:
 10447 3fcc 2B70     		strb	r3, [r5, #0]
 10448 3fce 9B18     		adds	r3, r3, r2
 10449              	.LVL1681:
 10450 3fd0 2370     		strb	r3, [r4, #0]
 10451 3fd2 5E48     		ldr	r0, .L293+8
 10452 3fd4 FFF7FEFF 		bl	uart_transmit
 10453              	.LVL1682:
 10454              	.LBE733:
 10455              	.LBB734:
 10456 3fd8 F178     		ldrb	r1, [r6, #3]	@ zero_extendqisi2
 10457              	.LVL1683:
 10458 3fda 2B78     		ldrb	r3, [r5, #0]	@ zero_extendqisi2
 10459 3fdc 2278     		ldrb	r2, [r4, #0]	@ zero_extendqisi2
 10460 3fde CB18     		adds	r3, r1, r3
 10461 3fe0 DBB2     		uxtb	r3, r3
 10462              	.LBE734:
 10463              	.LBB735:
 10464 3fe2 614E     		ldr	r6, .L293+36
 10465              	.LVL1684:
 10466              	.LBE735:
 10467              	.LBB736:
 10468 3fe4 2B70     		strb	r3, [r5, #0]
 10469 3fe6 9B18     		adds	r3, r3, r2
 10470              	.LVL1685:
 10471 3fe8 2370     		strb	r3, [r4, #0]
 10472 3fea 5848     		ldr	r0, .L293+8
 10473 3fec FFF7FEFF 		bl	uart_transmit
 10474              	.LVL1686:
 10475              	.LBE736:
 10476              	.LBB737:
 10477 3ff0 3178     		ldrb	r1, [r6, #0]	@ zero_extendqisi2
 10478              	.LVL1687:
 10479 3ff2 2B78     		ldrb	r3, [r5, #0]	@ zero_extendqisi2
 10480 3ff4 2278     		ldrb	r2, [r4, #0]	@ zero_extendqisi2
 10481 3ff6 CB18     		adds	r3, r1, r3
 10482 3ff8 DBB2     		uxtb	r3, r3
 10483              	.LVL1688:
 10484 3ffa 2B70     		strb	r3, [r5, #0]
 10485 3ffc 9B18     		adds	r3, r3, r2
 10486              	.LVL1689:
 10487 3ffe 2370     		strb	r3, [r4, #0]
 10488 4000 5248     		ldr	r0, .L293+8
 10489 4002 FFF7FEFF 		bl	uart_transmit
 10490              	.LVL1690:
 10491              	.LBE737:
 10492              	.LBB738:
 10493 4006 7178     		ldrb	r1, [r6, #1]	@ zero_extendqisi2
 10494              	.LVL1691:
 10495 4008 2B78     		ldrb	r3, [r5, #0]	@ zero_extendqisi2
 10496 400a 2278     		ldrb	r2, [r4, #0]	@ zero_extendqisi2
 10497 400c CB18     		adds	r3, r1, r3
 10498 400e DBB2     		uxtb	r3, r3
 10499              	.LVL1692:
 10500 4010 2B70     		strb	r3, [r5, #0]
 10501 4012 9B18     		adds	r3, r3, r2
 10502              	.LVL1693:
 10503 4014 2370     		strb	r3, [r4, #0]
 10504 4016 4D48     		ldr	r0, .L293+8
 10505 4018 FFF7FEFF 		bl	uart_transmit
 10506              	.LVL1694:
 10507              	.LBE738:
 10508              	.LBB739:
 10509 401c B178     		ldrb	r1, [r6, #2]	@ zero_extendqisi2
 10510              	.LVL1695:
 10511 401e 2B78     		ldrb	r3, [r5, #0]	@ zero_extendqisi2
 10512 4020 2278     		ldrb	r2, [r4, #0]	@ zero_extendqisi2
 10513 4022 CB18     		adds	r3, r1, r3
 10514 4024 DBB2     		uxtb	r3, r3
 10515              	.LVL1696:
 10516 4026 2B70     		strb	r3, [r5, #0]
 10517 4028 9B18     		adds	r3, r3, r2
 10518              	.LVL1697:
 10519 402a 2370     		strb	r3, [r4, #0]
 10520 402c 4748     		ldr	r0, .L293+8
 10521 402e FFF7FEFF 		bl	uart_transmit
 10522              	.LVL1698:
 10523              	.LBE739:
 10524              	.LBB740:
 10525 4032 F178     		ldrb	r1, [r6, #3]	@ zero_extendqisi2
 10526              	.LVL1699:
 10527 4034 2B78     		ldrb	r3, [r5, #0]	@ zero_extendqisi2
 10528 4036 2278     		ldrb	r2, [r4, #0]	@ zero_extendqisi2
 10529 4038 CB18     		adds	r3, r1, r3
 10530 403a DBB2     		uxtb	r3, r3
 10531              	.LBE740:
 10532              	.LBB741:
 10533 403c 4B4E     		ldr	r6, .L293+40
 10534              	.LVL1700:
 10535              	.LBE741:
 10536              	.LBB742:
 10537 403e 2B70     		strb	r3, [r5, #0]
 10538 4040 9B18     		adds	r3, r3, r2
 10539              	.LVL1701:
 10540 4042 2370     		strb	r3, [r4, #0]
 10541 4044 4148     		ldr	r0, .L293+8
 10542 4046 FFF7FEFF 		bl	uart_transmit
 10543              	.LVL1702:
 10544              	.LBE742:
 10545              	.LBB743:
 10546 404a 3178     		ldrb	r1, [r6, #0]	@ zero_extendqisi2
 10547              	.LVL1703:
 10548 404c 2B78     		ldrb	r3, [r5, #0]	@ zero_extendqisi2
 10549 404e 2278     		ldrb	r2, [r4, #0]	@ zero_extendqisi2
 10550 4050 CB18     		adds	r3, r1, r3
 10551 4052 DBB2     		uxtb	r3, r3
 10552              	.LVL1704:
 10553 4054 2B70     		strb	r3, [r5, #0]
 10554 4056 9B18     		adds	r3, r3, r2
 10555              	.LVL1705:
 10556 4058 2370     		strb	r3, [r4, #0]
 10557 405a 3C48     		ldr	r0, .L293+8
 10558 405c FFF7FEFF 		bl	uart_transmit
 10559              	.LVL1706:
 10560              	.LBE743:
 10561              	.LBB744:
 10562 4060 7178     		ldrb	r1, [r6, #1]	@ zero_extendqisi2
 10563              	.LVL1707:
 10564 4062 2B78     		ldrb	r3, [r5, #0]	@ zero_extendqisi2
 10565 4064 2278     		ldrb	r2, [r4, #0]	@ zero_extendqisi2
 10566 4066 CB18     		adds	r3, r1, r3
 10567 4068 DBB2     		uxtb	r3, r3
 10568              	.LVL1708:
 10569 406a 2B70     		strb	r3, [r5, #0]
 10570 406c 9B18     		adds	r3, r3, r2
 10571              	.LVL1709:
 10572 406e 2370     		strb	r3, [r4, #0]
 10573 4070 3648     		ldr	r0, .L293+8
 10574 4072 FFF7FEFF 		bl	uart_transmit
 10575              	.LVL1710:
 10576              	.LBE744:
 10577              	.LBB745:
 10578 4076 B178     		ldrb	r1, [r6, #2]	@ zero_extendqisi2
 10579              	.LVL1711:
 10580 4078 2B78     		ldrb	r3, [r5, #0]	@ zero_extendqisi2
 10581 407a 2278     		ldrb	r2, [r4, #0]	@ zero_extendqisi2
 10582 407c CB18     		adds	r3, r1, r3
 10583 407e DBB2     		uxtb	r3, r3
 10584              	.LVL1712:
 10585 4080 2B70     		strb	r3, [r5, #0]
 10586 4082 9B18     		adds	r3, r3, r2
 10587              	.LVL1713:
 10588 4084 2370     		strb	r3, [r4, #0]
 10589 4086 3148     		ldr	r0, .L293+8
 10590 4088 FFF7FEFF 		bl	uart_transmit
 10591              	.LVL1714:
 10592              	.LBE745:
 10593              	.LBB746:
 10594 408c F178     		ldrb	r1, [r6, #3]	@ zero_extendqisi2
 10595              	.LVL1715:
 10596 408e 2B78     		ldrb	r3, [r5, #0]	@ zero_extendqisi2
 10597 4090 2278     		ldrb	r2, [r4, #0]	@ zero_extendqisi2
 10598 4092 CB18     		adds	r3, r1, r3
 10599 4094 DBB2     		uxtb	r3, r3
 10600              	.LBE746:
 10601              	.LBB747:
 10602 4096 364E     		ldr	r6, .L293+44
 10603              	.LVL1716:
 10604              	.LBE747:
 10605              	.LBB748:
 10606 4098 2B70     		strb	r3, [r5, #0]
 10607 409a 9B18     		adds	r3, r3, r2
 10608              	.LVL1717:
 10609 409c 2370     		strb	r3, [r4, #0]
 10610 409e 2B48     		ldr	r0, .L293+8
 10611 40a0 FFF7FEFF 		bl	uart_transmit
 10612              	.LVL1718:
 10613              	.LBE748:
 10614              	.LBB749:
 10615 40a4 3178     		ldrb	r1, [r6, #0]	@ zero_extendqisi2
 10616              	.LVL1719:
 10617 40a6 2B78     		ldrb	r3, [r5, #0]	@ zero_extendqisi2
 10618 40a8 2278     		ldrb	r2, [r4, #0]	@ zero_extendqisi2
 10619 40aa CB18     		adds	r3, r1, r3
 10620 40ac DBB2     		uxtb	r3, r3
 10621              	.LVL1720:
 10622 40ae 2B70     		strb	r3, [r5, #0]
 10623 40b0 9B18     		adds	r3, r3, r2
 10624              	.LVL1721:
 10625 40b2 2370     		strb	r3, [r4, #0]
 10626 40b4 2548     		ldr	r0, .L293+8
 10627 40b6 FFF7FEFF 		bl	uart_transmit
 10628              	.LVL1722:
 10629              	.LBE749:
 10630              	.LBB750:
 10631 40ba 7178     		ldrb	r1, [r6, #1]	@ zero_extendqisi2
 10632              	.LVL1723:
 10633 40bc 2B78     		ldrb	r3, [r5, #0]	@ zero_extendqisi2
 10634 40be 2278     		ldrb	r2, [r4, #0]	@ zero_extendqisi2
 10635 40c0 CB18     		adds	r3, r1, r3
 10636 40c2 DBB2     		uxtb	r3, r3
 10637              	.LVL1724:
 10638 40c4 2B70     		strb	r3, [r5, #0]
 10639 40c6 9B18     		adds	r3, r3, r2
 10640              	.LVL1725:
 10641 40c8 2370     		strb	r3, [r4, #0]
 10642 40ca 2048     		ldr	r0, .L293+8
 10643 40cc FFF7FEFF 		bl	uart_transmit
 10644              	.LVL1726:
 10645              	.LBE750:
 10646              	.LBB751:
 10647 40d0 B178     		ldrb	r1, [r6, #2]	@ zero_extendqisi2
 10648              	.LVL1727:
 10649 40d2 2B78     		ldrb	r3, [r5, #0]	@ zero_extendqisi2
 10650 40d4 2278     		ldrb	r2, [r4, #0]	@ zero_extendqisi2
 10651 40d6 CB18     		adds	r3, r1, r3
 10652 40d8 DBB2     		uxtb	r3, r3
 10653              	.LVL1728:
 10654 40da 2B70     		strb	r3, [r5, #0]
 10655 40dc 9B18     		adds	r3, r3, r2
 10656              	.LVL1729:
 10657 40de 2370     		strb	r3, [r4, #0]
 10658 40e0 1A48     		ldr	r0, .L293+8
 10659 40e2 FFF7FEFF 		bl	uart_transmit
 10660              	.LVL1730:
 10661              	.LBE751:
 10662              	.LBB752:
 10663 40e6 F178     		ldrb	r1, [r6, #3]	@ zero_extendqisi2
 10664              	.LVL1731:
 10665 40e8 2B78     		ldrb	r3, [r5, #0]	@ zero_extendqisi2
 10666 40ea 2278     		ldrb	r2, [r4, #0]	@ zero_extendqisi2
 10667 40ec CB18     		adds	r3, r1, r3
 10668 40ee DBB2     		uxtb	r3, r3
 10669              	.LBE752:
 10670              	.LBB753:
 10671 40f0 204E     		ldr	r6, .L293+48
 10672              	.LVL1732:
 10673              	.LBE753:
 10674              	.LBB754:
 10675 40f2 2B70     		strb	r3, [r5, #0]
 10676 40f4 9B18     		adds	r3, r3, r2
 10677              	.LVL1733:
 10678 40f6 2370     		strb	r3, [r4, #0]
 10679 40f8 1448     		ldr	r0, .L293+8
 10680 40fa FFF7FEFF 		bl	uart_transmit
 10681              	.LVL1734:
 10682              	.LBE754:
 10683              	.LBB755:
 10684 40fe 3178     		ldrb	r1, [r6, #0]	@ zero_extendqisi2
 10685              	.LVL1735:
 10686 4100 2B78     		ldrb	r3, [r5, #0]	@ zero_extendqisi2
 10687 4102 2278     		ldrb	r2, [r4, #0]	@ zero_extendqisi2
 10688 4104 CB18     		adds	r3, r1, r3
 10689 4106 DBB2     		uxtb	r3, r3
 10690              	.LVL1736:
 10691 4108 2B70     		strb	r3, [r5, #0]
 10692 410a 9B18     		adds	r3, r3, r2
 10693              	.LVL1737:
 10694 410c 2370     		strb	r3, [r4, #0]
 10695 410e 0F48     		ldr	r0, .L293+8
 10696 4110 FFF7FEFF 		bl	uart_transmit
 10697              	.LVL1738:
 10698              	.LBE755:
 10699              	.LBB756:
 10700 4114 7178     		ldrb	r1, [r6, #1]	@ zero_extendqisi2
 10701              	.LVL1739:
 10702 4116 2B78     		ldrb	r3, [r5, #0]	@ zero_extendqisi2
 10703 4118 2278     		ldrb	r2, [r4, #0]	@ zero_extendqisi2
 10704 411a CB18     		adds	r3, r1, r3
 10705 411c DBB2     		uxtb	r3, r3
 10706              	.LVL1740:
 10707 411e 2B70     		strb	r3, [r5, #0]
 10708 4120 9B18     		adds	r3, r3, r2
 10709              	.LVL1741:
 10710 4122 2370     		strb	r3, [r4, #0]
 10711 4124 0948     		ldr	r0, .L293+8
 10712 4126 FFF7FEFF 		bl	uart_transmit
 10713              	.LVL1742:
 10714              	.LBE756:
 10715              	.LBB757:
 10716 412a B178     		ldrb	r1, [r6, #2]	@ zero_extendqisi2
 10717              	.LVL1743:
 10718 412c 2B78     		ldrb	r3, [r5, #0]	@ zero_extendqisi2
 10719 412e 2278     		ldrb	r2, [r4, #0]	@ zero_extendqisi2
 10720 4130 CB18     		adds	r3, r1, r3
 10721 4132 DBB2     		uxtb	r3, r3
 10722              	.LVL1744:
 10723 4134 2B70     		strb	r3, [r5, #0]
 10724 4136 9B18     		adds	r3, r3, r2
 10725              	.LVL1745:
 10726 4138 2370     		strb	r3, [r4, #0]
 10727 413a 0448     		ldr	r0, .L293+8
 10728 413c FFF7FEFF 		bl	uart_transmit
 10729              	.LVL1746:
 10730              	.LBE757:
 10731              	.LBB758:
 10732 4140 F178     		ldrb	r1, [r6, #3]	@ zero_extendqisi2
 10733 4142 19E0     		b	.L294
 10734              	.L295:
 10735              		.align	2
 10736              	.L293:
 10737 4144 00000000 		.word	downlink_nb_ovrn
 10738 4148 00000000 		.word	.LANCHOR46
 10739 414c 00000000 		.word	uart2
 10740 4150 00000000 		.word	downlink_nb_bytes
 10741 4154 00000000 		.word	downlink_nb_msgs
 10742 4158 00000000 		.word	ck_a
 10743 415c 00000000 		.word	ck_b
 10744 4160 00000000 		.word	h_ctl_roll_setpoint
 10745 4164 00000000 		.word	h_ctl_pitch_loop_setpoint
 10746 4168 00000000 		.word	h_ctl_course_setpoint
 10747 416c 00000000 		.word	desired_x
 10748 4170 00000000 		.word	desired_y
 10749 4174 00000000 		.word	v_ctl_altitude_setpoint
 10750              	.L294:
 10751              	.LVL1747:
 10752 4178 2B78     		ldrb	r3, [r5, #0]	@ zero_extendqisi2
 10753 417a 2278     		ldrb	r2, [r4, #0]	@ zero_extendqisi2
 10754 417c CB18     		adds	r3, r1, r3
 10755 417e DBB2     		uxtb	r3, r3
 10756              	.LBE758:
 10757              	.LBB759:
 10758 4180 874E     		ldr	r6, .L296
 10759              	.LVL1748:
 10760              	.LBE759:
 10761              	.LBB760:
 10762 4182 2B70     		strb	r3, [r5, #0]
 10763 4184 9B18     		adds	r3, r3, r2
 10764              	.LVL1749:
 10765 4186 2370     		strb	r3, [r4, #0]
 10766 4188 8648     		ldr	r0, .L296+4
 10767 418a FFF7FEFF 		bl	uart_transmit
 10768              	.LVL1750:
 10769              	.LBE760:
 10770              	.LBB761:
 10771 418e 3178     		ldrb	r1, [r6, #0]	@ zero_extendqisi2
 10772              	.LVL1751:
 10773 4190 2B78     		ldrb	r3, [r5, #0]	@ zero_extendqisi2
 10774 4192 2278     		ldrb	r2, [r4, #0]	@ zero_extendqisi2
 10775 4194 CB18     		adds	r3, r1, r3
 10776 4196 DBB2     		uxtb	r3, r3
 10777              	.LVL1752:
 10778 4198 2B70     		strb	r3, [r5, #0]
 10779 419a 9B18     		adds	r3, r3, r2
 10780              	.LVL1753:
 10781 419c 2370     		strb	r3, [r4, #0]
 10782 419e 8148     		ldr	r0, .L296+4
 10783 41a0 FFF7FEFF 		bl	uart_transmit
 10784              	.LVL1754:
 10785              	.LBE761:
 10786              	.LBB762:
 10787 41a4 7178     		ldrb	r1, [r6, #1]	@ zero_extendqisi2
 10788              	.LVL1755:
 10789 41a6 2B78     		ldrb	r3, [r5, #0]	@ zero_extendqisi2
 10790 41a8 2278     		ldrb	r2, [r4, #0]	@ zero_extendqisi2
 10791 41aa CB18     		adds	r3, r1, r3
 10792 41ac DBB2     		uxtb	r3, r3
 10793              	.LVL1756:
 10794 41ae 2B70     		strb	r3, [r5, #0]
 10795 41b0 9B18     		adds	r3, r3, r2
 10796              	.LVL1757:
 10797 41b2 2370     		strb	r3, [r4, #0]
 10798 41b4 7B48     		ldr	r0, .L296+4
 10799 41b6 FFF7FEFF 		bl	uart_transmit
 10800              	.LVL1758:
 10801              	.LBE762:
 10802              	.LBB763:
 10803 41ba B178     		ldrb	r1, [r6, #2]	@ zero_extendqisi2
 10804              	.LVL1759:
 10805 41bc 2B78     		ldrb	r3, [r5, #0]	@ zero_extendqisi2
 10806 41be 2278     		ldrb	r2, [r4, #0]	@ zero_extendqisi2
 10807 41c0 CB18     		adds	r3, r1, r3
 10808 41c2 DBB2     		uxtb	r3, r3
 10809              	.LVL1760:
 10810 41c4 2B70     		strb	r3, [r5, #0]
 10811 41c6 9B18     		adds	r3, r3, r2
 10812              	.LVL1761:
 10813 41c8 2370     		strb	r3, [r4, #0]
 10814 41ca 7648     		ldr	r0, .L296+4
 10815 41cc FFF7FEFF 		bl	uart_transmit
 10816              	.LVL1762:
 10817              	.LBE763:
 10818              	.LBB764:
 10819 41d0 F178     		ldrb	r1, [r6, #3]	@ zero_extendqisi2
 10820              	.LVL1763:
 10821 41d2 2B78     		ldrb	r3, [r5, #0]	@ zero_extendqisi2
 10822 41d4 2278     		ldrb	r2, [r4, #0]	@ zero_extendqisi2
 10823 41d6 CB18     		adds	r3, r1, r3
 10824 41d8 DBB2     		uxtb	r3, r3
 10825              	.LVL1764:
 10826 41da 2B70     		strb	r3, [r5, #0]
 10827 41dc 9B18     		adds	r3, r3, r2
 10828              	.LVL1765:
 10829 41de 2370     		strb	r3, [r4, #0]
 10830 41e0 7048     		ldr	r0, .L296+4
 10831 41e2 FFF7FEFF 		bl	uart_transmit
 10832              	.LVL1766:
 10833              	.LBE764:
 10834 41e6 2978     		ldrb	r1, [r5, #0]	@ zero_extendqisi2
 10835 41e8 6E48     		ldr	r0, .L296+4
 10836 41ea FFF7FEFF 		bl	uart_transmit
 10837 41ee 6D48     		ldr	r0, .L296+4
 10838 41f0 2178     		ldrb	r1, [r4, #0]	@ zero_extendqisi2
 10839 41f2 FFF7FEFF 		bl	uart_transmit
 10840 41f6 03E0     		b	.L148
 10841              	.LVL1767:
 10842              	.L149:
 10843              		.loc 1 422 0 discriminator 231
 10844 41f8 6B4B     		ldr	r3, .L296+8
 10845 41fa 1A78     		ldrb	r2, [r3, #0]	@ zero_extendqisi2
 10846 41fc 0132     		adds	r2, r2, #1
 10847 41fe 1A70     		strb	r2, [r3, #0]
 10848              	.L148:
 10849              		.loc 1 422 0 discriminator 229
 10850 4200 6A4B     		ldr	r3, .L296+12
 10851 4202 1B88     		ldrh	r3, [r3, #0]
 10852 4204 422B     		cmp	r3, #66
 10853 4206 4FD1     		bne	.L150
 10854              		.loc 1 422 0 discriminator 232
 10855 4208 6648     		ldr	r0, .L296+4
 10856 420a 1721     		movs	r1, #23
 10857 420c FFF7FEFF 		bl	uart_check_free_space
 10858 4210 0028     		cmp	r0, #0
 10859 4212 00F0F381 		beq	.L160
 10860              		.loc 1 422 0 discriminator 234
 10861 4216 664B     		ldr	r3, .L296+16
 10862              	.LBB765:
 10863 4218 6248     		ldr	r0, .L296+4
 10864              	.LBE765:
 10865 421a 1A88     		ldrh	r2, [r3, #0]
 10866              	.LBB766:
 10867 421c 9921     		movs	r1, #153
 10868              	.LBE766:
 10869 421e 1732     		adds	r2, r2, #23
 10870 4220 1A80     		strh	r2, [r3, #0]	@ movhi
 10871 4222 644B     		ldr	r3, .L296+20
 10872 4224 644D     		ldr	r5, .L296+24
 10873 4226 1A88     		ldrh	r2, [r3, #0]
 10874 4228 644C     		ldr	r4, .L296+28
 10875 422a 0132     		adds	r2, r2, #1
 10876 422c 1A80     		strh	r2, [r3, #0]	@ movhi
 10877              	.LBB767:
 10878 422e FFF7FEFF 		bl	uart_transmit
 10879              	.LVL1768:
 10880 4232 5C48     		ldr	r0, .L296+4
 10881 4234 1721     		movs	r1, #23
 10882 4236 FFF7FEFF 		bl	uart_transmit
 10883              	.LBE767:
 10884 423a 1823     		movs	r3, #24
 10885 423c 2B70     		strb	r3, [r5, #0]
 10886 423e 2F23     		movs	r3, #47
 10887 4240 2370     		strb	r3, [r4, #0]
 10888 4242 5848     		ldr	r0, .L296+4
 10889 4244 0121     		movs	r1, #1
 10890 4246 FFF7FEFF 		bl	uart_transmit
 10891 424a 2B78     		ldrb	r3, [r5, #0]	@ zero_extendqisi2
 10892 424c 2278     		ldrb	r2, [r4, #0]	@ zero_extendqisi2
 10893 424e 0233     		adds	r3, r3, #2
 10894 4250 DBB2     		uxtb	r3, r3
 10895 4252 2B70     		strb	r3, [r5, #0]
 10896 4254 9B18     		adds	r3, r3, r2
 10897 4256 2370     		strb	r3, [r4, #0]
 10898 4258 5248     		ldr	r0, .L296+4
 10899 425a 0221     		movs	r1, #2
 10900 425c FFF7FEFF 		bl	uart_transmit
 10901              	.LBB768:
 10902 4260 2B78     		ldrb	r3, [r5, #0]	@ zero_extendqisi2
 10903 4262 2278     		ldrb	r2, [r4, #0]	@ zero_extendqisi2
 10904 4264 1033     		adds	r3, r3, #16
 10905 4266 DBB2     		uxtb	r3, r3
 10906 4268 2B70     		strb	r3, [r5, #0]
 10907 426a 9B18     		adds	r3, r3, r2
 10908 426c 2370     		strb	r3, [r4, #0]
 10909 426e 4D48     		ldr	r0, .L296+4
 10910 4270 1021     		movs	r1, #16
 10911 4272 FFF7FEFF 		bl	uart_transmit
 10912              	.LVL1769:
 10913              	.LBB769:
 10914 4276 524F     		ldr	r7, .L296+32
 10915              	.LBE769:
 10916 4278 0026     		movs	r6, #0
 10917              	.LVL1770:
 10918              	.L152:
 10919              	.LBB770:
 10920              		.loc 1 422 0 discriminator 237
 10921 427a F15D     		ldrb	r1, [r6, r7]	@ zero_extendqisi2
 10922              	.LVL1771:
 10923 427c 2B78     		ldrb	r3, [r5, #0]	@ zero_extendqisi2
 10924 427e 2278     		ldrb	r2, [r4, #0]	@ zero_extendqisi2
 10925 4280 CB18     		adds	r3, r1, r3
 10926 4282 DBB2     		uxtb	r3, r3
 10927              	.LVL1772:
 10928 4284 2B70     		strb	r3, [r5, #0]
 10929 4286 9B18     		adds	r3, r3, r2
 10930              	.LVL1773:
 10931 4288 2370     		strb	r3, [r4, #0]
 10932 428a 4648     		ldr	r0, .L296+4
 10933 428c 0136     		adds	r6, r6, #1
 10934 428e FFF7FEFF 		bl	uart_transmit
 10935              	.LVL1774:
 10936              	.LBE770:
 10937 4292 102E     		cmp	r6, #16
 10938 4294 F1D1     		bne	.L152
 10939              	.LBE768:
 10940              		.loc 1 422 0 discriminator 238
 10941 4296 484B     		ldr	r3, .L296+24
 10942 4298 4248     		ldr	r0, .L296+4
 10943 429a 1978     		ldrb	r1, [r3, #0]	@ zero_extendqisi2
 10944 429c FFF7FEFF 		bl	uart_transmit
 10945 42a0 464B     		ldr	r3, .L296+28
 10946 42a2 4048     		ldr	r0, .L296+4
 10947 42a4 1978     		ldrb	r1, [r3, #0]	@ zero_extendqisi2
 10948 42a6 78E0     		b	.L223
 10949              	.LVL1775:
 10950              	.L150:
 10951              		.loc 1 422 0 discriminator 233
 10952 42a8 482B     		cmp	r3, #72
 10953 42aa 40F09580 		bne	.L154
 10954              	.LVL1776:
 10955              	.LBB771:
 10956              		.loc 1 422 0 discriminator 239
 10957 42ae 3D48     		ldr	r0, .L296+4
 10958 42b0 0C21     		movs	r1, #12
 10959 42b2 FFF7FEFF 		bl	uart_check_free_space
 10960 42b6 0028     		cmp	r0, #0
 10961 42b8 00F0A081 		beq	.L160
 10962              		.loc 1 422 0 discriminator 241
 10963 42bc 3C4B     		ldr	r3, .L296+16
 10964              	.LBB772:
 10965 42be 3948     		ldr	r0, .L296+4
 10966              	.LBE772:
 10967 42c0 1A88     		ldrh	r2, [r3, #0]
 10968              	.LBB773:
 10969 42c2 9921     		movs	r1, #153
 10970              	.LBE773:
 10971 42c4 0C32     		adds	r2, r2, #12
 10972 42c6 1A80     		strh	r2, [r3, #0]	@ movhi
 10973 42c8 3A4B     		ldr	r3, .L296+20
 10974 42ca 3B4D     		ldr	r5, .L296+24
 10975 42cc 1A88     		ldrh	r2, [r3, #0]
 10976 42ce 3B4C     		ldr	r4, .L296+28
 10977 42d0 0132     		adds	r2, r2, #1
 10978 42d2 1A80     		strh	r2, [r3, #0]	@ movhi
 10979              	.LBB774:
 10980 42d4 FFF7FEFF 		bl	uart_transmit
 10981              	.LVL1777:
 10982 42d8 3248     		ldr	r0, .L296+4
 10983 42da 0C21     		movs	r1, #12
 10984 42dc FFF7FEFF 		bl	uart_transmit
 10985              	.LBE774:
 10986 42e0 0D23     		movs	r3, #13
 10987 42e2 2B70     		strb	r3, [r5, #0]
 10988 42e4 1923     		movs	r3, #25
 10989 42e6 2370     		strb	r3, [r4, #0]
 10990 42e8 2E48     		ldr	r0, .L296+4
 10991 42ea 0121     		movs	r1, #1
 10992 42ec FFF7FEFF 		bl	uart_transmit
 10993 42f0 2B78     		ldrb	r3, [r5, #0]	@ zero_extendqisi2
 10994 42f2 2278     		ldrb	r2, [r4, #0]	@ zero_extendqisi2
 10995 42f4 0B33     		adds	r3, r3, #11
 10996 42f6 DBB2     		uxtb	r3, r3
 10997 42f8 2B70     		strb	r3, [r5, #0]
 10998 42fa 9B18     		adds	r3, r3, r2
 10999 42fc 2370     		strb	r3, [r4, #0]
 11000 42fe 2948     		ldr	r0, .L296+4
 11001 4300 0B21     		movs	r1, #11
 11002 4302 FFF7FEFF 		bl	uart_transmit
 11003              	.LBB775:
 11004 4306 2F4B     		ldr	r3, .L296+36
 11005 4308 2278     		ldrb	r2, [r4, #0]	@ zero_extendqisi2
 11006 430a 1978     		ldrb	r1, [r3, #0]	@ zero_extendqisi2
 11007              	.LVL1778:
 11008 430c 2B78     		ldrb	r3, [r5, #0]	@ zero_extendqisi2
 11009 430e 2548     		ldr	r0, .L296+4
 11010 4310 CB18     		adds	r3, r1, r3
 11011 4312 DBB2     		uxtb	r3, r3
 11012              	.LVL1779:
 11013 4314 2B70     		strb	r3, [r5, #0]
 11014 4316 9B18     		adds	r3, r3, r2
 11015              	.LVL1780:
 11016 4318 2370     		strb	r3, [r4, #0]
 11017 431a FFF7FEFF 		bl	uart_transmit
 11018              	.LVL1781:
 11019              	.LBE775:
 11020              	.LBB776:
 11021 431e 2A4B     		ldr	r3, .L296+40
 11022 4320 2278     		ldrb	r2, [r4, #0]	@ zero_extendqisi2
 11023 4322 1978     		ldrb	r1, [r3, #0]	@ zero_extendqisi2
 11024              	.LVL1782:
 11025 4324 2B78     		ldrb	r3, [r5, #0]	@ zero_extendqisi2
 11026 4326 1F48     		ldr	r0, .L296+4
 11027 4328 CB18     		adds	r3, r1, r3
 11028 432a DBB2     		uxtb	r3, r3
 11029              	.LVL1783:
 11030 432c 2B70     		strb	r3, [r5, #0]
 11031 432e 9B18     		adds	r3, r3, r2
 11032              	.LVL1784:
 11033 4330 2370     		strb	r3, [r4, #0]
 11034 4332 FFF7FEFF 		bl	uart_transmit
 11035              	.LVL1785:
 11036              	.LBE776:
 11037              	.LBB777:
 11038 4336 254B     		ldr	r3, .L296+44
 11039 4338 2278     		ldrb	r2, [r4, #0]	@ zero_extendqisi2
 11040 433a 1978     		ldrb	r1, [r3, #0]	@ zero_extendqisi2
 11041              	.LVL1786:
 11042 433c 2B78     		ldrb	r3, [r5, #0]	@ zero_extendqisi2
 11043 433e 1948     		ldr	r0, .L296+4
 11044 4340 CB18     		adds	r3, r1, r3
 11045 4342 DBB2     		uxtb	r3, r3
 11046              	.LVL1787:
 11047 4344 2B70     		strb	r3, [r5, #0]
 11048 4346 9B18     		adds	r3, r3, r2
 11049              	.LVL1788:
 11050 4348 2370     		strb	r3, [r4, #0]
 11051 434a FFF7FEFF 		bl	uart_transmit
 11052              	.LVL1789:
 11053              	.LBE777:
 11054              	.LBB778:
 11055 434e 204B     		ldr	r3, .L296+48
 11056 4350 2278     		ldrb	r2, [r4, #0]	@ zero_extendqisi2
 11057 4352 1978     		ldrb	r1, [r3, #0]	@ zero_extendqisi2
 11058              	.LVL1790:
 11059 4354 2B78     		ldrb	r3, [r5, #0]	@ zero_extendqisi2
 11060 4356 1348     		ldr	r0, .L296+4
 11061 4358 CB18     		adds	r3, r1, r3
 11062 435a DBB2     		uxtb	r3, r3
 11063              	.LVL1791:
 11064 435c 2B70     		strb	r3, [r5, #0]
 11065 435e 9B18     		adds	r3, r3, r2
 11066              	.LVL1792:
 11067 4360 2370     		strb	r3, [r4, #0]
 11068 4362 FFF7FEFF 		bl	uart_transmit
 11069              	.LVL1793:
 11070              	.LBE778:
 11071              	.LBB779:
 11072 4366 2278     		ldrb	r2, [r4, #0]	@ zero_extendqisi2
 11073 4368 2B78     		ldrb	r3, [r5, #0]	@ zero_extendqisi2
 11074 436a 0021     		movs	r1, #0
 11075 436c D318     		adds	r3, r2, r3
 11076 436e 2370     		strb	r3, [r4, #0]
 11077 4370 0C48     		ldr	r0, .L296+4
 11078 4372 FFF7FEFF 		bl	uart_transmit
 11079              	.LBE779:
 11080              	.LBB780:
 11081 4376 174B     		ldr	r3, .L296+52
 11082 4378 1978     		ldrb	r1, [r3, #0]	@ zero_extendqisi2
 11083              	.LVL1794:
 11084              	.L229:
 11085 437a 2B78     		ldrb	r3, [r5, #0]	@ zero_extendqisi2
 11086 437c 2278     		ldrb	r2, [r4, #0]	@ zero_extendqisi2
 11087 437e CB18     		adds	r3, r1, r3
 11088 4380 DBB2     		uxtb	r3, r3
 11089              	.LVL1795:
 11090 4382 2B70     		strb	r3, [r5, #0]
 11091 4384 9B18     		adds	r3, r3, r2
 11092              	.LVL1796:
 11093 4386 2370     		strb	r3, [r4, #0]
 11094 4388 0648     		ldr	r0, .L296+4
 11095 438a FFF7FEFF 		bl	uart_transmit
 11096              	.LVL1797:
 11097              	.LBE780:
 11098 438e 0548     		ldr	r0, .L296+4
 11099 4390 2978     		ldrb	r1, [r5, #0]	@ zero_extendqisi2
 11100 4392 FFF7FEFF 		bl	uart_transmit
 11101 4396 0348     		ldr	r0, .L296+4
 11102 4398 2178     		ldrb	r1, [r4, #0]	@ zero_extendqisi2
 11103              	.L223:
 11104 439a FFF7FEFF 		bl	uart_transmit
 11105 439e 31E1     		b	.L153
 11106              	.L297:
 11107              		.align	2
 11108              	.L296:
 11109 43a0 00000000 		.word	v_ctl_climb_setpoint
 11110 43a4 00000000 		.word	uart2
 11111 43a8 00000000 		.word	downlink_nb_ovrn
 11112 43ac 00000000 		.word	.LANCHOR47
 11113 43b0 00000000 		.word	downlink_nb_bytes
 11114 43b4 00000000 		.word	downlink_nb_msgs
 11115 43b8 00000000 		.word	ck_a
 11116 43bc 00000000 		.word	ck_b
 11117 43c0 00000000 		.word	.LC0
 11118 43c4 00000000 		.word	.LANCHOR30
 11119 43c8 00000000 		.word	v_ctl_mode
 11120 43cc 00000000 		.word	.LANCHOR32
 11121 43d0 00000000 		.word	horizontal_mode
 11122 43d4 00000000 		.word	.LANCHOR33
 11123              	.LVL1798:
 11124              	.L154:
 11125              	.LBE771:
 11126              		.loc 1 422 0 discriminator 240
 11127 43d8 4E2B     		cmp	r3, #78
 11128 43da 54D1     		bne	.L156
 11129              	.LVL1799:
 11130              	.LBB781:
 11131              		.loc 1 422 0 discriminator 243
 11132 43dc 7F4B     		ldr	r3, .L298
 11133 43de 8048     		ldr	r0, .L298+4
 11134 43e0 93F89860 		ldrb	r6, [r3, #152]	@ zero_extendqisi2
 11135 43e4 7F4B     		ldr	r3, .L298+8
 11136 43e6 002E     		cmp	r6, #0
 11137 43e8 0CBF     		ite	eq
 11138 43ea 0226     		moveq	r6, #2
 11139 43ec 0326     		movne	r6, #3
 11140              	.LVL1800:
 11141 43ee 1B78     		ldrb	r3, [r3, #0]	@ zero_extendqisi2
 11142 43f0 0921     		movs	r1, #9
 11143 43f2 0A2B     		cmp	r3, #10
 11144 43f4 88BF     		it	hi
 11145 43f6 0526     		movhi	r6, #5
 11146              	.LVL1801:
 11147 43f8 0023     		movs	r3, #0
 11148 43fa ADF81C30 		strh	r3, [sp, #28]	@ movhi
 11149              	.LVL1802:
 11150 43fe FFF7FEFF 		bl	uart_check_free_space
 11151 4402 0028     		cmp	r0, #0
 11152 4404 00F0FA80 		beq	.L160
 11153              		.loc 1 422 0 discriminator 249
 11154 4408 774B     		ldr	r3, .L298+12
 11155              	.LBB782:
 11156 440a 7548     		ldr	r0, .L298+4
 11157              	.LBE782:
 11158 440c 1A88     		ldrh	r2, [r3, #0]
 11159              	.LBB783:
 11160 440e 9921     		movs	r1, #153
 11161              	.LBE783:
 11162 4410 0932     		adds	r2, r2, #9
 11163 4412 1A80     		strh	r2, [r3, #0]	@ movhi
 11164 4414 754B     		ldr	r3, .L298+16
 11165 4416 764D     		ldr	r5, .L298+20
 11166 4418 1A88     		ldrh	r2, [r3, #0]
 11167 441a 764C     		ldr	r4, .L298+24
 11168 441c 0132     		adds	r2, r2, #1
 11169 441e 1A80     		strh	r2, [r3, #0]	@ movhi
 11170              	.LBB784:
 11171 4420 FFF7FEFF 		bl	uart_transmit
 11172              	.LVL1803:
 11173 4424 6E48     		ldr	r0, .L298+4
 11174 4426 0921     		movs	r1, #9
 11175 4428 FFF7FEFF 		bl	uart_transmit
 11176              	.LBE784:
 11177 442c 0A23     		movs	r3, #10
 11178 442e 2B70     		strb	r3, [r5, #0]
 11179 4430 1323     		movs	r3, #19
 11180 4432 2370     		strb	r3, [r4, #0]
 11181 4434 6A48     		ldr	r0, .L298+4
 11182 4436 0121     		movs	r1, #1
 11183 4438 FFF7FEFF 		bl	uart_transmit
 11184 443c 2B78     		ldrb	r3, [r5, #0]	@ zero_extendqisi2
 11185 443e 2278     		ldrb	r2, [r4, #0]	@ zero_extendqisi2
 11186 4440 183B     		subs	r3, r3, #24
 11187 4442 DBB2     		uxtb	r3, r3
 11188 4444 2B70     		strb	r3, [r5, #0]
 11189 4446 9B18     		adds	r3, r3, r2
 11190 4448 2370     		strb	r3, [r4, #0]
 11191 444a 6548     		ldr	r0, .L298+4
 11192 444c E821     		movs	r1, #232
 11193 444e FFF7FEFF 		bl	uart_transmit
 11194              	.LVL1804:
 11195              	.LBB785:
 11196 4452 2B78     		ldrb	r3, [r5, #0]	@ zero_extendqisi2
 11197 4454 2278     		ldrb	r2, [r4, #0]	@ zero_extendqisi2
 11198 4456 F318     		adds	r3, r6, r3
 11199 4458 DBB2     		uxtb	r3, r3
 11200              	.LVL1805:
 11201 445a 2B70     		strb	r3, [r5, #0]
 11202 445c 9B18     		adds	r3, r3, r2
 11203              	.LVL1806:
 11204 445e 2370     		strb	r3, [r4, #0]
 11205 4460 5F48     		ldr	r0, .L298+4
 11206 4462 3146     		mov	r1, r6
 11207 4464 FFF7FEFF 		bl	uart_transmit
 11208              	.LBE785:
 11209              	.LBB786:
 11210 4468 9DF81C10 		ldrb	r1, [sp, #28]	@ zero_extendqisi2
 11211              	.LVL1807:
 11212 446c 2B78     		ldrb	r3, [r5, #0]	@ zero_extendqisi2
 11213 446e 2278     		ldrb	r2, [r4, #0]	@ zero_extendqisi2
 11214 4470 CB18     		adds	r3, r1, r3
 11215 4472 DBB2     		uxtb	r3, r3
 11216              	.LVL1808:
 11217 4474 2B70     		strb	r3, [r5, #0]
 11218 4476 9B18     		adds	r3, r3, r2
 11219              	.LVL1809:
 11220 4478 2370     		strb	r3, [r4, #0]
 11221 447a 5948     		ldr	r0, .L298+4
 11222 447c FFF7FEFF 		bl	uart_transmit
 11223              	.LVL1810:
 11224              	.LBE786:
 11225              	.LBB787:
 11226 4480 9DF81D10 		ldrb	r1, [sp, #29]	@ zero_extendqisi2
 11227              	.LVL1811:
 11228 4484 79E7     		b	.L229
 11229              	.LVL1812:
 11230              	.L156:
 11231              	.LBE787:
 11232              	.LBE781:
 11233              		.loc 1 422 0 discriminator 244
 11234 4486 542B     		cmp	r3, #84
 11235 4488 40F0BC80 		bne	.L153
 11236              		.loc 1 422 0 discriminator 251
 11237 448c 5448     		ldr	r0, .L298+4
 11238 448e 1121     		movs	r1, #17
 11239 4490 FFF7FEFF 		bl	uart_check_free_space
 11240 4494 0028     		cmp	r0, #0
 11241 4496 00F0B180 		beq	.L160
 11242              		.loc 1 422 0 discriminator 253
 11243 449a 534B     		ldr	r3, .L298+12
 11244              	.LBB788:
 11245 449c 5048     		ldr	r0, .L298+4
 11246              	.LBE788:
 11247 449e 1A88     		ldrh	r2, [r3, #0]
 11248              	.LBB789:
 11249 44a0 9921     		movs	r1, #153
 11250              	.LBE789:
 11251 44a2 1132     		adds	r2, r2, #17
 11252 44a4 1A80     		strh	r2, [r3, #0]	@ movhi
 11253 44a6 514B     		ldr	r3, .L298+16
 11254 44a8 514D     		ldr	r5, .L298+20
 11255 44aa 1A88     		ldrh	r2, [r3, #0]
 11256 44ac 514C     		ldr	r4, .L298+24
 11257 44ae 0132     		adds	r2, r2, #1
 11258 44b0 1A80     		strh	r2, [r3, #0]	@ movhi
 11259              	.LBB790:
 11260 44b2 FFF7FEFF 		bl	uart_transmit
 11261              	.LVL1813:
 11262 44b6 4A48     		ldr	r0, .L298+4
 11263 44b8 1121     		movs	r1, #17
 11264 44ba FFF7FEFF 		bl	uart_transmit
 11265              	.LBE790:
 11266 44be 1223     		movs	r3, #18
 11267 44c0 2B70     		strb	r3, [r5, #0]
 11268 44c2 2323     		movs	r3, #35
 11269 44c4 2370     		strb	r3, [r4, #0]
 11270 44c6 4648     		ldr	r0, .L298+4
 11271 44c8 0121     		movs	r1, #1
 11272 44ca FFF7FEFF 		bl	uart_transmit
 11273 44ce 2B78     		ldrb	r3, [r5, #0]	@ zero_extendqisi2
 11274 44d0 2278     		ldrb	r2, [r4, #0]	@ zero_extendqisi2
 11275 44d2 1133     		adds	r3, r3, #17
 11276 44d4 DBB2     		uxtb	r3, r3
 11277              	.LBB791:
 11278 44d6 484E     		ldr	r6, .L298+28
 11279              	.LBE791:
 11280 44d8 2B70     		strb	r3, [r5, #0]
 11281 44da 9B18     		adds	r3, r3, r2
 11282 44dc 2370     		strb	r3, [r4, #0]
 11283 44de 4048     		ldr	r0, .L298+4
 11284 44e0 1121     		movs	r1, #17
 11285 44e2 FFF7FEFF 		bl	uart_transmit
 11286              	.LBB792:
 11287 44e6 96F84C10 		ldrb	r1, [r6, #76]	@ zero_extendqisi2
 11288              	.LVL1814:
 11289 44ea 2B78     		ldrb	r3, [r5, #0]	@ zero_extendqisi2
 11290 44ec 2278     		ldrb	r2, [r4, #0]	@ zero_extendqisi2
 11291 44ee CB18     		adds	r3, r1, r3
 11292 44f0 DBB2     		uxtb	r3, r3
 11293              	.LVL1815:
 11294 44f2 2B70     		strb	r3, [r5, #0]
 11295 44f4 9B18     		adds	r3, r3, r2
 11296              	.LVL1816:
 11297 44f6 2370     		strb	r3, [r4, #0]
 11298 44f8 3948     		ldr	r0, .L298+4
 11299 44fa FFF7FEFF 		bl	uart_transmit
 11300              	.LVL1817:
 11301              	.LBE792:
 11302              	.LBB793:
 11303 44fe 96F84D10 		ldrb	r1, [r6, #77]	@ zero_extendqisi2
 11304              	.LVL1818:
 11305 4502 2B78     		ldrb	r3, [r5, #0]	@ zero_extendqisi2
 11306 4504 2278     		ldrb	r2, [r4, #0]	@ zero_extendqisi2
 11307 4506 CB18     		adds	r3, r1, r3
 11308 4508 DBB2     		uxtb	r3, r3
 11309              	.LVL1819:
 11310 450a 2B70     		strb	r3, [r5, #0]
 11311 450c 9B18     		adds	r3, r3, r2
 11312              	.LVL1820:
 11313 450e 2370     		strb	r3, [r4, #0]
 11314 4510 3348     		ldr	r0, .L298+4
 11315 4512 FFF7FEFF 		bl	uart_transmit
 11316              	.LVL1821:
 11317              	.LBE793:
 11318              	.LBB794:
 11319 4516 96F84E10 		ldrb	r1, [r6, #78]	@ zero_extendqisi2
 11320              	.LVL1822:
 11321 451a 2B78     		ldrb	r3, [r5, #0]	@ zero_extendqisi2
 11322 451c 2278     		ldrb	r2, [r4, #0]	@ zero_extendqisi2
 11323 451e CB18     		adds	r3, r1, r3
 11324 4520 DBB2     		uxtb	r3, r3
 11325              	.LVL1823:
 11326 4522 2B70     		strb	r3, [r5, #0]
 11327 4524 9B18     		adds	r3, r3, r2
 11328              	.LVL1824:
 11329 4526 2370     		strb	r3, [r4, #0]
 11330 4528 2D48     		ldr	r0, .L298+4
 11331 452a FFF7FEFF 		bl	uart_transmit
 11332              	.LVL1825:
 11333              	.LBE794:
 11334              	.LBB795:
 11335 452e 96F84F10 		ldrb	r1, [r6, #79]	@ zero_extendqisi2
 11336              	.LVL1826:
 11337 4532 2B78     		ldrb	r3, [r5, #0]	@ zero_extendqisi2
 11338 4534 2278     		ldrb	r2, [r4, #0]	@ zero_extendqisi2
 11339 4536 CB18     		adds	r3, r1, r3
 11340 4538 DBB2     		uxtb	r3, r3
 11341              	.LVL1827:
 11342 453a 2B70     		strb	r3, [r5, #0]
 11343 453c 9B18     		adds	r3, r3, r2
 11344              	.LVL1828:
 11345 453e 2370     		strb	r3, [r4, #0]
 11346 4540 2748     		ldr	r0, .L298+4
 11347 4542 FFF7FEFF 		bl	uart_transmit
 11348              	.LVL1829:
 11349              	.LBE795:
 11350              	.LBB796:
 11351 4546 96F85010 		ldrb	r1, [r6, #80]	@ zero_extendqisi2
 11352              	.LVL1830:
 11353 454a 2B78     		ldrb	r3, [r5, #0]	@ zero_extendqisi2
 11354 454c 2278     		ldrb	r2, [r4, #0]	@ zero_extendqisi2
 11355 454e CB18     		adds	r3, r1, r3
 11356 4550 DBB2     		uxtb	r3, r3
 11357              	.LVL1831:
 11358 4552 2B70     		strb	r3, [r5, #0]
 11359 4554 9B18     		adds	r3, r3, r2
 11360              	.LVL1832:
 11361 4556 2370     		strb	r3, [r4, #0]
 11362 4558 2148     		ldr	r0, .L298+4
 11363 455a FFF7FEFF 		bl	uart_transmit
 11364              	.LVL1833:
 11365              	.LBE796:
 11366              	.LBB797:
 11367 455e 96F85110 		ldrb	r1, [r6, #81]	@ zero_extendqisi2
 11368              	.LVL1834:
 11369 4562 2B78     		ldrb	r3, [r5, #0]	@ zero_extendqisi2
 11370 4564 2278     		ldrb	r2, [r4, #0]	@ zero_extendqisi2
 11371 4566 CB18     		adds	r3, r1, r3
 11372 4568 DBB2     		uxtb	r3, r3
 11373              	.LVL1835:
 11374 456a 2B70     		strb	r3, [r5, #0]
 11375 456c 9B18     		adds	r3, r3, r2
 11376              	.LVL1836:
 11377 456e 2370     		strb	r3, [r4, #0]
 11378 4570 1B48     		ldr	r0, .L298+4
 11379 4572 FFF7FEFF 		bl	uart_transmit
 11380              	.LVL1837:
 11381              	.LBE797:
 11382              	.LBB798:
 11383 4576 96F85210 		ldrb	r1, [r6, #82]	@ zero_extendqisi2
 11384              	.LVL1838:
 11385 457a 2B78     		ldrb	r3, [r5, #0]	@ zero_extendqisi2
 11386 457c 2278     		ldrb	r2, [r4, #0]	@ zero_extendqisi2
 11387 457e CB18     		adds	r3, r1, r3
 11388 4580 DBB2     		uxtb	r3, r3
 11389              	.LVL1839:
 11390 4582 2B70     		strb	r3, [r5, #0]
 11391 4584 9B18     		adds	r3, r3, r2
 11392              	.LVL1840:
 11393 4586 2370     		strb	r3, [r4, #0]
 11394 4588 1548     		ldr	r0, .L298+4
 11395 458a FFF7FEFF 		bl	uart_transmit
 11396              	.LVL1841:
 11397              	.LBE798:
 11398              	.LBB799:
 11399 458e 96F85310 		ldrb	r1, [r6, #83]	@ zero_extendqisi2
 11400              	.LVL1842:
 11401 4592 2B78     		ldrb	r3, [r5, #0]	@ zero_extendqisi2
 11402 4594 2278     		ldrb	r2, [r4, #0]	@ zero_extendqisi2
 11403 4596 CB18     		adds	r3, r1, r3
 11404 4598 DBB2     		uxtb	r3, r3
 11405              	.LVL1843:
 11406 459a 2B70     		strb	r3, [r5, #0]
 11407 459c 9B18     		adds	r3, r3, r2
 11408              	.LVL1844:
 11409 459e 2370     		strb	r3, [r4, #0]
 11410 45a0 0F48     		ldr	r0, .L298+4
 11411 45a2 FFF7FEFF 		bl	uart_transmit
 11412              	.LVL1845:
 11413              	.LBE799:
 11414              	.LBB800:
 11415 45a6 96F85810 		ldrb	r1, [r6, #88]	@ zero_extendqisi2
 11416              	.LVL1846:
 11417 45aa 2B78     		ldrb	r3, [r5, #0]	@ zero_extendqisi2
 11418 45ac 2278     		ldrb	r2, [r4, #0]	@ zero_extendqisi2
 11419 45ae CB18     		adds	r3, r1, r3
 11420 45b0 DBB2     		uxtb	r3, r3
 11421              	.LVL1847:
 11422 45b2 2B70     		strb	r3, [r5, #0]
 11423 45b4 9B18     		adds	r3, r3, r2
 11424              	.LVL1848:
 11425 45b6 2370     		strb	r3, [r4, #0]
 11426 45b8 0948     		ldr	r0, .L298+4
 11427 45ba FFF7FEFF 		bl	uart_transmit
 11428              	.LVL1849:
 11429              	.LBE800:
 11430              	.LBB801:
 11431 45be 96F85910 		ldrb	r1, [r6, #89]	@ zero_extendqisi2
 11432              	.LVL1850:
 11433 45c2 2B78     		ldrb	r3, [r5, #0]	@ zero_extendqisi2
 11434 45c4 2278     		ldrb	r2, [r4, #0]	@ zero_extendqisi2
 11435 45c6 CB18     		adds	r3, r1, r3
 11436 45c8 DBB2     		uxtb	r3, r3
 11437              	.LVL1851:
 11438 45ca 2B70     		strb	r3, [r5, #0]
 11439 45cc 9B18     		adds	r3, r3, r2
 11440              	.LVL1852:
 11441 45ce 2370     		strb	r3, [r4, #0]
 11442 45d0 0348     		ldr	r0, .L298+4
 11443 45d2 FFF7FEFF 		bl	uart_transmit
 11444              	.LVL1853:
 11445              	.LBE801:
 11446              	.LBB802:
 11447 45d6 96F85A10 		ldrb	r1, [r6, #90]	@ zero_extendqisi2
 11448              	.LVL1854:
 11449 45da CEE6     		b	.L229
 11450              	.L299:
 11451              		.align	2
 11452              	.L298:
 11453 45dc 00000000 		.word	ahrs
 11454 45e0 00000000 		.word	uart2
 11455 45e4 00000000 		.word	.LANCHOR34
 11456 45e8 00000000 		.word	downlink_nb_bytes
 11457 45ec 00000000 		.word	downlink_nb_msgs
 11458 45f0 00000000 		.word	ck_a
 11459 45f4 00000000 		.word	ck_b
 11460 45f8 00000000 		.word	gps
 11461              	.LVL1855:
 11462              	.L160:
 11463              	.LBE802:
 11464              		.loc 1 422 0 discriminator 254
 11465 45fc 744B     		ldr	r3, .L300+8
 11466 45fe 1A78     		ldrb	r2, [r3, #0]	@ zero_extendqisi2
 11467 4600 0132     		adds	r2, r2, #1
 11468 4602 1A70     		strb	r2, [r3, #0]
 11469              	.L153:
 11470              		.loc 1 422 0 discriminator 252
 11471 4604 734B     		ldr	r3, .L300+12
 11472 4606 1B88     		ldrh	r3, [r3, #0]
 11473 4608 5A2B     		cmp	r3, #90
 11474 460a 5BD1     		bne	.L161
 11475              		.loc 1 422 0 discriminator 255
 11476 460c 7248     		ldr	r0, .L300+16
 11477 460e 0B21     		movs	r1, #11
 11478 4610 FFF7FEFF 		bl	uart_check_free_space
 11479 4614 0028     		cmp	r0, #0
 11480 4616 00F0EF80 		beq	.L164
 11481              		.loc 1 422 0 discriminator 257
 11482 461a 704B     		ldr	r3, .L300+20
 11483              	.LBB803:
 11484 461c 6E48     		ldr	r0, .L300+16
 11485              	.LBE803:
 11486 461e 1A88     		ldrh	r2, [r3, #0]
 11487              	.LBB804:
 11488 4620 9921     		movs	r1, #153
 11489              	.LBE804:
 11490 4622 0B32     		adds	r2, r2, #11
 11491 4624 1A80     		strh	r2, [r3, #0]	@ movhi
 11492 4626 6E4B     		ldr	r3, .L300+24
 11493 4628 6E4D     		ldr	r5, .L300+28
 11494 462a 1A88     		ldrh	r2, [r3, #0]
 11495 462c 6E4C     		ldr	r4, .L300+32
 11496 462e 0132     		adds	r2, r2, #1
 11497 4630 1A80     		strh	r2, [r3, #0]	@ movhi
 11498              	.LBB805:
 11499 4632 FFF7FEFF 		bl	uart_transmit
 11500              	.LVL1856:
 11501 4636 6848     		ldr	r0, .L300+16
 11502 4638 0B21     		movs	r1, #11
 11503 463a FFF7FEFF 		bl	uart_transmit
 11504              	.LBE805:
 11505 463e 0C23     		movs	r3, #12
 11506 4640 2B70     		strb	r3, [r5, #0]
 11507 4642 1723     		movs	r3, #23
 11508 4644 2370     		strb	r3, [r4, #0]
 11509 4646 6448     		ldr	r0, .L300+16
 11510 4648 0121     		movs	r1, #1
 11511 464a FFF7FEFF 		bl	uart_transmit
 11512 464e 2B78     		ldrb	r3, [r5, #0]	@ zero_extendqisi2
 11513 4650 2278     		ldrb	r2, [r4, #0]	@ zero_extendqisi2
 11514 4652 0E33     		adds	r3, r3, #14
 11515 4654 DBB2     		uxtb	r3, r3
 11516              	.LBB806:
 11517 4656 654E     		ldr	r6, .L300+36
 11518              	.LBE806:
 11519 4658 2B70     		strb	r3, [r5, #0]
 11520 465a 9B18     		adds	r3, r3, r2
 11521 465c 2370     		strb	r3, [r4, #0]
 11522 465e 5E48     		ldr	r0, .L300+16
 11523 4660 0E21     		movs	r1, #14
 11524 4662 FFF7FEFF 		bl	uart_transmit
 11525              	.LBB807:
 11526 4666 3178     		ldrb	r1, [r6, #0]	@ zero_extendqisi2
 11527              	.LVL1857:
 11528 4668 2B78     		ldrb	r3, [r5, #0]	@ zero_extendqisi2
 11529 466a 2278     		ldrb	r2, [r4, #0]	@ zero_extendqisi2
 11530 466c CB18     		adds	r3, r1, r3
 11531 466e DBB2     		uxtb	r3, r3
 11532              	.LVL1858:
 11533 4670 2B70     		strb	r3, [r5, #0]
 11534 4672 9B18     		adds	r3, r3, r2
 11535              	.LVL1859:
 11536 4674 2370     		strb	r3, [r4, #0]
 11537 4676 5848     		ldr	r0, .L300+16
 11538 4678 FFF7FEFF 		bl	uart_transmit
 11539              	.LVL1860:
 11540              	.LBE807:
 11541              	.LBB808:
 11542 467c 7178     		ldrb	r1, [r6, #1]	@ zero_extendqisi2
 11543              	.LVL1861:
 11544 467e 2B78     		ldrb	r3, [r5, #0]	@ zero_extendqisi2
 11545 4680 2278     		ldrb	r2, [r4, #0]	@ zero_extendqisi2
 11546 4682 CB18     		adds	r3, r1, r3
 11547 4684 DBB2     		uxtb	r3, r3
 11548              	.LVL1862:
 11549 4686 2B70     		strb	r3, [r5, #0]
 11550 4688 9B18     		adds	r3, r3, r2
 11551              	.LVL1863:
 11552 468a 2370     		strb	r3, [r4, #0]
 11553 468c 5248     		ldr	r0, .L300+16
 11554 468e FFF7FEFF 		bl	uart_transmit
 11555              	.LVL1864:
 11556              	.LBE808:
 11557              	.LBB809:
 11558 4692 B178     		ldrb	r1, [r6, #2]	@ zero_extendqisi2
 11559              	.LVL1865:
 11560 4694 2B78     		ldrb	r3, [r5, #0]	@ zero_extendqisi2
 11561 4696 2278     		ldrb	r2, [r4, #0]	@ zero_extendqisi2
 11562 4698 CB18     		adds	r3, r1, r3
 11563 469a DBB2     		uxtb	r3, r3
 11564              	.LVL1866:
 11565 469c 2B70     		strb	r3, [r5, #0]
 11566 469e 9B18     		adds	r3, r3, r2
 11567              	.LVL1867:
 11568 46a0 2370     		strb	r3, [r4, #0]
 11569 46a2 4D48     		ldr	r0, .L300+16
 11570 46a4 FFF7FEFF 		bl	uart_transmit
 11571              	.LVL1868:
 11572              	.LBE809:
 11573              	.LBB810:
 11574 46a8 F178     		ldrb	r1, [r6, #3]	@ zero_extendqisi2
 11575              	.LVL1869:
 11576 46aa 2B78     		ldrb	r3, [r5, #0]	@ zero_extendqisi2
 11577 46ac 2278     		ldrb	r2, [r4, #0]	@ zero_extendqisi2
 11578 46ae CB18     		adds	r3, r1, r3
 11579 46b0 DBB2     		uxtb	r3, r3
 11580              	.LVL1870:
 11581 46b2 2B70     		strb	r3, [r5, #0]
 11582 46b4 9B18     		adds	r3, r3, r2
 11583              	.LVL1871:
 11584 46b6 2370     		strb	r3, [r4, #0]
 11585 46b8 4748     		ldr	r0, .L300+16
 11586 46ba FFF7FEFF 		bl	uart_transmit
 11587              	.LVL1872:
 11588              	.LBE810:
 11589              	.LBB811:
 11590 46be 4C4B     		ldr	r3, .L300+40
 11591 46c0 1978     		ldrb	r1, [r3, #0]	@ zero_extendqisi2
 11592              	.LVL1873:
 11593 46c2 6DE0     		b	.L224
 11594              	.LVL1874:
 11595              	.L161:
 11596              	.LBE811:
 11597              		.loc 1 422 0 discriminator 256
 11598 46c4 602B     		cmp	r3, #96
 11599 46c6 40F09B80 		bne	.L163
 11600              	.LBB812:
 11601              		.loc 1 422 0 discriminator 259
 11602 46ca 4A4D     		ldr	r5, .L300+44
 11603 46cc 434C     		ldr	r4, .L300+20
 11604 46ce 2888     		ldrh	r0, [r5, #0]
 11605 46d0 2688     		ldrh	r6, [r4, #0]
 11606 46d2 301A     		subs	r0, r6, r0
 11607 46d4 FFF7FEFF 		bl	__aeabi_i2d
 11608 46d8 3BA3     		adr	r3, .L300
 11609 46da D3E90023 		ldrd	r2, [r3]
 11610 46de FFF7FEFF 		bl	__aeabi_ddiv
 11611 46e2 FFF7FEFF 		bl	__aeabi_d2uiz
 11612 46e6 2E80     		strh	r6, [r5, #0]	@ movhi
 11613 46e8 ADF81C00 		strh	r0, [sp, #28]	@ movhi
 11614              	.LVL1875:
 11615 46ec 0B21     		movs	r1, #11
 11616 46ee 3A48     		ldr	r0, .L300+16
 11617 46f0 FFF7FEFF 		bl	uart_check_free_space
 11618 46f4 0028     		cmp	r0, #0
 11619 46f6 7FD0     		beq	.L164
 11620              		.loc 1 422 0 discriminator 261
 11621 46f8 2388     		ldrh	r3, [r4, #0]
 11622 46fa 394E     		ldr	r6, .L300+24
 11623 46fc 0B33     		adds	r3, r3, #11
 11624 46fe 2380     		strh	r3, [r4, #0]	@ movhi
 11625 4700 3388     		ldrh	r3, [r6, #0]
 11626              	.LBB813:
 11627 4702 3548     		ldr	r0, .L300+16
 11628              	.LBE813:
 11629 4704 0133     		adds	r3, r3, #1
 11630 4706 3380     		strh	r3, [r6, #0]	@ movhi
 11631              	.LBB814:
 11632 4708 9921     		movs	r1, #153
 11633              	.LBE814:
 11634 470a 364D     		ldr	r5, .L300+28
 11635              	.LBB815:
 11636 470c FFF7FEFF 		bl	uart_transmit
 11637              	.LVL1876:
 11638 4710 3148     		ldr	r0, .L300+16
 11639 4712 0B21     		movs	r1, #11
 11640              	.LBE815:
 11641 4714 344C     		ldr	r4, .L300+32
 11642              	.LBB816:
 11643 4716 FFF7FEFF 		bl	uart_transmit
 11644              	.LBE816:
 11645 471a 0C23     		movs	r3, #12
 11646 471c 2B70     		strb	r3, [r5, #0]
 11647 471e 1723     		movs	r3, #23
 11648 4720 2370     		strb	r3, [r4, #0]
 11649 4722 2D48     		ldr	r0, .L300+16
 11650 4724 0121     		movs	r1, #1
 11651 4726 FFF7FEFF 		bl	uart_transmit
 11652 472a 2B78     		ldrb	r3, [r5, #0]	@ zero_extendqisi2
 11653 472c 2278     		ldrb	r2, [r4, #0]	@ zero_extendqisi2
 11654 472e 1E33     		adds	r3, r3, #30
 11655 4730 DBB2     		uxtb	r3, r3
 11656 4732 2B70     		strb	r3, [r5, #0]
 11657 4734 9B18     		adds	r3, r3, r2
 11658 4736 2370     		strb	r3, [r4, #0]
 11659 4738 2748     		ldr	r0, .L300+16
 11660 473a 1E21     		movs	r1, #30
 11661 473c FFF7FEFF 		bl	uart_transmit
 11662              	.LBB817:
 11663 4740 234B     		ldr	r3, .L300+8
 11664 4742 2278     		ldrb	r2, [r4, #0]	@ zero_extendqisi2
 11665 4744 1978     		ldrb	r1, [r3, #0]	@ zero_extendqisi2
 11666              	.LVL1877:
 11667 4746 2B78     		ldrb	r3, [r5, #0]	@ zero_extendqisi2
 11668 4748 2348     		ldr	r0, .L300+16
 11669 474a CB18     		adds	r3, r1, r3
 11670 474c DBB2     		uxtb	r3, r3
 11671              	.LVL1878:
 11672 474e 2B70     		strb	r3, [r5, #0]
 11673 4750 9B18     		adds	r3, r3, r2
 11674              	.LVL1879:
 11675 4752 2370     		strb	r3, [r4, #0]
 11676 4754 FFF7FEFF 		bl	uart_transmit
 11677              	.LVL1880:
 11678              	.LBE817:
 11679              	.LBB818:
 11680 4758 9DF81C10 		ldrb	r1, [sp, #28]	@ zero_extendqisi2
 11681              	.LVL1881:
 11682 475c 2B78     		ldrb	r3, [r5, #0]	@ zero_extendqisi2
 11683 475e 2278     		ldrb	r2, [r4, #0]	@ zero_extendqisi2
 11684 4760 CB18     		adds	r3, r1, r3
 11685 4762 DBB2     		uxtb	r3, r3
 11686              	.LVL1882:
 11687 4764 2B70     		strb	r3, [r5, #0]
 11688 4766 9B18     		adds	r3, r3, r2
 11689              	.LVL1883:
 11690 4768 2370     		strb	r3, [r4, #0]
 11691 476a 1B48     		ldr	r0, .L300+16
 11692 476c FFF7FEFF 		bl	uart_transmit
 11693              	.LVL1884:
 11694              	.LBE818:
 11695              	.LBB819:
 11696 4770 9DF81D10 		ldrb	r1, [sp, #29]	@ zero_extendqisi2
 11697              	.LVL1885:
 11698 4774 2B78     		ldrb	r3, [r5, #0]	@ zero_extendqisi2
 11699 4776 2278     		ldrb	r2, [r4, #0]	@ zero_extendqisi2
 11700 4778 CB18     		adds	r3, r1, r3
 11701 477a DBB2     		uxtb	r3, r3
 11702              	.LVL1886:
 11703 477c 2B70     		strb	r3, [r5, #0]
 11704 477e 9B18     		adds	r3, r3, r2
 11705              	.LVL1887:
 11706 4780 2370     		strb	r3, [r4, #0]
 11707 4782 1548     		ldr	r0, .L300+16
 11708 4784 FFF7FEFF 		bl	uart_transmit
 11709              	.LVL1888:
 11710              	.LBE819:
 11711              	.LBB820:
 11712 4788 3178     		ldrb	r1, [r6, #0]	@ zero_extendqisi2
 11713              	.LVL1889:
 11714 478a 2B78     		ldrb	r3, [r5, #0]	@ zero_extendqisi2
 11715 478c 2278     		ldrb	r2, [r4, #0]	@ zero_extendqisi2
 11716 478e CB18     		adds	r3, r1, r3
 11717 4790 DBB2     		uxtb	r3, r3
 11718              	.LVL1890:
 11719 4792 2B70     		strb	r3, [r5, #0]
 11720 4794 9B18     		adds	r3, r3, r2
 11721              	.LVL1891:
 11722 4796 2370     		strb	r3, [r4, #0]
 11723 4798 0F48     		ldr	r0, .L300+16
 11724 479a FFF7FEFF 		bl	uart_transmit
 11725              	.LVL1892:
 11726              	.LBE820:
 11727              	.LBB821:
 11728 479e 7178     		ldrb	r1, [r6, #1]	@ zero_extendqisi2
 11729              	.LVL1893:
 11730              	.L224:
 11731 47a0 2B78     		ldrb	r3, [r5, #0]	@ zero_extendqisi2
 11732 47a2 2278     		ldrb	r2, [r4, #0]	@ zero_extendqisi2
 11733 47a4 CB18     		adds	r3, r1, r3
 11734 47a6 DBB2     		uxtb	r3, r3
 11735              	.LVL1894:
 11736 47a8 2B70     		strb	r3, [r5, #0]
 11737 47aa 9B18     		adds	r3, r3, r2
 11738              	.LVL1895:
 11739 47ac 2370     		strb	r3, [r4, #0]
 11740 47ae 0A48     		ldr	r0, .L300+16
 11741 47b0 FFF7FEFF 		bl	uart_transmit
 11742              	.LVL1896:
 11743              	.LBE821:
 11744 47b4 2978     		ldrb	r1, [r5, #0]	@ zero_extendqisi2
 11745 47b6 0848     		ldr	r0, .L300+16
 11746 47b8 FFF7FEFF 		bl	uart_transmit
 11747 47bc 0648     		ldr	r0, .L300+16
 11748 47be 2178     		ldrb	r1, [r4, #0]	@ zero_extendqisi2
 11749 47c0 FFF7FEFF 		bl	uart_transmit
 11750 47c4 1CE0     		b	.L163
 11751              	.L301:
 11752 47c6 00BF     		.align	3
 11753              	.L300:
 11754 47c8 66666666 		.word	1717986918
 11755 47cc 66661440 		.word	1075078758
 11756 47d0 00000000 		.word	downlink_nb_ovrn
 11757 47d4 00000000 		.word	.LANCHOR48
 11758 47d8 00000000 		.word	uart2
 11759 47dc 00000000 		.word	downlink_nb_bytes
 11760 47e0 00000000 		.word	downlink_nb_msgs
 11761 47e4 00000000 		.word	ck_a
 11762 47e8 00000000 		.word	ck_b
 11763 47ec 00000000 		.word	v_ctl_auto_throttle_sum_err
 11764 47f0 00000000 		.word	v_ctl_auto_throttle_submode
 11765 47f4 00000000 		.word	.LANCHOR55
 11766              	.L164:
 11767              		.loc 1 422 0 discriminator 262
 11768 47f8 514B     		ldr	r3, .L302
 11769 47fa 1A78     		ldrb	r2, [r3, #0]	@ zero_extendqisi2
 11770 47fc 0132     		adds	r2, r2, #1
 11771 47fe 1A70     		strb	r2, [r3, #0]
 11772              	.L163:
 11773              	.LBE812:
 11774              		.loc 1 422 0 discriminator 260
 11775 4800 504B     		ldr	r3, .L302+4
 11776 4802 1B88     		ldrh	r3, [r3, #0]
 11777 4804 6C2B     		cmp	r3, #108
 11778 4806 40F0B380 		bne	.L165
 11779              		.loc 1 422 0 discriminator 264
 11780 480a 4F48     		ldr	r0, .L302+8
 11781 480c 0F21     		movs	r1, #15
 11782 480e FFF7FEFF 		bl	uart_check_free_space
 11783 4812 0028     		cmp	r0, #0
 11784 4814 00F0A880 		beq	.L166
 11785              		.loc 1 422 0 discriminator 266
 11786 4818 4C4B     		ldr	r3, .L302+12
 11787              	.LBB822:
 11788 481a 9921     		movs	r1, #153
 11789              	.LBE822:
 11790 481c 1A88     		ldrh	r2, [r3, #0]
 11791              	.LBB823:
 11792 481e 4A48     		ldr	r0, .L302+8
 11793              	.LBE823:
 11794 4820 0F32     		adds	r2, r2, #15
 11795 4822 1A80     		strh	r2, [r3, #0]	@ movhi
 11796 4824 4A4B     		ldr	r3, .L302+16
 11797 4826 4B4D     		ldr	r5, .L302+20
 11798 4828 1A88     		ldrh	r2, [r3, #0]
 11799 482a 4B4C     		ldr	r4, .L302+24
 11800 482c 0132     		adds	r2, r2, #1
 11801 482e 1A80     		strh	r2, [r3, #0]	@ movhi
 11802              	.LBB824:
 11803 4830 FFF7FEFF 		bl	uart_transmit
 11804              	.LVL1897:
 11805 4834 0F21     		movs	r1, #15
 11806 4836 4448     		ldr	r0, .L302+8
 11807 4838 FFF7FEFF 		bl	uart_transmit
 11808              	.LBE824:
 11809 483c 1023     		movs	r3, #16
 11810 483e 2B70     		strb	r3, [r5, #0]
 11811 4840 1F23     		movs	r3, #31
 11812 4842 2370     		strb	r3, [r4, #0]
 11813 4844 0121     		movs	r1, #1
 11814 4846 4048     		ldr	r0, .L302+8
 11815 4848 FFF7FEFF 		bl	uart_transmit
 11816 484c 2B78     		ldrb	r3, [r5, #0]	@ zero_extendqisi2
 11817 484e 2278     		ldrb	r2, [r4, #0]	@ zero_extendqisi2
 11818 4850 0933     		adds	r3, r3, #9
 11819 4852 DBB2     		uxtb	r3, r3
 11820              	.LBB825:
 11821 4854 414E     		ldr	r6, .L302+28
 11822              	.LBE825:
 11823 4856 2B70     		strb	r3, [r5, #0]
 11824 4858 9B18     		adds	r3, r3, r2
 11825 485a 2370     		strb	r3, [r4, #0]
 11826 485c 0921     		movs	r1, #9
 11827 485e 3A48     		ldr	r0, .L302+8
 11828 4860 FFF7FEFF 		bl	uart_transmit
 11829              	.LBB826:
 11830 4864 3178     		ldrb	r1, [r6, #0]	@ zero_extendqisi2
 11831              	.LVL1898:
 11832 4866 2B78     		ldrb	r3, [r5, #0]	@ zero_extendqisi2
 11833 4868 2278     		ldrb	r2, [r4, #0]	@ zero_extendqisi2
 11834 486a CB18     		adds	r3, r1, r3
 11835 486c DBB2     		uxtb	r3, r3
 11836              	.LVL1899:
 11837 486e 2B70     		strb	r3, [r5, #0]
 11838 4870 9B18     		adds	r3, r3, r2
 11839              	.LVL1900:
 11840 4872 2370     		strb	r3, [r4, #0]
 11841 4874 3448     		ldr	r0, .L302+8
 11842 4876 FFF7FEFF 		bl	uart_transmit
 11843              	.LVL1901:
 11844              	.LBE826:
 11845              	.LBB827:
 11846 487a 7178     		ldrb	r1, [r6, #1]	@ zero_extendqisi2
 11847              	.LVL1902:
 11848 487c 2B78     		ldrb	r3, [r5, #0]	@ zero_extendqisi2
 11849 487e 2278     		ldrb	r2, [r4, #0]	@ zero_extendqisi2
 11850 4880 CB18     		adds	r3, r1, r3
 11851 4882 DBB2     		uxtb	r3, r3
 11852              	.LVL1903:
 11853 4884 2B70     		strb	r3, [r5, #0]
 11854 4886 9B18     		adds	r3, r3, r2
 11855              	.LVL1904:
 11856 4888 2370     		strb	r3, [r4, #0]
 11857 488a 2F48     		ldr	r0, .L302+8
 11858 488c FFF7FEFF 		bl	uart_transmit
 11859              	.LVL1905:
 11860              	.LBE827:
 11861              	.LBB828:
 11862 4890 B178     		ldrb	r1, [r6, #2]	@ zero_extendqisi2
 11863              	.LVL1906:
 11864 4892 2B78     		ldrb	r3, [r5, #0]	@ zero_extendqisi2
 11865 4894 2278     		ldrb	r2, [r4, #0]	@ zero_extendqisi2
 11866 4896 CB18     		adds	r3, r1, r3
 11867 4898 DBB2     		uxtb	r3, r3
 11868              	.LVL1907:
 11869 489a 2B70     		strb	r3, [r5, #0]
 11870 489c 9B18     		adds	r3, r3, r2
 11871              	.LVL1908:
 11872 489e 2370     		strb	r3, [r4, #0]
 11873 48a0 2948     		ldr	r0, .L302+8
 11874 48a2 FFF7FEFF 		bl	uart_transmit
 11875              	.LVL1909:
 11876              	.LBE828:
 11877              	.LBB829:
 11878 48a6 F178     		ldrb	r1, [r6, #3]	@ zero_extendqisi2
 11879              	.LVL1910:
 11880 48a8 2B78     		ldrb	r3, [r5, #0]	@ zero_extendqisi2
 11881 48aa 2278     		ldrb	r2, [r4, #0]	@ zero_extendqisi2
 11882 48ac CB18     		adds	r3, r1, r3
 11883 48ae DBB2     		uxtb	r3, r3
 11884              	.LBE829:
 11885              	.LBB830:
 11886 48b0 2B4E     		ldr	r6, .L302+32
 11887              	.LVL1911:
 11888              	.LBE830:
 11889              	.LBB831:
 11890 48b2 2B70     		strb	r3, [r5, #0]
 11891 48b4 9B18     		adds	r3, r3, r2
 11892              	.LVL1912:
 11893 48b6 2370     		strb	r3, [r4, #0]
 11894 48b8 2348     		ldr	r0, .L302+8
 11895 48ba FFF7FEFF 		bl	uart_transmit
 11896              	.LVL1913:
 11897              	.LBE831:
 11898              	.LBB832:
 11899 48be 3178     		ldrb	r1, [r6, #0]	@ zero_extendqisi2
 11900              	.LVL1914:
 11901 48c0 2B78     		ldrb	r3, [r5, #0]	@ zero_extendqisi2
 11902 48c2 2278     		ldrb	r2, [r4, #0]	@ zero_extendqisi2
 11903 48c4 CB18     		adds	r3, r1, r3
 11904 48c6 DBB2     		uxtb	r3, r3
 11905              	.LVL1915:
 11906 48c8 2B70     		strb	r3, [r5, #0]
 11907 48ca 9B18     		adds	r3, r3, r2
 11908              	.LVL1916:
 11909 48cc 2370     		strb	r3, [r4, #0]
 11910 48ce 1E48     		ldr	r0, .L302+8
 11911 48d0 FFF7FEFF 		bl	uart_transmit
 11912              	.LVL1917:
 11913              	.LBE832:
 11914              	.LBB833:
 11915 48d4 7178     		ldrb	r1, [r6, #1]	@ zero_extendqisi2
 11916              	.LVL1918:
 11917 48d6 2B78     		ldrb	r3, [r5, #0]	@ zero_extendqisi2
 11918 48d8 2278     		ldrb	r2, [r4, #0]	@ zero_extendqisi2
 11919 48da CB18     		adds	r3, r1, r3
 11920 48dc DBB2     		uxtb	r3, r3
 11921              	.LVL1919:
 11922 48de 2B70     		strb	r3, [r5, #0]
 11923 48e0 9B18     		adds	r3, r3, r2
 11924              	.LVL1920:
 11925 48e2 2370     		strb	r3, [r4, #0]
 11926 48e4 1848     		ldr	r0, .L302+8
 11927 48e6 FFF7FEFF 		bl	uart_transmit
 11928              	.LVL1921:
 11929              	.LBE833:
 11930              	.LBB834:
 11931 48ea B178     		ldrb	r1, [r6, #2]	@ zero_extendqisi2
 11932              	.LVL1922:
 11933 48ec 2B78     		ldrb	r3, [r5, #0]	@ zero_extendqisi2
 11934 48ee 2278     		ldrb	r2, [r4, #0]	@ zero_extendqisi2
 11935 48f0 CB18     		adds	r3, r1, r3
 11936 48f2 DBB2     		uxtb	r3, r3
 11937              	.LVL1923:
 11938 48f4 2B70     		strb	r3, [r5, #0]
 11939 48f6 9B18     		adds	r3, r3, r2
 11940              	.LVL1924:
 11941 48f8 2370     		strb	r3, [r4, #0]
 11942 48fa 1348     		ldr	r0, .L302+8
 11943 48fc FFF7FEFF 		bl	uart_transmit
 11944              	.LVL1925:
 11945              	.LBE834:
 11946              	.LBB835:
 11947 4900 F178     		ldrb	r1, [r6, #3]	@ zero_extendqisi2
 11948              	.LVL1926:
 11949 4902 2B78     		ldrb	r3, [r5, #0]	@ zero_extendqisi2
 11950 4904 2278     		ldrb	r2, [r4, #0]	@ zero_extendqisi2
 11951 4906 CB18     		adds	r3, r1, r3
 11952 4908 DBB2     		uxtb	r3, r3
 11953              	.LVL1927:
 11954 490a 2B70     		strb	r3, [r5, #0]
 11955 490c 9B18     		adds	r3, r3, r2
 11956              	.LVL1928:
 11957 490e 2370     		strb	r3, [r4, #0]
 11958 4910 0D48     		ldr	r0, .L302+8
 11959 4912 FFF7FEFF 		bl	uart_transmit
 11960              	.LVL1929:
 11961              	.LBE835:
 11962              	.LBB836:
 11963 4916 134B     		ldr	r3, .L302+36
 11964 4918 2278     		ldrb	r2, [r4, #0]	@ zero_extendqisi2
 11965 491a 1978     		ldrb	r1, [r3, #0]	@ zero_extendqisi2
 11966              	.LVL1930:
 11967 491c 2B78     		ldrb	r3, [r5, #0]	@ zero_extendqisi2
 11968 491e 0A48     		ldr	r0, .L302+8
 11969 4920 CB18     		adds	r3, r1, r3
 11970 4922 DBB2     		uxtb	r3, r3
 11971              	.LVL1931:
 11972 4924 2B70     		strb	r3, [r5, #0]
 11973 4926 9B18     		adds	r3, r3, r2
 11974              	.LVL1932:
 11975 4928 2370     		strb	r3, [r4, #0]
 11976 492a FFF7FEFF 		bl	uart_transmit
 11977              	.LVL1933:
 11978              	.LBE836:
 11979 492e 2978     		ldrb	r1, [r5, #0]	@ zero_extendqisi2
 11980 4930 0548     		ldr	r0, .L302+8
 11981 4932 FFF7FEFF 		bl	uart_transmit
 11982 4936 0448     		ldr	r0, .L302+8
 11983 4938 2178     		ldrb	r1, [r4, #0]	@ zero_extendqisi2
 11984 493a FFF7FEFF 		bl	uart_transmit
 11985 493e 17E0     		b	.L165
 11986              	.L303:
 11987              		.align	2
 11988              	.L302:
 11989 4940 00000000 		.word	downlink_nb_ovrn
 11990 4944 00000000 		.word	.LANCHOR50
 11991 4948 00000000 		.word	uart2
 11992 494c 00000000 		.word	downlink_nb_bytes
 11993 4950 00000000 		.word	downlink_nb_msgs
 11994 4954 00000000 		.word	ck_a
 11995 4958 00000000 		.word	ck_b
 11996 495c 00000000 		.word	nav_utm_east0
 11997 4960 00000000 		.word	nav_utm_north0
 11998 4964 00000000 		.word	nav_utm_zone0
 11999              	.LVL1934:
 12000              	.L166:
 12001              		.loc 1 422 0 discriminator 267
 12002 4968 734B     		ldr	r3, .L304
 12003 496a 1A78     		ldrb	r2, [r3, #0]	@ zero_extendqisi2
 12004 496c 0132     		adds	r2, r2, #1
 12005 496e 1A70     		strb	r2, [r3, #0]
 12006              	.L165:
 12007              		.loc 1 422 0 discriminator 265
 12008 4970 724B     		ldr	r3, .L304+4
 12009 4972 1B88     		ldrh	r3, [r3, #0]
 12010 4974 722B     		cmp	r3, #114
 12011 4976 40F0F380 		bne	.L88
 12012              	.LBB837:
 12013              		.loc 1 422 0 discriminator 268
 12014 497a 714C     		ldr	r4, .L304+8
 12015 497c 2068     		ldr	r0, [r4, #0]
 12016 497e FFF7FEFF 		bl	__aeabi_i2f
 12017 4982 4FF06651 		mov	r1, #964689920
 12018 4986 FFF7FEFF 		bl	__aeabi_fmul
 12019 498a 0190     		str	r0, [sp, #4]	@ float
 12020 498c 6068     		ldr	r0, [r4, #4]
 12021 498e FFF7FEFF 		bl	__aeabi_i2f
 12022 4992 4FF06651 		mov	r1, #964689920
 12023 4996 FFF7FEFF 		bl	__aeabi_fmul
 12024 499a 0290     		str	r0, [sp, #8]	@ float
 12025 499c A068     		ldr	r0, [r4, #8]
 12026 499e FFF7FEFF 		bl	__aeabi_i2f
 12027 49a2 4FF06651 		mov	r1, #964689920
 12028 49a6 FFF7FEFF 		bl	__aeabi_fmul
 12029 49aa 1221     		movs	r1, #18
 12030 49ac 0390     		str	r0, [sp, #12]	@ float
 12031 49ae 6548     		ldr	r0, .L304+12
 12032 49b0 FFF7FEFF 		bl	uart_check_free_space
 12033 49b4 0028     		cmp	r0, #0
 12034 49b6 00F0CF80 		beq	.L167
 12035              		.loc 1 422 0 discriminator 269
 12036 49ba 634B     		ldr	r3, .L304+16
 12037              	.LBB838:
 12038 49bc 9921     		movs	r1, #153
 12039              	.LBE838:
 12040 49be 1A88     		ldrh	r2, [r3, #0]
 12041              	.LBB839:
 12042 49c0 6048     		ldr	r0, .L304+12
 12043              	.LBE839:
 12044 49c2 1232     		adds	r2, r2, #18
 12045 49c4 1A80     		strh	r2, [r3, #0]	@ movhi
 12046 49c6 614B     		ldr	r3, .L304+20
 12047 49c8 614D     		ldr	r5, .L304+24
 12048 49ca 1A88     		ldrh	r2, [r3, #0]
 12049 49cc 614C     		ldr	r4, .L304+28
 12050 49ce 0132     		adds	r2, r2, #1
 12051 49d0 1A80     		strh	r2, [r3, #0]	@ movhi
 12052              	.LBB840:
 12053 49d2 FFF7FEFF 		bl	uart_transmit
 12054              	.LVL1935:
 12055 49d6 1221     		movs	r1, #18
 12056 49d8 5A48     		ldr	r0, .L304+12
 12057 49da FFF7FEFF 		bl	uart_transmit
 12058              	.LBE840:
 12059 49de 1323     		movs	r3, #19
 12060 49e0 2B70     		strb	r3, [r5, #0]
 12061 49e2 2523     		movs	r3, #37
 12062 49e4 2370     		strb	r3, [r4, #0]
 12063 49e6 0121     		movs	r1, #1
 12064 49e8 5648     		ldr	r0, .L304+12
 12065 49ea FFF7FEFF 		bl	uart_transmit
 12066 49ee 2B78     		ldrb	r3, [r5, #0]	@ zero_extendqisi2
 12067 49f0 2278     		ldrb	r2, [r4, #0]	@ zero_extendqisi2
 12068 49f2 383B     		subs	r3, r3, #56
 12069 49f4 DBB2     		uxtb	r3, r3
 12070 49f6 2B70     		strb	r3, [r5, #0]
 12071 49f8 9B18     		adds	r3, r3, r2
 12072 49fa 2370     		strb	r3, [r4, #0]
 12073 49fc C821     		movs	r1, #200
 12074 49fe 5148     		ldr	r0, .L304+12
 12075 4a00 FFF7FEFF 		bl	uart_transmit
 12076              	.LBB841:
 12077 4a04 9DF80410 		ldrb	r1, [sp, #4]	@ zero_extendqisi2
 12078              	.LVL1936:
 12079 4a08 2B78     		ldrb	r3, [r5, #0]	@ zero_extendqisi2
 12080 4a0a 2278     		ldrb	r2, [r4, #0]	@ zero_extendqisi2
 12081 4a0c CB18     		adds	r3, r1, r3
 12082 4a0e DBB2     		uxtb	r3, r3
 12083              	.LVL1937:
 12084 4a10 2B70     		strb	r3, [r5, #0]
 12085 4a12 9B18     		adds	r3, r3, r2
 12086              	.LVL1938:
 12087 4a14 2370     		strb	r3, [r4, #0]
 12088 4a16 4B48     		ldr	r0, .L304+12
 12089 4a18 FFF7FEFF 		bl	uart_transmit
 12090              	.LVL1939:
 12091              	.LBE841:
 12092              	.LBB842:
 12093 4a1c 9DF80510 		ldrb	r1, [sp, #5]	@ zero_extendqisi2
 12094              	.LVL1940:
 12095 4a20 2B78     		ldrb	r3, [r5, #0]	@ zero_extendqisi2
 12096 4a22 2278     		ldrb	r2, [r4, #0]	@ zero_extendqisi2
 12097 4a24 CB18     		adds	r3, r1, r3
 12098 4a26 DBB2     		uxtb	r3, r3
 12099              	.LVL1941:
 12100 4a28 2B70     		strb	r3, [r5, #0]
 12101 4a2a 9B18     		adds	r3, r3, r2
 12102              	.LVL1942:
 12103 4a2c 2370     		strb	r3, [r4, #0]
 12104 4a2e 4548     		ldr	r0, .L304+12
 12105 4a30 FFF7FEFF 		bl	uart_transmit
 12106              	.LVL1943:
 12107              	.LBE842:
 12108              	.LBB843:
 12109 4a34 9DF80610 		ldrb	r1, [sp, #6]	@ zero_extendqisi2
 12110              	.LVL1944:
 12111 4a38 2B78     		ldrb	r3, [r5, #0]	@ zero_extendqisi2
 12112 4a3a 2278     		ldrb	r2, [r4, #0]	@ zero_extendqisi2
 12113 4a3c CB18     		adds	r3, r1, r3
 12114 4a3e DBB2     		uxtb	r3, r3
 12115              	.LVL1945:
 12116 4a40 2B70     		strb	r3, [r5, #0]
 12117 4a42 9B18     		adds	r3, r3, r2
 12118              	.LVL1946:
 12119 4a44 2370     		strb	r3, [r4, #0]
 12120 4a46 3F48     		ldr	r0, .L304+12
 12121 4a48 FFF7FEFF 		bl	uart_transmit
 12122              	.LVL1947:
 12123              	.LBE843:
 12124              	.LBB844:
 12125 4a4c 9DF80710 		ldrb	r1, [sp, #7]	@ zero_extendqisi2
 12126              	.LVL1948:
 12127 4a50 2B78     		ldrb	r3, [r5, #0]	@ zero_extendqisi2
 12128 4a52 2278     		ldrb	r2, [r4, #0]	@ zero_extendqisi2
 12129 4a54 CB18     		adds	r3, r1, r3
 12130 4a56 DBB2     		uxtb	r3, r3
 12131              	.LVL1949:
 12132 4a58 2B70     		strb	r3, [r5, #0]
 12133 4a5a 9B18     		adds	r3, r3, r2
 12134              	.LVL1950:
 12135 4a5c 2370     		strb	r3, [r4, #0]
 12136 4a5e 3948     		ldr	r0, .L304+12
 12137 4a60 FFF7FEFF 		bl	uart_transmit
 12138              	.LVL1951:
 12139              	.LBE844:
 12140              	.LBB845:
 12141 4a64 9DF80810 		ldrb	r1, [sp, #8]	@ zero_extendqisi2
 12142              	.LVL1952:
 12143 4a68 2B78     		ldrb	r3, [r5, #0]	@ zero_extendqisi2
 12144 4a6a 2278     		ldrb	r2, [r4, #0]	@ zero_extendqisi2
 12145 4a6c CB18     		adds	r3, r1, r3
 12146 4a6e DBB2     		uxtb	r3, r3
 12147              	.LVL1953:
 12148 4a70 2B70     		strb	r3, [r5, #0]
 12149 4a72 9B18     		adds	r3, r3, r2
 12150              	.LVL1954:
 12151 4a74 2370     		strb	r3, [r4, #0]
 12152 4a76 3348     		ldr	r0, .L304+12
 12153 4a78 FFF7FEFF 		bl	uart_transmit
 12154              	.LVL1955:
 12155              	.LBE845:
 12156              	.LBB846:
 12157 4a7c 9DF80910 		ldrb	r1, [sp, #9]	@ zero_extendqisi2
 12158              	.LVL1956:
 12159 4a80 2B78     		ldrb	r3, [r5, #0]	@ zero_extendqisi2
 12160 4a82 2278     		ldrb	r2, [r4, #0]	@ zero_extendqisi2
 12161 4a84 CB18     		adds	r3, r1, r3
 12162 4a86 DBB2     		uxtb	r3, r3
 12163              	.LVL1957:
 12164 4a88 2B70     		strb	r3, [r5, #0]
 12165 4a8a 9B18     		adds	r3, r3, r2
 12166              	.LVL1958:
 12167 4a8c 2370     		strb	r3, [r4, #0]
 12168 4a8e 2D48     		ldr	r0, .L304+12
 12169 4a90 FFF7FEFF 		bl	uart_transmit
 12170              	.LVL1959:
 12171              	.LBE846:
 12172              	.LBB847:
 12173 4a94 9DF80A10 		ldrb	r1, [sp, #10]	@ zero_extendqisi2
 12174              	.LVL1960:
 12175 4a98 2B78     		ldrb	r3, [r5, #0]	@ zero_extendqisi2
 12176 4a9a 2278     		ldrb	r2, [r4, #0]	@ zero_extendqisi2
 12177 4a9c CB18     		adds	r3, r1, r3
 12178 4a9e DBB2     		uxtb	r3, r3
 12179              	.LVL1961:
 12180 4aa0 2B70     		strb	r3, [r5, #0]
 12181 4aa2 9B18     		adds	r3, r3, r2
 12182              	.LVL1962:
 12183 4aa4 2370     		strb	r3, [r4, #0]
 12184 4aa6 2748     		ldr	r0, .L304+12
 12185 4aa8 FFF7FEFF 		bl	uart_transmit
 12186              	.LVL1963:
 12187              	.LBE847:
 12188              	.LBB848:
 12189 4aac 9DF80B10 		ldrb	r1, [sp, #11]	@ zero_extendqisi2
 12190              	.LVL1964:
 12191 4ab0 2B78     		ldrb	r3, [r5, #0]	@ zero_extendqisi2
 12192 4ab2 2278     		ldrb	r2, [r4, #0]	@ zero_extendqisi2
 12193 4ab4 CB18     		adds	r3, r1, r3
 12194 4ab6 DBB2     		uxtb	r3, r3
 12195              	.LVL1965:
 12196 4ab8 2B70     		strb	r3, [r5, #0]
 12197 4aba 9B18     		adds	r3, r3, r2
 12198              	.LVL1966:
 12199 4abc 2370     		strb	r3, [r4, #0]
 12200 4abe 2148     		ldr	r0, .L304+12
 12201 4ac0 FFF7FEFF 		bl	uart_transmit
 12202              	.LVL1967:
 12203              	.LBE848:
 12204              	.LBB849:
 12205 4ac4 9DF80C10 		ldrb	r1, [sp, #12]	@ zero_extendqisi2
 12206              	.LVL1968:
 12207 4ac8 2B78     		ldrb	r3, [r5, #0]	@ zero_extendqisi2
 12208 4aca 2278     		ldrb	r2, [r4, #0]	@ zero_extendqisi2
 12209 4acc CB18     		adds	r3, r1, r3
 12210 4ace DBB2     		uxtb	r3, r3
 12211              	.LVL1969:
 12212 4ad0 2B70     		strb	r3, [r5, #0]
 12213 4ad2 9B18     		adds	r3, r3, r2
 12214              	.LVL1970:
 12215 4ad4 2370     		strb	r3, [r4, #0]
 12216 4ad6 1B48     		ldr	r0, .L304+12
 12217 4ad8 FFF7FEFF 		bl	uart_transmit
 12218              	.LVL1971:
 12219              	.LBE849:
 12220              	.LBB850:
 12221 4adc 9DF80D10 		ldrb	r1, [sp, #13]	@ zero_extendqisi2
 12222              	.LVL1972:
 12223 4ae0 2B78     		ldrb	r3, [r5, #0]	@ zero_extendqisi2
 12224 4ae2 2278     		ldrb	r2, [r4, #0]	@ zero_extendqisi2
 12225 4ae4 CB18     		adds	r3, r1, r3
 12226 4ae6 DBB2     		uxtb	r3, r3
 12227              	.LVL1973:
 12228 4ae8 2B70     		strb	r3, [r5, #0]
 12229 4aea 9B18     		adds	r3, r3, r2
 12230              	.LVL1974:
 12231 4aec 2370     		strb	r3, [r4, #0]
 12232 4aee 1548     		ldr	r0, .L304+12
 12233 4af0 FFF7FEFF 		bl	uart_transmit
 12234              	.LVL1975:
 12235              	.LBE850:
 12236              	.LBB851:
 12237 4af4 9DF80E10 		ldrb	r1, [sp, #14]	@ zero_extendqisi2
 12238              	.LVL1976:
 12239 4af8 2B78     		ldrb	r3, [r5, #0]	@ zero_extendqisi2
 12240 4afa 2278     		ldrb	r2, [r4, #0]	@ zero_extendqisi2
 12241 4afc CB18     		adds	r3, r1, r3
 12242 4afe DBB2     		uxtb	r3, r3
 12243              	.LVL1977:
 12244 4b00 2B70     		strb	r3, [r5, #0]
 12245 4b02 9B18     		adds	r3, r3, r2
 12246              	.LVL1978:
 12247 4b04 2370     		strb	r3, [r4, #0]
 12248 4b06 0F48     		ldr	r0, .L304+12
 12249 4b08 FFF7FEFF 		bl	uart_transmit
 12250              	.LVL1979:
 12251              	.LBE851:
 12252              	.LBB852:
 12253 4b0c 9DF80F10 		ldrb	r1, [sp, #15]	@ zero_extendqisi2
 12254              	.LVL1980:
 12255 4b10 2B78     		ldrb	r3, [r5, #0]	@ zero_extendqisi2
 12256 4b12 2278     		ldrb	r2, [r4, #0]	@ zero_extendqisi2
 12257 4b14 CB18     		adds	r3, r1, r3
 12258 4b16 DBB2     		uxtb	r3, r3
 12259              	.LVL1981:
 12260 4b18 2B70     		strb	r3, [r5, #0]
 12261 4b1a 9B18     		adds	r3, r3, r2
 12262              	.LVL1982:
 12263 4b1c 2370     		strb	r3, [r4, #0]
 12264 4b1e 0948     		ldr	r0, .L304+12
 12265 4b20 FFF7FEFF 		bl	uart_transmit
 12266              	.LVL1983:
 12267              	.LBE852:
 12268 4b24 2978     		ldrb	r1, [r5, #0]	@ zero_extendqisi2
 12269 4b26 0748     		ldr	r0, .L304+12
 12270 4b28 FFF7FEFF 		bl	uart_transmit
 12271 4b2c 0548     		ldr	r0, .L304+12
 12272 4b2e 2178     		ldrb	r1, [r4, #0]	@ zero_extendqisi2
 12273 4b30 FFF7FEFF 		bl	uart_transmit
 12274 4b34 14E0     		b	.L88
 12275              	.L305:
 12276 4b36 00BF     		.align	2
 12277              	.L304:
 12278 4b38 00000000 		.word	downlink_nb_ovrn
 12279 4b3c 00000000 		.word	.LANCHOR51
 12280 4b40 00000000 		.word	imu
 12281 4b44 00000000 		.word	uart2
 12282 4b48 00000000 		.word	downlink_nb_bytes
 12283 4b4c 00000000 		.word	downlink_nb_msgs
 12284 4b50 00000000 		.word	ck_a
 12285 4b54 00000000 		.word	ck_b
 12286              	.LVL1984:
 12287              	.L167:
 12288              		.loc 1 422 0 discriminator 270
 12289 4b58 5B4B     		ldr	r3, .L306
 12290 4b5a 1A78     		ldrb	r2, [r3, #0]	@ zero_extendqisi2
 12291 4b5c 0132     		adds	r2, r2, #1
 12292 4b5e 1A70     		strb	r2, [r3, #0]
 12293              	.L88:
 12294              	.LBE837:
 12295              	.LBE485:
 12296              		.loc 1 422 0 discriminator 122
 12297 4b60 5A4B     		ldr	r3, .L306+4
 12298 4b62 1B78     		ldrb	r3, [r3, #0]	@ zero_extendqisi2
 12299 4b64 022B     		cmp	r3, #2
 12300 4b66 41F0AF81 		bne	.L4
 12301              	.LBB853:
 12302              		.loc 1 422 0 discriminator 271
 12303 4b6a 594B     		ldr	r3, .L306+8
 12304 4b6c 1A88     		ldrh	r2, [r3, #0]
 12305 4b6e 0132     		adds	r2, r2, #1
 12306 4b70 92B2     		uxth	r2, r2
 12307 4b72 B2F5967F 		cmp	r2, #300
 12308 4b76 1A80     		strh	r2, [r3, #0]	@ movhi
 12309 4b78 01D3     		bcc	.L168
 12310              		.loc 1 422 0 discriminator 272
 12311 4b7a 0022     		movs	r2, #0
 12312 4b7c 1A80     		strh	r2, [r3, #0]	@ movhi
 12313              	.L168:
 12314              		.loc 1 422 0 discriminator 273
 12315 4b7e 554B     		ldr	r3, .L306+12
 12316 4b80 1A88     		ldrh	r2, [r3, #0]
 12317 4b82 0132     		adds	r2, r2, #1
 12318 4b84 92B2     		uxth	r2, r2
 12319 4b86 B2F5997F 		cmp	r2, #306
 12320 4b8a 1A80     		strh	r2, [r3, #0]	@ movhi
 12321 4b8c 01D3     		bcc	.L169
 12322              		.loc 1 422 0 discriminator 274
 12323 4b8e 0022     		movs	r2, #0
 12324 4b90 1A80     		strh	r2, [r3, #0]	@ movhi
 12325              	.L169:
 12326              		.loc 1 422 0 discriminator 275
 12327 4b92 514B     		ldr	r3, .L306+16
 12328 4b94 1A88     		ldrh	r2, [r3, #0]
 12329 4b96 0132     		adds	r2, r2, #1
 12330 4b98 92B2     		uxth	r2, r2
 12331 4b9a B2F59F7F 		cmp	r2, #318
 12332 4b9e 1A80     		strh	r2, [r3, #0]	@ movhi
 12333 4ba0 01D3     		bcc	.L170
 12334              		.loc 1 422 0 discriminator 276
 12335 4ba2 0022     		movs	r2, #0
 12336 4ba4 1A80     		strh	r2, [r3, #0]	@ movhi
 12337              	.L170:
 12338              		.loc 1 422 0 discriminator 277
 12339 4ba6 4D4B     		ldr	r3, .L306+20
 12340 4ba8 1A88     		ldrh	r2, [r3, #0]
 12341 4baa 0132     		adds	r2, r2, #1
 12342 4bac 92B2     		uxth	r2, r2
 12343 4bae B2F5A27F 		cmp	r2, #324
 12344 4bb2 1A80     		strh	r2, [r3, #0]	@ movhi
 12345 4bb4 01D3     		bcc	.L171
 12346              		.loc 1 422 0 discriminator 278
 12347 4bb6 0022     		movs	r2, #0
 12348 4bb8 1A80     		strh	r2, [r3, #0]	@ movhi
 12349              	.L171:
 12350              		.loc 1 422 0 discriminator 279
 12351 4bba 494B     		ldr	r3, .L306+24
 12352 4bbc 1A88     		ldrh	r2, [r3, #0]
 12353 4bbe 0132     		adds	r2, r2, #1
 12354 4bc0 92B2     		uxth	r2, r2
 12355 4bc2 B2F5A57F 		cmp	r2, #330
 12356 4bc6 1A80     		strh	r2, [r3, #0]	@ movhi
 12357 4bc8 01D3     		bcc	.L172
 12358              		.loc 1 422 0 discriminator 280
 12359 4bca 0022     		movs	r2, #0
 12360 4bcc 1A80     		strh	r2, [r3, #0]	@ movhi
 12361              	.L172:
 12362              		.loc 1 422 0 discriminator 281
 12363 4bce 454B     		ldr	r3, .L306+28
 12364 4bd0 1A88     		ldrh	r2, [r3, #0]
 12365 4bd2 0132     		adds	r2, r2, #1
 12366 4bd4 92B2     		uxth	r2, r2
 12367 4bd6 B2F5AB7F 		cmp	r2, #342
 12368 4bda 1A80     		strh	r2, [r3, #0]	@ movhi
 12369 4bdc 01D3     		bcc	.L173
 12370              		.loc 1 422 0 discriminator 282
 12371 4bde 0022     		movs	r2, #0
 12372 4be0 1A80     		strh	r2, [r3, #0]	@ movhi
 12373              	.L173:
 12374              		.loc 1 422 0 discriminator 283
 12375 4be2 414B     		ldr	r3, .L306+32
 12376 4be4 1A88     		ldrh	r2, [r3, #0]
 12377 4be6 0132     		adds	r2, r2, #1
 12378 4be8 92B2     		uxth	r2, r2
 12379 4bea B2F5D27F 		cmp	r2, #420
 12380 4bee 1A80     		strh	r2, [r3, #0]	@ movhi
 12381 4bf0 01D3     		bcc	.L174
 12382              		.loc 1 422 0 discriminator 284
 12383 4bf2 0022     		movs	r2, #0
 12384 4bf4 1A80     		strh	r2, [r3, #0]	@ movhi
 12385              	.L174:
 12386              		.loc 1 422 0 discriminator 285
 12387 4bf6 3D4B     		ldr	r3, .L306+36
 12388 4bf8 40F25D21 		movw	r1, #605
 12389 4bfc 1A88     		ldrh	r2, [r3, #0]
 12390 4bfe 0132     		adds	r2, r2, #1
 12391 4c00 92B2     		uxth	r2, r2
 12392 4c02 8A42     		cmp	r2, r1
 12393 4c04 1A80     		strh	r2, [r3, #0]	@ movhi
 12394 4c06 01D9     		bls	.L175
 12395              		.loc 1 422 0 discriminator 286
 12396 4c08 0022     		movs	r2, #0
 12397 4c0a 1A80     		strh	r2, [r3, #0]	@ movhi
 12398              	.L175:
 12399              		.loc 1 422 0 discriminator 287
 12400 4c0c 384B     		ldr	r3, .L306+40
 12401 4c0e 1A88     		ldrh	r2, [r3, #0]
 12402 4c10 0132     		adds	r2, r2, #1
 12403 4c12 92B2     		uxth	r2, r2
 12404 4c14 B2F5197F 		cmp	r2, #612
 12405 4c18 1A80     		strh	r2, [r3, #0]	@ movhi
 12406 4c1a 01D3     		bcc	.L176
 12407              		.loc 1 422 0 discriminator 288
 12408 4c1c 0022     		movs	r2, #0
 12409 4c1e 1A80     		strh	r2, [r3, #0]	@ movhi
 12410              	.L176:
 12411              		.loc 1 422 0 discriminator 289
 12412 4c20 2B4B     		ldr	r3, .L306+8
 12413 4c22 1E88     		ldrh	r6, [r3, #0]
 12414 4c24 002E     		cmp	r6, #0
 12415 4c26 75D1     		bne	.L177
 12416              		.loc 1 422 0 discriminator 290
 12417 4c28 3248     		ldr	r0, .L306+44
 12418 4c2a 1721     		movs	r1, #23
 12419 4c2c FFF7FEFF 		bl	uart_check_free_space
 12420 4c30 0028     		cmp	r0, #0
 12421 4c32 6BD0     		beq	.L178
 12422              		.loc 1 422 0 discriminator 292
 12423 4c34 304B     		ldr	r3, .L306+48
 12424              	.LBB854:
 12425 4c36 2F48     		ldr	r0, .L306+44
 12426              	.LBE854:
 12427 4c38 1A88     		ldrh	r2, [r3, #0]
 12428              	.LBB855:
 12429 4c3a 9921     		movs	r1, #153
 12430              	.LBE855:
 12431 4c3c 1732     		adds	r2, r2, #23
 12432 4c3e 1A80     		strh	r2, [r3, #0]	@ movhi
 12433 4c40 2E4B     		ldr	r3, .L306+52
 12434 4c42 2F4D     		ldr	r5, .L306+56
 12435 4c44 1A88     		ldrh	r2, [r3, #0]
 12436 4c46 2F4C     		ldr	r4, .L306+60
 12437 4c48 0132     		adds	r2, r2, #1
 12438 4c4a 1A80     		strh	r2, [r3, #0]	@ movhi
 12439              	.LBB856:
 12440 4c4c FFF7FEFF 		bl	uart_transmit
 12441              	.LVL1985:
 12442 4c50 2848     		ldr	r0, .L306+44
 12443 4c52 1721     		movs	r1, #23
 12444 4c54 FFF7FEFF 		bl	uart_transmit
 12445              	.LBE856:
 12446 4c58 1823     		movs	r3, #24
 12447 4c5a 2B70     		strb	r3, [r5, #0]
 12448 4c5c 2F23     		movs	r3, #47
 12449 4c5e 2370     		strb	r3, [r4, #0]
 12450 4c60 2448     		ldr	r0, .L306+44
 12451 4c62 0121     		movs	r1, #1
 12452 4c64 FFF7FEFF 		bl	uart_transmit
 12453 4c68 2B78     		ldrb	r3, [r5, #0]	@ zero_extendqisi2
 12454 4c6a 2278     		ldrb	r2, [r4, #0]	@ zero_extendqisi2
 12455 4c6c 0233     		adds	r3, r3, #2
 12456 4c6e DBB2     		uxtb	r3, r3
 12457 4c70 2B70     		strb	r3, [r5, #0]
 12458 4c72 9B18     		adds	r3, r3, r2
 12459 4c74 2370     		strb	r3, [r4, #0]
 12460 4c76 1F48     		ldr	r0, .L306+44
 12461 4c78 0221     		movs	r1, #2
 12462 4c7a FFF7FEFF 		bl	uart_transmit
 12463              	.LBB857:
 12464 4c7e 2B78     		ldrb	r3, [r5, #0]	@ zero_extendqisi2
 12465 4c80 2278     		ldrb	r2, [r4, #0]	@ zero_extendqisi2
 12466 4c82 1033     		adds	r3, r3, #16
 12467 4c84 DBB2     		uxtb	r3, r3
 12468 4c86 2B70     		strb	r3, [r5, #0]
 12469 4c88 9B18     		adds	r3, r3, r2
 12470 4c8a 2370     		strb	r3, [r4, #0]
 12471 4c8c 1948     		ldr	r0, .L306+44
 12472 4c8e 1021     		movs	r1, #16
 12473 4c90 FFF7FEFF 		bl	uart_transmit
 12474              	.LVL1986:
 12475              	.LBB858:
 12476 4c94 1C4F     		ldr	r7, .L306+64
 12477              	.LVL1987:
 12478              	.L179:
 12479              		.loc 1 422 0 discriminator 295
 12480 4c96 F15D     		ldrb	r1, [r6, r7]	@ zero_extendqisi2
 12481              	.LVL1988:
 12482 4c98 2B78     		ldrb	r3, [r5, #0]	@ zero_extendqisi2
 12483 4c9a 2278     		ldrb	r2, [r4, #0]	@ zero_extendqisi2
 12484 4c9c CB18     		adds	r3, r1, r3
 12485 4c9e DBB2     		uxtb	r3, r3
 12486              	.LVL1989:
 12487 4ca0 2B70     		strb	r3, [r5, #0]
 12488 4ca2 9B18     		adds	r3, r3, r2
 12489              	.LVL1990:
 12490 4ca4 2370     		strb	r3, [r4, #0]
 12491 4ca6 1348     		ldr	r0, .L306+44
 12492 4ca8 0136     		adds	r6, r6, #1
 12493 4caa FFF7FEFF 		bl	uart_transmit
 12494              	.LVL1991:
 12495              	.LBE858:
 12496 4cae 102E     		cmp	r6, #16
 12497 4cb0 F1D1     		bne	.L179
 12498              	.LBE857:
 12499              		.loc 1 422 0 discriminator 296
 12500 4cb2 134B     		ldr	r3, .L306+56
 12501 4cb4 0F48     		ldr	r0, .L306+44
 12502 4cb6 1978     		ldrb	r1, [r3, #0]	@ zero_extendqisi2
 12503 4cb8 FFF7FEFF 		bl	uart_transmit
 12504 4cbc 114B     		ldr	r3, .L306+60
 12505 4cbe 0D48     		ldr	r0, .L306+44
 12506 4cc0 1978     		ldrb	r1, [r3, #0]	@ zero_extendqisi2
 12507 4cc2 FFF7FEFF 		bl	uart_transmit
 12508 4cc6 25E0     		b	.L177
 12509              	.L307:
 12510              		.align	2
 12511              	.L306:
 12512 4cc8 00000000 		.word	downlink_nb_ovrn
 12513 4ccc 00000000 		.word	telemetry_mode_Ap
 12514 4cd0 00000000 		.word	.LANCHOR56
 12515 4cd4 00000000 		.word	.LANCHOR57
 12516 4cd8 00000000 		.word	.LANCHOR58
 12517 4cdc 00000000 		.word	.LANCHOR59
 12518 4ce0 00000000 		.word	.LANCHOR60
 12519 4ce4 00000000 		.word	.LANCHOR61
 12520 4ce8 00000000 		.word	.LANCHOR62
 12521 4cec 00000000 		.word	.LANCHOR63
 12522 4cf0 00000000 		.word	.LANCHOR64
 12523 4cf4 00000000 		.word	uart2
 12524 4cf8 00000000 		.word	downlink_nb_bytes
 12525 4cfc 00000000 		.word	downlink_nb_msgs
 12526 4d00 00000000 		.word	ck_a
 12527 4d04 00000000 		.word	ck_b
 12528 4d08 00000000 		.word	.LC0
 12529              	.LVL1992:
 12530              	.L178:
 12531              		.loc 1 422 0 discriminator 293
 12532 4d0c A84B     		ldr	r3, .L308+16
 12533 4d0e 1A78     		ldrb	r2, [r3, #0]	@ zero_extendqisi2
 12534 4d10 0132     		adds	r2, r2, #1
 12535 4d12 1A70     		strb	r2, [r3, #0]
 12536              	.L177:
 12537              		.loc 1 422 0 discriminator 291
 12538 4d14 A74B     		ldr	r3, .L308+20
 12539 4d16 1B88     		ldrh	r3, [r3, #0]
 12540 4d18 062B     		cmp	r3, #6
 12541 4d1a 40F08982 		bne	.L180
 12542              	.LBB859:
 12543              		.loc 1 422 0 discriminator 297
 12544 4d1e A64C     		ldr	r4, .L308+24
 12545 4d20 236C     		ldr	r3, [r4, #64]
 12546 4d22 A06C     		ldr	r0, [r4, #72]
 12547 4d24 5B42     		negs	r3, r3
 12548 4d26 ADF81C30 		strh	r3, [sp, #28]	@ movhi
 12549              	.LVL1993:
 12550 4d2a FFF7FEFF 		bl	__aeabi_i2d
 12551 4d2e 9CA3     		adr	r3, .L308
 12552 4d30 D3E90023 		ldrd	r2, [r3]
 12553 4d34 FFF7FEFF 		bl	__aeabi_dmul
 12554 4d38 9BA3     		adr	r3, .L308+8
 12555 4d3a D3E90023 		ldrd	r2, [r3]
 12556 4d3e FFF7FEFF 		bl	__aeabi_ddiv
 12557 4d42 FFF7FEFF 		bl	__aeabi_d2iz
 12558 4d46 2121     		movs	r1, #33
 12559 4d48 ADF81E00 		strh	r0, [sp, #30]	@ movhi
 12560              	.LVL1994:
 12561 4d4c 9B48     		ldr	r0, .L308+28
 12562 4d4e FFF7FEFF 		bl	uart_check_free_space
 12563 4d52 0028     		cmp	r0, #0
 12564 4d54 00F08481 		beq	.L181
 12565              		.loc 1 422 0 discriminator 299
 12566 4d58 994B     		ldr	r3, .L308+32
 12567              	.LBB860:
 12568 4d5a 9921     		movs	r1, #153
 12569              	.LBE860:
 12570 4d5c 1A88     		ldrh	r2, [r3, #0]
 12571              	.LBB861:
 12572 4d5e 9748     		ldr	r0, .L308+28
 12573              	.LBE861:
 12574 4d60 2132     		adds	r2, r2, #33
 12575 4d62 1A80     		strh	r2, [r3, #0]	@ movhi
 12576 4d64 974B     		ldr	r3, .L308+36
 12577 4d66 984E     		ldr	r6, .L308+40
 12578 4d68 1A88     		ldrh	r2, [r3, #0]
 12579 4d6a 984D     		ldr	r5, .L308+44
 12580 4d6c 0132     		adds	r2, r2, #1
 12581 4d6e 1A80     		strh	r2, [r3, #0]	@ movhi
 12582              	.LBB862:
 12583 4d70 FFF7FEFF 		bl	uart_transmit
 12584              	.LVL1995:
 12585 4d74 2121     		movs	r1, #33
 12586 4d76 9148     		ldr	r0, .L308+28
 12587 4d78 FFF7FEFF 		bl	uart_transmit
 12588              	.LBE862:
 12589 4d7c 2223     		movs	r3, #34
 12590 4d7e 3370     		strb	r3, [r6, #0]
 12591 4d80 4323     		movs	r3, #67
 12592 4d82 2B70     		strb	r3, [r5, #0]
 12593 4d84 0121     		movs	r1, #1
 12594 4d86 8D48     		ldr	r0, .L308+28
 12595 4d88 FFF7FEFF 		bl	uart_transmit
 12596 4d8c 3378     		ldrb	r3, [r6, #0]	@ zero_extendqisi2
 12597 4d8e 2A78     		ldrb	r2, [r5, #0]	@ zero_extendqisi2
 12598 4d90 0833     		adds	r3, r3, #8
 12599 4d92 DBB2     		uxtb	r3, r3
 12600 4d94 3370     		strb	r3, [r6, #0]
 12601 4d96 9B18     		adds	r3, r3, r2
 12602 4d98 2B70     		strb	r3, [r5, #0]
 12603 4d9a 0821     		movs	r1, #8
 12604 4d9c 8748     		ldr	r0, .L308+28
 12605 4d9e FFF7FEFF 		bl	uart_transmit
 12606              	.LBB863:
 12607 4da2 94F85B10 		ldrb	r1, [r4, #91]	@ zero_extendqisi2
 12608              	.LVL1996:
 12609 4da6 3378     		ldrb	r3, [r6, #0]	@ zero_extendqisi2
 12610 4da8 2A78     		ldrb	r2, [r5, #0]	@ zero_extendqisi2
 12611 4daa CB18     		adds	r3, r1, r3
 12612 4dac DBB2     		uxtb	r3, r3
 12613              	.LVL1997:
 12614 4dae 3370     		strb	r3, [r6, #0]
 12615 4db0 9B18     		adds	r3, r3, r2
 12616              	.LVL1998:
 12617 4db2 2B70     		strb	r3, [r5, #0]
 12618 4db4 8148     		ldr	r0, .L308+28
 12619 4db6 FFF7FEFF 		bl	uart_transmit
 12620              	.LVL1999:
 12621              	.LBE863:
 12622              	.LBB864:
 12623 4dba 217F     		ldrb	r1, [r4, #28]	@ zero_extendqisi2
 12624              	.LVL2000:
 12625 4dbc 3378     		ldrb	r3, [r6, #0]	@ zero_extendqisi2
 12626 4dbe 2A78     		ldrb	r2, [r5, #0]	@ zero_extendqisi2
 12627 4dc0 CB18     		adds	r3, r1, r3
 12628 4dc2 DBB2     		uxtb	r3, r3
 12629              	.LVL2001:
 12630 4dc4 3370     		strb	r3, [r6, #0]
 12631 4dc6 9B18     		adds	r3, r3, r2
 12632              	.LVL2002:
 12633 4dc8 2B70     		strb	r3, [r5, #0]
 12634 4dca 7C48     		ldr	r0, .L308+28
 12635 4dcc FFF7FEFF 		bl	uart_transmit
 12636              	.LVL2003:
 12637              	.LBE864:
 12638              	.LBB865:
 12639 4dd0 617F     		ldrb	r1, [r4, #29]	@ zero_extendqisi2
 12640              	.LVL2004:
 12641 4dd2 3378     		ldrb	r3, [r6, #0]	@ zero_extendqisi2
 12642 4dd4 2A78     		ldrb	r2, [r5, #0]	@ zero_extendqisi2
 12643 4dd6 CB18     		adds	r3, r1, r3
 12644 4dd8 DBB2     		uxtb	r3, r3
 12645              	.LVL2005:
 12646 4dda 3370     		strb	r3, [r6, #0]
 12647 4ddc 9B18     		adds	r3, r3, r2
 12648              	.LVL2006:
 12649 4dde 2B70     		strb	r3, [r5, #0]
 12650 4de0 7648     		ldr	r0, .L308+28
 12651 4de2 FFF7FEFF 		bl	uart_transmit
 12652              	.LVL2007:
 12653              	.LBE865:
 12654              	.LBB866:
 12655 4de6 A17F     		ldrb	r1, [r4, #30]	@ zero_extendqisi2
 12656              	.LVL2008:
 12657 4de8 3378     		ldrb	r3, [r6, #0]	@ zero_extendqisi2
 12658 4dea 2A78     		ldrb	r2, [r5, #0]	@ zero_extendqisi2
 12659 4dec CB18     		adds	r3, r1, r3
 12660 4dee DBB2     		uxtb	r3, r3
 12661              	.LVL2009:
 12662 4df0 3370     		strb	r3, [r6, #0]
 12663 4df2 9B18     		adds	r3, r3, r2
 12664              	.LVL2010:
 12665 4df4 2B70     		strb	r3, [r5, #0]
 12666 4df6 7148     		ldr	r0, .L308+28
 12667 4df8 FFF7FEFF 		bl	uart_transmit
 12668              	.LVL2011:
 12669              	.LBE866:
 12670              	.LBB867:
 12671 4dfc E17F     		ldrb	r1, [r4, #31]	@ zero_extendqisi2
 12672              	.LVL2012:
 12673 4dfe 3378     		ldrb	r3, [r6, #0]	@ zero_extendqisi2
 12674 4e00 2A78     		ldrb	r2, [r5, #0]	@ zero_extendqisi2
 12675 4e02 CB18     		adds	r3, r1, r3
 12676 4e04 DBB2     		uxtb	r3, r3
 12677              	.LVL2013:
 12678 4e06 3370     		strb	r3, [r6, #0]
 12679 4e08 9B18     		adds	r3, r3, r2
 12680              	.LVL2014:
 12681 4e0a 2B70     		strb	r3, [r5, #0]
 12682 4e0c 6B48     		ldr	r0, .L308+28
 12683 4e0e FFF7FEFF 		bl	uart_transmit
 12684              	.LVL2015:
 12685              	.LBE867:
 12686              	.LBB868:
 12687 4e12 217E     		ldrb	r1, [r4, #24]	@ zero_extendqisi2
 12688              	.LVL2016:
 12689 4e14 3378     		ldrb	r3, [r6, #0]	@ zero_extendqisi2
 12690 4e16 2A78     		ldrb	r2, [r5, #0]	@ zero_extendqisi2
 12691 4e18 CB18     		adds	r3, r1, r3
 12692 4e1a DBB2     		uxtb	r3, r3
 12693              	.LVL2017:
 12694 4e1c 3370     		strb	r3, [r6, #0]
 12695 4e1e 9B18     		adds	r3, r3, r2
 12696              	.LVL2018:
 12697 4e20 2B70     		strb	r3, [r5, #0]
 12698 4e22 6648     		ldr	r0, .L308+28
 12699 4e24 FFF7FEFF 		bl	uart_transmit
 12700              	.LVL2019:
 12701              	.LBE868:
 12702              	.LBB869:
 12703 4e28 617E     		ldrb	r1, [r4, #25]	@ zero_extendqisi2
 12704              	.LVL2020:
 12705 4e2a 3378     		ldrb	r3, [r6, #0]	@ zero_extendqisi2
 12706 4e2c 2A78     		ldrb	r2, [r5, #0]	@ zero_extendqisi2
 12707 4e2e CB18     		adds	r3, r1, r3
 12708 4e30 DBB2     		uxtb	r3, r3
 12709              	.LVL2021:
 12710 4e32 3370     		strb	r3, [r6, #0]
 12711 4e34 9B18     		adds	r3, r3, r2
 12712              	.LVL2022:
 12713 4e36 2B70     		strb	r3, [r5, #0]
 12714 4e38 6048     		ldr	r0, .L308+28
 12715 4e3a FFF7FEFF 		bl	uart_transmit
 12716              	.LVL2023:
 12717              	.LBE869:
 12718              	.LBB870:
 12719 4e3e A17E     		ldrb	r1, [r4, #26]	@ zero_extendqisi2
 12720              	.LVL2024:
 12721 4e40 3378     		ldrb	r3, [r6, #0]	@ zero_extendqisi2
 12722 4e42 2A78     		ldrb	r2, [r5, #0]	@ zero_extendqisi2
 12723 4e44 CB18     		adds	r3, r1, r3
 12724 4e46 DBB2     		uxtb	r3, r3
 12725              	.LVL2025:
 12726 4e48 3370     		strb	r3, [r6, #0]
 12727 4e4a 9B18     		adds	r3, r3, r2
 12728              	.LVL2026:
 12729 4e4c 2B70     		strb	r3, [r5, #0]
 12730 4e4e 5B48     		ldr	r0, .L308+28
 12731 4e50 FFF7FEFF 		bl	uart_transmit
 12732              	.LVL2027:
 12733              	.LBE870:
 12734              	.LBB871:
 12735 4e54 E17E     		ldrb	r1, [r4, #27]	@ zero_extendqisi2
 12736              	.LVL2028:
 12737 4e56 3378     		ldrb	r3, [r6, #0]	@ zero_extendqisi2
 12738 4e58 2A78     		ldrb	r2, [r5, #0]	@ zero_extendqisi2
 12739 4e5a CB18     		adds	r3, r1, r3
 12740 4e5c DBB2     		uxtb	r3, r3
 12741              	.LVL2029:
 12742 4e5e 3370     		strb	r3, [r6, #0]
 12743 4e60 9B18     		adds	r3, r3, r2
 12744              	.LVL2030:
 12745 4e62 2B70     		strb	r3, [r5, #0]
 12746 4e64 5548     		ldr	r0, .L308+28
 12747 4e66 FFF7FEFF 		bl	uart_transmit
 12748              	.LVL2031:
 12749              	.LBE871:
 12750              	.LBB872:
 12751 4e6a 9DF81E10 		ldrb	r1, [sp, #30]	@ zero_extendqisi2
 12752              	.LVL2032:
 12753 4e6e 3378     		ldrb	r3, [r6, #0]	@ zero_extendqisi2
 12754 4e70 2A78     		ldrb	r2, [r5, #0]	@ zero_extendqisi2
 12755 4e72 CB18     		adds	r3, r1, r3
 12756 4e74 DBB2     		uxtb	r3, r3
 12757              	.LVL2033:
 12758 4e76 3370     		strb	r3, [r6, #0]
 12759 4e78 9B18     		adds	r3, r3, r2
 12760              	.LVL2034:
 12761 4e7a 2B70     		strb	r3, [r5, #0]
 12762 4e7c 4F48     		ldr	r0, .L308+28
 12763 4e7e FFF7FEFF 		bl	uart_transmit
 12764              	.LVL2035:
 12765              	.LBE872:
 12766              	.LBB873:
 12767 4e82 9DF81F10 		ldrb	r1, [sp, #31]	@ zero_extendqisi2
 12768              	.LVL2036:
 12769 4e86 3378     		ldrb	r3, [r6, #0]	@ zero_extendqisi2
 12770 4e88 2A78     		ldrb	r2, [r5, #0]	@ zero_extendqisi2
 12771 4e8a CB18     		adds	r3, r1, r3
 12772 4e8c DBB2     		uxtb	r3, r3
 12773              	.LVL2037:
 12774 4e8e 3370     		strb	r3, [r6, #0]
 12775 4e90 9B18     		adds	r3, r3, r2
 12776              	.LVL2038:
 12777 4e92 2B70     		strb	r3, [r5, #0]
 12778 4e94 4948     		ldr	r0, .L308+28
 12779 4e96 FFF7FEFF 		bl	uart_transmit
 12780              	.LVL2039:
 12781              	.LBE873:
 12782              	.LBB874:
 12783 4e9a 94F82810 		ldrb	r1, [r4, #40]	@ zero_extendqisi2
 12784              	.LVL2040:
 12785 4e9e 3378     		ldrb	r3, [r6, #0]	@ zero_extendqisi2
 12786 4ea0 2A78     		ldrb	r2, [r5, #0]	@ zero_extendqisi2
 12787 4ea2 CB18     		adds	r3, r1, r3
 12788 4ea4 DBB2     		uxtb	r3, r3
 12789              	.LVL2041:
 12790 4ea6 3370     		strb	r3, [r6, #0]
 12791 4ea8 9B18     		adds	r3, r3, r2
 12792              	.LVL2042:
 12793 4eaa 2B70     		strb	r3, [r5, #0]
 12794 4eac 4348     		ldr	r0, .L308+28
 12795 4eae FFF7FEFF 		bl	uart_transmit
 12796              	.LVL2043:
 12797              	.LBE874:
 12798              	.LBB875:
 12799 4eb2 94F82910 		ldrb	r1, [r4, #41]	@ zero_extendqisi2
 12800              	.LVL2044:
 12801 4eb6 3378     		ldrb	r3, [r6, #0]	@ zero_extendqisi2
 12802 4eb8 2A78     		ldrb	r2, [r5, #0]	@ zero_extendqisi2
 12803 4eba CB18     		adds	r3, r1, r3
 12804 4ebc DBB2     		uxtb	r3, r3
 12805              	.LVL2045:
 12806 4ebe 3370     		strb	r3, [r6, #0]
 12807 4ec0 9B18     		adds	r3, r3, r2
 12808              	.LVL2046:
 12809 4ec2 2B70     		strb	r3, [r5, #0]
 12810 4ec4 3D48     		ldr	r0, .L308+28
 12811 4ec6 FFF7FEFF 		bl	uart_transmit
 12812              	.LVL2047:
 12813              	.LBE875:
 12814              	.LBB876:
 12815 4eca 94F82A10 		ldrb	r1, [r4, #42]	@ zero_extendqisi2
 12816              	.LVL2048:
 12817 4ece 3378     		ldrb	r3, [r6, #0]	@ zero_extendqisi2
 12818 4ed0 2A78     		ldrb	r2, [r5, #0]	@ zero_extendqisi2
 12819 4ed2 CB18     		adds	r3, r1, r3
 12820 4ed4 DBB2     		uxtb	r3, r3
 12821              	.LVL2049:
 12822 4ed6 3370     		strb	r3, [r6, #0]
 12823 4ed8 9B18     		adds	r3, r3, r2
 12824              	.LVL2050:
 12825 4eda 2B70     		strb	r3, [r5, #0]
 12826 4edc 3748     		ldr	r0, .L308+28
 12827 4ede FFF7FEFF 		bl	uart_transmit
 12828              	.LVL2051:
 12829              	.LBE876:
 12830              	.LBB877:
 12831 4ee2 94F82B10 		ldrb	r1, [r4, #43]	@ zero_extendqisi2
 12832              	.LVL2052:
 12833 4ee6 3378     		ldrb	r3, [r6, #0]	@ zero_extendqisi2
 12834 4ee8 2A78     		ldrb	r2, [r5, #0]	@ zero_extendqisi2
 12835 4eea CB18     		adds	r3, r1, r3
 12836 4eec DBB2     		uxtb	r3, r3
 12837              	.LVL2053:
 12838 4eee 3370     		strb	r3, [r6, #0]
 12839 4ef0 9B18     		adds	r3, r3, r2
 12840              	.LVL2054:
 12841 4ef2 2B70     		strb	r3, [r5, #0]
 12842 4ef4 3148     		ldr	r0, .L308+28
 12843 4ef6 FFF7FEFF 		bl	uart_transmit
 12844              	.LVL2055:
 12845              	.LBE877:
 12846              	.LBB878:
 12847 4efa 94F84410 		ldrb	r1, [r4, #68]	@ zero_extendqisi2
 12848              	.LVL2056:
 12849 4efe 3378     		ldrb	r3, [r6, #0]	@ zero_extendqisi2
 12850 4f00 2A78     		ldrb	r2, [r5, #0]	@ zero_extendqisi2
 12851 4f02 CB18     		adds	r3, r1, r3
 12852 4f04 DBB2     		uxtb	r3, r3
 12853              	.LVL2057:
 12854 4f06 3370     		strb	r3, [r6, #0]
 12855 4f08 9B18     		adds	r3, r3, r2
 12856              	.LVL2058:
 12857 4f0a 2B70     		strb	r3, [r5, #0]
 12858 4f0c 2B48     		ldr	r0, .L308+28
 12859 4f0e FFF7FEFF 		bl	uart_transmit
 12860              	.LVL2059:
 12861              	.LBE878:
 12862              	.LBB879:
 12863 4f12 94F84510 		ldrb	r1, [r4, #69]	@ zero_extendqisi2
 12864              	.LVL2060:
 12865 4f16 3378     		ldrb	r3, [r6, #0]	@ zero_extendqisi2
 12866 4f18 2A78     		ldrb	r2, [r5, #0]	@ zero_extendqisi2
 12867 4f1a CB18     		adds	r3, r1, r3
 12868 4f1c DBB2     		uxtb	r3, r3
 12869              	.LVL2061:
 12870 4f1e 3370     		strb	r3, [r6, #0]
 12871 4f20 9B18     		adds	r3, r3, r2
 12872              	.LVL2062:
 12873 4f22 2B70     		strb	r3, [r5, #0]
 12874 4f24 2548     		ldr	r0, .L308+28
 12875 4f26 FFF7FEFF 		bl	uart_transmit
 12876              	.LVL2063:
 12877              	.LBE879:
 12878              	.LBB880:
 12879 4f2a 9DF81C10 		ldrb	r1, [sp, #28]	@ zero_extendqisi2
 12880              	.LVL2064:
 12881 4f2e 3378     		ldrb	r3, [r6, #0]	@ zero_extendqisi2
 12882 4f30 2A78     		ldrb	r2, [r5, #0]	@ zero_extendqisi2
 12883 4f32 CB18     		adds	r3, r1, r3
 12884 4f34 DBB2     		uxtb	r3, r3
 12885              	.LVL2065:
 12886 4f36 3370     		strb	r3, [r6, #0]
 12887 4f38 9B18     		adds	r3, r3, r2
 12888              	.LVL2066:
 12889 4f3a 2B70     		strb	r3, [r5, #0]
 12890 4f3c 1F48     		ldr	r0, .L308+28
 12891 4f3e FFF7FEFF 		bl	uart_transmit
 12892              	.LVL2067:
 12893              	.LBE880:
 12894              	.LBB881:
 12895 4f42 9DF81D10 		ldrb	r1, [sp, #29]	@ zero_extendqisi2
 12896              	.LVL2068:
 12897 4f46 3378     		ldrb	r3, [r6, #0]	@ zero_extendqisi2
 12898 4f48 2A78     		ldrb	r2, [r5, #0]	@ zero_extendqisi2
 12899 4f4a CB18     		adds	r3, r1, r3
 12900 4f4c DBB2     		uxtb	r3, r3
 12901              	.LVL2069:
 12902 4f4e 3370     		strb	r3, [r6, #0]
 12903 4f50 9B18     		adds	r3, r3, r2
 12904              	.LVL2070:
 12905 4f52 2B70     		strb	r3, [r5, #0]
 12906 4f54 1948     		ldr	r0, .L308+28
 12907 4f56 FFF7FEFF 		bl	uart_transmit
 12908              	.LVL2071:
 12909              	.LBE881:
 12910              	.LBB882:
 12911 4f5a 94F85C10 		ldrb	r1, [r4, #92]	@ zero_extendqisi2
 12912              	.LVL2072:
 12913 4f5e 3378     		ldrb	r3, [r6, #0]	@ zero_extendqisi2
 12914 4f60 2A78     		ldrb	r2, [r5, #0]	@ zero_extendqisi2
 12915 4f62 CB18     		adds	r3, r1, r3
 12916 4f64 DBB2     		uxtb	r3, r3
 12917              	.LVL2073:
 12918 4f66 3370     		strb	r3, [r6, #0]
 12919 4f68 9B18     		adds	r3, r3, r2
 12920              	.LVL2074:
 12921 4f6a 2B70     		strb	r3, [r5, #0]
 12922 4f6c 1348     		ldr	r0, .L308+28
 12923 4f6e FFF7FEFF 		bl	uart_transmit
 12924              	.LVL2075:
 12925              	.LBE882:
 12926              	.LBB883:
 12927 4f72 94F85D10 		ldrb	r1, [r4, #93]	@ zero_extendqisi2
 12928              	.LVL2076:
 12929 4f76 3378     		ldrb	r3, [r6, #0]	@ zero_extendqisi2
 12930 4f78 2A78     		ldrb	r2, [r5, #0]	@ zero_extendqisi2
 12931 4f7a CB18     		adds	r3, r1, r3
 12932 4f7c DBB2     		uxtb	r3, r3
 12933              	.LVL2077:
 12934 4f7e 3370     		strb	r3, [r6, #0]
 12935 4f80 9B18     		adds	r3, r3, r2
 12936              	.LVL2078:
 12937 4f82 2B70     		strb	r3, [r5, #0]
 12938 4f84 0D48     		ldr	r0, .L308+28
 12939 4f86 FFF7FEFF 		bl	uart_transmit
 12940              	.LVL2079:
 12941              	.LBE883:
 12942              	.LBB884:
 12943 4f8a 94F86010 		ldrb	r1, [r4, #96]	@ zero_extendqisi2
 12944              	.LVL2080:
 12945 4f8e 3378     		ldrb	r3, [r6, #0]	@ zero_extendqisi2
 12946 4f90 2A78     		ldrb	r2, [r5, #0]	@ zero_extendqisi2
 12947 4f92 CB18     		adds	r3, r1, r3
 12948 4f94 DBB2     		uxtb	r3, r3
 12949              	.LVL2081:
 12950 4f96 3370     		strb	r3, [r6, #0]
 12951 4f98 9B18     		adds	r3, r3, r2
 12952              	.LVL2082:
 12953 4f9a 2B70     		strb	r3, [r5, #0]
 12954 4f9c 18E0     		b	.L309
 12955              	.L310:
 12956 4f9e 00BF     		.align	3
 12957              	.L308:
 12958 4fa0 F8C1631A 		.word	442745336
 12959 4fa4 DCA54C40 		.word	1078765020
 12960 4fa8 00000000 		.word	0
 12961 4fac 80842E41 		.word	1093567616
 12962 4fb0 00000000 		.word	downlink_nb_ovrn
 12963 4fb4 00000000 		.word	.LANCHOR57
 12964 4fb8 00000000 		.word	gps
 12965 4fbc 00000000 		.word	uart2
 12966 4fc0 00000000 		.word	downlink_nb_bytes
 12967 4fc4 00000000 		.word	downlink_nb_msgs
 12968 4fc8 00000000 		.word	ck_a
 12969 4fcc 00000000 		.word	ck_b
 12970              	.L309:
 12971 4fd0 8B48     		ldr	r0, .L311
 12972 4fd2 FFF7FEFF 		bl	uart_transmit
 12973              	.LVL2083:
 12974              	.LBE884:
 12975              	.LBB885:
 12976 4fd6 94F86110 		ldrb	r1, [r4, #97]	@ zero_extendqisi2
 12977              	.LVL2084:
 12978 4fda 3378     		ldrb	r3, [r6, #0]	@ zero_extendqisi2
 12979 4fdc 2A78     		ldrb	r2, [r5, #0]	@ zero_extendqisi2
 12980 4fde CB18     		adds	r3, r1, r3
 12981 4fe0 DBB2     		uxtb	r3, r3
 12982              	.LVL2085:
 12983 4fe2 3370     		strb	r3, [r6, #0]
 12984 4fe4 9B18     		adds	r3, r3, r2
 12985              	.LVL2086:
 12986 4fe6 2B70     		strb	r3, [r5, #0]
 12987 4fe8 8548     		ldr	r0, .L311
 12988 4fea FFF7FEFF 		bl	uart_transmit
 12989              	.LVL2087:
 12990              	.LBE885:
 12991              	.LBB886:
 12992 4fee 94F86210 		ldrb	r1, [r4, #98]	@ zero_extendqisi2
 12993              	.LVL2088:
 12994 4ff2 3378     		ldrb	r3, [r6, #0]	@ zero_extendqisi2
 12995 4ff4 2A78     		ldrb	r2, [r5, #0]	@ zero_extendqisi2
 12996 4ff6 CB18     		adds	r3, r1, r3
 12997 4ff8 DBB2     		uxtb	r3, r3
 12998              	.LVL2089:
 12999 4ffa 3370     		strb	r3, [r6, #0]
 13000 4ffc 9B18     		adds	r3, r3, r2
 13001              	.LVL2090:
 13002 4ffe 2B70     		strb	r3, [r5, #0]
 13003 5000 7F48     		ldr	r0, .L311
 13004 5002 FFF7FEFF 		bl	uart_transmit
 13005              	.LVL2091:
 13006              	.LBE886:
 13007              	.LBB887:
 13008 5006 94F86310 		ldrb	r1, [r4, #99]	@ zero_extendqisi2
 13009              	.LVL2092:
 13010 500a 3378     		ldrb	r3, [r6, #0]	@ zero_extendqisi2
 13011 500c 2A78     		ldrb	r2, [r5, #0]	@ zero_extendqisi2
 13012 500e CB18     		adds	r3, r1, r3
 13013 5010 DBB2     		uxtb	r3, r3
 13014              	.LVL2093:
 13015 5012 3370     		strb	r3, [r6, #0]
 13016 5014 9B18     		adds	r3, r3, r2
 13017              	.LVL2094:
 13018 5016 2B70     		strb	r3, [r5, #0]
 13019 5018 7948     		ldr	r0, .L311
 13020 501a FFF7FEFF 		bl	uart_transmit
 13021              	.LVL2095:
 13022              	.LBE887:
 13023              	.LBB888:
 13024 501e 94F82410 		ldrb	r1, [r4, #36]	@ zero_extendqisi2
 13025              	.LVL2096:
 13026 5022 3378     		ldrb	r3, [r6, #0]	@ zero_extendqisi2
 13027 5024 2A78     		ldrb	r2, [r5, #0]	@ zero_extendqisi2
 13028 5026 CB18     		adds	r3, r1, r3
 13029 5028 DBB2     		uxtb	r3, r3
 13030              	.LVL2097:
 13031 502a 3370     		strb	r3, [r6, #0]
 13032 502c 9B18     		adds	r3, r3, r2
 13033              	.LVL2098:
 13034 502e 2B70     		strb	r3, [r5, #0]
 13035 5030 7348     		ldr	r0, .L311
 13036 5032 FFF7FEFF 		bl	uart_transmit
 13037              	.LVL2099:
 13038              	.LBE888:
 13039              	.LBB889:
 13040 5036 734B     		ldr	r3, .L311+4
 13041 5038 2A78     		ldrb	r2, [r5, #0]	@ zero_extendqisi2
 13042 503a 1978     		ldrb	r1, [r3, #0]	@ zero_extendqisi2
 13043              	.LVL2100:
 13044 503c 3378     		ldrb	r3, [r6, #0]	@ zero_extendqisi2
 13045 503e 7048     		ldr	r0, .L311
 13046 5040 CB18     		adds	r3, r1, r3
 13047 5042 DBB2     		uxtb	r3, r3
 13048              	.LVL2101:
 13049 5044 3370     		strb	r3, [r6, #0]
 13050 5046 9B18     		adds	r3, r3, r2
 13051              	.LVL2102:
 13052 5048 2B70     		strb	r3, [r5, #0]
 13053 504a FFF7FEFF 		bl	uart_transmit
 13054              	.LVL2103:
 13055              	.LBE889:
 13056 504e 3178     		ldrb	r1, [r6, #0]	@ zero_extendqisi2
 13057 5050 6B48     		ldr	r0, .L311
 13058 5052 FFF7FEFF 		bl	uart_transmit
 13059 5056 6A48     		ldr	r0, .L311
 13060 5058 2978     		ldrb	r1, [r5, #0]	@ zero_extendqisi2
 13061 505a FFF7FEFF 		bl	uart_transmit
 13062 505e 03E0     		b	.L182
 13063              	.LVL2104:
 13064              	.L181:
 13065              		.loc 1 422 0 discriminator 300
 13066 5060 694B     		ldr	r3, .L311+8
 13067 5062 1A78     		ldrb	r2, [r3, #0]	@ zero_extendqisi2
 13068 5064 0132     		adds	r2, r2, #1
 13069 5066 1A70     		strb	r2, [r3, #0]
 13070              	.L182:
 13071              		.loc 1 422 0 discriminator 301
 13072 5068 684A     		ldr	r2, .L311+12
 13073 506a 92F85B30 		ldrb	r3, [r2, #91]	@ zero_extendqisi2
 13074 506e 032B     		cmp	r3, #3
 13075 5070 644B     		ldr	r3, .L311+4
 13076 5072 06D0     		beq	.L183
 13077              		.loc 1 422 0 discriminator 302
 13078 5074 1878     		ldrb	r0, [r3, #0]	@ zero_extendqisi2
 13079 5076 92F86410 		ldrb	r1, [r2, #100]	@ zero_extendqisi2
 13080 507a 8842     		cmp	r0, r1
 13081 507c 01D3     		bcc	.L183
 13082              		.loc 1 422 0 discriminator 304
 13083 507e 0021     		movs	r1, #0
 13084 5080 1970     		strb	r1, [r3, #0]
 13085              	.L183:
 13086              		.loc 1 422 0 discriminator 303
 13087 5082 92F86420 		ldrb	r2, [r2, #100]	@ zero_extendqisi2
 13088 5086 1B78     		ldrb	r3, [r3, #0]	@ zero_extendqisi2
 13089 5088 B3EB420F 		cmp	r3, r2, lsl #1
 13090 508c 02DB     		blt	.L184
 13091              		.loc 1 422 0 discriminator 305
 13092 508e 5D4B     		ldr	r3, .L311+4
 13093 5090 0021     		movs	r1, #0
 13094 5092 1970     		strb	r1, [r3, #0]
 13095              	.L184:
 13096              		.loc 1 422 0 discriminator 306
 13097 5094 5B4E     		ldr	r6, .L311+4
 13098 5096 3378     		ldrb	r3, [r6, #0]	@ zero_extendqisi2
 13099 5098 9342     		cmp	r3, r2
 13100 509a 80F0C580 		bcs	.L185
 13101              		.loc 1 422 0 discriminator 307
 13102 509e 5B4F     		ldr	r7, .L311+12
 13103 50a0 07EBC303 		add	r3, r7, r3, lsl #3
 13104 50a4 93F86930 		ldrb	r3, [r3, #105]	@ zero_extendqisi2
 13105 50a8 002B     		cmp	r3, #0
 13106 50aa 00F0BD80 		beq	.L185
 13107              		.loc 1 422 0 discriminator 309
 13108 50ae 5448     		ldr	r0, .L311
 13109 50b0 0E21     		movs	r1, #14
 13110 50b2 FFF7FEFF 		bl	uart_check_free_space
 13111 50b6 0028     		cmp	r0, #0
 13112 50b8 00F0B280 		beq	.L186
 13113              		.loc 1 422 0 discriminator 310
 13114 50bc 544B     		ldr	r3, .L311+16
 13115              	.LBB890:
 13116 50be 9921     		movs	r1, #153
 13117              	.LBE890:
 13118 50c0 1A88     		ldrh	r2, [r3, #0]
 13119              	.LBB891:
 13120 50c2 4F48     		ldr	r0, .L311
 13121              	.LBE891:
 13122 50c4 0E32     		adds	r2, r2, #14
 13123 50c6 1A80     		strh	r2, [r3, #0]	@ movhi
 13124 50c8 524B     		ldr	r3, .L311+20
 13125 50ca 534D     		ldr	r5, .L311+24
 13126 50cc 1A88     		ldrh	r2, [r3, #0]
 13127 50ce 534C     		ldr	r4, .L311+28
 13128 50d0 0132     		adds	r2, r2, #1
 13129 50d2 1A80     		strh	r2, [r3, #0]	@ movhi
 13130              	.LBB892:
 13131 50d4 FFF7FEFF 		bl	uart_transmit
 13132              	.LVL2105:
 13133 50d8 0E21     		movs	r1, #14
 13134 50da 4948     		ldr	r0, .L311
 13135 50dc FFF7FEFF 		bl	uart_transmit
 13136              	.LBE892:
 13137 50e0 0F23     		movs	r3, #15
 13138 50e2 2B70     		strb	r3, [r5, #0]
 13139 50e4 1D23     		movs	r3, #29
 13140 50e6 2370     		strb	r3, [r4, #0]
 13141 50e8 0121     		movs	r1, #1
 13142 50ea 4548     		ldr	r0, .L311
 13143 50ec FFF7FEFF 		bl	uart_transmit
 13144 50f0 2B78     		ldrb	r3, [r5, #0]	@ zero_extendqisi2
 13145 50f2 2278     		ldrb	r2, [r4, #0]	@ zero_extendqisi2
 13146 50f4 1933     		adds	r3, r3, #25
 13147 50f6 DBB2     		uxtb	r3, r3
 13148 50f8 2B70     		strb	r3, [r5, #0]
 13149 50fa 9B18     		adds	r3, r3, r2
 13150 50fc 2370     		strb	r3, [r4, #0]
 13151 50fe 1921     		movs	r1, #25
 13152 5100 3F48     		ldr	r0, .L311
 13153 5102 FFF7FEFF 		bl	uart_transmit
 13154              	.LBB893:
 13155 5106 3178     		ldrb	r1, [r6, #0]	@ zero_extendqisi2
 13156              	.LVL2106:
 13157 5108 2B78     		ldrb	r3, [r5, #0]	@ zero_extendqisi2
 13158 510a 2278     		ldrb	r2, [r4, #0]	@ zero_extendqisi2
 13159 510c CB18     		adds	r3, r1, r3
 13160 510e DBB2     		uxtb	r3, r3
 13161              	.LVL2107:
 13162 5110 2B70     		strb	r3, [r5, #0]
 13163 5112 9B18     		adds	r3, r3, r2
 13164              	.LVL2108:
 13165 5114 2370     		strb	r3, [r4, #0]
 13166 5116 3A48     		ldr	r0, .L311
 13167 5118 FFF7FEFF 		bl	uart_transmit
 13168              	.LVL2109:
 13169              	.LBE893:
 13170              	.LBB894:
 13171 511c 3378     		ldrb	r3, [r6, #0]	@ zero_extendqisi2
 13172 511e 2278     		ldrb	r2, [r4, #0]	@ zero_extendqisi2
 13173 5120 07EBC303 		add	r3, r7, r3, lsl #3
 13174 5124 93F86610 		ldrb	r1, [r3, #102]	@ zero_extendqisi2
 13175              	.LVL2110:
 13176 5128 2B78     		ldrb	r3, [r5, #0]	@ zero_extendqisi2
 13177 512a 3548     		ldr	r0, .L311
 13178 512c CB18     		adds	r3, r1, r3
 13179 512e DBB2     		uxtb	r3, r3
 13180              	.LVL2111:
 13181 5130 2B70     		strb	r3, [r5, #0]
 13182 5132 9B18     		adds	r3, r3, r2
 13183              	.LVL2112:
 13184 5134 2370     		strb	r3, [r4, #0]
 13185 5136 FFF7FEFF 		bl	uart_transmit
 13186              	.LVL2113:
 13187              	.LBE894:
 13188              	.LBB895:
 13189 513a 3378     		ldrb	r3, [r6, #0]	@ zero_extendqisi2
 13190 513c 2278     		ldrb	r2, [r4, #0]	@ zero_extendqisi2
 13191 513e 07EBC303 		add	r3, r7, r3, lsl #3
 13192 5142 93F86710 		ldrb	r1, [r3, #103]	@ zero_extendqisi2
 13193              	.LVL2114:
 13194 5146 2B78     		ldrb	r3, [r5, #0]	@ zero_extendqisi2
 13195 5148 2D48     		ldr	r0, .L311
 13196 514a CB18     		adds	r3, r1, r3
 13197 514c DBB2     		uxtb	r3, r3
 13198              	.LVL2115:
 13199 514e 2B70     		strb	r3, [r5, #0]
 13200 5150 9B18     		adds	r3, r3, r2
 13201              	.LVL2116:
 13202 5152 2370     		strb	r3, [r4, #0]
 13203 5154 FFF7FEFF 		bl	uart_transmit
 13204              	.LVL2117:
 13205              	.LBE895:
 13206              	.LBB896:
 13207 5158 3378     		ldrb	r3, [r6, #0]	@ zero_extendqisi2
 13208 515a 2278     		ldrb	r2, [r4, #0]	@ zero_extendqisi2
 13209 515c 07EBC303 		add	r3, r7, r3, lsl #3
 13210 5160 93F86810 		ldrb	r1, [r3, #104]	@ zero_extendqisi2
 13211              	.LVL2118:
 13212 5164 2B78     		ldrb	r3, [r5, #0]	@ zero_extendqisi2
 13213 5166 2648     		ldr	r0, .L311
 13214 5168 CB18     		adds	r3, r1, r3
 13215 516a DBB2     		uxtb	r3, r3
 13216              	.LVL2119:
 13217 516c 2B70     		strb	r3, [r5, #0]
 13218 516e 9B18     		adds	r3, r3, r2
 13219              	.LVL2120:
 13220 5170 2370     		strb	r3, [r4, #0]
 13221 5172 FFF7FEFF 		bl	uart_transmit
 13222              	.LVL2121:
 13223              	.LBE896:
 13224              	.LBB897:
 13225 5176 3378     		ldrb	r3, [r6, #0]	@ zero_extendqisi2
 13226 5178 2278     		ldrb	r2, [r4, #0]	@ zero_extendqisi2
 13227 517a 07EBC303 		add	r3, r7, r3, lsl #3
 13228 517e 93F86910 		ldrb	r1, [r3, #105]	@ zero_extendqisi2
 13229              	.LVL2122:
 13230 5182 2B78     		ldrb	r3, [r5, #0]	@ zero_extendqisi2
 13231 5184 1E48     		ldr	r0, .L311
 13232 5186 CB18     		adds	r3, r1, r3
 13233 5188 DBB2     		uxtb	r3, r3
 13234              	.LVL2123:
 13235 518a 2B70     		strb	r3, [r5, #0]
 13236 518c 9B18     		adds	r3, r3, r2
 13237              	.LVL2124:
 13238 518e 2370     		strb	r3, [r4, #0]
 13239 5190 FFF7FEFF 		bl	uart_transmit
 13240              	.LVL2125:
 13241              	.LBE897:
 13242              	.LBB898:
 13243 5194 3378     		ldrb	r3, [r6, #0]	@ zero_extendqisi2
 13244 5196 2278     		ldrb	r2, [r4, #0]	@ zero_extendqisi2
 13245 5198 07EBC303 		add	r3, r7, r3, lsl #3
 13246 519c 93F86A10 		ldrb	r1, [r3, #106]	@ zero_extendqisi2
 13247              	.LVL2126:
 13248 51a0 2B78     		ldrb	r3, [r5, #0]	@ zero_extendqisi2
 13249 51a2 1748     		ldr	r0, .L311
 13250 51a4 CB18     		adds	r3, r1, r3
 13251 51a6 DBB2     		uxtb	r3, r3
 13252              	.LVL2127:
 13253 51a8 2B70     		strb	r3, [r5, #0]
 13254 51aa 9B18     		adds	r3, r3, r2
 13255              	.LVL2128:
 13256 51ac 2370     		strb	r3, [r4, #0]
 13257 51ae FFF7FEFF 		bl	uart_transmit
 13258              	.LVL2129:
 13259              	.LBE898:
 13260              	.LBB899:
 13261 51b2 3378     		ldrb	r3, [r6, #0]	@ zero_extendqisi2
 13262 51b4 0C37     		adds	r7, r7, #12
 13263 51b6 0C33     		adds	r3, r3, #12
 13264 51b8 17F83310 		ldrb	r1, [r7, r3, lsl #3]	@ zero_extendqisi2
 13265              	.LVL2130:
 13266 51bc 2B78     		ldrb	r3, [r5, #0]	@ zero_extendqisi2
 13267 51be 2278     		ldrb	r2, [r4, #0]	@ zero_extendqisi2
 13268 51c0 CB18     		adds	r3, r1, r3
 13269 51c2 DBB2     		uxtb	r3, r3
 13270              	.LVL2131:
 13271 51c4 2B70     		strb	r3, [r5, #0]
 13272 51c6 9B18     		adds	r3, r3, r2
 13273              	.LVL2132:
 13274 51c8 2370     		strb	r3, [r4, #0]
 13275 51ca 0D48     		ldr	r0, .L311
 13276 51cc FFF7FEFF 		bl	uart_transmit
 13277              	.LVL2133:
 13278              	.LBE899:
 13279              	.LBB900:
 13280 51d0 3378     		ldrb	r3, [r6, #0]	@ zero_extendqisi2
 13281 51d2 2278     		ldrb	r2, [r4, #0]	@ zero_extendqisi2
 13282 51d4 07EBC307 		add	r7, r7, r3, lsl #3
 13283 51d8 97F86110 		ldrb	r1, [r7, #97]	@ zero_extendqisi2
 13284              	.LVL2134:
 13285 51dc 2B78     		ldrb	r3, [r5, #0]	@ zero_extendqisi2
 13286 51de 0848     		ldr	r0, .L311
 13287 51e0 CB18     		adds	r3, r1, r3
 13288 51e2 DBB2     		uxtb	r3, r3
 13289              	.LVL2135:
 13290 51e4 2B70     		strb	r3, [r5, #0]
 13291 51e6 9B18     		adds	r3, r3, r2
 13292              	.LVL2136:
 13293 51e8 2370     		strb	r3, [r4, #0]
 13294 51ea FFF7FEFF 		bl	uart_transmit
 13295              	.LVL2137:
 13296              	.LBE900:
 13297 51ee 2978     		ldrb	r1, [r5, #0]	@ zero_extendqisi2
 13298 51f0 0348     		ldr	r0, .L311
 13299 51f2 FFF7FEFF 		bl	uart_transmit
 13300 51f6 0248     		ldr	r0, .L311
 13301 51f8 2178     		ldrb	r1, [r4, #0]	@ zero_extendqisi2
 13302 51fa FFF7FEFF 		bl	uart_transmit
 13303 51fe 13E0     		b	.L185
 13304              	.L312:
 13305              		.align	2
 13306              	.L311:
 13307 5200 00000000 		.word	uart2
 13308 5204 00000000 		.word	.LANCHOR65
 13309 5208 00000000 		.word	downlink_nb_ovrn
 13310 520c 00000000 		.word	gps
 13311 5210 00000000 		.word	downlink_nb_bytes
 13312 5214 00000000 		.word	downlink_nb_msgs
 13313 5218 00000000 		.word	ck_a
 13314 521c 00000000 		.word	ck_b
 13315              	.LVL2138:
 13316              	.L186:
 13317              		.loc 1 422 0 discriminator 311
 13318 5220 4D4B     		ldr	r3, .L313
 13319 5222 1A78     		ldrb	r2, [r3, #0]	@ zero_extendqisi2
 13320 5224 0132     		adds	r2, r2, #1
 13321 5226 1A70     		strb	r2, [r3, #0]
 13322              	.L185:
 13323              		.loc 1 422 0 discriminator 308
 13324 5228 4C4B     		ldr	r3, .L313+4
 13325 522a 1A78     		ldrb	r2, [r3, #0]	@ zero_extendqisi2
 13326 522c 0132     		adds	r2, r2, #1
 13327 522e 1A70     		strb	r2, [r3, #0]
 13328              	.L180:
 13329              	.LBE859:
 13330              		.loc 1 422 0 discriminator 298
 13331 5230 4B4B     		ldr	r3, .L313+8
 13332 5232 1B88     		ldrh	r3, [r3, #0]
 13333 5234 0C2B     		cmp	r3, #12
 13334 5236 40F0A780 		bne	.L187
 13335              		.loc 1 422 0 discriminator 312
 13336 523a 4A48     		ldr	r0, .L313+12
 13337 523c 0E21     		movs	r1, #14
 13338 523e FFF7FEFF 		bl	uart_check_free_space
 13339 5242 0028     		cmp	r0, #0
 13340 5244 00F09C80 		beq	.L188
 13341              		.loc 1 422 0 discriminator 314
 13342 5248 474B     		ldr	r3, .L313+16
 13343              	.LBB901:
 13344 524a 9921     		movs	r1, #153
 13345              	.LBE901:
 13346 524c 1A88     		ldrh	r2, [r3, #0]
 13347              	.LBB902:
 13348 524e 4548     		ldr	r0, .L313+12
 13349              	.LBE902:
 13350 5250 0E32     		adds	r2, r2, #14
 13351 5252 1A80     		strh	r2, [r3, #0]	@ movhi
 13352 5254 454B     		ldr	r3, .L313+20
 13353 5256 464D     		ldr	r5, .L313+24
 13354 5258 1A88     		ldrh	r2, [r3, #0]
 13355 525a 464C     		ldr	r4, .L313+28
 13356 525c 0132     		adds	r2, r2, #1
 13357 525e 1A80     		strh	r2, [r3, #0]	@ movhi
 13358              	.LBB903:
 13359 5260 FFF7FEFF 		bl	uart_transmit
 13360              	.LVL2139:
 13361 5264 0E21     		movs	r1, #14
 13362 5266 3F48     		ldr	r0, .L313+12
 13363 5268 FFF7FEFF 		bl	uart_transmit
 13364              	.LBE903:
 13365 526c 0F23     		movs	r3, #15
 13366 526e 2B70     		strb	r3, [r5, #0]
 13367 5270 1D23     		movs	r3, #29
 13368 5272 2370     		strb	r3, [r4, #0]
 13369 5274 0121     		movs	r1, #1
 13370 5276 3B48     		ldr	r0, .L313+12
 13371 5278 FFF7FEFF 		bl	uart_transmit
 13372 527c 2B78     		ldrb	r3, [r5, #0]	@ zero_extendqisi2
 13373 527e 2278     		ldrb	r2, [r4, #0]	@ zero_extendqisi2
 13374 5280 2A33     		adds	r3, r3, #42
 13375 5282 DBB2     		uxtb	r3, r3
 13376              	.LBB904:
 13377 5284 3C4E     		ldr	r6, .L313+32
 13378              	.LBE904:
 13379 5286 2B70     		strb	r3, [r5, #0]
 13380 5288 9B18     		adds	r3, r3, r2
 13381 528a 2370     		strb	r3, [r4, #0]
 13382 528c 2A21     		movs	r1, #42
 13383 528e 3548     		ldr	r0, .L313+12
 13384 5290 FFF7FEFF 		bl	uart_transmit
 13385              	.LBB905:
 13386 5294 3178     		ldrb	r1, [r6, #0]	@ zero_extendqisi2
 13387              	.LVL2140:
 13388 5296 2B78     		ldrb	r3, [r5, #0]	@ zero_extendqisi2
 13389 5298 2278     		ldrb	r2, [r4, #0]	@ zero_extendqisi2
 13390 529a CB18     		adds	r3, r1, r3
 13391 529c DBB2     		uxtb	r3, r3
 13392              	.LVL2141:
 13393 529e 2B70     		strb	r3, [r5, #0]
 13394 52a0 9B18     		adds	r3, r3, r2
 13395              	.LVL2142:
 13396 52a2 2370     		strb	r3, [r4, #0]
 13397 52a4 2F48     		ldr	r0, .L313+12
 13398 52a6 FFF7FEFF 		bl	uart_transmit
 13399              	.LVL2143:
 13400              	.LBE905:
 13401              	.LBB906:
 13402 52aa 7178     		ldrb	r1, [r6, #1]	@ zero_extendqisi2
 13403              	.LVL2144:
 13404 52ac 2B78     		ldrb	r3, [r5, #0]	@ zero_extendqisi2
 13405 52ae 2278     		ldrb	r2, [r4, #0]	@ zero_extendqisi2
 13406 52b0 CB18     		adds	r3, r1, r3
 13407 52b2 DBB2     		uxtb	r3, r3
 13408              	.LVL2145:
 13409 52b4 2B70     		strb	r3, [r5, #0]
 13410 52b6 9B18     		adds	r3, r3, r2
 13411              	.LVL2146:
 13412 52b8 2370     		strb	r3, [r4, #0]
 13413 52ba 2A48     		ldr	r0, .L313+12
 13414 52bc FFF7FEFF 		bl	uart_transmit
 13415              	.LVL2147:
 13416              	.LBE906:
 13417              	.LBB907:
 13418 52c0 B178     		ldrb	r1, [r6, #2]	@ zero_extendqisi2
 13419              	.LVL2148:
 13420 52c2 2B78     		ldrb	r3, [r5, #0]	@ zero_extendqisi2
 13421 52c4 2278     		ldrb	r2, [r4, #0]	@ zero_extendqisi2
 13422 52c6 CB18     		adds	r3, r1, r3
 13423 52c8 DBB2     		uxtb	r3, r3
 13424              	.LVL2149:
 13425 52ca 2B70     		strb	r3, [r5, #0]
 13426 52cc 9B18     		adds	r3, r3, r2
 13427              	.LVL2150:
 13428 52ce 2370     		strb	r3, [r4, #0]
 13429 52d0 2448     		ldr	r0, .L313+12
 13430 52d2 FFF7FEFF 		bl	uart_transmit
 13431              	.LVL2151:
 13432              	.LBE907:
 13433              	.LBB908:
 13434 52d6 F178     		ldrb	r1, [r6, #3]	@ zero_extendqisi2
 13435              	.LVL2152:
 13436 52d8 2B78     		ldrb	r3, [r5, #0]	@ zero_extendqisi2
 13437 52da 2278     		ldrb	r2, [r4, #0]	@ zero_extendqisi2
 13438 52dc CB18     		adds	r3, r1, r3
 13439 52de DBB2     		uxtb	r3, r3
 13440              	.LBE908:
 13441              	.LBB909:
 13442 52e0 264E     		ldr	r6, .L313+36
 13443              	.LVL2153:
 13444              	.LBE909:
 13445              	.LBB910:
 13446 52e2 2B70     		strb	r3, [r5, #0]
 13447 52e4 9B18     		adds	r3, r3, r2
 13448              	.LVL2154:
 13449 52e6 2370     		strb	r3, [r4, #0]
 13450 52e8 1E48     		ldr	r0, .L313+12
 13451 52ea FFF7FEFF 		bl	uart_transmit
 13452              	.LVL2155:
 13453              	.LBE910:
 13454              	.LBB911:
 13455 52ee 3178     		ldrb	r1, [r6, #0]	@ zero_extendqisi2
 13456              	.LVL2156:
 13457 52f0 2B78     		ldrb	r3, [r5, #0]	@ zero_extendqisi2
 13458 52f2 2278     		ldrb	r2, [r4, #0]	@ zero_extendqisi2
 13459 52f4 CB18     		adds	r3, r1, r3
 13460 52f6 DBB2     		uxtb	r3, r3
 13461              	.LVL2157:
 13462 52f8 2B70     		strb	r3, [r5, #0]
 13463 52fa 9B18     		adds	r3, r3, r2
 13464              	.LVL2158:
 13465 52fc 2370     		strb	r3, [r4, #0]
 13466 52fe 1948     		ldr	r0, .L313+12
 13467 5300 FFF7FEFF 		bl	uart_transmit
 13468              	.LVL2159:
 13469              	.LBE911:
 13470              	.LBB912:
 13471 5304 7178     		ldrb	r1, [r6, #1]	@ zero_extendqisi2
 13472              	.LVL2160:
 13473 5306 2B78     		ldrb	r3, [r5, #0]	@ zero_extendqisi2
 13474 5308 2278     		ldrb	r2, [r4, #0]	@ zero_extendqisi2
 13475 530a CB18     		adds	r3, r1, r3
 13476 530c DBB2     		uxtb	r3, r3
 13477              	.LVL2161:
 13478 530e 2B70     		strb	r3, [r5, #0]
 13479 5310 9B18     		adds	r3, r3, r2
 13480              	.LVL2162:
 13481 5312 2370     		strb	r3, [r4, #0]
 13482 5314 1348     		ldr	r0, .L313+12
 13483 5316 FFF7FEFF 		bl	uart_transmit
 13484              	.LVL2163:
 13485              	.LBE912:
 13486              	.LBB913:
 13487 531a B178     		ldrb	r1, [r6, #2]	@ zero_extendqisi2
 13488              	.LVL2164:
 13489 531c 2B78     		ldrb	r3, [r5, #0]	@ zero_extendqisi2
 13490 531e 2278     		ldrb	r2, [r4, #0]	@ zero_extendqisi2
 13491 5320 CB18     		adds	r3, r1, r3
 13492 5322 DBB2     		uxtb	r3, r3
 13493              	.LVL2165:
 13494 5324 2B70     		strb	r3, [r5, #0]
 13495 5326 9B18     		adds	r3, r3, r2
 13496              	.LVL2166:
 13497 5328 2370     		strb	r3, [r4, #0]
 13498 532a 0E48     		ldr	r0, .L313+12
 13499 532c FFF7FEFF 		bl	uart_transmit
 13500              	.LVL2167:
 13501              	.LBE913:
 13502              	.LBB914:
 13503 5330 F178     		ldrb	r1, [r6, #3]	@ zero_extendqisi2
 13504              	.LVL2168:
 13505 5332 2B78     		ldrb	r3, [r5, #0]	@ zero_extendqisi2
 13506 5334 2278     		ldrb	r2, [r4, #0]	@ zero_extendqisi2
 13507 5336 CB18     		adds	r3, r1, r3
 13508 5338 DBB2     		uxtb	r3, r3
 13509              	.LVL2169:
 13510 533a 2B70     		strb	r3, [r5, #0]
 13511 533c 9B18     		adds	r3, r3, r2
 13512              	.LVL2170:
 13513 533e 2370     		strb	r3, [r4, #0]
 13514 5340 0848     		ldr	r0, .L313+12
 13515 5342 FFF7FEFF 		bl	uart_transmit
 13516              	.LVL2171:
 13517              	.LBE914:
 13518 5346 2978     		ldrb	r1, [r5, #0]	@ zero_extendqisi2
 13519 5348 0648     		ldr	r0, .L313+12
 13520 534a FFF7FEFF 		bl	uart_transmit
 13521 534e 0548     		ldr	r0, .L313+12
 13522 5350 2178     		ldrb	r1, [r4, #0]	@ zero_extendqisi2
 13523 5352 FFF7FEFF 		bl	uart_transmit
 13524 5356 17E0     		b	.L187
 13525              	.L314:
 13526              		.align	2
 13527              	.L313:
 13528 5358 00000000 		.word	downlink_nb_ovrn
 13529 535c 00000000 		.word	.LANCHOR65
 13530 5360 00000000 		.word	.LANCHOR58
 13531 5364 00000000 		.word	uart2
 13532 5368 00000000 		.word	downlink_nb_bytes
 13533 536c 00000000 		.word	downlink_nb_msgs
 13534 5370 00000000 		.word	ck_a
 13535 5374 00000000 		.word	ck_b
 13536 5378 00000000 		.word	estimator_z
 13537 537c 00000000 		.word	estimator_z_dot
 13538              	.LVL2172:
 13539              	.L188:
 13540              		.loc 1 422 0 discriminator 315
 13541 5380 994B     		ldr	r3, .L315+8
 13542 5382 1A78     		ldrb	r2, [r3, #0]	@ zero_extendqisi2
 13543 5384 0132     		adds	r2, r2, #1
 13544 5386 1A70     		strb	r2, [r3, #0]
 13545              	.L187:
 13546              		.loc 1 422 0 discriminator 313
 13547 5388 984B     		ldr	r3, .L315+12
 13548 538a 1B88     		ldrh	r3, [r3, #0]
 13549 538c 122B     		cmp	r3, #18
 13550 538e 40F04D81 		bne	.L189
 13551              	.LBB915:
 13552              		.loc 1 422 0 discriminator 316
 13553 5392 974B     		ldr	r3, .L315+16
 13554 5394 9748     		ldr	r0, .L315+20
 13555 5396 1A21     		movs	r1, #26
 13556 5398 1C68     		ldr	r4, [r3, #0]	@ float
 13557              	.LVL2173:
 13558 539a FFF7FEFF 		bl	uart_check_free_space
 13559              	.LVL2174:
 13560 539e 0028     		cmp	r0, #0
 13561 53a0 00F04081 		beq	.L190
 13562              		.loc 1 422 0 discriminator 318
 13563 53a4 24F00040 		bic	r0, r4, #-2147483648
 13564 53a8 FFF7FEFF 		bl	__aeabi_f2d
 13565 53ac 8CA3     		adr	r3, .L315
 13566 53ae D3E90023 		ldrd	r2, [r3]
 13567 53b2 FFF7FEFF 		bl	__aeabi_ddiv
 13568 53b6 FFF7FEFF 		bl	__aeabi_d2uiz
 13569 53ba 8F4B     		ldr	r3, .L315+24
 13570 53bc C7B2     		uxtb	r7, r0
 13571 53be 1A88     		ldrh	r2, [r3, #0]
 13572              	.LBB916:
 13573 53c0 9921     		movs	r1, #153
 13574              	.LBE916:
 13575 53c2 1A32     		adds	r2, r2, #26
 13576 53c4 1A80     		strh	r2, [r3, #0]	@ movhi
 13577 53c6 8D4B     		ldr	r3, .L315+28
 13578              	.LBB917:
 13579 53c8 8A48     		ldr	r0, .L315+20
 13580              	.LBE917:
 13581 53ca 1A88     		ldrh	r2, [r3, #0]
 13582 53cc 8C4D     		ldr	r5, .L315+32
 13583 53ce 0132     		adds	r2, r2, #1
 13584 53d0 1A80     		strh	r2, [r3, #0]	@ movhi
 13585              	.LBB918:
 13586 53d2 FFF7FEFF 		bl	uart_transmit
 13587              	.LVL2175:
 13588 53d6 1A21     		movs	r1, #26
 13589 53d8 8648     		ldr	r0, .L315+20
 13590              	.LBE918:
 13591 53da 8A4C     		ldr	r4, .L315+36
 13592              	.LVL2176:
 13593              	.LBB919:
 13594 53dc FFF7FEFF 		bl	uart_transmit
 13595              	.LBE919:
 13596 53e0 1B23     		movs	r3, #27
 13597 53e2 2B70     		strb	r3, [r5, #0]
 13598 53e4 3523     		movs	r3, #53
 13599 53e6 2370     		strb	r3, [r4, #0]
 13600 53e8 0121     		movs	r1, #1
 13601 53ea 8248     		ldr	r0, .L315+20
 13602 53ec FFF7FEFF 		bl	uart_transmit
 13603 53f0 2B78     		ldrb	r3, [r5, #0]	@ zero_extendqisi2
 13604 53f2 2278     		ldrb	r2, [r4, #0]	@ zero_extendqisi2
 13605 53f4 0A33     		adds	r3, r3, #10
 13606 53f6 DBB2     		uxtb	r3, r3
 13607 53f8 2B70     		strb	r3, [r5, #0]
 13608 53fa 9B18     		adds	r3, r3, r2
 13609 53fc 2370     		strb	r3, [r4, #0]
 13610 53fe 0A21     		movs	r1, #10
 13611 5400 7C48     		ldr	r0, .L315+20
 13612 5402 FFF7FEFF 		bl	uart_transmit
 13613              	.LBB920:
 13614 5406 804B     		ldr	r3, .L315+40
 13615 5408 2278     		ldrb	r2, [r4, #0]	@ zero_extendqisi2
 13616 540a 1978     		ldrb	r1, [r3, #0]	@ zero_extendqisi2
 13617              	.LVL2177:
 13618 540c 2B78     		ldrb	r3, [r5, #0]	@ zero_extendqisi2
 13619 540e 7948     		ldr	r0, .L315+20
 13620 5410 CB18     		adds	r3, r1, r3
 13621 5412 DBB2     		uxtb	r3, r3
 13622              	.LVL2178:
 13623 5414 2B70     		strb	r3, [r5, #0]
 13624 5416 9B18     		adds	r3, r3, r2
 13625              	.LVL2179:
 13626 5418 2370     		strb	r3, [r4, #0]
 13627 541a FFF7FEFF 		bl	uart_transmit
 13628              	.LVL2180:
 13629              	.LBE920:
 13630              	.LBB921:
 13631 541e 7B4B     		ldr	r3, .L315+44
 13632 5420 2278     		ldrb	r2, [r4, #0]	@ zero_extendqisi2
 13633 5422 1978     		ldrb	r1, [r3, #0]	@ zero_extendqisi2
 13634              	.LVL2181:
 13635 5424 2B78     		ldrb	r3, [r5, #0]	@ zero_extendqisi2
 13636              	.LBE921:
 13637              	.LBB922:
 13638 5426 7A4E     		ldr	r6, .L315+48
 13639              	.LBE922:
 13640              	.LBB923:
 13641 5428 CB18     		adds	r3, r1, r3
 13642 542a DBB2     		uxtb	r3, r3
 13643              	.LVL2182:
 13644 542c 2B70     		strb	r3, [r5, #0]
 13645 542e 9B18     		adds	r3, r3, r2
 13646              	.LVL2183:
 13647 5430 2370     		strb	r3, [r4, #0]
 13648 5432 7048     		ldr	r0, .L315+20
 13649 5434 FFF7FEFF 		bl	uart_transmit
 13650              	.LVL2184:
 13651              	.LBE923:
 13652              	.LBB924:
 13653 5438 3178     		ldrb	r1, [r6, #0]	@ zero_extendqisi2
 13654              	.LVL2185:
 13655 543a 2B78     		ldrb	r3, [r5, #0]	@ zero_extendqisi2
 13656 543c 2278     		ldrb	r2, [r4, #0]	@ zero_extendqisi2
 13657 543e CB18     		adds	r3, r1, r3
 13658 5440 DBB2     		uxtb	r3, r3
 13659              	.LVL2186:
 13660 5442 2B70     		strb	r3, [r5, #0]
 13661 5444 9B18     		adds	r3, r3, r2
 13662              	.LVL2187:
 13663 5446 2370     		strb	r3, [r4, #0]
 13664 5448 6A48     		ldr	r0, .L315+20
 13665 544a FFF7FEFF 		bl	uart_transmit
 13666              	.LVL2188:
 13667              	.LBE924:
 13668              	.LBB925:
 13669 544e 7178     		ldrb	r1, [r6, #1]	@ zero_extendqisi2
 13670              	.LVL2189:
 13671 5450 2B78     		ldrb	r3, [r5, #0]	@ zero_extendqisi2
 13672 5452 2278     		ldrb	r2, [r4, #0]	@ zero_extendqisi2
 13673 5454 CB18     		adds	r3, r1, r3
 13674 5456 DBB2     		uxtb	r3, r3
 13675              	.LVL2190:
 13676 5458 2B70     		strb	r3, [r5, #0]
 13677 545a 9B18     		adds	r3, r3, r2
 13678              	.LVL2191:
 13679 545c 2370     		strb	r3, [r4, #0]
 13680 545e 6548     		ldr	r0, .L315+20
 13681 5460 FFF7FEFF 		bl	uart_transmit
 13682              	.LVL2192:
 13683              	.LBE925:
 13684              	.LBB926:
 13685 5464 B178     		ldrb	r1, [r6, #2]	@ zero_extendqisi2
 13686              	.LVL2193:
 13687 5466 2B78     		ldrb	r3, [r5, #0]	@ zero_extendqisi2
 13688 5468 2278     		ldrb	r2, [r4, #0]	@ zero_extendqisi2
 13689 546a CB18     		adds	r3, r1, r3
 13690 546c DBB2     		uxtb	r3, r3
 13691              	.LVL2194:
 13692 546e 2B70     		strb	r3, [r5, #0]
 13693 5470 9B18     		adds	r3, r3, r2
 13694              	.LVL2195:
 13695 5472 2370     		strb	r3, [r4, #0]
 13696 5474 5F48     		ldr	r0, .L315+20
 13697 5476 FFF7FEFF 		bl	uart_transmit
 13698              	.LVL2196:
 13699              	.LBE926:
 13700              	.LBB927:
 13701 547a F178     		ldrb	r1, [r6, #3]	@ zero_extendqisi2
 13702              	.LVL2197:
 13703 547c 2B78     		ldrb	r3, [r5, #0]	@ zero_extendqisi2
 13704 547e 2278     		ldrb	r2, [r4, #0]	@ zero_extendqisi2
 13705 5480 CB18     		adds	r3, r1, r3
 13706 5482 DBB2     		uxtb	r3, r3
 13707              	.LBE927:
 13708              	.LBB928:
 13709 5484 634E     		ldr	r6, .L315+52
 13710              	.LVL2198:
 13711              	.LBE928:
 13712              	.LBB929:
 13713 5486 2B70     		strb	r3, [r5, #0]
 13714 5488 9B18     		adds	r3, r3, r2
 13715              	.LVL2199:
 13716 548a 2370     		strb	r3, [r4, #0]
 13717 548c 5948     		ldr	r0, .L315+20
 13718 548e FFF7FEFF 		bl	uart_transmit
 13719              	.LVL2200:
 13720              	.LBE929:
 13721              	.LBB930:
 13722 5492 3178     		ldrb	r1, [r6, #0]	@ zero_extendqisi2
 13723              	.LVL2201:
 13724 5494 2B78     		ldrb	r3, [r5, #0]	@ zero_extendqisi2
 13725 5496 2278     		ldrb	r2, [r4, #0]	@ zero_extendqisi2
 13726 5498 CB18     		adds	r3, r1, r3
 13727 549a DBB2     		uxtb	r3, r3
 13728              	.LVL2202:
 13729 549c 2B70     		strb	r3, [r5, #0]
 13730 549e 9B18     		adds	r3, r3, r2
 13731              	.LVL2203:
 13732 54a0 2370     		strb	r3, [r4, #0]
 13733 54a2 5448     		ldr	r0, .L315+20
 13734 54a4 FFF7FEFF 		bl	uart_transmit
 13735              	.LVL2204:
 13736              	.LBE930:
 13737              	.LBB931:
 13738 54a8 7178     		ldrb	r1, [r6, #1]	@ zero_extendqisi2
 13739              	.LVL2205:
 13740 54aa 2B78     		ldrb	r3, [r5, #0]	@ zero_extendqisi2
 13741 54ac 2278     		ldrb	r2, [r4, #0]	@ zero_extendqisi2
 13742 54ae CB18     		adds	r3, r1, r3
 13743 54b0 DBB2     		uxtb	r3, r3
 13744              	.LVL2206:
 13745 54b2 2B70     		strb	r3, [r5, #0]
 13746 54b4 9B18     		adds	r3, r3, r2
 13747              	.LVL2207:
 13748 54b6 2370     		strb	r3, [r4, #0]
 13749 54b8 4E48     		ldr	r0, .L315+20
 13750 54ba FFF7FEFF 		bl	uart_transmit
 13751              	.LVL2208:
 13752              	.LBE931:
 13753              	.LBB932:
 13754 54be B178     		ldrb	r1, [r6, #2]	@ zero_extendqisi2
 13755              	.LVL2209:
 13756 54c0 2B78     		ldrb	r3, [r5, #0]	@ zero_extendqisi2
 13757 54c2 2278     		ldrb	r2, [r4, #0]	@ zero_extendqisi2
 13758 54c4 CB18     		adds	r3, r1, r3
 13759 54c6 DBB2     		uxtb	r3, r3
 13760              	.LVL2210:
 13761 54c8 2B70     		strb	r3, [r5, #0]
 13762 54ca 9B18     		adds	r3, r3, r2
 13763              	.LVL2211:
 13764 54cc 2370     		strb	r3, [r4, #0]
 13765 54ce 4948     		ldr	r0, .L315+20
 13766 54d0 FFF7FEFF 		bl	uart_transmit
 13767              	.LVL2212:
 13768              	.LBE932:
 13769              	.LBB933:
 13770 54d4 F178     		ldrb	r1, [r6, #3]	@ zero_extendqisi2
 13771              	.LVL2213:
 13772 54d6 2B78     		ldrb	r3, [r5, #0]	@ zero_extendqisi2
 13773 54d8 2278     		ldrb	r2, [r4, #0]	@ zero_extendqisi2
 13774 54da CB18     		adds	r3, r1, r3
 13775 54dc DBB2     		uxtb	r3, r3
 13776              	.LBE933:
 13777              	.LBB934:
 13778 54de 4E4E     		ldr	r6, .L315+56
 13779              	.LVL2214:
 13780              	.LBE934:
 13781              	.LBB935:
 13782 54e0 2B70     		strb	r3, [r5, #0]
 13783 54e2 9B18     		adds	r3, r3, r2
 13784              	.LVL2215:
 13785 54e4 2370     		strb	r3, [r4, #0]
 13786 54e6 4348     		ldr	r0, .L315+20
 13787 54e8 FFF7FEFF 		bl	uart_transmit
 13788              	.LVL2216:
 13789              	.LBE935:
 13790              	.LBB936:
 13791 54ec 3178     		ldrb	r1, [r6, #0]	@ zero_extendqisi2
 13792              	.LVL2217:
 13793 54ee 2B78     		ldrb	r3, [r5, #0]	@ zero_extendqisi2
 13794 54f0 2278     		ldrb	r2, [r4, #0]	@ zero_extendqisi2
 13795 54f2 CB18     		adds	r3, r1, r3
 13796 54f4 DBB2     		uxtb	r3, r3
 13797              	.LVL2218:
 13798 54f6 2B70     		strb	r3, [r5, #0]
 13799 54f8 9B18     		adds	r3, r3, r2
 13800              	.LVL2219:
 13801 54fa 2370     		strb	r3, [r4, #0]
 13802 54fc 3D48     		ldr	r0, .L315+20
 13803 54fe FFF7FEFF 		bl	uart_transmit
 13804              	.LVL2220:
 13805              	.LBE936:
 13806              	.LBB937:
 13807 5502 7178     		ldrb	r1, [r6, #1]	@ zero_extendqisi2
 13808              	.LVL2221:
 13809 5504 2B78     		ldrb	r3, [r5, #0]	@ zero_extendqisi2
 13810 5506 2278     		ldrb	r2, [r4, #0]	@ zero_extendqisi2
 13811 5508 CB18     		adds	r3, r1, r3
 13812 550a DBB2     		uxtb	r3, r3
 13813              	.LVL2222:
 13814 550c 2B70     		strb	r3, [r5, #0]
 13815 550e 9B18     		adds	r3, r3, r2
 13816              	.LVL2223:
 13817 5510 2370     		strb	r3, [r4, #0]
 13818 5512 3848     		ldr	r0, .L315+20
 13819 5514 FFF7FEFF 		bl	uart_transmit
 13820              	.LVL2224:
 13821              	.LBE937:
 13822              	.LBB938:
 13823 5518 B178     		ldrb	r1, [r6, #2]	@ zero_extendqisi2
 13824              	.LVL2225:
 13825 551a 2B78     		ldrb	r3, [r5, #0]	@ zero_extendqisi2
 13826 551c 2278     		ldrb	r2, [r4, #0]	@ zero_extendqisi2
 13827 551e CB18     		adds	r3, r1, r3
 13828 5520 DBB2     		uxtb	r3, r3
 13829              	.LVL2226:
 13830 5522 2B70     		strb	r3, [r5, #0]
 13831 5524 9B18     		adds	r3, r3, r2
 13832              	.LVL2227:
 13833 5526 2370     		strb	r3, [r4, #0]
 13834 5528 3248     		ldr	r0, .L315+20
 13835 552a FFF7FEFF 		bl	uart_transmit
 13836              	.LVL2228:
 13837              	.LBE938:
 13838              	.LBB939:
 13839 552e F178     		ldrb	r1, [r6, #3]	@ zero_extendqisi2
 13840              	.LVL2229:
 13841 5530 2B78     		ldrb	r3, [r5, #0]	@ zero_extendqisi2
 13842 5532 2278     		ldrb	r2, [r4, #0]	@ zero_extendqisi2
 13843 5534 CB18     		adds	r3, r1, r3
 13844 5536 DBB2     		uxtb	r3, r3
 13845              	.LBE939:
 13846              	.LBB940:
 13847 5538 384E     		ldr	r6, .L315+60
 13848              	.LVL2230:
 13849              	.LBE940:
 13850              	.LBB941:
 13851 553a 2B70     		strb	r3, [r5, #0]
 13852 553c 9B18     		adds	r3, r3, r2
 13853              	.LVL2231:
 13854 553e 2370     		strb	r3, [r4, #0]
 13855 5540 2C48     		ldr	r0, .L315+20
 13856 5542 FFF7FEFF 		bl	uart_transmit
 13857              	.LVL2232:
 13858              	.LBE941:
 13859              	.LBB942:
 13860 5546 3178     		ldrb	r1, [r6, #0]	@ zero_extendqisi2
 13861              	.LVL2233:
 13862 5548 2B78     		ldrb	r3, [r5, #0]	@ zero_extendqisi2
 13863 554a 2278     		ldrb	r2, [r4, #0]	@ zero_extendqisi2
 13864 554c CB18     		adds	r3, r1, r3
 13865 554e DBB2     		uxtb	r3, r3
 13866              	.LVL2234:
 13867 5550 2B70     		strb	r3, [r5, #0]
 13868 5552 9B18     		adds	r3, r3, r2
 13869              	.LVL2235:
 13870 5554 2370     		strb	r3, [r4, #0]
 13871 5556 2748     		ldr	r0, .L315+20
 13872 5558 FFF7FEFF 		bl	uart_transmit
 13873              	.LVL2236:
 13874              	.LBE942:
 13875              	.LBB943:
 13876 555c 7178     		ldrb	r1, [r6, #1]	@ zero_extendqisi2
 13877              	.LVL2237:
 13878 555e 2B78     		ldrb	r3, [r5, #0]	@ zero_extendqisi2
 13879 5560 2278     		ldrb	r2, [r4, #0]	@ zero_extendqisi2
 13880 5562 CB18     		adds	r3, r1, r3
 13881 5564 DBB2     		uxtb	r3, r3
 13882              	.LVL2238:
 13883 5566 2B70     		strb	r3, [r5, #0]
 13884 5568 9B18     		adds	r3, r3, r2
 13885              	.LVL2239:
 13886 556a 2370     		strb	r3, [r4, #0]
 13887 556c 2148     		ldr	r0, .L315+20
 13888 556e FFF7FEFF 		bl	uart_transmit
 13889              	.LVL2240:
 13890              	.LBE943:
 13891              	.LBB944:
 13892 5572 B178     		ldrb	r1, [r6, #2]	@ zero_extendqisi2
 13893              	.LVL2241:
 13894 5574 2B78     		ldrb	r3, [r5, #0]	@ zero_extendqisi2
 13895 5576 2278     		ldrb	r2, [r4, #0]	@ zero_extendqisi2
 13896 5578 CB18     		adds	r3, r1, r3
 13897 557a DBB2     		uxtb	r3, r3
 13898              	.LVL2242:
 13899 557c 2B70     		strb	r3, [r5, #0]
 13900 557e 9B18     		adds	r3, r3, r2
 13901              	.LVL2243:
 13902 5580 2370     		strb	r3, [r4, #0]
 13903 5582 1C48     		ldr	r0, .L315+20
 13904 5584 FFF7FEFF 		bl	uart_transmit
 13905              	.LVL2244:
 13906              	.LBE944:
 13907              	.LBB945:
 13908 5588 F178     		ldrb	r1, [r6, #3]	@ zero_extendqisi2
 13909              	.LVL2245:
 13910 558a 2B78     		ldrb	r3, [r5, #0]	@ zero_extendqisi2
 13911 558c 2278     		ldrb	r2, [r4, #0]	@ zero_extendqisi2
 13912 558e CB18     		adds	r3, r1, r3
 13913 5590 DBB2     		uxtb	r3, r3
 13914              	.LVL2246:
 13915 5592 2B70     		strb	r3, [r5, #0]
 13916 5594 9B18     		adds	r3, r3, r2
 13917              	.LVL2247:
 13918 5596 2370     		strb	r3, [r4, #0]
 13919 5598 1648     		ldr	r0, .L315+20
 13920 559a FFF7FEFF 		bl	uart_transmit
 13921              	.LVL2248:
 13922              	.LBE945:
 13923              	.LBB946:
 13924 559e 2B78     		ldrb	r3, [r5, #0]	@ zero_extendqisi2
 13925 55a0 2278     		ldrb	r2, [r4, #0]	@ zero_extendqisi2
 13926 55a2 FB18     		adds	r3, r7, r3
 13927 55a4 DBB2     		uxtb	r3, r3
 13928              	.LVL2249:
 13929 55a6 2B70     		strb	r3, [r5, #0]
 13930 55a8 9B18     		adds	r3, r3, r2
 13931              	.LVL2250:
 13932 55aa 2370     		strb	r3, [r4, #0]
 13933 55ac 3946     		mov	r1, r7
 13934 55ae 1148     		ldr	r0, .L315+20
 13935 55b0 FFF7FEFF 		bl	uart_transmit
 13936              	.LBE946:
 13937              	.LBB947:
 13938 55b4 1A4B     		ldr	r3, .L315+64
 13939 55b6 2278     		ldrb	r2, [r4, #0]	@ zero_extendqisi2
 13940 55b8 1978     		ldrb	r1, [r3, #0]	@ zero_extendqisi2
 13941              	.LVL2251:
 13942 55ba 2B78     		ldrb	r3, [r5, #0]	@ zero_extendqisi2
 13943 55bc 0D48     		ldr	r0, .L315+20
 13944 55be CB18     		adds	r3, r1, r3
 13945 55c0 DBB2     		uxtb	r3, r3
 13946              	.LVL2252:
 13947 55c2 2B70     		strb	r3, [r5, #0]
 13948 55c4 9B18     		adds	r3, r3, r2
 13949              	.LVL2253:
 13950 55c6 2370     		strb	r3, [r4, #0]
 13951 55c8 FFF7FEFF 		bl	uart_transmit
 13952              	.LVL2254:
 13953              	.LBE947:
 13954 55cc 2978     		ldrb	r1, [r5, #0]	@ zero_extendqisi2
 13955 55ce 0948     		ldr	r0, .L315+20
 13956 55d0 FFF7FEFF 		bl	uart_transmit
 13957 55d4 0748     		ldr	r0, .L315+20
 13958 55d6 2178     		ldrb	r1, [r4, #0]	@ zero_extendqisi2
 13959 55d8 FFF7FEFF 		bl	uart_transmit
 13960 55dc 26E0     		b	.L189
 13961              	.L316:
 13962 55de 00BF     		.align	3
 13963              	.L315:
 13964 55e0 182D4454 		.word	1413754136
 13965 55e4 FB211940 		.word	1075388923
 13966 55e8 00000000 		.word	downlink_nb_ovrn
 13967 55ec 00000000 		.word	.LANCHOR59
 13968 55f0 00000000 		.word	nav_circle_radians
 13969 55f4 00000000 		.word	uart2
 13970 55f8 00000000 		.word	downlink_nb_bytes
 13971 55fc 00000000 		.word	downlink_nb_msgs
 13972 5600 00000000 		.word	ck_a
 13973 5604 00000000 		.word	ck_b
 13974 5608 00000000 		.word	nav_block
 13975 560c 00000000 		.word	nav_stage
 13976 5610 00000000 		.word	estimator_x
 13977 5614 00000000 		.word	estimator_y
 13978 5618 00000000 		.word	dist2_to_wp
 13979 561c 00000000 		.word	dist2_to_home
 13980 5620 00000000 		.word	nav_oval_count
 13981              	.LVL2255:
 13982              	.L190:
 13983              		.loc 1 422 0 discriminator 319
 13984 5624 864B     		ldr	r3, .L317+8
 13985 5626 1A78     		ldrb	r2, [r3, #0]	@ zero_extendqisi2
 13986 5628 0132     		adds	r2, r2, #1
 13987 562a 1A70     		strb	r2, [r3, #0]
 13988              	.LVL2256:
 13989              	.L189:
 13990              	.LBE915:
 13991              		.loc 1 422 0 discriminator 317
 13992 562c 854B     		ldr	r3, .L317+12
 13993 562e 1B88     		ldrh	r3, [r3, #0]
 13994 5630 182B     		cmp	r3, #24
 13995 5632 7BD1     		bne	.L191
 13996              	.LVL2257:
 13997              	.LBB948:
 13998              		.loc 1 422 0 discriminator 320
 13999 5634 8448     		ldr	r0, .L317+16
 14000 5636 0C21     		movs	r1, #12
 14001 5638 FFF7FEFF 		bl	uart_check_free_space
 14002 563c 0028     		cmp	r0, #0
 14003 563e 71D0     		beq	.L192
 14004              		.loc 1 422 0 discriminator 322
 14005 5640 824B     		ldr	r3, .L317+20
 14006              	.LBB949:
 14007 5642 9921     		movs	r1, #153
 14008              	.LBE949:
 14009 5644 1A88     		ldrh	r2, [r3, #0]
 14010              	.LBB950:
 14011 5646 8048     		ldr	r0, .L317+16
 14012              	.LBE950:
 14013 5648 0C32     		adds	r2, r2, #12
 14014 564a 1A80     		strh	r2, [r3, #0]	@ movhi
 14015 564c 804B     		ldr	r3, .L317+24
 14016 564e 814D     		ldr	r5, .L317+28
 14017 5650 1A88     		ldrh	r2, [r3, #0]
 14018 5652 814C     		ldr	r4, .L317+32
 14019 5654 0132     		adds	r2, r2, #1
 14020 5656 1A80     		strh	r2, [r3, #0]	@ movhi
 14021              	.LBB951:
 14022 5658 FFF7FEFF 		bl	uart_transmit
 14023              	.LVL2258:
 14024 565c 0C21     		movs	r1, #12
 14025 565e 7A48     		ldr	r0, .L317+16
 14026 5660 FFF7FEFF 		bl	uart_transmit
 14027              	.LBE951:
 14028 5664 0D23     		movs	r3, #13
 14029 5666 2B70     		strb	r3, [r5, #0]
 14030 5668 1923     		movs	r3, #25
 14031 566a 2370     		strb	r3, [r4, #0]
 14032 566c 0121     		movs	r1, #1
 14033 566e 7648     		ldr	r0, .L317+16
 14034 5670 FFF7FEFF 		bl	uart_transmit
 14035 5674 2B78     		ldrb	r3, [r5, #0]	@ zero_extendqisi2
 14036 5676 2278     		ldrb	r2, [r4, #0]	@ zero_extendqisi2
 14037 5678 0B33     		adds	r3, r3, #11
 14038 567a DBB2     		uxtb	r3, r3
 14039 567c 2B70     		strb	r3, [r5, #0]
 14040 567e 9B18     		adds	r3, r3, r2
 14041 5680 2370     		strb	r3, [r4, #0]
 14042 5682 0B21     		movs	r1, #11
 14043 5684 7048     		ldr	r0, .L317+16
 14044 5686 FFF7FEFF 		bl	uart_transmit
 14045              	.LBB952:
 14046 568a 744B     		ldr	r3, .L317+36
 14047 568c 2278     		ldrb	r2, [r4, #0]	@ zero_extendqisi2
 14048 568e 1978     		ldrb	r1, [r3, #0]	@ zero_extendqisi2
 14049              	.LVL2259:
 14050 5690 2B78     		ldrb	r3, [r5, #0]	@ zero_extendqisi2
 14051 5692 6D48     		ldr	r0, .L317+16
 14052 5694 CB18     		adds	r3, r1, r3
 14053 5696 DBB2     		uxtb	r3, r3
 14054              	.LVL2260:
 14055 5698 2B70     		strb	r3, [r5, #0]
 14056 569a 9B18     		adds	r3, r3, r2
 14057              	.LVL2261:
 14058 569c 2370     		strb	r3, [r4, #0]
 14059 569e FFF7FEFF 		bl	uart_transmit
 14060              	.LVL2262:
 14061              	.LBE952:
 14062              	.LBB953:
 14063 56a2 6F4B     		ldr	r3, .L317+40
 14064 56a4 2278     		ldrb	r2, [r4, #0]	@ zero_extendqisi2
 14065 56a6 1978     		ldrb	r1, [r3, #0]	@ zero_extendqisi2
 14066              	.LVL2263:
 14067 56a8 2B78     		ldrb	r3, [r5, #0]	@ zero_extendqisi2
 14068 56aa 6748     		ldr	r0, .L317+16
 14069 56ac CB18     		adds	r3, r1, r3
 14070 56ae DBB2     		uxtb	r3, r3
 14071              	.LVL2264:
 14072 56b0 2B70     		strb	r3, [r5, #0]
 14073 56b2 9B18     		adds	r3, r3, r2
 14074              	.LVL2265:
 14075 56b4 2370     		strb	r3, [r4, #0]
 14076 56b6 FFF7FEFF 		bl	uart_transmit
 14077              	.LVL2266:
 14078              	.LBE953:
 14079              	.LBB954:
 14080 56ba 6A4B     		ldr	r3, .L317+44
 14081 56bc 2278     		ldrb	r2, [r4, #0]	@ zero_extendqisi2
 14082 56be 1978     		ldrb	r1, [r3, #0]	@ zero_extendqisi2
 14083              	.LVL2267:
 14084 56c0 2B78     		ldrb	r3, [r5, #0]	@ zero_extendqisi2
 14085 56c2 6148     		ldr	r0, .L317+16
 14086 56c4 CB18     		adds	r3, r1, r3
 14087 56c6 DBB2     		uxtb	r3, r3
 14088              	.LVL2268:
 14089 56c8 2B70     		strb	r3, [r5, #0]
 14090 56ca 9B18     		adds	r3, r3, r2
 14091              	.LVL2269:
 14092 56cc 2370     		strb	r3, [r4, #0]
 14093 56ce FFF7FEFF 		bl	uart_transmit
 14094              	.LVL2270:
 14095              	.LBE954:
 14096              	.LBB955:
 14097 56d2 654B     		ldr	r3, .L317+48
 14098 56d4 2278     		ldrb	r2, [r4, #0]	@ zero_extendqisi2
 14099 56d6 1978     		ldrb	r1, [r3, #0]	@ zero_extendqisi2
 14100              	.LVL2271:
 14101 56d8 2B78     		ldrb	r3, [r5, #0]	@ zero_extendqisi2
 14102 56da 5B48     		ldr	r0, .L317+16
 14103 56dc CB18     		adds	r3, r1, r3
 14104 56de DBB2     		uxtb	r3, r3
 14105              	.LVL2272:
 14106 56e0 2B70     		strb	r3, [r5, #0]
 14107 56e2 9B18     		adds	r3, r3, r2
 14108              	.LVL2273:
 14109 56e4 2370     		strb	r3, [r4, #0]
 14110 56e6 FFF7FEFF 		bl	uart_transmit
 14111              	.LVL2274:
 14112              	.LBE955:
 14113              	.LBB956:
 14114 56ea 2278     		ldrb	r2, [r4, #0]	@ zero_extendqisi2
 14115 56ec 2B78     		ldrb	r3, [r5, #0]	@ zero_extendqisi2
 14116 56ee 0021     		movs	r1, #0
 14117 56f0 D318     		adds	r3, r2, r3
 14118 56f2 2370     		strb	r3, [r4, #0]
 14119 56f4 5448     		ldr	r0, .L317+16
 14120 56f6 FFF7FEFF 		bl	uart_transmit
 14121              	.LBE956:
 14122              	.LBB957:
 14123 56fa 5C4B     		ldr	r3, .L317+52
 14124 56fc 2278     		ldrb	r2, [r4, #0]	@ zero_extendqisi2
 14125 56fe 1978     		ldrb	r1, [r3, #0]	@ zero_extendqisi2
 14126              	.LVL2275:
 14127 5700 2B78     		ldrb	r3, [r5, #0]	@ zero_extendqisi2
 14128 5702 5148     		ldr	r0, .L317+16
 14129 5704 CB18     		adds	r3, r1, r3
 14130 5706 DBB2     		uxtb	r3, r3
 14131              	.LVL2276:
 14132 5708 2B70     		strb	r3, [r5, #0]
 14133 570a 9B18     		adds	r3, r3, r2
 14134              	.LVL2277:
 14135 570c 2370     		strb	r3, [r4, #0]
 14136 570e FFF7FEFF 		bl	uart_transmit
 14137              	.LVL2278:
 14138              	.LBE957:
 14139 5712 2978     		ldrb	r1, [r5, #0]	@ zero_extendqisi2
 14140 5714 4C48     		ldr	r0, .L317+16
 14141 5716 FFF7FEFF 		bl	uart_transmit
 14142 571a 4B48     		ldr	r0, .L317+16
 14143 571c 2178     		ldrb	r1, [r4, #0]	@ zero_extendqisi2
 14144 571e FFF7FEFF 		bl	uart_transmit
 14145 5722 03E0     		b	.L191
 14146              	.LVL2279:
 14147              	.L192:
 14148              		.loc 1 422 0 discriminator 323
 14149 5724 464B     		ldr	r3, .L317+8
 14150 5726 1A78     		ldrb	r2, [r3, #0]	@ zero_extendqisi2
 14151 5728 0132     		adds	r2, r2, #1
 14152 572a 1A70     		strb	r2, [r3, #0]
 14153              	.LVL2280:
 14154              	.L191:
 14155              	.LBE948:
 14156              		.loc 1 422 0 discriminator 321
 14157 572c 504B     		ldr	r3, .L317+56
 14158 572e 1D88     		ldrh	r5, [r3, #0]
 14159 5730 1E2D     		cmp	r5, #30
 14160 5732 40F0A580 		bne	.L193
 14161              	.LBB958:
 14162              		.loc 1 422 0 discriminator 324
 14163 5736 4F4E     		ldr	r6, .L317+60
 14164 5738 444C     		ldr	r4, .L317+20
 14165 573a 3088     		ldrh	r0, [r6, #0]
 14166 573c 2788     		ldrh	r7, [r4, #0]
 14167 573e 381A     		subs	r0, r7, r0
 14168 5740 FFF7FEFF 		bl	__aeabi_i2d
 14169 5744 3CA3     		adr	r3, .L317
 14170 5746 D3E90023 		ldrd	r2, [r3]
 14171 574a FFF7FEFF 		bl	__aeabi_ddiv
 14172 574e FFF7FEFF 		bl	__aeabi_d2uiz
 14173 5752 3780     		strh	r7, [r6, #0]	@ movhi
 14174 5754 ADF81E00 		strh	r0, [sp, #30]	@ movhi
 14175              	.LVL2281:
 14176 5758 0B21     		movs	r1, #11
 14177 575a 3B48     		ldr	r0, .L317+16
 14178 575c FFF7FEFF 		bl	uart_check_free_space
 14179 5760 0028     		cmp	r0, #0
 14180 5762 00F08980 		beq	.L194
 14181              		.loc 1 422 0 discriminator 326
 14182 5766 2388     		ldrh	r3, [r4, #0]
 14183 5768 394F     		ldr	r7, .L317+24
 14184 576a 0B33     		adds	r3, r3, #11
 14185 576c 2380     		strh	r3, [r4, #0]	@ movhi
 14186 576e 3B88     		ldrh	r3, [r7, #0]
 14187              	.LBB959:
 14188 5770 9921     		movs	r1, #153
 14189              	.LBE959:
 14190 5772 0133     		adds	r3, r3, #1
 14191 5774 3B80     		strh	r3, [r7, #0]	@ movhi
 14192              	.LBB960:
 14193 5776 3448     		ldr	r0, .L317+16
 14194              	.LBE960:
 14195 5778 364E     		ldr	r6, .L317+28
 14196              	.LBB961:
 14197 577a FFF7FEFF 		bl	uart_transmit
 14198              	.LVL2282:
 14199 577e 0B21     		movs	r1, #11
 14200 5780 3148     		ldr	r0, .L317+16
 14201              	.LBE961:
 14202 5782 354C     		ldr	r4, .L317+32
 14203              	.LBB962:
 14204 5784 FFF7FEFF 		bl	uart_transmit
 14205              	.LBE962:
 14206 5788 0C23     		movs	r3, #12
 14207 578a 3370     		strb	r3, [r6, #0]
 14208 578c 1723     		movs	r3, #23
 14209 578e 2370     		strb	r3, [r4, #0]
 14210 5790 0121     		movs	r1, #1
 14211 5792 2D48     		ldr	r0, .L317+16
 14212 5794 FFF7FEFF 		bl	uart_transmit
 14213 5798 3378     		ldrb	r3, [r6, #0]	@ zero_extendqisi2
 14214 579a 2278     		ldrb	r2, [r4, #0]	@ zero_extendqisi2
 14215 579c 1E33     		adds	r3, r3, #30
 14216 579e DBB2     		uxtb	r3, r3
 14217 57a0 3370     		strb	r3, [r6, #0]
 14218 57a2 9B18     		adds	r3, r3, r2
 14219 57a4 2370     		strb	r3, [r4, #0]
 14220 57a6 2946     		mov	r1, r5
 14221 57a8 2748     		ldr	r0, .L317+16
 14222 57aa FFF7FEFF 		bl	uart_transmit
 14223              	.LBB963:
 14224 57ae 244B     		ldr	r3, .L317+8
 14225 57b0 2278     		ldrb	r2, [r4, #0]	@ zero_extendqisi2
 14226 57b2 1978     		ldrb	r1, [r3, #0]	@ zero_extendqisi2
 14227              	.LVL2283:
 14228 57b4 3378     		ldrb	r3, [r6, #0]	@ zero_extendqisi2
 14229 57b6 2448     		ldr	r0, .L317+16
 14230 57b8 CB18     		adds	r3, r1, r3
 14231 57ba DBB2     		uxtb	r3, r3
 14232              	.LVL2284:
 14233 57bc 3370     		strb	r3, [r6, #0]
 14234 57be 9B18     		adds	r3, r3, r2
 14235              	.LVL2285:
 14236 57c0 2370     		strb	r3, [r4, #0]
 14237 57c2 FFF7FEFF 		bl	uart_transmit
 14238              	.LVL2286:
 14239              	.LBE963:
 14240              	.LBB964:
 14241 57c6 9DF81E10 		ldrb	r1, [sp, #30]	@ zero_extendqisi2
 14242              	.LVL2287:
 14243 57ca 3378     		ldrb	r3, [r6, #0]	@ zero_extendqisi2
 14244 57cc 2278     		ldrb	r2, [r4, #0]	@ zero_extendqisi2
 14245 57ce CB18     		adds	r3, r1, r3
 14246 57d0 DBB2     		uxtb	r3, r3
 14247              	.LVL2288:
 14248 57d2 3370     		strb	r3, [r6, #0]
 14249 57d4 9B18     		adds	r3, r3, r2
 14250              	.LVL2289:
 14251 57d6 2370     		strb	r3, [r4, #0]
 14252 57d8 1B48     		ldr	r0, .L317+16
 14253 57da FFF7FEFF 		bl	uart_transmit
 14254              	.LVL2290:
 14255              	.LBE964:
 14256              	.LBB965:
 14257 57de 9DF81F10 		ldrb	r1, [sp, #31]	@ zero_extendqisi2
 14258              	.LVL2291:
 14259 57e2 3378     		ldrb	r3, [r6, #0]	@ zero_extendqisi2
 14260 57e4 2278     		ldrb	r2, [r4, #0]	@ zero_extendqisi2
 14261 57e6 CB18     		adds	r3, r1, r3
 14262 57e8 DBB2     		uxtb	r3, r3
 14263              	.LVL2292:
 14264 57ea 3370     		strb	r3, [r6, #0]
 14265 57ec 9B18     		adds	r3, r3, r2
 14266              	.LVL2293:
 14267 57ee 2370     		strb	r3, [r4, #0]
 14268 57f0 1548     		ldr	r0, .L317+16
 14269 57f2 FFF7FEFF 		bl	uart_transmit
 14270              	.LVL2294:
 14271              	.LBE965:
 14272              	.LBB966:
 14273 57f6 3978     		ldrb	r1, [r7, #0]	@ zero_extendqisi2
 14274              	.LVL2295:
 14275 57f8 3378     		ldrb	r3, [r6, #0]	@ zero_extendqisi2
 14276 57fa 2278     		ldrb	r2, [r4, #0]	@ zero_extendqisi2
 14277 57fc CB18     		adds	r3, r1, r3
 14278 57fe DBB2     		uxtb	r3, r3
 14279              	.LVL2296:
 14280 5800 3370     		strb	r3, [r6, #0]
 14281 5802 9B18     		adds	r3, r3, r2
 14282              	.LVL2297:
 14283 5804 2370     		strb	r3, [r4, #0]
 14284 5806 1048     		ldr	r0, .L317+16
 14285 5808 FFF7FEFF 		bl	uart_transmit
 14286              	.LVL2298:
 14287              	.LBE966:
 14288              	.LBB967:
 14289 580c 7978     		ldrb	r1, [r7, #1]	@ zero_extendqisi2
 14290              	.LVL2299:
 14291 580e 3378     		ldrb	r3, [r6, #0]	@ zero_extendqisi2
 14292 5810 2278     		ldrb	r2, [r4, #0]	@ zero_extendqisi2
 14293 5812 CB18     		adds	r3, r1, r3
 14294 5814 DBB2     		uxtb	r3, r3
 14295              	.LVL2300:
 14296 5816 3370     		strb	r3, [r6, #0]
 14297 5818 9B18     		adds	r3, r3, r2
 14298              	.LVL2301:
 14299 581a 2370     		strb	r3, [r4, #0]
 14300 581c 0A48     		ldr	r0, .L317+16
 14301 581e FFF7FEFF 		bl	uart_transmit
 14302              	.LVL2302:
 14303              	.LBE967:
 14304 5822 3178     		ldrb	r1, [r6, #0]	@ zero_extendqisi2
 14305 5824 0848     		ldr	r0, .L317+16
 14306 5826 FFF7FEFF 		bl	uart_transmit
 14307 582a 0748     		ldr	r0, .L317+16
 14308 582c 2178     		ldrb	r1, [r4, #0]	@ zero_extendqisi2
 14309 582e FFF7FEFF 		bl	uart_transmit
 14310 5832 25E0     		b	.L193
 14311              	.L318:
 14312 5834 AFF30080 		.align	3
 14313              	.L317:
 14314 5838 66666666 		.word	1717986918
 14315 583c 66661440 		.word	1075078758
 14316 5840 00000000 		.word	downlink_nb_ovrn
 14317 5844 00000000 		.word	.LANCHOR60
 14318 5848 00000000 		.word	uart2
 14319 584c 00000000 		.word	downlink_nb_bytes
 14320 5850 00000000 		.word	downlink_nb_msgs
 14321 5854 00000000 		.word	ck_a
 14322 5858 00000000 		.word	ck_b
 14323 585c 00000000 		.word	.LANCHOR30
 14324 5860 00000000 		.word	v_ctl_mode
 14325 5864 00000000 		.word	.LANCHOR32
 14326 5868 00000000 		.word	horizontal_mode
 14327 586c 00000000 		.word	.LANCHOR33
 14328 5870 00000000 		.word	.LANCHOR61
 14329 5874 00000000 		.word	.LANCHOR66
 14330              	.LVL2303:
 14331              	.L194:
 14332              		.loc 1 422 0 discriminator 327
 14333 5878 364B     		ldr	r3, .L319
 14334 587a 1A78     		ldrb	r2, [r3, #0]	@ zero_extendqisi2
 14335 587c 0132     		adds	r2, r2, #1
 14336 587e 1A70     		strb	r2, [r3, #0]
 14337              	.L193:
 14338              	.LBE958:
 14339              		.loc 1 422 0 discriminator 325
 14340 5880 354B     		ldr	r3, .L319+4
 14341 5882 1B88     		ldrh	r3, [r3, #0]
 14342 5884 242B     		cmp	r3, #36
 14343 5886 7BD1     		bne	.L195
 14344              	.LVL2304:
 14345              	.LBB968:
 14346              		.loc 1 422 0 discriminator 328
 14347 5888 344B     		ldr	r3, .L319+8
 14348 588a 3548     		ldr	r0, .L319+12
 14349 588c 93F89860 		ldrb	r6, [r3, #152]	@ zero_extendqisi2
 14350 5890 344B     		ldr	r3, .L319+16
 14351 5892 002E     		cmp	r6, #0
 14352 5894 0CBF     		ite	eq
 14353 5896 0226     		moveq	r6, #2
 14354 5898 0326     		movne	r6, #3
 14355              	.LVL2305:
 14356 589a 1B78     		ldrb	r3, [r3, #0]	@ zero_extendqisi2
 14357 589c 0921     		movs	r1, #9
 14358 589e 0A2B     		cmp	r3, #10
 14359 58a0 88BF     		it	hi
 14360 58a2 0526     		movhi	r6, #5
 14361              	.LVL2306:
 14362 58a4 0023     		movs	r3, #0
 14363 58a6 ADF81E30 		strh	r3, [sp, #30]	@ movhi
 14364              	.LVL2307:
 14365 58aa FFF7FEFF 		bl	uart_check_free_space
 14366 58ae 0028     		cmp	r0, #0
 14367 58b0 62D0     		beq	.L198
 14368              		.loc 1 422 0 discriminator 334
 14369 58b2 2D4B     		ldr	r3, .L319+20
 14370              	.LBB969:
 14371 58b4 9921     		movs	r1, #153
 14372              	.LBE969:
 14373 58b6 1A88     		ldrh	r2, [r3, #0]
 14374              	.LBB970:
 14375 58b8 2948     		ldr	r0, .L319+12
 14376              	.LBE970:
 14377 58ba 0932     		adds	r2, r2, #9
 14378 58bc 1A80     		strh	r2, [r3, #0]	@ movhi
 14379 58be 2B4B     		ldr	r3, .L319+24
 14380 58c0 2B4D     		ldr	r5, .L319+28
 14381 58c2 1A88     		ldrh	r2, [r3, #0]
 14382 58c4 2B4C     		ldr	r4, .L319+32
 14383 58c6 0132     		adds	r2, r2, #1
 14384 58c8 1A80     		strh	r2, [r3, #0]	@ movhi
 14385              	.LBB971:
 14386 58ca FFF7FEFF 		bl	uart_transmit
 14387              	.LVL2308:
 14388 58ce 0921     		movs	r1, #9
 14389 58d0 2348     		ldr	r0, .L319+12
 14390 58d2 FFF7FEFF 		bl	uart_transmit
 14391              	.LBE971:
 14392 58d6 0A23     		movs	r3, #10
 14393 58d8 2B70     		strb	r3, [r5, #0]
 14394 58da 1323     		movs	r3, #19
 14395 58dc 2370     		strb	r3, [r4, #0]
 14396 58de 0121     		movs	r1, #1
 14397 58e0 1F48     		ldr	r0, .L319+12
 14398 58e2 FFF7FEFF 		bl	uart_transmit
 14399 58e6 2B78     		ldrb	r3, [r5, #0]	@ zero_extendqisi2
 14400 58e8 2278     		ldrb	r2, [r4, #0]	@ zero_extendqisi2
 14401 58ea 183B     		subs	r3, r3, #24
 14402 58ec DBB2     		uxtb	r3, r3
 14403 58ee 2B70     		strb	r3, [r5, #0]
 14404 58f0 9B18     		adds	r3, r3, r2
 14405 58f2 2370     		strb	r3, [r4, #0]
 14406 58f4 E821     		movs	r1, #232
 14407 58f6 1A48     		ldr	r0, .L319+12
 14408 58f8 FFF7FEFF 		bl	uart_transmit
 14409              	.LVL2309:
 14410              	.LBB972:
 14411 58fc 2B78     		ldrb	r3, [r5, #0]	@ zero_extendqisi2
 14412 58fe 2278     		ldrb	r2, [r4, #0]	@ zero_extendqisi2
 14413 5900 F318     		adds	r3, r6, r3
 14414 5902 DBB2     		uxtb	r3, r3
 14415              	.LVL2310:
 14416 5904 2B70     		strb	r3, [r5, #0]
 14417 5906 9B18     		adds	r3, r3, r2
 14418              	.LVL2311:
 14419 5908 2370     		strb	r3, [r4, #0]
 14420 590a 3146     		mov	r1, r6
 14421 590c 1448     		ldr	r0, .L319+12
 14422 590e FFF7FEFF 		bl	uart_transmit
 14423              	.LBE972:
 14424              	.LBB973:
 14425 5912 9DF81E10 		ldrb	r1, [sp, #30]	@ zero_extendqisi2
 14426              	.LVL2312:
 14427 5916 2B78     		ldrb	r3, [r5, #0]	@ zero_extendqisi2
 14428 5918 2278     		ldrb	r2, [r4, #0]	@ zero_extendqisi2
 14429 591a CB18     		adds	r3, r1, r3
 14430 591c DBB2     		uxtb	r3, r3
 14431              	.LVL2313:
 14432 591e 2B70     		strb	r3, [r5, #0]
 14433 5920 9B18     		adds	r3, r3, r2
 14434              	.LVL2314:
 14435 5922 2370     		strb	r3, [r4, #0]
 14436 5924 0E48     		ldr	r0, .L319+12
 14437 5926 FFF7FEFF 		bl	uart_transmit
 14438              	.LVL2315:
 14439              	.LBE973:
 14440              	.LBB974:
 14441 592a 9DF81F10 		ldrb	r1, [sp, #31]	@ zero_extendqisi2
 14442              	.LVL2316:
 14443 592e 2B78     		ldrb	r3, [r5, #0]	@ zero_extendqisi2
 14444 5930 2278     		ldrb	r2, [r4, #0]	@ zero_extendqisi2
 14445 5932 CB18     		adds	r3, r1, r3
 14446 5934 DBB2     		uxtb	r3, r3
 14447              	.LVL2317:
 14448 5936 2B70     		strb	r3, [r5, #0]
 14449 5938 9B18     		adds	r3, r3, r2
 14450              	.LVL2318:
 14451 593a 2370     		strb	r3, [r4, #0]
 14452 593c 0848     		ldr	r0, .L319+12
 14453 593e FFF7FEFF 		bl	uart_transmit
 14454              	.LVL2319:
 14455              	.LBE974:
 14456 5942 2978     		ldrb	r1, [r5, #0]	@ zero_extendqisi2
 14457 5944 0648     		ldr	r0, .L319+12
 14458 5946 FFF7FEFF 		bl	uart_transmit
 14459 594a 0548     		ldr	r0, .L319+12
 14460 594c 2178     		ldrb	r1, [r4, #0]	@ zero_extendqisi2
 14461 594e FFF7FEFF 		bl	uart_transmit
 14462 5952 15E0     		b	.L195
 14463              	.L320:
 14464              		.align	2
 14465              	.L319:
 14466 5954 00000000 		.word	downlink_nb_ovrn
 14467 5958 00000000 		.word	.LANCHOR62
 14468 595c 00000000 		.word	ahrs
 14469 5960 00000000 		.word	uart2
 14470 5964 00000000 		.word	.LANCHOR34
 14471 5968 00000000 		.word	downlink_nb_bytes
 14472 596c 00000000 		.word	downlink_nb_msgs
 14473 5970 00000000 		.word	ck_a
 14474 5974 00000000 		.word	ck_b
 14475              	.LVL2320:
 14476              	.L198:
 14477              		.loc 1 422 0 discriminator 335
 14478 5978 774B     		ldr	r3, .L321
 14479 597a 1A78     		ldrb	r2, [r3, #0]	@ zero_extendqisi2
 14480 597c 0132     		adds	r2, r2, #1
 14481 597e 1A70     		strb	r2, [r3, #0]
 14482              	.LVL2321:
 14483              	.L195:
 14484              	.LBE968:
 14485              		.loc 1 422 0 discriminator 329
 14486 5980 764B     		ldr	r3, .L321+4
 14487 5982 1B88     		ldrh	r3, [r3, #0]
 14488 5984 2A2B     		cmp	r3, #42
 14489 5986 40F00981 		bne	.L199
 14490              	.LBB975:
 14491              		.loc 1 422 0 discriminator 336
 14492 598a 754B     		ldr	r3, .L321+8
 14493 598c 1A68     		ldr	r2, [r3, #0]
 14494 598e 0A23     		movs	r3, #10
 14495 5990 92FBF3F3 		sdiv	r3, r2, r3
 14496 5994 ADF81E30 		strh	r3, [sp, #30]	@ movhi
 14497              	.LVL2322:
 14498              	.LBB976:
 14499 5998 724B     		ldr	r3, .L321+12
 14500 599a 1868     		ldr	r0, [r3, #0]	@ float
 14501 599c FFF7FEFF 		bl	__aeabi_f2iz
 14502 59a0 1421     		movs	r1, #20
 14503 59a2 ADF81C00 		strh	r0, [sp, #28]	@ movhi
 14504              	.LVL2323:
 14505 59a6 7048     		ldr	r0, .L321+16
 14506 59a8 FFF7FEFF 		bl	uart_check_free_space
 14507 59ac 0028     		cmp	r0, #0
 14508 59ae 00F0F180 		beq	.L200
 14509              		.loc 1 422 0 discriminator 338
 14510 59b2 6E4B     		ldr	r3, .L321+20
 14511              	.LBB977:
 14512 59b4 9921     		movs	r1, #153
 14513              	.LBE977:
 14514 59b6 1A88     		ldrh	r2, [r3, #0]
 14515              	.LBB978:
 14516 59b8 6B48     		ldr	r0, .L321+16
 14517              	.LBE978:
 14518 59ba 1432     		adds	r2, r2, #20
 14519 59bc 1A80     		strh	r2, [r3, #0]	@ movhi
 14520 59be 6C4B     		ldr	r3, .L321+24
 14521 59c0 6C4D     		ldr	r5, .L321+28
 14522 59c2 1A88     		ldrh	r2, [r3, #0]
 14523 59c4 6C4C     		ldr	r4, .L321+32
 14524 59c6 0132     		adds	r2, r2, #1
 14525 59c8 1A80     		strh	r2, [r3, #0]	@ movhi
 14526              	.LBB979:
 14527 59ca FFF7FEFF 		bl	uart_transmit
 14528              	.LVL2324:
 14529 59ce 1421     		movs	r1, #20
 14530 59d0 6548     		ldr	r0, .L321+16
 14531 59d2 FFF7FEFF 		bl	uart_transmit
 14532              	.LBE979:
 14533 59d6 1523     		movs	r3, #21
 14534 59d8 2B70     		strb	r3, [r5, #0]
 14535 59da 2923     		movs	r3, #41
 14536 59dc 2370     		strb	r3, [r4, #0]
 14537 59de 0121     		movs	r1, #1
 14538 59e0 6148     		ldr	r0, .L321+16
 14539 59e2 FFF7FEFF 		bl	uart_transmit
 14540 59e6 2B78     		ldrb	r3, [r5, #0]	@ zero_extendqisi2
 14541 59e8 2278     		ldrb	r2, [r4, #0]	@ zero_extendqisi2
 14542 59ea 0C33     		adds	r3, r3, #12
 14543 59ec DBB2     		uxtb	r3, r3
 14544 59ee 2B70     		strb	r3, [r5, #0]
 14545              	.LBB980:
 14546 59f0 624E     		ldr	r6, .L321+36
 14547              	.LBE980:
 14548 59f2 9B18     		adds	r3, r3, r2
 14549 59f4 2370     		strb	r3, [r4, #0]
 14550 59f6 0C21     		movs	r1, #12
 14551 59f8 5B48     		ldr	r0, .L321+16
 14552 59fa FFF7FEFF 		bl	uart_transmit
 14553              	.LBB981:
 14554 59fe 3178     		ldrb	r1, [r6, #0]	@ zero_extendqisi2
 14555              	.LVL2325:
 14556 5a00 2B78     		ldrb	r3, [r5, #0]	@ zero_extendqisi2
 14557 5a02 2278     		ldrb	r2, [r4, #0]	@ zero_extendqisi2
 14558 5a04 CB18     		adds	r3, r1, r3
 14559 5a06 DBB2     		uxtb	r3, r3
 14560              	.LVL2326:
 14561 5a08 2B70     		strb	r3, [r5, #0]
 14562 5a0a 9B18     		adds	r3, r3, r2
 14563              	.LVL2327:
 14564 5a0c 2370     		strb	r3, [r4, #0]
 14565 5a0e 5648     		ldr	r0, .L321+16
 14566 5a10 FFF7FEFF 		bl	uart_transmit
 14567              	.LVL2328:
 14568              	.LBE981:
 14569              	.LBB982:
 14570 5a14 7178     		ldrb	r1, [r6, #1]	@ zero_extendqisi2
 14571              	.LVL2329:
 14572 5a16 2B78     		ldrb	r3, [r5, #0]	@ zero_extendqisi2
 14573 5a18 2278     		ldrb	r2, [r4, #0]	@ zero_extendqisi2
 14574 5a1a CB18     		adds	r3, r1, r3
 14575 5a1c DBB2     		uxtb	r3, r3
 14576              	.LVL2330:
 14577 5a1e 2B70     		strb	r3, [r5, #0]
 14578 5a20 9B18     		adds	r3, r3, r2
 14579              	.LVL2331:
 14580 5a22 2370     		strb	r3, [r4, #0]
 14581 5a24 5048     		ldr	r0, .L321+16
 14582 5a26 FFF7FEFF 		bl	uart_transmit
 14583              	.LVL2332:
 14584              	.LBE982:
 14585              	.LBB983:
 14586 5a2a 554B     		ldr	r3, .L321+40
 14587 5a2c 2278     		ldrb	r2, [r4, #0]	@ zero_extendqisi2
 14588 5a2e 1978     		ldrb	r1, [r3, #0]	@ zero_extendqisi2
 14589              	.LVL2333:
 14590 5a30 2B78     		ldrb	r3, [r5, #0]	@ zero_extendqisi2
 14591 5a32 4D48     		ldr	r0, .L321+16
 14592 5a34 CB18     		adds	r3, r1, r3
 14593 5a36 DBB2     		uxtb	r3, r3
 14594              	.LVL2334:
 14595 5a38 2B70     		strb	r3, [r5, #0]
 14596 5a3a 9B18     		adds	r3, r3, r2
 14597              	.LVL2335:
 14598 5a3c 2370     		strb	r3, [r4, #0]
 14599 5a3e FFF7FEFF 		bl	uart_transmit
 14600              	.LVL2336:
 14601              	.LBE983:
 14602              	.LBB984:
 14603 5a42 9DF81E10 		ldrb	r1, [sp, #30]	@ zero_extendqisi2
 14604              	.LVL2337:
 14605 5a46 2B78     		ldrb	r3, [r5, #0]	@ zero_extendqisi2
 14606 5a48 2278     		ldrb	r2, [r4, #0]	@ zero_extendqisi2
 14607 5a4a CB18     		adds	r3, r1, r3
 14608 5a4c DBB2     		uxtb	r3, r3
 14609              	.LVL2338:
 14610 5a4e 2B70     		strb	r3, [r5, #0]
 14611 5a50 9B18     		adds	r3, r3, r2
 14612              	.LVL2339:
 14613 5a52 2370     		strb	r3, [r4, #0]
 14614 5a54 4448     		ldr	r0, .L321+16
 14615 5a56 FFF7FEFF 		bl	uart_transmit
 14616              	.LVL2340:
 14617              	.LBE984:
 14618              	.LBB985:
 14619 5a5a 9DF81F10 		ldrb	r1, [sp, #31]	@ zero_extendqisi2
 14620              	.LVL2341:
 14621 5a5e 2B78     		ldrb	r3, [r5, #0]	@ zero_extendqisi2
 14622 5a60 2278     		ldrb	r2, [r4, #0]	@ zero_extendqisi2
 14623 5a62 CB18     		adds	r3, r1, r3
 14624 5a64 DBB2     		uxtb	r3, r3
 14625              	.LVL2342:
 14626 5a66 2B70     		strb	r3, [r5, #0]
 14627              	.LBE985:
 14628              	.LBB986:
 14629 5a68 464E     		ldr	r6, .L321+44
 14630              	.LBE986:
 14631              	.LBB987:
 14632 5a6a 9B18     		adds	r3, r3, r2
 14633              	.LVL2343:
 14634 5a6c 2370     		strb	r3, [r4, #0]
 14635 5a6e 3E48     		ldr	r0, .L321+16
 14636 5a70 FFF7FEFF 		bl	uart_transmit
 14637              	.LVL2344:
 14638              	.LBE987:
 14639              	.LBB988:
 14640 5a74 3178     		ldrb	r1, [r6, #0]	@ zero_extendqisi2
 14641              	.LVL2345:
 14642 5a76 2B78     		ldrb	r3, [r5, #0]	@ zero_extendqisi2
 14643 5a78 2278     		ldrb	r2, [r4, #0]	@ zero_extendqisi2
 14644 5a7a CB18     		adds	r3, r1, r3
 14645 5a7c DBB2     		uxtb	r3, r3
 14646              	.LVL2346:
 14647 5a7e 2B70     		strb	r3, [r5, #0]
 14648 5a80 9B18     		adds	r3, r3, r2
 14649              	.LVL2347:
 14650 5a82 2370     		strb	r3, [r4, #0]
 14651 5a84 3848     		ldr	r0, .L321+16
 14652 5a86 FFF7FEFF 		bl	uart_transmit
 14653              	.LVL2348:
 14654              	.LBE988:
 14655              	.LBB989:
 14656 5a8a 7178     		ldrb	r1, [r6, #1]	@ zero_extendqisi2
 14657              	.LVL2349:
 14658 5a8c 2B78     		ldrb	r3, [r5, #0]	@ zero_extendqisi2
 14659 5a8e 2278     		ldrb	r2, [r4, #0]	@ zero_extendqisi2
 14660 5a90 CB18     		adds	r3, r1, r3
 14661 5a92 DBB2     		uxtb	r3, r3
 14662              	.LVL2350:
 14663 5a94 2B70     		strb	r3, [r5, #0]
 14664 5a96 9B18     		adds	r3, r3, r2
 14665              	.LVL2351:
 14666 5a98 2370     		strb	r3, [r4, #0]
 14667 5a9a 3348     		ldr	r0, .L321+16
 14668 5a9c FFF7FEFF 		bl	uart_transmit
 14669              	.LVL2352:
 14670              	.LBE989:
 14671              	.LBB990:
 14672 5aa0 394B     		ldr	r3, .L321+48
 14673 5aa2 2278     		ldrb	r2, [r4, #0]	@ zero_extendqisi2
 14674 5aa4 1978     		ldrb	r1, [r3, #0]	@ zero_extendqisi2
 14675              	.LVL2353:
 14676 5aa6 2B78     		ldrb	r3, [r5, #0]	@ zero_extendqisi2
 14677              	.LBE990:
 14678              	.LBB991:
 14679 5aa8 384E     		ldr	r6, .L321+52
 14680              	.LBE991:
 14681              	.LBB992:
 14682 5aaa CB18     		adds	r3, r1, r3
 14683 5aac DBB2     		uxtb	r3, r3
 14684              	.LVL2354:
 14685 5aae 2B70     		strb	r3, [r5, #0]
 14686 5ab0 9B18     		adds	r3, r3, r2
 14687              	.LVL2355:
 14688 5ab2 2370     		strb	r3, [r4, #0]
 14689 5ab4 2C48     		ldr	r0, .L321+16
 14690 5ab6 FFF7FEFF 		bl	uart_transmit
 14691              	.LVL2356:
 14692              	.LBE992:
 14693              	.LBB993:
 14694 5aba 3178     		ldrb	r1, [r6, #0]	@ zero_extendqisi2
 14695              	.LVL2357:
 14696 5abc 2B78     		ldrb	r3, [r5, #0]	@ zero_extendqisi2
 14697 5abe 2278     		ldrb	r2, [r4, #0]	@ zero_extendqisi2
 14698 5ac0 CB18     		adds	r3, r1, r3
 14699 5ac2 DBB2     		uxtb	r3, r3
 14700              	.LVL2358:
 14701 5ac4 2B70     		strb	r3, [r5, #0]
 14702 5ac6 9B18     		adds	r3, r3, r2
 14703              	.LVL2359:
 14704 5ac8 2370     		strb	r3, [r4, #0]
 14705 5aca 2748     		ldr	r0, .L321+16
 14706 5acc FFF7FEFF 		bl	uart_transmit
 14707              	.LVL2360:
 14708              	.LBE993:
 14709              	.LBB994:
 14710 5ad0 7178     		ldrb	r1, [r6, #1]	@ zero_extendqisi2
 14711              	.LVL2361:
 14712 5ad2 2B78     		ldrb	r3, [r5, #0]	@ zero_extendqisi2
 14713 5ad4 2278     		ldrb	r2, [r4, #0]	@ zero_extendqisi2
 14714 5ad6 CB18     		adds	r3, r1, r3
 14715 5ad8 DBB2     		uxtb	r3, r3
 14716              	.LVL2362:
 14717 5ada 2B70     		strb	r3, [r5, #0]
 14718              	.LBE994:
 14719              	.LBB995:
 14720 5adc 2C4E     		ldr	r6, .L321+56
 14721              	.LBE995:
 14722              	.LBB996:
 14723 5ade 9B18     		adds	r3, r3, r2
 14724              	.LVL2363:
 14725 5ae0 2370     		strb	r3, [r4, #0]
 14726 5ae2 2148     		ldr	r0, .L321+16
 14727 5ae4 FFF7FEFF 		bl	uart_transmit
 14728              	.LVL2364:
 14729              	.LBE996:
 14730              	.LBB997:
 14731 5ae8 3178     		ldrb	r1, [r6, #0]	@ zero_extendqisi2
 14732              	.LVL2365:
 14733 5aea 2B78     		ldrb	r3, [r5, #0]	@ zero_extendqisi2
 14734 5aec 2278     		ldrb	r2, [r4, #0]	@ zero_extendqisi2
 14735 5aee CB18     		adds	r3, r1, r3
 14736 5af0 DBB2     		uxtb	r3, r3
 14737              	.LVL2366:
 14738 5af2 2B70     		strb	r3, [r5, #0]
 14739 5af4 9B18     		adds	r3, r3, r2
 14740              	.LVL2367:
 14741 5af6 2370     		strb	r3, [r4, #0]
 14742 5af8 1B48     		ldr	r0, .L321+16
 14743 5afa FFF7FEFF 		bl	uart_transmit
 14744              	.LVL2368:
 14745              	.LBE997:
 14746              	.LBB998:
 14747 5afe 7178     		ldrb	r1, [r6, #1]	@ zero_extendqisi2
 14748              	.LVL2369:
 14749 5b00 2B78     		ldrb	r3, [r5, #0]	@ zero_extendqisi2
 14750 5b02 2278     		ldrb	r2, [r4, #0]	@ zero_extendqisi2
 14751 5b04 CB18     		adds	r3, r1, r3
 14752 5b06 DBB2     		uxtb	r3, r3
 14753              	.LVL2370:
 14754 5b08 2B70     		strb	r3, [r5, #0]
 14755 5b0a 9B18     		adds	r3, r3, r2
 14756              	.LVL2371:
 14757 5b0c 2370     		strb	r3, [r4, #0]
 14758 5b0e 1648     		ldr	r0, .L321+16
 14759 5b10 FFF7FEFF 		bl	uart_transmit
 14760              	.LVL2372:
 14761              	.LBE998:
 14762              	.LBB999:
 14763 5b14 9DF81C10 		ldrb	r1, [sp, #28]	@ zero_extendqisi2
 14764              	.LVL2373:
 14765 5b18 2B78     		ldrb	r3, [r5, #0]	@ zero_extendqisi2
 14766 5b1a 2278     		ldrb	r2, [r4, #0]	@ zero_extendqisi2
 14767 5b1c CB18     		adds	r3, r1, r3
 14768 5b1e DBB2     		uxtb	r3, r3
 14769              	.LVL2374:
 14770 5b20 2B70     		strb	r3, [r5, #0]
 14771 5b22 9B18     		adds	r3, r3, r2
 14772              	.LVL2375:
 14773 5b24 2370     		strb	r3, [r4, #0]
 14774 5b26 1048     		ldr	r0, .L321+16
 14775 5b28 FFF7FEFF 		bl	uart_transmit
 14776              	.LVL2376:
 14777              	.LBE999:
 14778              	.LBB1000:
 14779 5b2c 9DF81D10 		ldrb	r1, [sp, #29]	@ zero_extendqisi2
 14780              	.LVL2377:
 14781 5b30 2B78     		ldrb	r3, [r5, #0]	@ zero_extendqisi2
 14782 5b32 2278     		ldrb	r2, [r4, #0]	@ zero_extendqisi2
 14783 5b34 CB18     		adds	r3, r1, r3
 14784 5b36 DBB2     		uxtb	r3, r3
 14785              	.LVL2378:
 14786 5b38 2B70     		strb	r3, [r5, #0]
 14787 5b3a 9B18     		adds	r3, r3, r2
 14788              	.LVL2379:
 14789 5b3c 2370     		strb	r3, [r4, #0]
 14790 5b3e 0A48     		ldr	r0, .L321+16
 14791 5b40 FFF7FEFF 		bl	uart_transmit
 14792              	.LVL2380:
 14793              	.LBE1000:
 14794 5b44 2978     		ldrb	r1, [r5, #0]	@ zero_extendqisi2
 14795 5b46 0848     		ldr	r0, .L321+16
 14796 5b48 FFF7FEFF 		bl	uart_transmit
 14797 5b4c 0648     		ldr	r0, .L321+16
 14798 5b4e 2178     		ldrb	r1, [r4, #0]	@ zero_extendqisi2
 14799 5b50 FFF7FEFF 		bl	uart_transmit
 14800 5b54 22E0     		b	.L199
 14801              	.L322:
 14802 5b56 00BF     		.align	2
 14803              	.L321:
 14804 5b58 00000000 		.word	downlink_nb_ovrn
 14805 5b5c 00000000 		.word	.LANCHOR63
 14806 5b60 00000000 		.word	.LANCHOR25
 14807 5b64 00000000 		.word	.LANCHOR26
 14808 5b68 00000000 		.word	uart2
 14809 5b6c 00000000 		.word	downlink_nb_bytes
 14810 5b70 00000000 		.word	downlink_nb_msgs
 14811 5b74 00000000 		.word	ck_a
 14812 5b78 00000000 		.word	ck_b
 14813 5b7c 00000000 		.word	v_ctl_throttle_slewed
 14814 5b80 00000000 		.word	.LANCHOR27
 14815 5b84 00000000 		.word	estimator_flight_time
 14816 5b88 00000000 		.word	.LANCHOR28
 14817 5b8c 00000000 		.word	block_time
 14818 5b90 00000000 		.word	stage_time
 14819              	.LVL2381:
 14820              	.L200:
 14821              		.loc 1 422 0 discriminator 339
 14822 5b94 9C4B     		ldr	r3, .L323
 14823 5b96 1A78     		ldrb	r2, [r3, #0]	@ zero_extendqisi2
 14824 5b98 0132     		adds	r2, r2, #1
 14825 5b9a 1A70     		strb	r2, [r3, #0]
 14826              	.L199:
 14827              	.LBE976:
 14828              	.LBE975:
 14829              		.loc 1 422 0 discriminator 337
 14830 5b9c 9B4B     		ldr	r3, .L323+4
 14831 5b9e 1B88     		ldrh	r3, [r3, #0]
 14832 5ba0 302B     		cmp	r3, #48
 14833 5ba2 40F09181 		bne	.L4
 14834              		.loc 1 422 0 discriminator 340
 14835 5ba6 9A48     		ldr	r0, .L323+8
 14836 5ba8 2221     		movs	r1, #34
 14837 5baa FFF7FEFF 		bl	uart_check_free_space
 14838 5bae 0028     		cmp	r0, #0
 14839 5bb0 00F08681 		beq	.L201
 14840              		.loc 1 422 0 discriminator 341
 14841 5bb4 974B     		ldr	r3, .L323+12
 14842              	.LBB1001:
 14843 5bb6 9921     		movs	r1, #153
 14844              	.LBE1001:
 14845 5bb8 1A88     		ldrh	r2, [r3, #0]
 14846              	.LBB1002:
 14847 5bba 9548     		ldr	r0, .L323+8
 14848              	.LBE1002:
 14849 5bbc 2232     		adds	r2, r2, #34
 14850 5bbe 1A80     		strh	r2, [r3, #0]	@ movhi
 14851 5bc0 954B     		ldr	r3, .L323+16
 14852 5bc2 964D     		ldr	r5, .L323+20
 14853 5bc4 1A88     		ldrh	r2, [r3, #0]
 14854 5bc6 964C     		ldr	r4, .L323+24
 14855 5bc8 0132     		adds	r2, r2, #1
 14856 5bca 1A80     		strh	r2, [r3, #0]	@ movhi
 14857              	.LBB1003:
 14858 5bcc FFF7FEFF 		bl	uart_transmit
 14859              	.LVL2382:
 14860 5bd0 2221     		movs	r1, #34
 14861 5bd2 8F48     		ldr	r0, .L323+8
 14862 5bd4 FFF7FEFF 		bl	uart_transmit
 14863              	.LBE1003:
 14864 5bd8 2323     		movs	r3, #35
 14865 5bda 2B70     		strb	r3, [r5, #0]
 14866 5bdc 4523     		movs	r3, #69
 14867 5bde 2370     		strb	r3, [r4, #0]
 14868 5be0 0121     		movs	r1, #1
 14869 5be2 8B48     		ldr	r0, .L323+8
 14870 5be4 FFF7FEFF 		bl	uart_transmit
 14871 5be8 2B78     		ldrb	r3, [r5, #0]	@ zero_extendqisi2
 14872 5bea 2278     		ldrb	r2, [r4, #0]	@ zero_extendqisi2
 14873 5bec 1033     		adds	r3, r3, #16
 14874 5bee DBB2     		uxtb	r3, r3
 14875              	.LBB1004:
 14876 5bf0 8C4E     		ldr	r6, .L323+28
 14877              	.LBE1004:
 14878 5bf2 2B70     		strb	r3, [r5, #0]
 14879 5bf4 9B18     		adds	r3, r3, r2
 14880 5bf6 2370     		strb	r3, [r4, #0]
 14881 5bf8 1021     		movs	r1, #16
 14882 5bfa 8548     		ldr	r0, .L323+8
 14883 5bfc FFF7FEFF 		bl	uart_transmit
 14884              	.LBB1005:
 14885 5c00 3178     		ldrb	r1, [r6, #0]	@ zero_extendqisi2
 14886              	.LVL2383:
 14887 5c02 2B78     		ldrb	r3, [r5, #0]	@ zero_extendqisi2
 14888 5c04 2278     		ldrb	r2, [r4, #0]	@ zero_extendqisi2
 14889 5c06 CB18     		adds	r3, r1, r3
 14890 5c08 DBB2     		uxtb	r3, r3
 14891              	.LVL2384:
 14892 5c0a 2B70     		strb	r3, [r5, #0]
 14893 5c0c 9B18     		adds	r3, r3, r2
 14894              	.LVL2385:
 14895 5c0e 2370     		strb	r3, [r4, #0]
 14896 5c10 7F48     		ldr	r0, .L323+8
 14897 5c12 FFF7FEFF 		bl	uart_transmit
 14898              	.LVL2386:
 14899              	.LBE1005:
 14900              	.LBB1006:
 14901 5c16 7178     		ldrb	r1, [r6, #1]	@ zero_extendqisi2
 14902              	.LVL2387:
 14903 5c18 2B78     		ldrb	r3, [r5, #0]	@ zero_extendqisi2
 14904 5c1a 2278     		ldrb	r2, [r4, #0]	@ zero_extendqisi2
 14905 5c1c CB18     		adds	r3, r1, r3
 14906 5c1e DBB2     		uxtb	r3, r3
 14907              	.LVL2388:
 14908 5c20 2B70     		strb	r3, [r5, #0]
 14909 5c22 9B18     		adds	r3, r3, r2
 14910              	.LVL2389:
 14911 5c24 2370     		strb	r3, [r4, #0]
 14912 5c26 7A48     		ldr	r0, .L323+8
 14913 5c28 FFF7FEFF 		bl	uart_transmit
 14914              	.LVL2390:
 14915              	.LBE1006:
 14916              	.LBB1007:
 14917 5c2c B178     		ldrb	r1, [r6, #2]	@ zero_extendqisi2
 14918              	.LVL2391:
 14919 5c2e 2B78     		ldrb	r3, [r5, #0]	@ zero_extendqisi2
 14920 5c30 2278     		ldrb	r2, [r4, #0]	@ zero_extendqisi2
 14921 5c32 CB18     		adds	r3, r1, r3
 14922 5c34 DBB2     		uxtb	r3, r3
 14923              	.LVL2392:
 14924 5c36 2B70     		strb	r3, [r5, #0]
 14925 5c38 9B18     		adds	r3, r3, r2
 14926              	.LVL2393:
 14927 5c3a 2370     		strb	r3, [r4, #0]
 14928 5c3c 7448     		ldr	r0, .L323+8
 14929 5c3e FFF7FEFF 		bl	uart_transmit
 14930              	.LVL2394:
 14931              	.LBE1007:
 14932              	.LBB1008:
 14933 5c42 F178     		ldrb	r1, [r6, #3]	@ zero_extendqisi2
 14934              	.LVL2395:
 14935 5c44 2B78     		ldrb	r3, [r5, #0]	@ zero_extendqisi2
 14936 5c46 2278     		ldrb	r2, [r4, #0]	@ zero_extendqisi2
 14937 5c48 CB18     		adds	r3, r1, r3
 14938 5c4a DBB2     		uxtb	r3, r3
 14939              	.LBE1008:
 14940              	.LBB1009:
 14941 5c4c 764E     		ldr	r6, .L323+32
 14942              	.LVL2396:
 14943              	.LBE1009:
 14944              	.LBB1010:
 14945 5c4e 2B70     		strb	r3, [r5, #0]
 14946 5c50 9B18     		adds	r3, r3, r2
 14947              	.LVL2397:
 14948 5c52 2370     		strb	r3, [r4, #0]
 14949 5c54 6E48     		ldr	r0, .L323+8
 14950 5c56 FFF7FEFF 		bl	uart_transmit
 14951              	.LVL2398:
 14952              	.LBE1010:
 14953              	.LBB1011:
 14954 5c5a 3178     		ldrb	r1, [r6, #0]	@ zero_extendqisi2
 14955              	.LVL2399:
 14956 5c5c 2B78     		ldrb	r3, [r5, #0]	@ zero_extendqisi2
 14957 5c5e 2278     		ldrb	r2, [r4, #0]	@ zero_extendqisi2
 14958 5c60 CB18     		adds	r3, r1, r3
 14959 5c62 DBB2     		uxtb	r3, r3
 14960              	.LVL2400:
 14961 5c64 2B70     		strb	r3, [r5, #0]
 14962 5c66 9B18     		adds	r3, r3, r2
 14963              	.LVL2401:
 14964 5c68 2370     		strb	r3, [r4, #0]
 14965 5c6a 6948     		ldr	r0, .L323+8
 14966 5c6c FFF7FEFF 		bl	uart_transmit
 14967              	.LVL2402:
 14968              	.LBE1011:
 14969              	.LBB1012:
 14970 5c70 7178     		ldrb	r1, [r6, #1]	@ zero_extendqisi2
 14971              	.LVL2403:
 14972 5c72 2B78     		ldrb	r3, [r5, #0]	@ zero_extendqisi2
 14973 5c74 2278     		ldrb	r2, [r4, #0]	@ zero_extendqisi2
 14974 5c76 CB18     		adds	r3, r1, r3
 14975 5c78 DBB2     		uxtb	r3, r3
 14976              	.LVL2404:
 14977 5c7a 2B70     		strb	r3, [r5, #0]
 14978 5c7c 9B18     		adds	r3, r3, r2
 14979              	.LVL2405:
 14980 5c7e 2370     		strb	r3, [r4, #0]
 14981 5c80 6348     		ldr	r0, .L323+8
 14982 5c82 FFF7FEFF 		bl	uart_transmit
 14983              	.LVL2406:
 14984              	.LBE1012:
 14985              	.LBB1013:
 14986 5c86 B178     		ldrb	r1, [r6, #2]	@ zero_extendqisi2
 14987              	.LVL2407:
 14988 5c88 2B78     		ldrb	r3, [r5, #0]	@ zero_extendqisi2
 14989 5c8a 2278     		ldrb	r2, [r4, #0]	@ zero_extendqisi2
 14990 5c8c CB18     		adds	r3, r1, r3
 14991 5c8e DBB2     		uxtb	r3, r3
 14992              	.LVL2408:
 14993 5c90 2B70     		strb	r3, [r5, #0]
 14994 5c92 9B18     		adds	r3, r3, r2
 14995              	.LVL2409:
 14996 5c94 2370     		strb	r3, [r4, #0]
 14997 5c96 5E48     		ldr	r0, .L323+8
 14998 5c98 FFF7FEFF 		bl	uart_transmit
 14999              	.LVL2410:
 15000              	.LBE1013:
 15001              	.LBB1014:
 15002 5c9c F178     		ldrb	r1, [r6, #3]	@ zero_extendqisi2
 15003              	.LVL2411:
 15004 5c9e 2B78     		ldrb	r3, [r5, #0]	@ zero_extendqisi2
 15005 5ca0 2278     		ldrb	r2, [r4, #0]	@ zero_extendqisi2
 15006 5ca2 CB18     		adds	r3, r1, r3
 15007 5ca4 DBB2     		uxtb	r3, r3
 15008              	.LBE1014:
 15009              	.LBB1015:
 15010 5ca6 614E     		ldr	r6, .L323+36
 15011              	.LVL2412:
 15012              	.LBE1015:
 15013              	.LBB1016:
 15014 5ca8 2B70     		strb	r3, [r5, #0]
 15015 5caa 9B18     		adds	r3, r3, r2
 15016              	.LVL2413:
 15017 5cac 2370     		strb	r3, [r4, #0]
 15018 5cae 5848     		ldr	r0, .L323+8
 15019 5cb0 FFF7FEFF 		bl	uart_transmit
 15020              	.LVL2414:
 15021              	.LBE1016:
 15022              	.LBB1017:
 15023 5cb4 3178     		ldrb	r1, [r6, #0]	@ zero_extendqisi2
 15024              	.LVL2415:
 15025 5cb6 2B78     		ldrb	r3, [r5, #0]	@ zero_extendqisi2
 15026 5cb8 2278     		ldrb	r2, [r4, #0]	@ zero_extendqisi2
 15027 5cba CB18     		adds	r3, r1, r3
 15028 5cbc DBB2     		uxtb	r3, r3
 15029              	.LVL2416:
 15030 5cbe 2B70     		strb	r3, [r5, #0]
 15031 5cc0 9B18     		adds	r3, r3, r2
 15032              	.LVL2417:
 15033 5cc2 2370     		strb	r3, [r4, #0]
 15034 5cc4 5248     		ldr	r0, .L323+8
 15035 5cc6 FFF7FEFF 		bl	uart_transmit
 15036              	.LVL2418:
 15037              	.LBE1017:
 15038              	.LBB1018:
 15039 5cca 7178     		ldrb	r1, [r6, #1]	@ zero_extendqisi2
 15040              	.LVL2419:
 15041 5ccc 2B78     		ldrb	r3, [r5, #0]	@ zero_extendqisi2
 15042 5cce 2278     		ldrb	r2, [r4, #0]	@ zero_extendqisi2
 15043 5cd0 CB18     		adds	r3, r1, r3
 15044 5cd2 DBB2     		uxtb	r3, r3
 15045              	.LVL2420:
 15046 5cd4 2B70     		strb	r3, [r5, #0]
 15047 5cd6 9B18     		adds	r3, r3, r2
 15048              	.LVL2421:
 15049 5cd8 2370     		strb	r3, [r4, #0]
 15050 5cda 4D48     		ldr	r0, .L323+8
 15051 5cdc FFF7FEFF 		bl	uart_transmit
 15052              	.LVL2422:
 15053              	.LBE1018:
 15054              	.LBB1019:
 15055 5ce0 B178     		ldrb	r1, [r6, #2]	@ zero_extendqisi2
 15056              	.LVL2423:
 15057 5ce2 2B78     		ldrb	r3, [r5, #0]	@ zero_extendqisi2
 15058 5ce4 2278     		ldrb	r2, [r4, #0]	@ zero_extendqisi2
 15059 5ce6 CB18     		adds	r3, r1, r3
 15060 5ce8 DBB2     		uxtb	r3, r3
 15061              	.LVL2424:
 15062 5cea 2B70     		strb	r3, [r5, #0]
 15063 5cec 9B18     		adds	r3, r3, r2
 15064              	.LVL2425:
 15065 5cee 2370     		strb	r3, [r4, #0]
 15066 5cf0 4748     		ldr	r0, .L323+8
 15067 5cf2 FFF7FEFF 		bl	uart_transmit
 15068              	.LVL2426:
 15069              	.LBE1019:
 15070              	.LBB1020:
 15071 5cf6 F178     		ldrb	r1, [r6, #3]	@ zero_extendqisi2
 15072              	.LVL2427:
 15073 5cf8 2B78     		ldrb	r3, [r5, #0]	@ zero_extendqisi2
 15074 5cfa 2278     		ldrb	r2, [r4, #0]	@ zero_extendqisi2
 15075 5cfc CB18     		adds	r3, r1, r3
 15076 5cfe DBB2     		uxtb	r3, r3
 15077              	.LBE1020:
 15078              	.LBB1021:
 15079 5d00 4B4E     		ldr	r6, .L323+40
 15080              	.LVL2428:
 15081              	.LBE1021:
 15082              	.LBB1022:
 15083 5d02 2B70     		strb	r3, [r5, #0]
 15084 5d04 9B18     		adds	r3, r3, r2
 15085              	.LVL2429:
 15086 5d06 2370     		strb	r3, [r4, #0]
 15087 5d08 4148     		ldr	r0, .L323+8
 15088 5d0a FFF7FEFF 		bl	uart_transmit
 15089              	.LVL2430:
 15090              	.LBE1022:
 15091              	.LBB1023:
 15092 5d0e 3178     		ldrb	r1, [r6, #0]	@ zero_extendqisi2
 15093              	.LVL2431:
 15094 5d10 2B78     		ldrb	r3, [r5, #0]	@ zero_extendqisi2
 15095 5d12 2278     		ldrb	r2, [r4, #0]	@ zero_extendqisi2
 15096 5d14 CB18     		adds	r3, r1, r3
 15097 5d16 DBB2     		uxtb	r3, r3
 15098              	.LVL2432:
 15099 5d18 2B70     		strb	r3, [r5, #0]
 15100 5d1a 9B18     		adds	r3, r3, r2
 15101              	.LVL2433:
 15102 5d1c 2370     		strb	r3, [r4, #0]
 15103 5d1e 3C48     		ldr	r0, .L323+8
 15104 5d20 FFF7FEFF 		bl	uart_transmit
 15105              	.LVL2434:
 15106              	.LBE1023:
 15107              	.LBB1024:
 15108 5d24 7178     		ldrb	r1, [r6, #1]	@ zero_extendqisi2
 15109              	.LVL2435:
 15110 5d26 2B78     		ldrb	r3, [r5, #0]	@ zero_extendqisi2
 15111 5d28 2278     		ldrb	r2, [r4, #0]	@ zero_extendqisi2
 15112 5d2a CB18     		adds	r3, r1, r3
 15113 5d2c DBB2     		uxtb	r3, r3
 15114              	.LVL2436:
 15115 5d2e 2B70     		strb	r3, [r5, #0]
 15116 5d30 9B18     		adds	r3, r3, r2
 15117              	.LVL2437:
 15118 5d32 2370     		strb	r3, [r4, #0]
 15119 5d34 3648     		ldr	r0, .L323+8
 15120 5d36 FFF7FEFF 		bl	uart_transmit
 15121              	.LVL2438:
 15122              	.LBE1024:
 15123              	.LBB1025:
 15124 5d3a B178     		ldrb	r1, [r6, #2]	@ zero_extendqisi2
 15125              	.LVL2439:
 15126 5d3c 2B78     		ldrb	r3, [r5, #0]	@ zero_extendqisi2
 15127 5d3e 2278     		ldrb	r2, [r4, #0]	@ zero_extendqisi2
 15128 5d40 CB18     		adds	r3, r1, r3
 15129 5d42 DBB2     		uxtb	r3, r3
 15130              	.LVL2440:
 15131 5d44 2B70     		strb	r3, [r5, #0]
 15132 5d46 9B18     		adds	r3, r3, r2
 15133              	.LVL2441:
 15134 5d48 2370     		strb	r3, [r4, #0]
 15135 5d4a 3148     		ldr	r0, .L323+8
 15136 5d4c FFF7FEFF 		bl	uart_transmit
 15137              	.LVL2442:
 15138              	.LBE1025:
 15139              	.LBB1026:
 15140 5d50 F178     		ldrb	r1, [r6, #3]	@ zero_extendqisi2
 15141              	.LVL2443:
 15142 5d52 2B78     		ldrb	r3, [r5, #0]	@ zero_extendqisi2
 15143 5d54 2278     		ldrb	r2, [r4, #0]	@ zero_extendqisi2
 15144 5d56 CB18     		adds	r3, r1, r3
 15145 5d58 DBB2     		uxtb	r3, r3
 15146              	.LBE1026:
 15147              	.LBB1027:
 15148 5d5a 364E     		ldr	r6, .L323+44
 15149              	.LVL2444:
 15150              	.LBE1027:
 15151              	.LBB1028:
 15152 5d5c 2B70     		strb	r3, [r5, #0]
 15153 5d5e 9B18     		adds	r3, r3, r2
 15154              	.LVL2445:
 15155 5d60 2370     		strb	r3, [r4, #0]
 15156 5d62 2B48     		ldr	r0, .L323+8
 15157 5d64 FFF7FEFF 		bl	uart_transmit
 15158              	.LVL2446:
 15159              	.LBE1028:
 15160              	.LBB1029:
 15161 5d68 3178     		ldrb	r1, [r6, #0]	@ zero_extendqisi2
 15162              	.LVL2447:
 15163 5d6a 2B78     		ldrb	r3, [r5, #0]	@ zero_extendqisi2
 15164 5d6c 2278     		ldrb	r2, [r4, #0]	@ zero_extendqisi2
 15165 5d6e CB18     		adds	r3, r1, r3
 15166 5d70 DBB2     		uxtb	r3, r3
 15167              	.LVL2448:
 15168 5d72 2B70     		strb	r3, [r5, #0]
 15169 5d74 9B18     		adds	r3, r3, r2
 15170              	.LVL2449:
 15171 5d76 2370     		strb	r3, [r4, #0]
 15172 5d78 2548     		ldr	r0, .L323+8
 15173 5d7a FFF7FEFF 		bl	uart_transmit
 15174              	.LVL2450:
 15175              	.LBE1029:
 15176              	.LBB1030:
 15177 5d7e 7178     		ldrb	r1, [r6, #1]	@ zero_extendqisi2
 15178              	.LVL2451:
 15179 5d80 2B78     		ldrb	r3, [r5, #0]	@ zero_extendqisi2
 15180 5d82 2278     		ldrb	r2, [r4, #0]	@ zero_extendqisi2
 15181 5d84 CB18     		adds	r3, r1, r3
 15182 5d86 DBB2     		uxtb	r3, r3
 15183              	.LVL2452:
 15184 5d88 2B70     		strb	r3, [r5, #0]
 15185 5d8a 9B18     		adds	r3, r3, r2
 15186              	.LVL2453:
 15187 5d8c 2370     		strb	r3, [r4, #0]
 15188 5d8e 2048     		ldr	r0, .L323+8
 15189 5d90 FFF7FEFF 		bl	uart_transmit
 15190              	.LVL2454:
 15191              	.LBE1030:
 15192              	.LBB1031:
 15193 5d94 B178     		ldrb	r1, [r6, #2]	@ zero_extendqisi2
 15194              	.LVL2455:
 15195 5d96 2B78     		ldrb	r3, [r5, #0]	@ zero_extendqisi2
 15196 5d98 2278     		ldrb	r2, [r4, #0]	@ zero_extendqisi2
 15197 5d9a CB18     		adds	r3, r1, r3
 15198 5d9c DBB2     		uxtb	r3, r3
 15199              	.LVL2456:
 15200 5d9e 2B70     		strb	r3, [r5, #0]
 15201 5da0 9B18     		adds	r3, r3, r2
 15202              	.LVL2457:
 15203 5da2 2370     		strb	r3, [r4, #0]
 15204 5da4 1A48     		ldr	r0, .L323+8
 15205 5da6 FFF7FEFF 		bl	uart_transmit
 15206              	.LVL2458:
 15207              	.LBE1031:
 15208              	.LBB1032:
 15209 5daa F178     		ldrb	r1, [r6, #3]	@ zero_extendqisi2
 15210              	.LVL2459:
 15211 5dac 2B78     		ldrb	r3, [r5, #0]	@ zero_extendqisi2
 15212 5dae 2278     		ldrb	r2, [r4, #0]	@ zero_extendqisi2
 15213 5db0 CB18     		adds	r3, r1, r3
 15214 5db2 DBB2     		uxtb	r3, r3
 15215              	.LBE1032:
 15216              	.LBB1033:
 15217 5db4 204E     		ldr	r6, .L323+48
 15218              	.LVL2460:
 15219              	.LBE1033:
 15220              	.LBB1034:
 15221 5db6 2B70     		strb	r3, [r5, #0]
 15222 5db8 9B18     		adds	r3, r3, r2
 15223              	.LVL2461:
 15224 5dba 2370     		strb	r3, [r4, #0]
 15225 5dbc 1448     		ldr	r0, .L323+8
 15226 5dbe FFF7FEFF 		bl	uart_transmit
 15227              	.LVL2462:
 15228              	.LBE1034:
 15229              	.LBB1035:
 15230 5dc2 3178     		ldrb	r1, [r6, #0]	@ zero_extendqisi2
 15231              	.LVL2463:
 15232 5dc4 2B78     		ldrb	r3, [r5, #0]	@ zero_extendqisi2
 15233 5dc6 2278     		ldrb	r2, [r4, #0]	@ zero_extendqisi2
 15234 5dc8 CB18     		adds	r3, r1, r3
 15235 5dca DBB2     		uxtb	r3, r3
 15236              	.LVL2464:
 15237 5dcc 2B70     		strb	r3, [r5, #0]
 15238 5dce 9B18     		adds	r3, r3, r2
 15239              	.LVL2465:
 15240 5dd0 2370     		strb	r3, [r4, #0]
 15241 5dd2 0F48     		ldr	r0, .L323+8
 15242 5dd4 FFF7FEFF 		bl	uart_transmit
 15243              	.LVL2466:
 15244              	.LBE1035:
 15245              	.LBB1036:
 15246 5dd8 7178     		ldrb	r1, [r6, #1]	@ zero_extendqisi2
 15247              	.LVL2467:
 15248 5dda 2B78     		ldrb	r3, [r5, #0]	@ zero_extendqisi2
 15249 5ddc 2278     		ldrb	r2, [r4, #0]	@ zero_extendqisi2
 15250 5dde CB18     		adds	r3, r1, r3
 15251 5de0 DBB2     		uxtb	r3, r3
 15252              	.LVL2468:
 15253 5de2 2B70     		strb	r3, [r5, #0]
 15254 5de4 9B18     		adds	r3, r3, r2
 15255              	.LVL2469:
 15256 5de6 2370     		strb	r3, [r4, #0]
 15257 5de8 0948     		ldr	r0, .L323+8
 15258 5dea FFF7FEFF 		bl	uart_transmit
 15259              	.LVL2470:
 15260              	.LBE1036:
 15261              	.LBB1037:
 15262 5dee B178     		ldrb	r1, [r6, #2]	@ zero_extendqisi2
 15263              	.LVL2471:
 15264 5df0 2B78     		ldrb	r3, [r5, #0]	@ zero_extendqisi2
 15265 5df2 2278     		ldrb	r2, [r4, #0]	@ zero_extendqisi2
 15266 5df4 CB18     		adds	r3, r1, r3
 15267 5df6 DBB2     		uxtb	r3, r3
 15268              	.LVL2472:
 15269 5df8 2B70     		strb	r3, [r5, #0]
 15270 5dfa 9B18     		adds	r3, r3, r2
 15271              	.LVL2473:
 15272 5dfc 2370     		strb	r3, [r4, #0]
 15273 5dfe 0448     		ldr	r0, .L323+8
 15274 5e00 FFF7FEFF 		bl	uart_transmit
 15275              	.LVL2474:
 15276              	.LBE1037:
 15277              	.LBB1038:
 15278 5e04 F178     		ldrb	r1, [r6, #3]	@ zero_extendqisi2
 15279 5e06 19E0     		b	.L324
 15280              	.L325:
 15281              		.align	2
 15282              	.L323:
 15283 5e08 00000000 		.word	downlink_nb_ovrn
 15284 5e0c 00000000 		.word	.LANCHOR64
 15285 5e10 00000000 		.word	uart2
 15286 5e14 00000000 		.word	downlink_nb_bytes
 15287 5e18 00000000 		.word	downlink_nb_msgs
 15288 5e1c 00000000 		.word	ck_a
 15289 5e20 00000000 		.word	ck_b
 15290 5e24 00000000 		.word	h_ctl_roll_setpoint
 15291 5e28 00000000 		.word	h_ctl_pitch_loop_setpoint
 15292 5e2c 00000000 		.word	h_ctl_course_setpoint
 15293 5e30 00000000 		.word	desired_x
 15294 5e34 00000000 		.word	desired_y
 15295 5e38 00000000 		.word	v_ctl_altitude_setpoint
 15296              	.L324:
 15297              	.LVL2475:
 15298 5e3c 2B78     		ldrb	r3, [r5, #0]	@ zero_extendqisi2
 15299 5e3e 2278     		ldrb	r2, [r4, #0]	@ zero_extendqisi2
 15300 5e40 CB18     		adds	r3, r1, r3
 15301 5e42 DBB2     		uxtb	r3, r3
 15302              	.LBE1038:
 15303              	.LBB1039:
 15304 5e44 224E     		ldr	r6, .L326
 15305              	.LVL2476:
 15306              	.LBE1039:
 15307              	.LBB1040:
 15308 5e46 2B70     		strb	r3, [r5, #0]
 15309 5e48 9B18     		adds	r3, r3, r2
 15310              	.LVL2477:
 15311 5e4a 2370     		strb	r3, [r4, #0]
 15312 5e4c 2148     		ldr	r0, .L326+4
 15313 5e4e FFF7FEFF 		bl	uart_transmit
 15314              	.LVL2478:
 15315              	.LBE1040:
 15316              	.LBB1041:
 15317 5e52 3178     		ldrb	r1, [r6, #0]	@ zero_extendqisi2
 15318              	.LVL2479:
 15319 5e54 2B78     		ldrb	r3, [r5, #0]	@ zero_extendqisi2
 15320 5e56 2278     		ldrb	r2, [r4, #0]	@ zero_extendqisi2
 15321 5e58 CB18     		adds	r3, r1, r3
 15322 5e5a DBB2     		uxtb	r3, r3
 15323              	.LVL2480:
 15324 5e5c 2B70     		strb	r3, [r5, #0]
 15325 5e5e 9B18     		adds	r3, r3, r2
 15326              	.LVL2481:
 15327 5e60 2370     		strb	r3, [r4, #0]
 15328 5e62 1C48     		ldr	r0, .L326+4
 15329 5e64 FFF7FEFF 		bl	uart_transmit
 15330              	.LVL2482:
 15331              	.LBE1041:
 15332              	.LBB1042:
 15333 5e68 7178     		ldrb	r1, [r6, #1]	@ zero_extendqisi2
 15334              	.LVL2483:
 15335 5e6a 2B78     		ldrb	r3, [r5, #0]	@ zero_extendqisi2
 15336 5e6c 2278     		ldrb	r2, [r4, #0]	@ zero_extendqisi2
 15337 5e6e CB18     		adds	r3, r1, r3
 15338 5e70 DBB2     		uxtb	r3, r3
 15339              	.LVL2484:
 15340 5e72 2B70     		strb	r3, [r5, #0]
 15341 5e74 9B18     		adds	r3, r3, r2
 15342              	.LVL2485:
 15343 5e76 2370     		strb	r3, [r4, #0]
 15344 5e78 1648     		ldr	r0, .L326+4
 15345 5e7a FFF7FEFF 		bl	uart_transmit
 15346              	.LVL2486:
 15347              	.LBE1042:
 15348              	.LBB1043:
 15349 5e7e B178     		ldrb	r1, [r6, #2]	@ zero_extendqisi2
 15350              	.LVL2487:
 15351 5e80 2B78     		ldrb	r3, [r5, #0]	@ zero_extendqisi2
 15352 5e82 2278     		ldrb	r2, [r4, #0]	@ zero_extendqisi2
 15353 5e84 CB18     		adds	r3, r1, r3
 15354 5e86 DBB2     		uxtb	r3, r3
 15355              	.LVL2488:
 15356 5e88 2B70     		strb	r3, [r5, #0]
 15357 5e8a 9B18     		adds	r3, r3, r2
 15358              	.LVL2489:
 15359 5e8c 2370     		strb	r3, [r4, #0]
 15360 5e8e 1148     		ldr	r0, .L326+4
 15361 5e90 FFF7FEFF 		bl	uart_transmit
 15362              	.LVL2490:
 15363              	.LBE1043:
 15364              	.LBB1044:
 15365 5e94 F178     		ldrb	r1, [r6, #3]	@ zero_extendqisi2
 15366              	.LVL2491:
 15367 5e96 2B78     		ldrb	r3, [r5, #0]	@ zero_extendqisi2
 15368 5e98 2278     		ldrb	r2, [r4, #0]	@ zero_extendqisi2
 15369 5e9a CB18     		adds	r3, r1, r3
 15370 5e9c DBB2     		uxtb	r3, r3
 15371              	.LVL2492:
 15372 5e9e 2B70     		strb	r3, [r5, #0]
 15373 5ea0 9B18     		adds	r3, r3, r2
 15374              	.LVL2493:
 15375 5ea2 2370     		strb	r3, [r4, #0]
 15376 5ea4 0B48     		ldr	r0, .L326+4
 15377 5ea6 FFF7FEFF 		bl	uart_transmit
 15378              	.LVL2494:
 15379              	.LBE1044:
 15380 5eaa 2978     		ldrb	r1, [r5, #0]	@ zero_extendqisi2
 15381 5eac 0948     		ldr	r0, .L326+4
 15382 5eae FFF7FEFF 		bl	uart_transmit
 15383 5eb2 0848     		ldr	r0, .L326+4
 15384 5eb4 2178     		ldrb	r1, [r4, #0]	@ zero_extendqisi2
 15385              	.LBE853:
 423:firmwares/fixedwing/main_ap.c ****   }
 424:firmwares/fixedwing/main_ap.c **** }
 15386              		.loc 1 424 0 is_stmt 1 discriminator 341
 15387 5eb6 08B0     		add	sp, sp, #32
 15388 5eb8 BDE8F041 		pop	{r4, r5, r6, r7, r8, lr}
 15389              	.LBB1045:
 422:firmwares/fixedwing/main_ap.c ****     PeriodicSendAp(DefaultChannel, DefaultDevice);
 15390              		.loc 1 422 0 discriminator 341
 15391 5ebc FFF7FEBF 		b	uart_transmit
 15392              	.LVL2495:
 15393              	.L201:
 422:firmwares/fixedwing/main_ap.c ****     PeriodicSendAp(DefaultChannel, DefaultDevice);
 15394              		.loc 1 422 0 is_stmt 0 discriminator 342
 15395 5ec0 054B     		ldr	r3, .L326+8
 15396 5ec2 1A78     		ldrb	r2, [r3, #0]	@ zero_extendqisi2
 15397 5ec4 0132     		adds	r2, r2, #1
 15398              	.L225:
 15399 5ec6 1A70     		strb	r2, [r3, #0]
 15400              	.L4:
 15401              	.LBE1045:
 15402              		.loc 1 424 0 is_stmt 1
 15403 5ec8 08B0     		add	sp, sp, #32
 15404 5eca BDE8F081 		pop	{r4, r5, r6, r7, r8, pc}
 15405              	.L327:
 15406 5ece 00BF     		.align	2
 15407              	.L326:
 15408 5ed0 00000000 		.word	v_ctl_climb_setpoint
 15409 5ed4 00000000 		.word	uart2
 15410 5ed8 00000000 		.word	downlink_nb_ovrn
 15411              		.cfi_endproc
 15412              	.LFE54:
 15414              		.global	__aeabi_dcmpgt
 15415              		.global	__aeabi_dcmplt
 15416 5edc AFF30080 		.section	.text.navigation_task,"ax",%progbits
 15417              		.align	1
 15418              		.global	navigation_task
 15419              		.thumb
 15420              		.thumb_func
 15422              	navigation_task:
 15423              	.LFB55:
 425:firmwares/fixedwing/main_ap.c **** 
 426:firmwares/fixedwing/main_ap.c **** 
 427:firmwares/fixedwing/main_ap.c **** #ifdef FAILSAFE_DELAY_WITHOUT_GPS
 428:firmwares/fixedwing/main_ap.c **** #define GpsTimeoutError (sys_time.nb_sec - gps.last_fix_time > FAILSAFE_DELAY_WITHOUT_GPS)
 429:firmwares/fixedwing/main_ap.c **** #endif
 430:firmwares/fixedwing/main_ap.c **** 
 431:firmwares/fixedwing/main_ap.c **** /**
 432:firmwares/fixedwing/main_ap.c ****  *  Compute desired_course
 433:firmwares/fixedwing/main_ap.c ****  */
 434:firmwares/fixedwing/main_ap.c **** void navigation_task( void ) {
 15424              		.loc 1 434 0
 15425              		.cfi_startproc
 15426              		@ args = 0, pretend = 0, frame = 0
 15427              		@ frame_needed = 0, uses_anonymous_args = 0
 15428 0000 F8B5     		push	{r3, r4, r5, r6, r7, lr}
 15429              	.LCFI3:
 15430              		.cfi_def_cfa_offset 24
 15431              		.cfi_offset 14, -4
 15432              		.cfi_offset 7, -8
 15433              		.cfi_offset 6, -12
 15434              		.cfi_offset 5, -16
 15435              		.cfi_offset 4, -20
 15436              		.cfi_offset 3, -24
 435:firmwares/fixedwing/main_ap.c **** #if defined FAILSAFE_DELAY_WITHOUT_GPS
 436:firmwares/fixedwing/main_ap.c ****   /** This section is used for the failsafe of GPS */
 437:firmwares/fixedwing/main_ap.c ****   static uint8_t last_pprz_mode;
 438:firmwares/fixedwing/main_ap.c **** 
 439:firmwares/fixedwing/main_ap.c ****   /** If aircraft is launched and is in autonomus mode, go into
 440:firmwares/fixedwing/main_ap.c ****       PPRZ_MODE_GPS_OUT_OF_ORDER mode (Failsafe) if we lost the GPS */
 441:firmwares/fixedwing/main_ap.c ****   if (launch) {
 15437              		.loc 1 441 0
 15438 0002 944B     		ldr	r3, .L357
 15439 0004 1B78     		ldrb	r3, [r3, #0]	@ zero_extendqisi2
 15440 0006 002B     		cmp	r3, #0
 15441 0008 00F01581 		beq	.L329
 442:firmwares/fixedwing/main_ap.c ****     if (GpsTimeoutError) {
 15442              		.loc 1 442 0
 15443 000c 924B     		ldr	r3, .L357+4
 15444 000e 934E     		ldr	r6, .L357+8
 15445 0010 1A68     		ldr	r2, [r3, #0]
 15446 0012 934B     		ldr	r3, .L357+12
 15447 0014 D3F8EC30 		ldr	r3, [r3, #236]
 15448 0018 D31A     		subs	r3, r2, r3
 15449 001a 032B     		cmp	r3, #3
 15450 001c 40F28780 		bls	.L330
 443:firmwares/fixedwing/main_ap.c ****       if (pprz_mode == PPRZ_MODE_AUTO2 || pprz_mode == PPRZ_MODE_HOME) {
 15451              		.loc 1 443 0
 15452 0020 3378     		ldrb	r3, [r6, #0]	@ zero_extendqisi2
 15453 0022 9A1E     		subs	r2, r3, #2
 15454 0024 012A     		cmp	r2, #1
 15455 0026 00F20681 		bhi	.L329
 444:firmwares/fixedwing/main_ap.c ****         last_pprz_mode = pprz_mode;
 15456              		.loc 1 444 0
 15457 002a 8E4A     		ldr	r2, .L357+16
 15458              	.LBB1046:
 445:firmwares/fixedwing/main_ap.c ****         pprz_mode = PPRZ_MODE_GPS_OUT_OF_ORDER;
 446:firmwares/fixedwing/main_ap.c ****         PERIODIC_SEND_PPRZ_MODE(DefaultChannel, DefaultDevice);
 15459              		.loc 1 446 0
 15460 002c 8E48     		ldr	r0, .L357+20
 15461              	.LBE1046:
 444:firmwares/fixedwing/main_ap.c ****         last_pprz_mode = pprz_mode;
 15462              		.loc 1 444 0
 15463 002e 1370     		strb	r3, [r2, #0]
 445:firmwares/fixedwing/main_ap.c ****         pprz_mode = PPRZ_MODE_GPS_OUT_OF_ORDER;
 15464              		.loc 1 445 0
 15465 0030 0423     		movs	r3, #4
 15466 0032 3370     		strb	r3, [r6, #0]
 15467              	.LVL2496:
 15468              	.LBB1056:
 15469              		.loc 1 446 0
 15470 0034 0C21     		movs	r1, #12
 15471 0036 FFF7FEFF 		bl	uart_check_free_space
 15472 003a 0028     		cmp	r0, #0
 15473 003c 70D0     		beq	.L331
 15474              		.loc 1 446 0 is_stmt 0 discriminator 1
 15475 003e 8B4B     		ldr	r3, .L357+24
 15476              	.LBB1047:
 15477 0040 9921     		movs	r1, #153
 15478              	.LBE1047:
 15479 0042 1A88     		ldrh	r2, [r3, #0]
 15480              	.LBB1048:
 15481 0044 8848     		ldr	r0, .L357+20
 15482              	.LBE1048:
 15483 0046 0C32     		adds	r2, r2, #12
 15484 0048 1A80     		strh	r2, [r3, #0]	@ movhi
 15485 004a 894B     		ldr	r3, .L357+28
 15486 004c 894D     		ldr	r5, .L357+32
 15487 004e 1A88     		ldrh	r2, [r3, #0]
 15488 0050 894C     		ldr	r4, .L357+36
 15489 0052 0132     		adds	r2, r2, #1
 15490 0054 1A80     		strh	r2, [r3, #0]	@ movhi
 15491              	.LBB1049:
 15492 0056 FFF7FEFF 		bl	uart_transmit
 15493              	.LVL2497:
 15494 005a 0C21     		movs	r1, #12
 15495 005c 8248     		ldr	r0, .L357+20
 15496 005e FFF7FEFF 		bl	uart_transmit
 15497              	.LBE1049:
 15498 0062 0D23     		movs	r3, #13
 15499 0064 2B70     		strb	r3, [r5, #0]
 15500 0066 1923     		movs	r3, #25
 15501 0068 2370     		strb	r3, [r4, #0]
 15502 006a 0121     		movs	r1, #1
 15503 006c 7E48     		ldr	r0, .L357+20
 15504 006e FFF7FEFF 		bl	uart_transmit
 15505 0072 2B78     		ldrb	r3, [r5, #0]	@ zero_extendqisi2
 15506 0074 2278     		ldrb	r2, [r4, #0]	@ zero_extendqisi2
 15507 0076 0B33     		adds	r3, r3, #11
 15508 0078 DBB2     		uxtb	r3, r3
 15509 007a 2B70     		strb	r3, [r5, #0]
 15510 007c 9B18     		adds	r3, r3, r2
 15511 007e 2370     		strb	r3, [r4, #0]
 15512 0080 0B21     		movs	r1, #11
 15513 0082 7948     		ldr	r0, .L357+20
 15514 0084 FFF7FEFF 		bl	uart_transmit
 15515              	.LBB1050:
 15516 0088 3178     		ldrb	r1, [r6, #0]	@ zero_extendqisi2
 15517              	.LVL2498:
 15518 008a 2B78     		ldrb	r3, [r5, #0]	@ zero_extendqisi2
 15519 008c 2278     		ldrb	r2, [r4, #0]	@ zero_extendqisi2
 15520 008e CB18     		adds	r3, r1, r3
 15521 0090 DBB2     		uxtb	r3, r3
 15522              	.LVL2499:
 15523 0092 2B70     		strb	r3, [r5, #0]
 15524 0094 9B18     		adds	r3, r3, r2
 15525              	.LVL2500:
 15526 0096 2370     		strb	r3, [r4, #0]
 15527 0098 7348     		ldr	r0, .L357+20
 15528 009a FFF7FEFF 		bl	uart_transmit
 15529              	.LVL2501:
 15530              	.LBE1050:
 15531              	.LBB1051:
 15532 009e 774B     		ldr	r3, .L357+40
 15533 00a0 2278     		ldrb	r2, [r4, #0]	@ zero_extendqisi2
 15534 00a2 1978     		ldrb	r1, [r3, #0]	@ zero_extendqisi2
 15535              	.LVL2502:
 15536 00a4 2B78     		ldrb	r3, [r5, #0]	@ zero_extendqisi2
 15537 00a6 7048     		ldr	r0, .L357+20
 15538 00a8 CB18     		adds	r3, r1, r3
 15539 00aa DBB2     		uxtb	r3, r3
 15540              	.LVL2503:
 15541 00ac 2B70     		strb	r3, [r5, #0]
 15542 00ae 9B18     		adds	r3, r3, r2
 15543              	.LVL2504:
 15544 00b0 2370     		strb	r3, [r4, #0]
 15545 00b2 FFF7FEFF 		bl	uart_transmit
 15546              	.LVL2505:
 15547              	.LBE1051:
 15548              	.LBB1052:
 15549 00b6 724B     		ldr	r3, .L357+44
 15550 00b8 2278     		ldrb	r2, [r4, #0]	@ zero_extendqisi2
 15551 00ba 1978     		ldrb	r1, [r3, #0]	@ zero_extendqisi2
 15552              	.LVL2506:
 15553 00bc 2B78     		ldrb	r3, [r5, #0]	@ zero_extendqisi2
 15554 00be 6A48     		ldr	r0, .L357+20
 15555 00c0 CB18     		adds	r3, r1, r3
 15556 00c2 DBB2     		uxtb	r3, r3
 15557              	.LVL2507:
 15558 00c4 2B70     		strb	r3, [r5, #0]
 15559 00c6 9B18     		adds	r3, r3, r2
 15560              	.LVL2508:
 15561 00c8 2370     		strb	r3, [r4, #0]
 15562 00ca FFF7FEFF 		bl	uart_transmit
 15563              	.LVL2509:
 15564              	.LBE1052:
 15565              	.LBB1053:
 15566 00ce 6D4B     		ldr	r3, .L357+48
 15567 00d0 2278     		ldrb	r2, [r4, #0]	@ zero_extendqisi2
 15568 00d2 1978     		ldrb	r1, [r3, #0]	@ zero_extendqisi2
 15569              	.LVL2510:
 15570 00d4 2B78     		ldrb	r3, [r5, #0]	@ zero_extendqisi2
 15571 00d6 6448     		ldr	r0, .L357+20
 15572 00d8 CB18     		adds	r3, r1, r3
 15573 00da DBB2     		uxtb	r3, r3
 15574              	.LVL2511:
 15575 00dc 2B70     		strb	r3, [r5, #0]
 15576 00de 9B18     		adds	r3, r3, r2
 15577              	.LVL2512:
 15578 00e0 2370     		strb	r3, [r4, #0]
 15579 00e2 FFF7FEFF 		bl	uart_transmit
 15580              	.LVL2513:
 15581              	.LBE1053:
 15582              	.LBB1054:
 15583 00e6 2278     		ldrb	r2, [r4, #0]	@ zero_extendqisi2
 15584 00e8 2B78     		ldrb	r3, [r5, #0]	@ zero_extendqisi2
 15585 00ea 0021     		movs	r1, #0
 15586 00ec D318     		adds	r3, r2, r3
 15587 00ee 2370     		strb	r3, [r4, #0]
 15588 00f0 5D48     		ldr	r0, .L357+20
 15589 00f2 FFF7FEFF 		bl	uart_transmit
 15590              	.LBE1054:
 15591              	.LBB1055:
 15592 00f6 644B     		ldr	r3, .L357+52
 15593 00f8 2278     		ldrb	r2, [r4, #0]	@ zero_extendqisi2
 15594 00fa 1978     		ldrb	r1, [r3, #0]	@ zero_extendqisi2
 15595              	.LVL2514:
 15596 00fc 2B78     		ldrb	r3, [r5, #0]	@ zero_extendqisi2
 15597 00fe 5A48     		ldr	r0, .L357+20
 15598 0100 CB18     		adds	r3, r1, r3
 15599 0102 DBB2     		uxtb	r3, r3
 15600              	.LVL2515:
 15601 0104 2B70     		strb	r3, [r5, #0]
 15602 0106 9B18     		adds	r3, r3, r2
 15603              	.LVL2516:
 15604 0108 2370     		strb	r3, [r4, #0]
 15605 010a FFF7FEFF 		bl	uart_transmit
 15606              	.LVL2517:
 15607              	.LBE1055:
 15608 010e 2978     		ldrb	r1, [r5, #0]	@ zero_extendqisi2
 15609 0110 5548     		ldr	r0, .L357+20
 15610 0112 FFF7FEFF 		bl	uart_transmit
 15611 0116 5448     		ldr	r0, .L357+20
 15612 0118 2178     		ldrb	r1, [r4, #0]	@ zero_extendqisi2
 15613 011a FFF7FEFF 		bl	uart_transmit
 15614 011e 03E0     		b	.L332
 15615              	.LVL2518:
 15616              	.L331:
 15617              		.loc 1 446 0 discriminator 2
 15618 0120 5A4B     		ldr	r3, .L357+56
 15619 0122 1A78     		ldrb	r2, [r3, #0]	@ zero_extendqisi2
 15620 0124 0132     		adds	r2, r2, #1
 15621 0126 1A70     		strb	r2, [r3, #0]
 15622              	.L332:
 15623              	.LBE1056:
 447:firmwares/fixedwing/main_ap.c ****         gps_lost = TRUE;
 15624              		.loc 1 447 0 is_stmt 1
 15625 0128 0122     		movs	r2, #1
 15626 012a 594B     		ldr	r3, .L357+60
 15627 012c 82E0     		b	.L355
 15628              	.LVL2519:
 15629              	.L330:
 448:firmwares/fixedwing/main_ap.c ****       }
 449:firmwares/fixedwing/main_ap.c ****     } else if (gps_lost) { /* GPS is ok */
 15630              		.loc 1 449 0
 15631 012e 584B     		ldr	r3, .L357+60
 15632 0130 1A78     		ldrb	r2, [r3, #0]	@ zero_extendqisi2
 15633 0132 002A     		cmp	r2, #0
 15634 0134 7FD0     		beq	.L329
 450:firmwares/fixedwing/main_ap.c ****       /** If aircraft was in failsafe mode, come back in previous mode */
 451:firmwares/fixedwing/main_ap.c ****       pprz_mode = last_pprz_mode;
 15635              		.loc 1 451 0
 15636 0136 4B4A     		ldr	r2, .L357+16
 452:firmwares/fixedwing/main_ap.c ****       gps_lost = FALSE;
 15637              		.loc 1 452 0
 15638 0138 0027     		movs	r7, #0
 451:firmwares/fixedwing/main_ap.c ****       pprz_mode = last_pprz_mode;
 15639              		.loc 1 451 0
 15640 013a 1278     		ldrb	r2, [r2, #0]	@ zero_extendqisi2
 15641              		.loc 1 452 0
 15642 013c 1F70     		strb	r7, [r3, #0]
 15643              	.LVL2520:
 451:firmwares/fixedwing/main_ap.c ****       pprz_mode = last_pprz_mode;
 15644              		.loc 1 451 0
 15645 013e 3270     		strb	r2, [r6, #0]
 15646              	.LBB1057:
 453:firmwares/fixedwing/main_ap.c **** 
 454:firmwares/fixedwing/main_ap.c ****       PERIODIC_SEND_PPRZ_MODE(DefaultChannel, DefaultDevice);
 15647              		.loc 1 454 0
 15648 0140 4948     		ldr	r0, .L357+20
 15649 0142 0C21     		movs	r1, #12
 15650 0144 FFF7FEFF 		bl	uart_check_free_space
 15651 0148 0028     		cmp	r0, #0
 15652 014a 70D0     		beq	.L333
 15653              		.loc 1 454 0 is_stmt 0 discriminator 1
 15654 014c 474B     		ldr	r3, .L357+24
 15655              	.LBB1058:
 15656 014e 9921     		movs	r1, #153
 15657              	.LBE1058:
 15658 0150 1A88     		ldrh	r2, [r3, #0]
 15659              	.LBB1059:
 15660 0152 4548     		ldr	r0, .L357+20
 15661              	.LBE1059:
 15662 0154 0C32     		adds	r2, r2, #12
 15663 0156 1A80     		strh	r2, [r3, #0]	@ movhi
 15664 0158 454B     		ldr	r3, .L357+28
 15665 015a 464D     		ldr	r5, .L357+32
 15666 015c 1A88     		ldrh	r2, [r3, #0]
 15667 015e 464C     		ldr	r4, .L357+36
 15668 0160 0132     		adds	r2, r2, #1
 15669 0162 1A80     		strh	r2, [r3, #0]	@ movhi
 15670              	.LBB1060:
 15671 0164 FFF7FEFF 		bl	uart_transmit
 15672              	.LVL2521:
 15673 0168 0C21     		movs	r1, #12
 15674 016a 3F48     		ldr	r0, .L357+20
 15675 016c FFF7FEFF 		bl	uart_transmit
 15676              	.LBE1060:
 15677 0170 0D23     		movs	r3, #13
 15678 0172 2B70     		strb	r3, [r5, #0]
 15679 0174 1923     		movs	r3, #25
 15680 0176 2370     		strb	r3, [r4, #0]
 15681 0178 0121     		movs	r1, #1
 15682 017a 3B48     		ldr	r0, .L357+20
 15683 017c FFF7FEFF 		bl	uart_transmit
 15684 0180 2B78     		ldrb	r3, [r5, #0]	@ zero_extendqisi2
 15685 0182 2278     		ldrb	r2, [r4, #0]	@ zero_extendqisi2
 15686 0184 0B33     		adds	r3, r3, #11
 15687 0186 DBB2     		uxtb	r3, r3
 15688 0188 2B70     		strb	r3, [r5, #0]
 15689 018a 9B18     		adds	r3, r3, r2
 15690 018c 2370     		strb	r3, [r4, #0]
 15691 018e 0B21     		movs	r1, #11
 15692 0190 3548     		ldr	r0, .L357+20
 15693 0192 FFF7FEFF 		bl	uart_transmit
 15694              	.LBB1061:
 15695 0196 3178     		ldrb	r1, [r6, #0]	@ zero_extendqisi2
 15696              	.LVL2522:
 15697 0198 2B78     		ldrb	r3, [r5, #0]	@ zero_extendqisi2
 15698 019a 2278     		ldrb	r2, [r4, #0]	@ zero_extendqisi2
 15699 019c CB18     		adds	r3, r1, r3
 15700 019e DBB2     		uxtb	r3, r3
 15701              	.LVL2523:
 15702 01a0 2B70     		strb	r3, [r5, #0]
 15703 01a2 9B18     		adds	r3, r3, r2
 15704              	.LVL2524:
 15705 01a4 2370     		strb	r3, [r4, #0]
 15706 01a6 3048     		ldr	r0, .L357+20
 15707 01a8 FFF7FEFF 		bl	uart_transmit
 15708              	.LVL2525:
 15709              	.LBE1061:
 15710              	.LBB1062:
 15711 01ac 334B     		ldr	r3, .L357+40
 15712 01ae 2278     		ldrb	r2, [r4, #0]	@ zero_extendqisi2
 15713 01b0 1978     		ldrb	r1, [r3, #0]	@ zero_extendqisi2
 15714              	.LVL2526:
 15715 01b2 2B78     		ldrb	r3, [r5, #0]	@ zero_extendqisi2
 15716 01b4 2C48     		ldr	r0, .L357+20
 15717 01b6 CB18     		adds	r3, r1, r3
 15718 01b8 DBB2     		uxtb	r3, r3
 15719              	.LVL2527:
 15720 01ba 2B70     		strb	r3, [r5, #0]
 15721 01bc 9B18     		adds	r3, r3, r2
 15722              	.LVL2528:
 15723 01be 2370     		strb	r3, [r4, #0]
 15724 01c0 FFF7FEFF 		bl	uart_transmit
 15725              	.LVL2529:
 15726              	.LBE1062:
 15727              	.LBB1063:
 15728 01c4 2E4B     		ldr	r3, .L357+44
 15729 01c6 2278     		ldrb	r2, [r4, #0]	@ zero_extendqisi2
 15730 01c8 1978     		ldrb	r1, [r3, #0]	@ zero_extendqisi2
 15731              	.LVL2530:
 15732 01ca 2B78     		ldrb	r3, [r5, #0]	@ zero_extendqisi2
 15733 01cc 2648     		ldr	r0, .L357+20
 15734 01ce CB18     		adds	r3, r1, r3
 15735 01d0 DBB2     		uxtb	r3, r3
 15736              	.LVL2531:
 15737 01d2 2B70     		strb	r3, [r5, #0]
 15738 01d4 9B18     		adds	r3, r3, r2
 15739              	.LVL2532:
 15740 01d6 2370     		strb	r3, [r4, #0]
 15741 01d8 FFF7FEFF 		bl	uart_transmit
 15742              	.LVL2533:
 15743              	.LBE1063:
 15744              	.LBB1064:
 15745 01dc 294B     		ldr	r3, .L357+48
 15746 01de 2278     		ldrb	r2, [r4, #0]	@ zero_extendqisi2
 15747 01e0 1978     		ldrb	r1, [r3, #0]	@ zero_extendqisi2
 15748              	.LVL2534:
 15749 01e2 2B78     		ldrb	r3, [r5, #0]	@ zero_extendqisi2
 15750 01e4 2048     		ldr	r0, .L357+20
 15751 01e6 CB18     		adds	r3, r1, r3
 15752 01e8 DBB2     		uxtb	r3, r3
 15753              	.LVL2535:
 15754 01ea 2B70     		strb	r3, [r5, #0]
 15755 01ec 9B18     		adds	r3, r3, r2
 15756              	.LVL2536:
 15757 01ee 2370     		strb	r3, [r4, #0]
 15758 01f0 FFF7FEFF 		bl	uart_transmit
 15759              	.LVL2537:
 15760              	.LBE1064:
 15761              	.LBB1065:
 15762 01f4 2278     		ldrb	r2, [r4, #0]	@ zero_extendqisi2
 15763 01f6 2B78     		ldrb	r3, [r5, #0]	@ zero_extendqisi2
 15764 01f8 3946     		mov	r1, r7
 15765 01fa D318     		adds	r3, r2, r3
 15766 01fc 2370     		strb	r3, [r4, #0]
 15767 01fe 1A48     		ldr	r0, .L357+20
 15768 0200 FFF7FEFF 		bl	uart_transmit
 15769              	.LBE1065:
 15770              	.LBB1066:
 15771 0204 204B     		ldr	r3, .L357+52
 15772 0206 2278     		ldrb	r2, [r4, #0]	@ zero_extendqisi2
 15773 0208 1978     		ldrb	r1, [r3, #0]	@ zero_extendqisi2
 15774              	.LVL2538:
 15775 020a 2B78     		ldrb	r3, [r5, #0]	@ zero_extendqisi2
 15776 020c 1648     		ldr	r0, .L357+20
 15777 020e CB18     		adds	r3, r1, r3
 15778 0210 DBB2     		uxtb	r3, r3
 15779              	.LVL2539:
 15780 0212 2B70     		strb	r3, [r5, #0]
 15781 0214 9B18     		adds	r3, r3, r2
 15782              	.LVL2540:
 15783 0216 2370     		strb	r3, [r4, #0]
 15784 0218 FFF7FEFF 		bl	uart_transmit
 15785              	.LVL2541:
 15786              	.LBE1066:
 15787 021c 2978     		ldrb	r1, [r5, #0]	@ zero_extendqisi2
 15788 021e 1248     		ldr	r0, .L357+20
 15789 0220 FFF7FEFF 		bl	uart_transmit
 15790 0224 1048     		ldr	r0, .L357+20
 15791 0226 2178     		ldrb	r1, [r4, #0]	@ zero_extendqisi2
 15792 0228 FFF7FEFF 		bl	uart_transmit
 15793 022c 03E0     		b	.L329
 15794              	.LVL2542:
 15795              	.L333:
 15796              		.loc 1 454 0 discriminator 2
 15797 022e 174B     		ldr	r3, .L357+56
 15798 0230 1A78     		ldrb	r2, [r3, #0]	@ zero_extendqisi2
 15799 0232 0132     		adds	r2, r2, #1
 15800              	.LVL2543:
 15801              	.L355:
 15802 0234 1A70     		strb	r2, [r3, #0]
 15803              	.L329:
 15804              	.LBE1057:
 455:firmwares/fixedwing/main_ap.c ****     }
 456:firmwares/fixedwing/main_ap.c ****   }
 457:firmwares/fixedwing/main_ap.c **** #endif /* GPS && FAILSAFE_DELAY_WITHOUT_GPS */
 458:firmwares/fixedwing/main_ap.c **** 
 459:firmwares/fixedwing/main_ap.c ****   common_nav_periodic_task_4Hz();
 15805              		.loc 1 459 0 is_stmt 1
 15806 0236 FFF7FEFF 		bl	common_nav_periodic_task_4Hz
 460:firmwares/fixedwing/main_ap.c ****   if (pprz_mode == PPRZ_MODE_HOME)
 15807              		.loc 1 460 0
 15808 023a 084B     		ldr	r3, .L357+8
 15809 023c 1B78     		ldrb	r3, [r3, #0]	@ zero_extendqisi2
 15810 023e 032B     		cmp	r3, #3
 15811 0240 02D1     		bne	.L334
 461:firmwares/fixedwing/main_ap.c ****     nav_home();
 15812              		.loc 1 461 0
 15813 0242 FFF7FEFF 		bl	nav_home
 15814 0246 27E0     		b	.L335
 15815              	.L334:
 462:firmwares/fixedwing/main_ap.c ****   else if (pprz_mode == PPRZ_MODE_GPS_OUT_OF_ORDER)
 15816              		.loc 1 462 0
 15817 0248 042B     		cmp	r3, #4
 15818 024a 23D1     		bne	.L336
 463:firmwares/fixedwing/main_ap.c ****     nav_without_gps();
 15819              		.loc 1 463 0
 15820 024c FFF7FEFF 		bl	nav_without_gps
 15821 0250 22E0     		b	.L335
 15822              	.L358:
 15823 0252 00BF     		.align	2
 15824              	.L357:
 15825 0254 00000000 		.word	.LANCHOR31
 15826 0258 00000000 		.word	sys_time
 15827 025c 00000000 		.word	.LANCHOR30
 15828 0260 00000000 		.word	gps
 15829 0264 00000000 		.word	.LANCHOR67
 15830 0268 00000000 		.word	uart2
 15831 026c 00000000 		.word	downlink_nb_bytes
 15832 0270 00000000 		.word	downlink_nb_msgs
 15833 0274 00000000 		.word	ck_a
 15834 0278 00000000 		.word	ck_b
 15835 027c 00000000 		.word	v_ctl_mode
 15836 0280 00000000 		.word	.LANCHOR32
 15837 0284 00000000 		.word	horizontal_mode
 15838 0288 00000000 		.word	.LANCHOR33
 15839 028c 00000000 		.word	downlink_nb_ovrn
 15840 0290 00000000 		.word	.LANCHOR68
 15841              	.L336:
 464:firmwares/fixedwing/main_ap.c ****   else
 465:firmwares/fixedwing/main_ap.c ****     nav_periodic_task();
 15842              		.loc 1 465 0
 15843 0294 FFF7FEFF 		bl	nav_periodic_task
 15844              	.L335:
 15845              	.LBB1067:
 466:firmwares/fixedwing/main_ap.c **** 
 467:firmwares/fixedwing/main_ap.c **** #ifdef TCAS
 468:firmwares/fixedwing/main_ap.c ****   CallTCAS();
 469:firmwares/fixedwing/main_ap.c **** #endif
 470:firmwares/fixedwing/main_ap.c **** 
 471:firmwares/fixedwing/main_ap.c **** #ifndef PERIOD_NAVIGATION_0 // If not sent periodically (in default 0 mode)
 472:firmwares/fixedwing/main_ap.c ****   SEND_NAVIGATION(DefaultChannel, DefaultDevice);
 15846              		.loc 1 472 0
 15847 0298 954B     		ldr	r3, .L359+8
 15848 029a 9648     		ldr	r0, .L359+12
 15849 029c 1A21     		movs	r1, #26
 15850 029e 1C68     		ldr	r4, [r3, #0]	@ float
 15851              	.LVL2544:
 15852 02a0 FFF7FEFF 		bl	uart_check_free_space
 15853              	.LVL2545:
 15854 02a4 0028     		cmp	r0, #0
 15855 02a6 00F03D81 		beq	.L337
 15856              		.loc 1 472 0 is_stmt 0 discriminator 1
 15857 02aa 24F00040 		bic	r0, r4, #-2147483648
 15858 02ae FFF7FEFF 		bl	__aeabi_f2d
 15859 02b2 8DA3     		adr	r3, .L359
 15860 02b4 D3E90023 		ldrd	r2, [r3]
 15861 02b8 FFF7FEFF 		bl	__aeabi_ddiv
 15862 02bc FFF7FEFF 		bl	__aeabi_d2uiz
 15863 02c0 8D4B     		ldr	r3, .L359+16
 15864 02c2 C7B2     		uxtb	r7, r0
 15865 02c4 1A88     		ldrh	r2, [r3, #0]
 15866              	.LBB1068:
 15867 02c6 9921     		movs	r1, #153
 15868              	.LBE1068:
 15869 02c8 1A32     		adds	r2, r2, #26
 15870 02ca 1A80     		strh	r2, [r3, #0]	@ movhi
 15871 02cc 8B4B     		ldr	r3, .L359+20
 15872              	.LBB1069:
 15873 02ce 8948     		ldr	r0, .L359+12
 15874              	.LBE1069:
 15875 02d0 1A88     		ldrh	r2, [r3, #0]
 15876 02d2 8B4D     		ldr	r5, .L359+24
 15877 02d4 0132     		adds	r2, r2, #1
 15878 02d6 1A80     		strh	r2, [r3, #0]	@ movhi
 15879              	.LBB1070:
 15880 02d8 FFF7FEFF 		bl	uart_transmit
 15881              	.LVL2546:
 15882 02dc 1A21     		movs	r1, #26
 15883 02de 8548     		ldr	r0, .L359+12
 15884              	.LBE1070:
 15885 02e0 884C     		ldr	r4, .L359+28
 15886              	.LVL2547:
 15887              	.LBB1071:
 15888 02e2 FFF7FEFF 		bl	uart_transmit
 15889              	.LBE1071:
 15890 02e6 1B23     		movs	r3, #27
 15891 02e8 2B70     		strb	r3, [r5, #0]
 15892 02ea 3523     		movs	r3, #53
 15893 02ec 2370     		strb	r3, [r4, #0]
 15894 02ee 0121     		movs	r1, #1
 15895 02f0 8048     		ldr	r0, .L359+12
 15896 02f2 FFF7FEFF 		bl	uart_transmit
 15897 02f6 2B78     		ldrb	r3, [r5, #0]	@ zero_extendqisi2
 15898 02f8 2278     		ldrb	r2, [r4, #0]	@ zero_extendqisi2
 15899 02fa 0A33     		adds	r3, r3, #10
 15900 02fc DBB2     		uxtb	r3, r3
 15901              	.LVL2548:
 15902 02fe 2B70     		strb	r3, [r5, #0]
 15903 0300 9B18     		adds	r3, r3, r2
 15904              	.LVL2549:
 15905 0302 2370     		strb	r3, [r4, #0]
 15906 0304 0A21     		movs	r1, #10
 15907 0306 7B48     		ldr	r0, .L359+12
 15908 0308 FFF7FEFF 		bl	uart_transmit
 15909              	.LBB1072:
 15910 030c 7E4B     		ldr	r3, .L359+32
 15911 030e 2278     		ldrb	r2, [r4, #0]	@ zero_extendqisi2
 15912 0310 1978     		ldrb	r1, [r3, #0]	@ zero_extendqisi2
 15913              	.LVL2550:
 15914 0312 2B78     		ldrb	r3, [r5, #0]	@ zero_extendqisi2
 15915 0314 7748     		ldr	r0, .L359+12
 15916 0316 CB18     		adds	r3, r1, r3
 15917 0318 DBB2     		uxtb	r3, r3
 15918              	.LVL2551:
 15919 031a 2B70     		strb	r3, [r5, #0]
 15920 031c 9B18     		adds	r3, r3, r2
 15921              	.LVL2552:
 15922 031e 2370     		strb	r3, [r4, #0]
 15923 0320 FFF7FEFF 		bl	uart_transmit
 15924              	.LVL2553:
 15925              	.LBE1072:
 15926              	.LBB1073:
 15927 0324 794B     		ldr	r3, .L359+36
 15928 0326 2278     		ldrb	r2, [r4, #0]	@ zero_extendqisi2
 15929 0328 1978     		ldrb	r1, [r3, #0]	@ zero_extendqisi2
 15930              	.LVL2554:
 15931 032a 2B78     		ldrb	r3, [r5, #0]	@ zero_extendqisi2
 15932              	.LBE1073:
 15933              	.LBB1074:
 15934 032c 784E     		ldr	r6, .L359+40
 15935              	.LBE1074:
 15936              	.LBB1075:
 15937 032e CB18     		adds	r3, r1, r3
 15938 0330 DBB2     		uxtb	r3, r3
 15939              	.LVL2555:
 15940 0332 2B70     		strb	r3, [r5, #0]
 15941 0334 9B18     		adds	r3, r3, r2
 15942              	.LVL2556:
 15943 0336 2370     		strb	r3, [r4, #0]
 15944 0338 6E48     		ldr	r0, .L359+12
 15945 033a FFF7FEFF 		bl	uart_transmit
 15946              	.LVL2557:
 15947              	.LBE1075:
 15948              	.LBB1076:
 15949 033e 3178     		ldrb	r1, [r6, #0]	@ zero_extendqisi2
 15950              	.LVL2558:
 15951 0340 2B78     		ldrb	r3, [r5, #0]	@ zero_extendqisi2
 15952 0342 2278     		ldrb	r2, [r4, #0]	@ zero_extendqisi2
 15953 0344 CB18     		adds	r3, r1, r3
 15954 0346 DBB2     		uxtb	r3, r3
 15955              	.LVL2559:
 15956 0348 2B70     		strb	r3, [r5, #0]
 15957 034a 9B18     		adds	r3, r3, r2
 15958              	.LVL2560:
 15959 034c 2370     		strb	r3, [r4, #0]
 15960 034e 6948     		ldr	r0, .L359+12
 15961 0350 FFF7FEFF 		bl	uart_transmit
 15962              	.LVL2561:
 15963              	.LBE1076:
 15964              	.LBB1077:
 15965 0354 7178     		ldrb	r1, [r6, #1]	@ zero_extendqisi2
 15966              	.LVL2562:
 15967 0356 2B78     		ldrb	r3, [r5, #0]	@ zero_extendqisi2
 15968 0358 2278     		ldrb	r2, [r4, #0]	@ zero_extendqisi2
 15969 035a CB18     		adds	r3, r1, r3
 15970 035c DBB2     		uxtb	r3, r3
 15971              	.LVL2563:
 15972 035e 2B70     		strb	r3, [r5, #0]
 15973 0360 9B18     		adds	r3, r3, r2
 15974              	.LVL2564:
 15975 0362 2370     		strb	r3, [r4, #0]
 15976 0364 6348     		ldr	r0, .L359+12
 15977 0366 FFF7FEFF 		bl	uart_transmit
 15978              	.LVL2565:
 15979              	.LBE1077:
 15980              	.LBB1078:
 15981 036a B178     		ldrb	r1, [r6, #2]	@ zero_extendqisi2
 15982              	.LVL2566:
 15983 036c 2B78     		ldrb	r3, [r5, #0]	@ zero_extendqisi2
 15984 036e 2278     		ldrb	r2, [r4, #0]	@ zero_extendqisi2
 15985 0370 CB18     		adds	r3, r1, r3
 15986 0372 DBB2     		uxtb	r3, r3
 15987              	.LVL2567:
 15988 0374 2B70     		strb	r3, [r5, #0]
 15989 0376 9B18     		adds	r3, r3, r2
 15990              	.LVL2568:
 15991 0378 2370     		strb	r3, [r4, #0]
 15992 037a 5E48     		ldr	r0, .L359+12
 15993 037c FFF7FEFF 		bl	uart_transmit
 15994              	.LVL2569:
 15995              	.LBE1078:
 15996              	.LBB1079:
 15997 0380 F178     		ldrb	r1, [r6, #3]	@ zero_extendqisi2
 15998              	.LVL2570:
 15999 0382 2B78     		ldrb	r3, [r5, #0]	@ zero_extendqisi2
 16000 0384 2278     		ldrb	r2, [r4, #0]	@ zero_extendqisi2
 16001 0386 CB18     		adds	r3, r1, r3
 16002 0388 DBB2     		uxtb	r3, r3
 16003              	.LBE1079:
 16004              	.LBB1080:
 16005 038a 624E     		ldr	r6, .L359+44
 16006              	.LVL2571:
 16007              	.LBE1080:
 16008              	.LBB1081:
 16009 038c 2B70     		strb	r3, [r5, #0]
 16010 038e 9B18     		adds	r3, r3, r2
 16011              	.LVL2572:
 16012 0390 2370     		strb	r3, [r4, #0]
 16013 0392 5848     		ldr	r0, .L359+12
 16014 0394 FFF7FEFF 		bl	uart_transmit
 16015              	.LVL2573:
 16016              	.LBE1081:
 16017              	.LBB1082:
 16018 0398 3178     		ldrb	r1, [r6, #0]	@ zero_extendqisi2
 16019              	.LVL2574:
 16020 039a 2B78     		ldrb	r3, [r5, #0]	@ zero_extendqisi2
 16021 039c 2278     		ldrb	r2, [r4, #0]	@ zero_extendqisi2
 16022 039e CB18     		adds	r3, r1, r3
 16023 03a0 DBB2     		uxtb	r3, r3
 16024              	.LVL2575:
 16025 03a2 2B70     		strb	r3, [r5, #0]
 16026 03a4 9B18     		adds	r3, r3, r2
 16027              	.LVL2576:
 16028 03a6 2370     		strb	r3, [r4, #0]
 16029 03a8 5248     		ldr	r0, .L359+12
 16030 03aa FFF7FEFF 		bl	uart_transmit
 16031              	.LVL2577:
 16032              	.LBE1082:
 16033              	.LBB1083:
 16034 03ae 7178     		ldrb	r1, [r6, #1]	@ zero_extendqisi2
 16035              	.LVL2578:
 16036 03b0 2B78     		ldrb	r3, [r5, #0]	@ zero_extendqisi2
 16037 03b2 2278     		ldrb	r2, [r4, #0]	@ zero_extendqisi2
 16038 03b4 CB18     		adds	r3, r1, r3
 16039 03b6 DBB2     		uxtb	r3, r3
 16040              	.LVL2579:
 16041 03b8 2B70     		strb	r3, [r5, #0]
 16042 03ba 9B18     		adds	r3, r3, r2
 16043              	.LVL2580:
 16044 03bc 2370     		strb	r3, [r4, #0]
 16045 03be 4D48     		ldr	r0, .L359+12
 16046 03c0 FFF7FEFF 		bl	uart_transmit
 16047              	.LVL2581:
 16048              	.LBE1083:
 16049              	.LBB1084:
 16050 03c4 B178     		ldrb	r1, [r6, #2]	@ zero_extendqisi2
 16051              	.LVL2582:
 16052 03c6 2B78     		ldrb	r3, [r5, #0]	@ zero_extendqisi2
 16053 03c8 2278     		ldrb	r2, [r4, #0]	@ zero_extendqisi2
 16054 03ca CB18     		adds	r3, r1, r3
 16055 03cc DBB2     		uxtb	r3, r3
 16056              	.LVL2583:
 16057 03ce 2B70     		strb	r3, [r5, #0]
 16058 03d0 9B18     		adds	r3, r3, r2
 16059              	.LVL2584:
 16060 03d2 2370     		strb	r3, [r4, #0]
 16061 03d4 4748     		ldr	r0, .L359+12
 16062 03d6 FFF7FEFF 		bl	uart_transmit
 16063              	.LVL2585:
 16064              	.LBE1084:
 16065              	.LBB1085:
 16066 03da F178     		ldrb	r1, [r6, #3]	@ zero_extendqisi2
 16067              	.LVL2586:
 16068 03dc 2B78     		ldrb	r3, [r5, #0]	@ zero_extendqisi2
 16069 03de 2278     		ldrb	r2, [r4, #0]	@ zero_extendqisi2
 16070 03e0 CB18     		adds	r3, r1, r3
 16071 03e2 DBB2     		uxtb	r3, r3
 16072              	.LBE1085:
 16073              	.LBB1086:
 16074 03e4 4C4E     		ldr	r6, .L359+48
 16075              	.LVL2587:
 16076              	.LBE1086:
 16077              	.LBB1087:
 16078 03e6 2B70     		strb	r3, [r5, #0]
 16079 03e8 9B18     		adds	r3, r3, r2
 16080              	.LVL2588:
 16081 03ea 2370     		strb	r3, [r4, #0]
 16082 03ec 4148     		ldr	r0, .L359+12
 16083 03ee FFF7FEFF 		bl	uart_transmit
 16084              	.LVL2589:
 16085              	.LBE1087:
 16086              	.LBB1088:
 16087 03f2 3178     		ldrb	r1, [r6, #0]	@ zero_extendqisi2
 16088              	.LVL2590:
 16089 03f4 2B78     		ldrb	r3, [r5, #0]	@ zero_extendqisi2
 16090 03f6 2278     		ldrb	r2, [r4, #0]	@ zero_extendqisi2
 16091 03f8 CB18     		adds	r3, r1, r3
 16092 03fa DBB2     		uxtb	r3, r3
 16093              	.LVL2591:
 16094 03fc 2B70     		strb	r3, [r5, #0]
 16095 03fe 9B18     		adds	r3, r3, r2
 16096              	.LVL2592:
 16097 0400 2370     		strb	r3, [r4, #0]
 16098 0402 3C48     		ldr	r0, .L359+12
 16099 0404 FFF7FEFF 		bl	uart_transmit
 16100              	.LVL2593:
 16101              	.LBE1088:
 16102              	.LBB1089:
 16103 0408 7178     		ldrb	r1, [r6, #1]	@ zero_extendqisi2
 16104              	.LVL2594:
 16105 040a 2B78     		ldrb	r3, [r5, #0]	@ zero_extendqisi2
 16106 040c 2278     		ldrb	r2, [r4, #0]	@ zero_extendqisi2
 16107 040e CB18     		adds	r3, r1, r3
 16108 0410 DBB2     		uxtb	r3, r3
 16109              	.LVL2595:
 16110 0412 2B70     		strb	r3, [r5, #0]
 16111 0414 9B18     		adds	r3, r3, r2
 16112              	.LVL2596:
 16113 0416 2370     		strb	r3, [r4, #0]
 16114 0418 3648     		ldr	r0, .L359+12
 16115 041a FFF7FEFF 		bl	uart_transmit
 16116              	.LVL2597:
 16117              	.LBE1089:
 16118              	.LBB1090:
 16119 041e B178     		ldrb	r1, [r6, #2]	@ zero_extendqisi2
 16120              	.LVL2598:
 16121 0420 2B78     		ldrb	r3, [r5, #0]	@ zero_extendqisi2
 16122 0422 2278     		ldrb	r2, [r4, #0]	@ zero_extendqisi2
 16123 0424 CB18     		adds	r3, r1, r3
 16124 0426 DBB2     		uxtb	r3, r3
 16125              	.LVL2599:
 16126 0428 2B70     		strb	r3, [r5, #0]
 16127 042a 9B18     		adds	r3, r3, r2
 16128              	.LVL2600:
 16129 042c 2370     		strb	r3, [r4, #0]
 16130 042e 3148     		ldr	r0, .L359+12
 16131 0430 FFF7FEFF 		bl	uart_transmit
 16132              	.LVL2601:
 16133              	.LBE1090:
 16134              	.LBB1091:
 16135 0434 F178     		ldrb	r1, [r6, #3]	@ zero_extendqisi2
 16136              	.LVL2602:
 16137 0436 2B78     		ldrb	r3, [r5, #0]	@ zero_extendqisi2
 16138 0438 2278     		ldrb	r2, [r4, #0]	@ zero_extendqisi2
 16139 043a CB18     		adds	r3, r1, r3
 16140 043c DBB2     		uxtb	r3, r3
 16141              	.LBE1091:
 16142              	.LBB1092:
 16143 043e 374E     		ldr	r6, .L359+52
 16144              	.LVL2603:
 16145              	.LBE1092:
 16146              	.LBB1093:
 16147 0440 2B70     		strb	r3, [r5, #0]
 16148 0442 9B18     		adds	r3, r3, r2
 16149              	.LVL2604:
 16150 0444 2370     		strb	r3, [r4, #0]
 16151 0446 2B48     		ldr	r0, .L359+12
 16152 0448 FFF7FEFF 		bl	uart_transmit
 16153              	.LVL2605:
 16154              	.LBE1093:
 16155              	.LBB1094:
 16156 044c 3178     		ldrb	r1, [r6, #0]	@ zero_extendqisi2
 16157              	.LVL2606:
 16158 044e 2B78     		ldrb	r3, [r5, #0]	@ zero_extendqisi2
 16159 0450 2278     		ldrb	r2, [r4, #0]	@ zero_extendqisi2
 16160 0452 CB18     		adds	r3, r1, r3
 16161 0454 DBB2     		uxtb	r3, r3
 16162              	.LVL2607:
 16163 0456 2B70     		strb	r3, [r5, #0]
 16164 0458 9B18     		adds	r3, r3, r2
 16165              	.LVL2608:
 16166 045a 2370     		strb	r3, [r4, #0]
 16167 045c 2548     		ldr	r0, .L359+12
 16168 045e FFF7FEFF 		bl	uart_transmit
 16169              	.LVL2609:
 16170              	.LBE1094:
 16171              	.LBB1095:
 16172 0462 7178     		ldrb	r1, [r6, #1]	@ zero_extendqisi2
 16173              	.LVL2610:
 16174 0464 2B78     		ldrb	r3, [r5, #0]	@ zero_extendqisi2
 16175 0466 2278     		ldrb	r2, [r4, #0]	@ zero_extendqisi2
 16176 0468 CB18     		adds	r3, r1, r3
 16177 046a DBB2     		uxtb	r3, r3
 16178              	.LVL2611:
 16179 046c 2B70     		strb	r3, [r5, #0]
 16180 046e 9B18     		adds	r3, r3, r2
 16181              	.LVL2612:
 16182 0470 2370     		strb	r3, [r4, #0]
 16183 0472 2048     		ldr	r0, .L359+12
 16184 0474 FFF7FEFF 		bl	uart_transmit
 16185              	.LVL2613:
 16186              	.LBE1095:
 16187              	.LBB1096:
 16188 0478 B178     		ldrb	r1, [r6, #2]	@ zero_extendqisi2
 16189              	.LVL2614:
 16190 047a 2B78     		ldrb	r3, [r5, #0]	@ zero_extendqisi2
 16191 047c 2278     		ldrb	r2, [r4, #0]	@ zero_extendqisi2
 16192 047e CB18     		adds	r3, r1, r3
 16193 0480 DBB2     		uxtb	r3, r3
 16194              	.LVL2615:
 16195 0482 2B70     		strb	r3, [r5, #0]
 16196 0484 9B18     		adds	r3, r3, r2
 16197              	.LVL2616:
 16198 0486 2370     		strb	r3, [r4, #0]
 16199 0488 1A48     		ldr	r0, .L359+12
 16200 048a FFF7FEFF 		bl	uart_transmit
 16201              	.LVL2617:
 16202              	.LBE1096:
 16203              	.LBB1097:
 16204 048e F178     		ldrb	r1, [r6, #3]	@ zero_extendqisi2
 16205              	.LVL2618:
 16206 0490 2B78     		ldrb	r3, [r5, #0]	@ zero_extendqisi2
 16207 0492 2278     		ldrb	r2, [r4, #0]	@ zero_extendqisi2
 16208 0494 CB18     		adds	r3, r1, r3
 16209 0496 DBB2     		uxtb	r3, r3
 16210              	.LVL2619:
 16211 0498 2B70     		strb	r3, [r5, #0]
 16212 049a 9B18     		adds	r3, r3, r2
 16213              	.LVL2620:
 16214 049c 2370     		strb	r3, [r4, #0]
 16215 049e 1548     		ldr	r0, .L359+12
 16216 04a0 FFF7FEFF 		bl	uart_transmit
 16217              	.LVL2621:
 16218              	.LBE1097:
 16219              	.LBB1098:
 16220 04a4 2B78     		ldrb	r3, [r5, #0]	@ zero_extendqisi2
 16221 04a6 2278     		ldrb	r2, [r4, #0]	@ zero_extendqisi2
 16222 04a8 FB18     		adds	r3, r7, r3
 16223 04aa DBB2     		uxtb	r3, r3
 16224              	.LVL2622:
 16225 04ac 2B70     		strb	r3, [r5, #0]
 16226 04ae 9B18     		adds	r3, r3, r2
 16227              	.LVL2623:
 16228 04b0 2370     		strb	r3, [r4, #0]
 16229 04b2 3946     		mov	r1, r7
 16230 04b4 0F48     		ldr	r0, .L359+12
 16231 04b6 FFF7FEFF 		bl	uart_transmit
 16232              	.LBE1098:
 16233              	.LBB1099:
 16234 04ba 194B     		ldr	r3, .L359+56
 16235 04bc 2278     		ldrb	r2, [r4, #0]	@ zero_extendqisi2
 16236 04be 1978     		ldrb	r1, [r3, #0]	@ zero_extendqisi2
 16237              	.LVL2624:
 16238 04c0 2B78     		ldrb	r3, [r5, #0]	@ zero_extendqisi2
 16239 04c2 0C48     		ldr	r0, .L359+12
 16240 04c4 CB18     		adds	r3, r1, r3
 16241 04c6 DBB2     		uxtb	r3, r3
 16242              	.LVL2625:
 16243 04c8 2B70     		strb	r3, [r5, #0]
 16244 04ca 9B18     		adds	r3, r3, r2
 16245              	.LVL2626:
 16246 04cc 2370     		strb	r3, [r4, #0]
 16247 04ce FFF7FEFF 		bl	uart_transmit
 16248              	.LVL2627:
 16249              	.LBE1099:
 16250 04d2 2978     		ldrb	r1, [r5, #0]	@ zero_extendqisi2
 16251 04d4 0748     		ldr	r0, .L359+12
 16252 04d6 FFF7FEFF 		bl	uart_transmit
 16253 04da 0648     		ldr	r0, .L359+12
 16254 04dc 2178     		ldrb	r1, [r4, #0]	@ zero_extendqisi2
 16255 04de FFF7FEFF 		bl	uart_transmit
 16256 04e2 23E0     		b	.L338
 16257              	.L360:
 16258 04e4 AFF30080 		.align	3
 16259              	.L359:
 16260 04e8 182D4454 		.word	1413754136
 16261 04ec FB211940 		.word	1075388923
 16262 04f0 00000000 		.word	nav_circle_radians
 16263 04f4 00000000 		.word	uart2
 16264 04f8 00000000 		.word	downlink_nb_bytes
 16265 04fc 00000000 		.word	downlink_nb_msgs
 16266 0500 00000000 		.word	ck_a
 16267 0504 00000000 		.word	ck_b
 16268 0508 00000000 		.word	nav_block
 16269 050c 00000000 		.word	nav_stage
 16270 0510 00000000 		.word	estimator_x
 16271 0514 00000000 		.word	estimator_y
 16272 0518 00000000 		.word	dist2_to_wp
 16273 051c 00000000 		.word	dist2_to_home
 16274 0520 00000000 		.word	nav_oval_count
 16275              	.LVL2628:
 16276              	.L337:
 16277              		.loc 1 472 0 discriminator 2
 16278 0524 484B     		ldr	r3, .L361+16
 16279 0526 1A78     		ldrb	r2, [r3, #0]	@ zero_extendqisi2
 16280 0528 0132     		adds	r2, r2, #1
 16281 052a 1A70     		strb	r2, [r3, #0]
 16282              	.LVL2629:
 16283              	.L338:
 16284              	.LBE1067:
 473:firmwares/fixedwing/main_ap.c **** #endif
 474:firmwares/fixedwing/main_ap.c **** 
 475:firmwares/fixedwing/main_ap.c ****   SEND_CAM(DefaultChannel, DefaultDevice);
 476:firmwares/fixedwing/main_ap.c **** 
 477:firmwares/fixedwing/main_ap.c ****   /* The nav task computes only nav_altitude. However, we are interested
 478:firmwares/fixedwing/main_ap.c ****      by desired_altitude (= nav_alt+alt_shift) in any case.
 479:firmwares/fixedwing/main_ap.c ****      So we always run the altitude control loop */
 480:firmwares/fixedwing/main_ap.c ****   if (v_ctl_mode == V_CTL_MODE_AUTO_ALT)
 16285              		.loc 1 480 0 is_stmt 1
 16286 052c 474B     		ldr	r3, .L361+20
 16287 052e 1B78     		ldrb	r3, [r3, #0]	@ zero_extendqisi2
 16288 0530 032B     		cmp	r3, #3
 16289 0532 01D1     		bne	.L339
 481:firmwares/fixedwing/main_ap.c ****     v_ctl_altitude_loop();
 16290              		.loc 1 481 0
 16291 0534 FFF7FEFF 		bl	v_ctl_altitude_loop
 16292              	.L339:
 482:firmwares/fixedwing/main_ap.c **** 
 483:firmwares/fixedwing/main_ap.c ****   if (pprz_mode == PPRZ_MODE_AUTO2 || pprz_mode == PPRZ_MODE_HOME
 484:firmwares/fixedwing/main_ap.c ****             || pprz_mode == PPRZ_MODE_GPS_OUT_OF_ORDER) {
 16293              		.loc 1 484 0
 16294 0538 454B     		ldr	r3, .L361+24
 16295 053a 1B78     		ldrb	r3, [r3, #0]	@ zero_extendqisi2
 483:firmwares/fixedwing/main_ap.c ****   if (pprz_mode == PPRZ_MODE_AUTO2 || pprz_mode == PPRZ_MODE_HOME
 16296              		.loc 1 483 0
 16297 053c 023B     		subs	r3, r3, #2
 16298 053e 022B     		cmp	r3, #2
 16299 0540 65D8     		bhi	.L340
 485:firmwares/fixedwing/main_ap.c **** #ifdef H_CTL_RATE_LOOP
 486:firmwares/fixedwing/main_ap.c ****     /* Be sure to be in attitude mode, not roll */
 487:firmwares/fixedwing/main_ap.c ****     h_ctl_auto1_rate = FALSE;
 488:firmwares/fixedwing/main_ap.c **** #endif
 489:firmwares/fixedwing/main_ap.c ****     if (lateral_mode >=LATERAL_MODE_COURSE)
 16300              		.loc 1 489 0
 16301 0542 444B     		ldr	r3, .L361+28
 16302 0544 1B78     		ldrb	r3, [r3, #0]	@ zero_extendqisi2
 16303 0546 022B     		cmp	r3, #2
 16304 0548 01D9     		bls	.L341
 490:firmwares/fixedwing/main_ap.c ****       h_ctl_course_loop(); /* aka compute nav_desired_roll */
 16305              		.loc 1 490 0
 16306 054a FFF7FEFF 		bl	h_ctl_course_loop
 16307              	.L341:
 491:firmwares/fixedwing/main_ap.c ****     if (v_ctl_mode >= V_CTL_MODE_AUTO_CLIMB)
 16308              		.loc 1 491 0
 16309 054e 3F4C     		ldr	r4, .L361+20
 16310 0550 2378     		ldrb	r3, [r4, #0]	@ zero_extendqisi2
 16311 0552 012B     		cmp	r3, #1
 16312 0554 01D9     		bls	.L342
 492:firmwares/fixedwing/main_ap.c ****       v_ctl_climb_loop();
 16313              		.loc 1 492 0
 16314 0556 FFF7FEFF 		bl	v_ctl_climb_loop
 16315              	.L342:
 493:firmwares/fixedwing/main_ap.c ****     if (v_ctl_mode == V_CTL_MODE_AUTO_THROTTLE)
 16316              		.loc 1 493 0
 16317 055a 2378     		ldrb	r3, [r4, #0]	@ zero_extendqisi2
 16318 055c 012B     		cmp	r3, #1
 16319 055e 03D1     		bne	.L343
 494:firmwares/fixedwing/main_ap.c ****       v_ctl_throttle_setpoint = nav_throttle_setpoint;
 16320              		.loc 1 494 0
 16321 0560 3D4B     		ldr	r3, .L361+32
 16322 0562 1A88     		ldrh	r2, [r3, #0]
 16323 0564 3D4B     		ldr	r3, .L361+36
 16324 0566 1A80     		strh	r2, [r3, #0]	@ movhi
 16325              	.L343:
 495:firmwares/fixedwing/main_ap.c **** 
 496:firmwares/fixedwing/main_ap.c **** #if defined V_CTL_THROTTLE_IDLE
 497:firmwares/fixedwing/main_ap.c ****     Bound(v_ctl_throttle_setpoint, TRIM_PPRZ(V_CTL_THROTTLE_IDLE*MAX_PPRZ), MAX_PPRZ);
 498:firmwares/fixedwing/main_ap.c **** #endif
 499:firmwares/fixedwing/main_ap.c **** 
 500:firmwares/fixedwing/main_ap.c **** #ifdef V_CTL_POWER_CTL_BAT_NOMINAL
 501:firmwares/fixedwing/main_ap.c ****     if (vsupply > 0.) {
 16326              		.loc 1 501 0
 16327 0568 3D4B     		ldr	r3, .L361+40
 16328 056a 1D78     		ldrb	r5, [r3, #0]	@ zero_extendqisi2
 16329 056c 2846     		mov	r0, r5
 16330 056e FFF7FEFF 		bl	__aeabi_i2d
 16331 0572 0022     		movs	r2, #0
 16332 0574 0023     		movs	r3, #0
 16333 0576 FFF7FEFF 		bl	__aeabi_dcmpgt
 16334 057a 10B3     		cbz	r0, .L344
 502:firmwares/fixedwing/main_ap.c ****       v_ctl_throttle_setpoint *= 10. * V_CTL_POWER_CTL_BAT_NOMINAL / (float)vsupply;
 16335              		.loc 1 502 0
 16336 057c 374C     		ldr	r4, .L361+36
 16337 057e B4F90000 		ldrsh	r0, [r4, #0]
 16338 0582 FFF7FEFF 		bl	__aeabi_i2d
 16339 0586 0646     		mov	r6, r0
 16340 0588 2846     		mov	r0, r5
 16341 058a 0F46     		mov	r7, r1
 16342 058c FFF7FEFF 		bl	__aeabi_ui2f
 16343 0590 FFF7FEFF 		bl	__aeabi_f2d
 16344 0594 0246     		mov	r2, r0
 16345 0596 0B46     		mov	r3, r1
 16346 0598 0020     		movs	r0, #0
 16347 059a 3249     		ldr	r1, .L361+44
 16348 059c FFF7FEFF 		bl	__aeabi_ddiv
 16349 05a0 0B46     		mov	r3, r1
 16350 05a2 0246     		mov	r2, r0
 16351 05a4 3946     		mov	r1, r7
 16352 05a6 3046     		mov	r0, r6
 16353 05a8 FFF7FEFF 		bl	__aeabi_dmul
 16354 05ac FFF7FEFF 		bl	__aeabi_d2iz
 503:firmwares/fixedwing/main_ap.c ****       v_ctl_throttle_setpoint = TRIM_UPPRZ(v_ctl_throttle_setpoint);
 16355              		.loc 1 503 0
 16356 05b0 03B2     		sxth	r3, r0
 16357 05b2 B3F5165F 		cmp	r3, #9600
 16358 05b6 A8BF     		it	ge
 16359 05b8 4FF41653 		movge	r3, #9600
 16360 05bc 23EAE373 		bic	r3, r3, r3, asr #31
 16361 05c0 2380     		strh	r3, [r4, #0]	@ movhi
 16362              	.L344:
 504:firmwares/fixedwing/main_ap.c ****     }
 505:firmwares/fixedwing/main_ap.c **** #endif
 506:firmwares/fixedwing/main_ap.c **** 
 507:firmwares/fixedwing/main_ap.c ****     h_ctl_pitch_setpoint = nav_pitch;
 16363              		.loc 1 507 0
 16364 05c2 294B     		ldr	r3, .L361+48
 16365 05c4 294C     		ldr	r4, .L361+52
 16366 05c6 1868     		ldr	r0, [r3, #0]	@ float
 16367              	.LVL2630:
 16368 05c8 2060     		str	r0, [r4, #0]	@ float
 16369              	.LVL2631:
 508:firmwares/fixedwing/main_ap.c ****     Bound(h_ctl_pitch_setpoint, H_CTL_PITCH_MIN_SETPOINT, H_CTL_PITCH_MAX_SETPOINT);
 16370              		.loc 1 508 0
 16371 05ca FFF7FEFF 		bl	__aeabi_f2d
 16372              	.LVL2632:
 16373 05ce 1AA3     		adr	r3, .L361
 16374 05d0 D3E90023 		ldrd	r2, [r3]
 16375 05d4 0646     		mov	r6, r0
 16376 05d6 0F46     		mov	r7, r1
 16377 05d8 FFF7FEFF 		bl	__aeabi_dcmpgt
 16378 05dc 08B1     		cbz	r0, .L354
 16379              		.loc 1 508 0 is_stmt 0 discriminator 1
 16380 05de 244B     		ldr	r3, .L361+56
 16381 05e0 08E0     		b	.L356
 16382              	.L354:
 16383              		.loc 1 508 0 discriminator 2
 16384 05e2 3046     		mov	r0, r6
 16385 05e4 3946     		mov	r1, r7
 16386 05e6 16A3     		adr	r3, .L361+8
 16387 05e8 D3E90023 		ldrd	r2, [r3]
 16388 05ec FFF7FEFF 		bl	__aeabi_dcmplt
 16389 05f0 08B1     		cbz	r0, .L348
 16390              		.loc 1 508 0 discriminator 3
 16391 05f2 204B     		ldr	r3, .L361+60
 16392              	.L356:
 16393 05f4 2360     		str	r3, [r4, #0]	@ float
 16394              	.L348:
 509:firmwares/fixedwing/main_ap.c ****     if (kill_throttle || (!estimator_flight_time && !launch))
 16395              		.loc 1 509 0 is_stmt 1
 16396 05f6 204B     		ldr	r3, .L361+64
 16397 05f8 1B78     		ldrb	r3, [r3, #0]	@ zero_extendqisi2
 16398 05fa 2BB9     		cbnz	r3, .L350
 16399              		.loc 1 509 0 is_stmt 0 discriminator 1
 16400 05fc 1F4B     		ldr	r3, .L361+68
 16401 05fe 1B88     		ldrh	r3, [r3, #0]
 16402 0600 2BB9     		cbnz	r3, .L340
 16403 0602 1F4B     		ldr	r3, .L361+72
 16404 0604 1B78     		ldrb	r3, [r3, #0]	@ zero_extendqisi2
 16405 0606 13B9     		cbnz	r3, .L340
 16406              	.L350:
 510:firmwares/fixedwing/main_ap.c ****       v_ctl_throttle_setpoint = 0;
 16407              		.loc 1 510 0 is_stmt 1
 16408 0608 144B     		ldr	r3, .L361+36
 16409 060a 0022     		movs	r2, #0
 16410 060c 1A80     		strh	r2, [r3, #0]	@ movhi
 16411              	.L340:
 511:firmwares/fixedwing/main_ap.c ****   }
 512:firmwares/fixedwing/main_ap.c ****   energy += ((float)current) / 3600.0f * 0.25f;	// mAh = mA * dt (4Hz -> hours)
 16412              		.loc 1 512 0
 16413 060e 1D4B     		ldr	r3, .L361+76
 16414 0610 1D4C     		ldr	r4, .L361+80
 16415 0612 1868     		ldr	r0, [r3, #0]
 16416 0614 FFF7FEFF 		bl	__aeabi_i2f
 16417 0618 1C49     		ldr	r1, .L361+84
 16418 061a FFF7FEFF 		bl	__aeabi_fdiv
 16419 061e 4FF07A51 		mov	r1, #1048576000
 16420 0622 FFF7FEFF 		bl	__aeabi_fmul
 16421 0626 0146     		mov	r1, r0
 16422 0628 2068     		ldr	r0, [r4, #0]	@ float
 16423 062a FFF7FEFF 		bl	__aeabi_fadd
 16424 062e 2060     		str	r0, [r4, #0]	@ float
 513:firmwares/fixedwing/main_ap.c **** }
 16425              		.loc 1 513 0
 16426 0630 F8BD     		pop	{r3, r4, r5, r6, r7, pc}
 16427              	.L362:
 16428 0632 00BFAFF3 		.align	3
 16428      0080
 16429              	.L361:
 16430 0638 0B09185D 		.word	1561856267
 16431 063c DEECDB3F 		.word	1071377630
 16432 0640 0B09185D 		.word	1561856267
 16433 0644 DEECDBBF 		.word	-1076106018
 16434 0648 00000000 		.word	downlink_nb_ovrn
 16435 064c 00000000 		.word	v_ctl_mode
 16436 0650 00000000 		.word	.LANCHOR30
 16437 0654 00000000 		.word	.LANCHOR32
 16438 0658 00000000 		.word	nav_throttle_setpoint
 16439 065c 00000000 		.word	v_ctl_throttle_setpoint
 16440 0660 00000000 		.word	.LANCHOR27
 16441 0664 00805B40 		.word	1079738368
 16442 0668 00000000 		.word	nav_pitch
 16443 066c 00000000 		.word	h_ctl_pitch_setpoint
 16444 0670 F366DF3E 		.word	1054828275
 16445 0674 F366DFBE 		.word	-1092655373
 16446 0678 00000000 		.word	.LANCHOR28
 16447 067c 00000000 		.word	estimator_flight_time
 16448 0680 00000000 		.word	.LANCHOR31
 16449 0684 00000000 		.word	.LANCHOR25
 16450 0688 00000000 		.word	.LANCHOR26
 16451 068c 00006145 		.word	1163984896
 16452              		.cfi_endproc
 16453              	.LFE55:
 16455              		.section	.text.attitude_loop,"ax",%progbits
 16456              		.align	1
 16457              		.global	attitude_loop
 16458              		.thumb
 16459              		.thumb_func
 16461              	attitude_loop:
 16462              	.LFB56:
 514:firmwares/fixedwing/main_ap.c **** 
 515:firmwares/fixedwing/main_ap.c **** 
 516:firmwares/fixedwing/main_ap.c **** #if USE_AHRS
 517:firmwares/fixedwing/main_ap.c **** #ifdef AHRS_TRIGGERED_ATTITUDE_LOOP
 518:firmwares/fixedwing/main_ap.c **** volatile uint8_t new_ins_attitude = 0;
 519:firmwares/fixedwing/main_ap.c **** #endif
 520:firmwares/fixedwing/main_ap.c **** #endif
 521:firmwares/fixedwing/main_ap.c **** 
 522:firmwares/fixedwing/main_ap.c **** void attitude_loop( void ) {
 16463              		.loc 1 522 0
 16464              		.cfi_startproc
 16465              		@ args = 0, pretend = 0, frame = 0
 16466              		@ frame_needed = 0, uses_anonymous_args = 0
 16467 0000 08B5     		push	{r3, lr}
 16468              	.LCFI4:
 16469              		.cfi_def_cfa_offset 8
 16470              		.cfi_offset 14, -4
 16471              		.cfi_offset 3, -8
 523:firmwares/fixedwing/main_ap.c **** 
 524:firmwares/fixedwing/main_ap.c **** #if USE_INFRARED
 525:firmwares/fixedwing/main_ap.c ****   ahrs_update_infrared();
 526:firmwares/fixedwing/main_ap.c **** #endif /* USE_INFRARED */
 527:firmwares/fixedwing/main_ap.c **** 
 528:firmwares/fixedwing/main_ap.c ****   h_ctl_attitude_loop(); /* Set  h_ctl_aileron_setpoint & h_ctl_elevator_setpoint */
 16472              		.loc 1 528 0
 16473 0002 FFF7FEFF 		bl	h_ctl_attitude_loop
 529:firmwares/fixedwing/main_ap.c ****   v_ctl_throttle_slew();
 16474              		.loc 1 529 0
 16475 0006 FFF7FEFF 		bl	v_ctl_throttle_slew
 530:firmwares/fixedwing/main_ap.c ****   ap_state->commands[COMMAND_THROTTLE] = v_ctl_throttle_slewed;
 16476              		.loc 1 530 0
 16477 000a 084B     		ldr	r3, .L364
 16478 000c 084A     		ldr	r2, .L364+4
 16479 000e 1B68     		ldr	r3, [r3, #0]
 16480 0010 1288     		ldrh	r2, [r2, #0]
 16481 0012 1A80     		strh	r2, [r3, #0]	@ movhi
 531:firmwares/fixedwing/main_ap.c ****   ap_state->commands[COMMAND_ROLL] = -h_ctl_aileron_setpoint;
 16482              		.loc 1 531 0
 16483 0014 074A     		ldr	r2, .L364+8
 16484 0016 1288     		ldrh	r2, [r2, #0]
 16485 0018 5242     		negs	r2, r2
 16486 001a 5A80     		strh	r2, [r3, #2]	@ movhi
 532:firmwares/fixedwing/main_ap.c **** 
 533:firmwares/fixedwing/main_ap.c ****   ap_state->commands[COMMAND_PITCH] = h_ctl_elevator_setpoint;
 16487              		.loc 1 533 0
 16488 001c 064A     		ldr	r2, .L364+12
 16489 001e 1288     		ldrh	r2, [r2, #0]
 16490 0020 9A80     		strh	r2, [r3, #4]	@ movhi
 534:firmwares/fixedwing/main_ap.c **** 
 535:firmwares/fixedwing/main_ap.c **** #if defined MCU_SPI_LINK
 536:firmwares/fixedwing/main_ap.c ****   link_mcu_send();
 537:firmwares/fixedwing/main_ap.c **** #elif defined INTER_MCU && defined SINGLE_MCU
 538:firmwares/fixedwing/main_ap.c ****   /**Directly set the flag indicating to FBW that shared buffer is available*/
 539:firmwares/fixedwing/main_ap.c ****   inter_mcu_received_ap = TRUE;
 16491              		.loc 1 539 0
 16492 0022 064B     		ldr	r3, .L364+16
 16493 0024 0122     		movs	r2, #1
 16494 0026 1A70     		strb	r2, [r3, #0]
 540:firmwares/fixedwing/main_ap.c **** #endif
 541:firmwares/fixedwing/main_ap.c **** 
 542:firmwares/fixedwing/main_ap.c **** }
 16495              		.loc 1 542 0
 16496 0028 08BD     		pop	{r3, pc}
 16497              	.L365:
 16498 002a 00BF     		.align	2
 16499              	.L364:
 16500 002c 00000000 		.word	ap_state
 16501 0030 00000000 		.word	v_ctl_throttle_slewed
 16502 0034 00000000 		.word	h_ctl_aileron_setpoint
 16503 0038 00000000 		.word	h_ctl_elevator_setpoint
 16504 003c 00000000 		.word	inter_mcu_received_ap
 16505              		.cfi_endproc
 16506              	.LFE56:
 16508              		.section	.text.sensors_task,"ax",%progbits
 16509              		.align	1
 16510              		.global	sensors_task
 16511              		.thumb
 16512              		.thumb_func
 16514              	sensors_task:
 16515              	.LFB57:
 543:firmwares/fixedwing/main_ap.c **** 
 544:firmwares/fixedwing/main_ap.c **** 
 545:firmwares/fixedwing/main_ap.c **** /** Run at PERIODIC_FREQUENCY (60Hz if not defined) */
 546:firmwares/fixedwing/main_ap.c **** void sensors_task( void ) {
 16516              		.loc 1 546 0
 16517              		.cfi_startproc
 16518              		@ args = 0, pretend = 0, frame = 0
 16519              		@ frame_needed = 0, uses_anonymous_args = 0
 16520 0000 08B5     		push	{r3, lr}
 16521              	.LCFI5:
 16522              		.cfi_def_cfa_offset 8
 16523              		.cfi_offset 14, -4
 16524              		.cfi_offset 3, -8
 547:firmwares/fixedwing/main_ap.c **** #if USE_IMU
 548:firmwares/fixedwing/main_ap.c ****   imu_periodic();
 16525              		.loc 1 548 0
 16526 0002 FFF7FEFF 		bl	imu_periodic
 549:firmwares/fixedwing/main_ap.c **** 
 550:firmwares/fixedwing/main_ap.c **** #if USE_AHRS
 551:firmwares/fixedwing/main_ap.c ****   if (ahrs_timeout_counter < 255)
 16527              		.loc 1 551 0
 16528 0006 044B     		ldr	r3, .L368
 16529 0008 1A78     		ldrb	r2, [r3, #0]	@ zero_extendqisi2
 16530 000a FF2A     		cmp	r2, #255
 16531 000c 03D0     		beq	.L366
 552:firmwares/fixedwing/main_ap.c ****     ahrs_timeout_counter ++;
 16532              		.loc 1 552 0
 16533 000e 1A78     		ldrb	r2, [r3, #0]	@ zero_extendqisi2
 16534 0010 0132     		adds	r2, r2, #1
 16535 0012 D2B2     		uxtb	r2, r2
 16536 0014 1A70     		strb	r2, [r3, #0]
 16537              	.L366:
 16538 0016 08BD     		pop	{r3, pc}
 16539              	.L369:
 16540              		.align	2
 16541              	.L368:
 16542 0018 00000000 		.word	.LANCHOR34
 16543              		.cfi_endproc
 16544              	.LFE57:
 16546              		.global	__aeabi_fcmpgt
 16547              		.section	.text.monitor_task,"ax",%progbits
 16548              		.align	1
 16549              		.global	monitor_task
 16550              		.thumb
 16551              		.thumb_func
 16553              	monitor_task:
 16554              	.LFB58:
 553:firmwares/fixedwing/main_ap.c **** #endif // USE_AHRS
 554:firmwares/fixedwing/main_ap.c **** #endif // USE_IMU
 555:firmwares/fixedwing/main_ap.c **** 
 556:firmwares/fixedwing/main_ap.c **** #if USE_INS
 557:firmwares/fixedwing/main_ap.c ****   ins_periodic_task();
 558:firmwares/fixedwing/main_ap.c **** #endif
 559:firmwares/fixedwing/main_ap.c **** }
 560:firmwares/fixedwing/main_ap.c **** 
 561:firmwares/fixedwing/main_ap.c **** 
 562:firmwares/fixedwing/main_ap.c **** 
 563:firmwares/fixedwing/main_ap.c **** 
 564:firmwares/fixedwing/main_ap.c **** /** Maximum time allowed for low battery level before going into kill mode */
 565:firmwares/fixedwing/main_ap.c **** #define LOW_BATTERY_DELAY 5
 566:firmwares/fixedwing/main_ap.c **** 
 567:firmwares/fixedwing/main_ap.c **** /** Maximum distance from HOME waypoint before going into kill mode */
 568:firmwares/fixedwing/main_ap.c **** #ifndef KILL_MODE_DISTANCE
 569:firmwares/fixedwing/main_ap.c **** #define KILL_MODE_DISTANCE (1.5*MAX_DIST_FROM_HOME)
 570:firmwares/fixedwing/main_ap.c **** #endif
 571:firmwares/fixedwing/main_ap.c **** 
 572:firmwares/fixedwing/main_ap.c **** /** Define minimal speed for takeoff in m/s */
 573:firmwares/fixedwing/main_ap.c **** #define MIN_SPEED_FOR_TAKEOFF 5.
 574:firmwares/fixedwing/main_ap.c **** 
 575:firmwares/fixedwing/main_ap.c **** /** monitor stuff run at 1Hz */
 576:firmwares/fixedwing/main_ap.c **** void monitor_task( void ) {
 16555              		.loc 1 576 0
 16556              		.cfi_startproc
 16557              		@ args = 0, pretend = 0, frame = 8
 16558              		@ frame_needed = 0, uses_anonymous_args = 0
 577:firmwares/fixedwing/main_ap.c ****   if (estimator_flight_time)
 16559              		.loc 1 577 0
 16560 0000 414B     		ldr	r3, .L379
 576:firmwares/fixedwing/main_ap.c **** void monitor_task( void ) {
 16561              		.loc 1 576 0
 16562 0002 73B5     		push	{r0, r1, r4, r5, r6, lr}
 16563              	.LCFI6:
 16564              		.cfi_def_cfa_offset 24
 16565              		.cfi_offset 14, -4
 16566              		.cfi_offset 6, -8
 16567              		.cfi_offset 5, -12
 16568              		.cfi_offset 4, -16
 16569              		.cfi_offset 1, -20
 16570              		.cfi_offset 0, -24
 16571              		.loc 1 577 0
 16572 0004 1A88     		ldrh	r2, [r3, #0]
 16573 0006 0AB1     		cbz	r2, .L371
 578:firmwares/fixedwing/main_ap.c ****     estimator_flight_time++;
 16574              		.loc 1 578 0
 16575 0008 0132     		adds	r2, r2, #1
 16576 000a 1A80     		strh	r2, [r3, #0]	@ movhi
 16577              	.L371:
 579:firmwares/fixedwing/main_ap.c **** #if defined DATALINK || defined SITL
 580:firmwares/fixedwing/main_ap.c ****   datalink_time++;
 16578              		.loc 1 580 0
 16579 000c 3F4B     		ldr	r3, .L379+4
 16580 000e 1A88     		ldrh	r2, [r3, #0]
 16581 0010 0132     		adds	r2, r2, #1
 16582 0012 1A80     		strh	r2, [r3, #0]	@ movhi
 581:firmwares/fixedwing/main_ap.c **** #endif
 582:firmwares/fixedwing/main_ap.c **** 
 583:firmwares/fixedwing/main_ap.c ****   static uint8_t t = 0;
 584:firmwares/fixedwing/main_ap.c ****   if (vsupply < CATASTROPHIC_BAT_LEVEL*10)
 585:firmwares/fixedwing/main_ap.c ****     t++;
 586:firmwares/fixedwing/main_ap.c ****   else
 587:firmwares/fixedwing/main_ap.c ****     t = 0;
 16583              		.loc 1 587 0
 16584 0014 3E4B     		ldr	r3, .L379+8
 16585 0016 0022     		movs	r2, #0
 16586 0018 1A70     		strb	r2, [r3, #0]
 588:firmwares/fixedwing/main_ap.c ****   kill_throttle |= (t >= LOW_BATTERY_DELAY);
 16587              		.loc 1 588 0
 16588 001a 3E4B     		ldr	r3, .L379+12
 16589 001c 1C78     		ldrb	r4, [r3, #0]	@ zero_extendqisi2
 589:firmwares/fixedwing/main_ap.c ****   kill_throttle |= launch && (dist2_to_home > Square(KILL_MODE_DISTANCE));
 16590              		.loc 1 589 0
 16591 001e 3E4B     		ldr	r3, .L379+16
 16592 0020 1878     		ldrb	r0, [r3, #0]	@ zero_extendqisi2
 16593 0022 38B1     		cbz	r0, .L372
 16594              		.loc 1 589 0 is_stmt 0 discriminator 1
 16595 0024 3D4B     		ldr	r3, .L379+20
 16596 0026 3E49     		ldr	r1, .L379+24
 16597 0028 1868     		ldr	r0, [r3, #0]	@ float
 16598 002a FFF7FEFF 		bl	__aeabi_fcmpgt
 16599 002e 0030     		adds	r0, r0, #0
 16600 0030 18BF     		it	ne
 16601 0032 0120     		movne	r0, #1
 16602              	.L372:
 16603              		.loc 1 589 0 discriminator 3
 16604 0034 374B     		ldr	r3, .L379+12
 16605 0036 0443     		orrs	r4, r4, r0
 16606 0038 1C70     		strb	r4, [r3, #0]
 590:firmwares/fixedwing/main_ap.c **** 
 591:firmwares/fixedwing/main_ap.c ****   if (!estimator_flight_time &&
 16607              		.loc 1 591 0 is_stmt 1 discriminator 3
 16608 003a 334C     		ldr	r4, .L379
 16609 003c 2388     		ldrh	r3, [r4, #0]
 16610 003e 002B     		cmp	r3, #0
 16611 0040 60D1     		bne	.L370
 16612              		.loc 1 591 0 is_stmt 0 discriminator 1
 16613 0042 384B     		ldr	r3, .L379+28
 16614 0044 3849     		ldr	r1, .L379+32
 16615 0046 1868     		ldr	r0, [r3, #0]	@ float
 16616 0048 FFF7FEFF 		bl	__aeabi_fcmpgt
 16617 004c 0028     		cmp	r0, #0
 16618 004e 59D0     		beq	.L370
 16619              	.LBB1100:
 592:firmwares/fixedwing/main_ap.c ****       estimator_hspeed_mod > MIN_SPEED_FOR_TAKEOFF) {
 593:firmwares/fixedwing/main_ap.c ****     estimator_flight_time = 1;
 594:firmwares/fixedwing/main_ap.c ****     launch = TRUE; /* Not set in non auto launch */
 16620              		.loc 1 594 0 is_stmt 1
 16621 0050 314B     		ldr	r3, .L379+16
 593:firmwares/fixedwing/main_ap.c ****     estimator_flight_time = 1;
 16622              		.loc 1 593 0
 16623 0052 0126     		movs	r6, #1
 16624              		.loc 1 594 0
 16625 0054 1E70     		strb	r6, [r3, #0]
 595:firmwares/fixedwing/main_ap.c ****     uint16_t time_sec = sys_time.nb_sec;
 16626              		.loc 1 595 0
 16627 0056 354B     		ldr	r3, .L379+36
 593:firmwares/fixedwing/main_ap.c ****     estimator_flight_time = 1;
 16628              		.loc 1 593 0
 16629 0058 2680     		strh	r6, [r4, #0]	@ movhi
 16630              		.loc 1 595 0
 16631 005a 1B68     		ldr	r3, [r3, #0]
 596:firmwares/fixedwing/main_ap.c ****     DOWNLINK_SEND_TAKEOFF(DefaultChannel, DefaultDevice, &time_sec);
 16632              		.loc 1 596 0
 16633 005c 3448     		ldr	r0, .L379+40
 16634 005e 0821     		movs	r1, #8
 595:firmwares/fixedwing/main_ap.c ****     uint16_t time_sec = sys_time.nb_sec;
 16635              		.loc 1 595 0
 16636 0060 ADF80630 		strh	r3, [sp, #6]	@ movhi
 16637              	.LVL2633:
 16638              		.loc 1 596 0
 16639 0064 FFF7FEFF 		bl	uart_check_free_space
 16640 0068 0028     		cmp	r0, #0
 16641 006a 47D0     		beq	.L376
 16642              		.loc 1 596 0 is_stmt 0 discriminator 1
 16643 006c 314B     		ldr	r3, .L379+44
 16644              	.LBB1101:
 16645 006e 9921     		movs	r1, #153
 16646              	.LBE1101:
 16647 0070 1A88     		ldrh	r2, [r3, #0]
 16648              	.LBB1102:
 16649 0072 2F48     		ldr	r0, .L379+40
 16650              	.LBE1102:
 16651 0074 0832     		adds	r2, r2, #8
 16652 0076 1A80     		strh	r2, [r3, #0]	@ movhi
 16653 0078 2F4B     		ldr	r3, .L379+48
 16654 007a 304D     		ldr	r5, .L379+52
 16655 007c 1A88     		ldrh	r2, [r3, #0]
 16656 007e 304C     		ldr	r4, .L379+56
 16657 0080 9219     		adds	r2, r2, r6
 16658 0082 1A80     		strh	r2, [r3, #0]	@ movhi
 16659              	.LBB1103:
 16660 0084 FFF7FEFF 		bl	uart_transmit
 16661              	.LVL2634:
 16662 0088 0821     		movs	r1, #8
 16663 008a 2948     		ldr	r0, .L379+40
 16664 008c FFF7FEFF 		bl	uart_transmit
 16665              	.LBE1103:
 16666 0090 0923     		movs	r3, #9
 16667 0092 2B70     		strb	r3, [r5, #0]
 16668 0094 1123     		movs	r3, #17
 16669 0096 2370     		strb	r3, [r4, #0]
 16670 0098 3146     		mov	r1, r6
 16671 009a 2548     		ldr	r0, .L379+40
 16672 009c FFF7FEFF 		bl	uart_transmit
 16673 00a0 2B78     		ldrb	r3, [r5, #0]	@ zero_extendqisi2
 16674 00a2 2278     		ldrb	r2, [r4, #0]	@ zero_extendqisi2
 16675 00a4 0433     		adds	r3, r3, #4
 16676 00a6 DBB2     		uxtb	r3, r3
 16677              	.LVL2635:
 16678 00a8 2B70     		strb	r3, [r5, #0]
 16679 00aa 9B18     		adds	r3, r3, r2
 16680              	.LVL2636:
 16681 00ac 2370     		strb	r3, [r4, #0]
 16682 00ae 0421     		movs	r1, #4
 16683 00b0 1F48     		ldr	r0, .L379+40
 16684 00b2 FFF7FEFF 		bl	uart_transmit
 16685              	.LBB1104:
 16686 00b6 9DF80610 		ldrb	r1, [sp, #6]	@ zero_extendqisi2
 16687              	.LVL2637:
 16688 00ba 2B78     		ldrb	r3, [r5, #0]	@ zero_extendqisi2
 16689 00bc 2278     		ldrb	r2, [r4, #0]	@ zero_extendqisi2
 16690 00be CB18     		adds	r3, r1, r3
 16691 00c0 DBB2     		uxtb	r3, r3
 16692              	.LVL2638:
 16693 00c2 2B70     		strb	r3, [r5, #0]
 16694 00c4 9B18     		adds	r3, r3, r2
 16695              	.LVL2639:
 16696 00c6 2370     		strb	r3, [r4, #0]
 16697 00c8 1948     		ldr	r0, .L379+40
 16698 00ca FFF7FEFF 		bl	uart_transmit
 16699              	.LVL2640:
 16700              	.LBE1104:
 16701              	.LBB1105:
 16702 00ce 9DF80710 		ldrb	r1, [sp, #7]	@ zero_extendqisi2
 16703              	.LVL2641:
 16704 00d2 2B78     		ldrb	r3, [r5, #0]	@ zero_extendqisi2
 16705 00d4 2278     		ldrb	r2, [r4, #0]	@ zero_extendqisi2
 16706 00d6 CB18     		adds	r3, r1, r3
 16707 00d8 DBB2     		uxtb	r3, r3
 16708              	.LVL2642:
 16709 00da 2B70     		strb	r3, [r5, #0]
 16710 00dc 9B18     		adds	r3, r3, r2
 16711              	.LVL2643:
 16712 00de 2370     		strb	r3, [r4, #0]
 16713 00e0 1348     		ldr	r0, .L379+40
 16714 00e2 FFF7FEFF 		bl	uart_transmit
 16715              	.LVL2644:
 16716              	.LBE1105:
 16717 00e6 2978     		ldrb	r1, [r5, #0]	@ zero_extendqisi2
 16718 00e8 1148     		ldr	r0, .L379+40
 16719 00ea FFF7FEFF 		bl	uart_transmit
 16720 00ee 1048     		ldr	r0, .L379+40
 16721 00f0 2178     		ldrb	r1, [r4, #0]	@ zero_extendqisi2
 16722              	.LBE1100:
 597:firmwares/fixedwing/main_ap.c ****   }
 598:firmwares/fixedwing/main_ap.c **** 
 599:firmwares/fixedwing/main_ap.c **** #ifdef USE_GPIO
 600:firmwares/fixedwing/main_ap.c ****    GpioUpdate1();
 601:firmwares/fixedwing/main_ap.c **** #endif
 602:firmwares/fixedwing/main_ap.c **** }
 16723              		.loc 1 602 0 is_stmt 1 discriminator 1
 16724 00f2 02B0     		add	sp, sp, #8
 16725 00f4 BDE87040 		pop	{r4, r5, r6, lr}
 16726              	.LBB1106:
 596:firmwares/fixedwing/main_ap.c ****     DOWNLINK_SEND_TAKEOFF(DefaultChannel, DefaultDevice, &time_sec);
 16727              		.loc 1 596 0 discriminator 1
 16728 00f8 FFF7FEBF 		b	uart_transmit
 16729              	.LVL2645:
 16730              	.L376:
 596:firmwares/fixedwing/main_ap.c ****     DOWNLINK_SEND_TAKEOFF(DefaultChannel, DefaultDevice, &time_sec);
 16731              		.loc 1 596 0 is_stmt 0 discriminator 2
 16732 00fc 114B     		ldr	r3, .L379+60
 16733 00fe 1A78     		ldrb	r2, [r3, #0]	@ zero_extendqisi2
 16734 0100 0132     		adds	r2, r2, #1
 16735 0102 1A70     		strb	r2, [r3, #0]
 16736              	.L370:
 16737              	.LBE1106:
 16738              		.loc 1 602 0 is_stmt 1
 16739 0104 02B0     		add	sp, sp, #8
 16740 0106 70BD     		pop	{r4, r5, r6, pc}
 16741              	.L380:
 16742              		.align	2
 16743              	.L379:
 16744 0108 00000000 		.word	estimator_flight_time
 16745 010c 00000000 		.word	datalink_time
 16746 0110 00000000 		.word	.LANCHOR69
 16747 0114 00000000 		.word	.LANCHOR28
 16748 0118 00000000 		.word	.LANCHOR31
 16749 011c 00000000 		.word	dist2_to_home
 16750 0120 4054094B 		.word	1258902592
 16751 0124 00000000 		.word	estimator_hspeed_mod
 16752 0128 0000A040 		.word	1084227584
 16753 012c 00000000 		.word	sys_time
 16754 0130 00000000 		.word	uart2
 16755 0134 00000000 		.word	downlink_nb_bytes
 16756 0138 00000000 		.word	downlink_nb_msgs
 16757 013c 00000000 		.word	ck_a
 16758 0140 00000000 		.word	ck_b
 16759 0144 00000000 		.word	downlink_nb_ovrn
 16760              		.cfi_endproc
 16761              	.LFE58:
 16763              		.section	.text.handle_periodic_tasks_ap,"ax",%progbits
 16764              		.align	1
 16765              		.global	handle_periodic_tasks_ap
 16766              		.thumb
 16767              		.thumb_func
 16769              	handle_periodic_tasks_ap:
 16770              	.LFB49:
 246:firmwares/fixedwing/main_ap.c **** void handle_periodic_tasks_ap(void) {
 16771              		.loc 1 246 0
 16772              		.cfi_startproc
 16773              		@ args = 0, pretend = 0, frame = 0
 16774              		@ frame_needed = 0, uses_anonymous_args = 0
 16775              	.LVL2646:
 16776 0000 10B5     		push	{r4, lr}
 16777              	.LCFI7:
 16778              		.cfi_def_cfa_offset 8
 16779              		.cfi_offset 14, -4
 16780              		.cfi_offset 4, -8
 16781              	.LBB1107:
 16782              	.LBB1108:
 16783              		.file 3 "./mcu_periph/sys_time.h"
   1:./mcu_periph/sys_time.h **** /*
   2:./mcu_periph/sys_time.h ****  *
   3:./mcu_periph/sys_time.h ****  * Copyright (C) 2009-2011 The Paparazzi Team
   4:./mcu_periph/sys_time.h ****  *
   5:./mcu_periph/sys_time.h ****  * This file is part of paparazzi.
   6:./mcu_periph/sys_time.h ****  *
   7:./mcu_periph/sys_time.h ****  * paparazzi is free software; you can redistribute it and/or modify
   8:./mcu_periph/sys_time.h ****  * it under the terms of the GNU General Public License as published by
   9:./mcu_periph/sys_time.h ****  * the Free Software Foundation; either version 2, or (at your option)
  10:./mcu_periph/sys_time.h ****  * any later version.
  11:./mcu_periph/sys_time.h ****  *
  12:./mcu_periph/sys_time.h ****  * paparazzi is distributed in the hope that it will be useful,
  13:./mcu_periph/sys_time.h ****  * but WITHOUT ANY WARRANTY; without even the implied warranty of
  14:./mcu_periph/sys_time.h ****  * MERCHANTABILITY or FITNESS FOR A PARTICULAR PURPOSE.  See the
  15:./mcu_periph/sys_time.h ****  * GNU General Public License for more details.
  16:./mcu_periph/sys_time.h ****  *
  17:./mcu_periph/sys_time.h ****  * You should have received a copy of the GNU General Public License
  18:./mcu_periph/sys_time.h ****  * along with paparazzi; see the file COPYING.  If not, write to
  19:./mcu_periph/sys_time.h ****  * the Free Software Foundation, 59 Temple Place - Suite 330,
  20:./mcu_periph/sys_time.h ****  * Boston, MA 02111-1307, USA.
  21:./mcu_periph/sys_time.h ****  *
  22:./mcu_periph/sys_time.h ****  */
  23:./mcu_periph/sys_time.h **** 
  24:./mcu_periph/sys_time.h **** /**
  25:./mcu_periph/sys_time.h ****  * @file mcu_periph/sys_time.h
  26:./mcu_periph/sys_time.h ****  * @brief Architecture independent timing functions.
  27:./mcu_periph/sys_time.h ****  *
  28:./mcu_periph/sys_time.h ****  */
  29:./mcu_periph/sys_time.h **** 
  30:./mcu_periph/sys_time.h **** #ifndef SYS_TIME_H
  31:./mcu_periph/sys_time.h **** #define SYS_TIME_H
  32:./mcu_periph/sys_time.h **** 
  33:./mcu_periph/sys_time.h **** #include <inttypes.h>
  34:./mcu_periph/sys_time.h **** #include <stdlib.h>
  35:./mcu_periph/sys_time.h **** #include "std.h"
  36:./mcu_periph/sys_time.h **** 
  37:./mcu_periph/sys_time.h **** #include BOARD_CONFIG
  38:./mcu_periph/sys_time.h **** 
  39:./mcu_periph/sys_time.h **** #ifndef SYS_TIME_NB_TIMER
  40:./mcu_periph/sys_time.h **** #define SYS_TIME_NB_TIMER 8
  41:./mcu_periph/sys_time.h **** #endif
  42:./mcu_periph/sys_time.h **** 
  43:./mcu_periph/sys_time.h **** typedef uint8_t tid_t; ///< sys_time timer id type
  44:./mcu_periph/sys_time.h **** typedef void (*sys_time_cb) (uint8_t id);
  45:./mcu_periph/sys_time.h **** 
  46:./mcu_periph/sys_time.h **** struct sys_time_timer {
  47:./mcu_periph/sys_time.h ****   bool_t          in_use;
  48:./mcu_periph/sys_time.h ****   sys_time_cb     cb;
  49:./mcu_periph/sys_time.h ****   volatile bool_t elapsed;
  50:./mcu_periph/sys_time.h ****   uint32_t        end_time; ///< in SYS_TICKS
  51:./mcu_periph/sys_time.h ****   uint32_t        duration; ///< in SYS_TICKS
  52:./mcu_periph/sys_time.h **** };
  53:./mcu_periph/sys_time.h **** 
  54:./mcu_periph/sys_time.h **** struct sys_time {
  55:./mcu_periph/sys_time.h ****   volatile uint32_t nb_sec;       ///< full seconds since startup
  56:./mcu_periph/sys_time.h ****   volatile uint32_t nb_sec_rem;   ///< remainder of second in CPU_TICKS
  57:./mcu_periph/sys_time.h ****   volatile uint32_t nb_tick;      ///< in SYS_TICKS with SYS_TIME_RESOLUTION
  58:./mcu_periph/sys_time.h ****   struct sys_time_timer timer[SYS_TIME_NB_TIMER];
  59:./mcu_periph/sys_time.h **** };
  60:./mcu_periph/sys_time.h **** 
  61:./mcu_periph/sys_time.h **** extern struct sys_time sys_time;
  62:./mcu_periph/sys_time.h **** 
  63:./mcu_periph/sys_time.h **** //FIXME temporary hack
  64:./mcu_periph/sys_time.h **** #define cpu_time_sec sys_time.nb_sec
  65:./mcu_periph/sys_time.h **** #define cpu_time_ticks sys_time.nb_sec_rem
  66:./mcu_periph/sys_time.h **** 
  67:./mcu_periph/sys_time.h **** extern void sys_time_init(void);
  68:./mcu_periph/sys_time.h **** 
  69:./mcu_periph/sys_time.h **** /**
  70:./mcu_periph/sys_time.h ****  * Register a new system timer.
  71:./mcu_periph/sys_time.h ****  * @param duration Duration in seconds until the timer elapses.
  72:./mcu_periph/sys_time.h ****  * @param cb Callback function that is called from the ISR when timer elapses, or NULL
  73:./mcu_periph/sys_time.h ****  * @return -1 if it failed, the timer id otherwise
  74:./mcu_periph/sys_time.h ****  */
  75:./mcu_periph/sys_time.h **** extern int sys_time_register_timer(float duration, sys_time_cb cb);
  76:./mcu_periph/sys_time.h **** 
  77:./mcu_periph/sys_time.h **** /**
  78:./mcu_periph/sys_time.h ****  * Cancel a system timer by id.
  79:./mcu_periph/sys_time.h ****  * @param id Timer id.
  80:./mcu_periph/sys_time.h ****  */
  81:./mcu_periph/sys_time.h **** extern void sys_time_cancel_timer(tid_t id);
  82:./mcu_periph/sys_time.h **** 
  83:./mcu_periph/sys_time.h **** /**
  84:./mcu_periph/sys_time.h ****  * Update the duration until a timer elapses.
  85:./mcu_periph/sys_time.h ****  * @param id Timer id
  86:./mcu_periph/sys_time.h ****  * @param duration Duration in seconds until the timer elapses.
  87:./mcu_periph/sys_time.h ****  */
  88:./mcu_periph/sys_time.h **** extern void sys_time_update_timer(tid_t id, float duration);
  89:./mcu_periph/sys_time.h **** 
  90:./mcu_periph/sys_time.h **** static inline bool_t sys_time_check_and_ack_timer(tid_t id) {
  91:./mcu_periph/sys_time.h ****   if (sys_time.timer[id].elapsed) {
 16784              		.loc 3 91 0
 16785 0002 3D4B     		ldr	r3, .L393
 16786 0004 1421     		movs	r1, #20
 16787 0006 1A78     		ldrb	r2, [r3, #0]	@ zero_extendqisi2
 16788 0008 3C4B     		ldr	r3, .L393+4
 16789 000a 01FB0232 		mla	r2, r1, r2, r3
 16790 000e 117D     		ldrb	r1, [r2, #20]	@ zero_extendqisi2
 16791 0010 1C46     		mov	r4, r3
 16792 0012 1032     		adds	r2, r2, #16
 16793 0014 19B1     		cbz	r1, .L382
  92:./mcu_periph/sys_time.h ****     sys_time.timer[id].elapsed = FALSE;
 16794              		.loc 3 92 0
 16795 0016 0023     		movs	r3, #0
 16796 0018 1371     		strb	r3, [r2, #4]
 16797              	.LBE1108:
 16798              	.LBE1107:
 249:firmwares/fixedwing/main_ap.c ****     sensors_task();
 16799              		.loc 1 249 0
 16800 001a FFF7FEFF 		bl	sensors_task
 16801              	.LVL2647:
 16802              	.L382:
 16803              	.LBB1109:
 16804              	.LBB1110:
  91:./mcu_periph/sys_time.h ****   if (sys_time.timer[id].elapsed) {
 16805              		.loc 3 91 0
 16806 001e 384B     		ldr	r3, .L393+8
 16807 0020 1422     		movs	r2, #20
 16808 0022 1B78     		ldrb	r3, [r3, #0]	@ zero_extendqisi2
 16809 0024 02FB0343 		mla	r3, r2, r3, r4
 16810 0028 1A7D     		ldrb	r2, [r3, #20]	@ zero_extendqisi2
 16811 002a 1033     		adds	r3, r3, #16
 16812 002c 1AB1     		cbz	r2, .L383
 16813              		.loc 3 92 0
 16814 002e 0022     		movs	r2, #0
 16815 0030 1A71     		strb	r2, [r3, #4]
 16816              	.LBE1110:
 16817              	.LBE1109:
 252:firmwares/fixedwing/main_ap.c ****     navigation_task();
 16818              		.loc 1 252 0
 16819 0032 FFF7FEFF 		bl	navigation_task
 16820              	.LVL2648:
 16821              	.L383:
 16822              	.LBB1111:
 16823              	.LBB1112:
  91:./mcu_periph/sys_time.h ****   if (sys_time.timer[id].elapsed) {
 16824              		.loc 3 91 0
 16825 0036 334B     		ldr	r3, .L393+12
 16826 0038 304A     		ldr	r2, .L393+4
 16827 003a 1B78     		ldrb	r3, [r3, #0]	@ zero_extendqisi2
 16828 003c 1421     		movs	r1, #20
 16829 003e 01FB0323 		mla	r3, r1, r3, r2
 16830 0042 1A7D     		ldrb	r2, [r3, #20]	@ zero_extendqisi2
 16831 0044 1033     		adds	r3, r3, #16
 16832 0046 002A     		cmp	r2, #0
 16833 0048 39D0     		beq	.L384
 16834              		.loc 3 92 0
 16835 004a 0022     		movs	r2, #0
 16836 004c 1A71     		strb	r2, [r3, #4]
 16837              	.LBE1112:
 16838              	.LBE1111:
 16839              	.LBB1113:
 16840              	.LBB1114:
  36:/home/uav/USTUAV/paparazzi/var/MYAC/generated/modules.h **** }
  37:/home/uav/USTUAV/paparazzi/var/MYAC/generated/modules.h **** 
  38:/home/uav/USTUAV/paparazzi/var/MYAC/generated/modules.h **** static inline void modules_periodic_task(void) {
  39:/home/uav/USTUAV/paparazzi/var/MYAC/generated/modules.h ****   static uint8_t i1; i1++; if (i1>=1) i1=0;
 16841              		.loc 2 39 0
 16842 004e 2E4B     		ldr	r3, .L393+16
 16843 0050 1978     		ldrb	r1, [r3, #0]	@ zero_extendqisi2
 16844 0052 0131     		adds	r1, r1, #1
 16845 0054 C9B2     		uxtb	r1, r1
 16846 0056 1970     		strb	r1, [r3, #0]
 16847 0058 01B1     		cbz	r1, .L385
 16848 005a 1A70     		strb	r2, [r3, #0]
 16849              	.L385:
  40:/home/uav/USTUAV/paparazzi/var/MYAC/generated/modules.h ****   static uint8_t i15; i15++; if (i15>=15) i15=0;
 16850              		.loc 2 40 0
 16851 005c 2B4B     		ldr	r3, .L393+20
 16852 005e 1A78     		ldrb	r2, [r3, #0]	@ zero_extendqisi2
 16853 0060 0132     		adds	r2, r2, #1
 16854 0062 D2B2     		uxtb	r2, r2
 16855 0064 0E2A     		cmp	r2, #14
 16856 0066 1A70     		strb	r2, [r3, #0]
 16857 0068 01D9     		bls	.L386
 16858 006a 0022     		movs	r2, #0
 16859 006c 1A70     		strb	r2, [r3, #0]
 16860              	.L386:
  41:/home/uav/USTUAV/paparazzi/var/MYAC/generated/modules.h ****   static uint8_t i60; i60++; if (i60>=60) i60=0;
 16861              		.loc 2 41 0
 16862 006e 284B     		ldr	r3, .L393+24
 16863 0070 1A78     		ldrb	r2, [r3, #0]	@ zero_extendqisi2
 16864 0072 0132     		adds	r2, r2, #1
 16865 0074 D2B2     		uxtb	r2, r2
 16866 0076 3B2A     		cmp	r2, #59
 16867 0078 1A70     		strb	r2, [r3, #0]
 16868 007a 01D9     		bls	.L387
 16869 007c 0022     		movs	r2, #0
 16870 007e 1A70     		strb	r2, [r3, #0]
 16871              	.L387:
  42:/home/uav/USTUAV/paparazzi/var/MYAC/generated/modules.h **** 
  43:/home/uav/USTUAV/paparazzi/var/MYAC/generated/modules.h ****   if (gps_ubx_gps_ubx_ucenter_periodic_status == MODULES_START) { gps_ubx_ucenter_init(); gps_ubx_g
 16872              		.loc 2 43 0
 16873 0080 244C     		ldr	r4, .L393+28
 16874 0082 2378     		ldrb	r3, [r4, #0]	@ zero_extendqisi2
 16875 0084 022B     		cmp	r3, #2
 16876 0086 03D1     		bne	.L388
 16877 0088 FFF7FEFF 		bl	gps_ubx_ucenter_init
 16878              	.LVL2649:
 16879 008c 0123     		movs	r3, #1
 16880 008e 2370     		strb	r3, [r4, #0]
 16881              	.L388:
  44:/home/uav/USTUAV/paparazzi/var/MYAC/generated/modules.h ****   if (gps_ubx_gps_ubx_ucenter_periodic_status == MODULES_STOP) { ; gps_ubx_gps_ubx_ucenter_periodic
 16882              		.loc 2 44 0
 16883 0090 2378     		ldrb	r3, [r4, #0]	@ zero_extendqisi2
 16884 0092 032B     		cmp	r3, #3
 16885 0094 02D1     		bne	.L389
 16886 0096 1F4B     		ldr	r3, .L393+28
 16887 0098 0022     		movs	r2, #0
 16888 009a 1A70     		strb	r2, [r3, #0]
 16889              	.L389:
  45:/home/uav/USTUAV/paparazzi/var/MYAC/generated/modules.h **** 
  46:/home/uav/USTUAV/paparazzi/var/MYAC/generated/modules.h **** 
  47:/home/uav/USTUAV/paparazzi/var/MYAC/generated/modules.h ****   periodic_sysmon();
 16890              		.loc 2 47 0
 16891 009c FFF7FEFF 		bl	periodic_sysmon
  48:/home/uav/USTUAV/paparazzi/var/MYAC/generated/modules.h ****   if (i15 == 0 && gps_ubx_gps_ubx_ucenter_periodic_status == MODULES_RUN) {
 16892              		.loc 2 48 0
 16893 00a0 1A4B     		ldr	r3, .L393+20
 16894 00a2 1B78     		ldrb	r3, [r3, #0]	@ zero_extendqisi2
 16895 00a4 2BB9     		cbnz	r3, .L390
 16896 00a6 1B4B     		ldr	r3, .L393+28
 16897 00a8 1B78     		ldrb	r3, [r3, #0]	@ zero_extendqisi2
 16898 00aa 012B     		cmp	r3, #1
 16899 00ac 01D1     		bne	.L390
  49:/home/uav/USTUAV/paparazzi/var/MYAC/generated/modules.h ****     gps_ubx_ucenter_periodic();
 16900              		.loc 2 49 0
 16901 00ae FFF7FEFF 		bl	gps_ubx_ucenter_periodic
 16902              	.L390:
  50:/home/uav/USTUAV/paparazzi/var/MYAC/generated/modules.h ****   }
  51:/home/uav/USTUAV/paparazzi/var/MYAC/generated/modules.h ****   if (i60 == 7) {
 16903              		.loc 2 51 0
 16904 00b2 174B     		ldr	r3, .L393+24
 16905 00b4 1B78     		ldrb	r3, [r3, #0]	@ zero_extendqisi2
 16906 00b6 072B     		cmp	r3, #7
 16907 00b8 01D1     		bne	.L384
  52:/home/uav/USTUAV/paparazzi/var/MYAC/generated/modules.h ****     periodic_report_sysmon();
 16908              		.loc 2 52 0
 16909 00ba FFF7FEFF 		bl	periodic_report_sysmon
 16910              	.L384:
 16911              	.LVL2650:
 16912              	.LBE1114:
 16913              	.LBE1113:
 16914              	.LBB1115:
 16915              	.LBB1116:
  91:./mcu_periph/sys_time.h ****   if (sys_time.timer[id].elapsed) {
 16916              		.loc 3 91 0
 16917 00be 164B     		ldr	r3, .L393+32
 16918 00c0 1421     		movs	r1, #20
 16919 00c2 1A78     		ldrb	r2, [r3, #0]	@ zero_extendqisi2
 16920 00c4 0D4B     		ldr	r3, .L393+4
 16921 00c6 01FB0232 		mla	r2, r1, r2, r3
 16922 00ca 117D     		ldrb	r1, [r2, #20]	@ zero_extendqisi2
 16923 00cc 1C46     		mov	r4, r3
 16924 00ce 1032     		adds	r2, r2, #16
 16925 00d0 19B1     		cbz	r1, .L391
 16926              		.loc 3 92 0
 16927 00d2 0023     		movs	r3, #0
 16928 00d4 1371     		strb	r3, [r2, #4]
 16929              	.LBE1116:
 16930              	.LBE1115:
 263:firmwares/fixedwing/main_ap.c ****     monitor_task();
 16931              		.loc 1 263 0
 16932 00d6 FFF7FEFF 		bl	monitor_task
 16933              	.LVL2651:
 16934              	.L391:
 16935              	.LBB1117:
 16936              	.LBB1118:
  91:./mcu_periph/sys_time.h ****   if (sys_time.timer[id].elapsed) {
 16937              		.loc 3 91 0
 16938 00da 104B     		ldr	r3, .L393+36
 16939 00dc 1422     		movs	r2, #20
 16940 00de 1B78     		ldrb	r3, [r3, #0]	@ zero_extendqisi2
 16941 00e0 02FB0343 		mla	r3, r2, r3, r4
 16942 00e4 1A7D     		ldrb	r2, [r3, #20]	@ zero_extendqisi2
 16943 00e6 1033     		adds	r3, r3, #16
 16944 00e8 2AB1     		cbz	r2, .L381
 16945              		.loc 3 92 0
 16946 00ea 0022     		movs	r2, #0
 16947 00ec 1A71     		strb	r2, [r3, #4]
 16948              	.LBE1118:
 16949              	.LBE1117:
 270:firmwares/fixedwing/main_ap.c **** }
 16950              		.loc 1 270 0
 16951 00ee BDE81040 		pop	{r4, lr}
 266:firmwares/fixedwing/main_ap.c ****     reporting_task();
 16952              		.loc 1 266 0
 16953 00f2 FFF7FEBF 		b	reporting_task
 16954              	.LVL2652:
 16955              	.L381:
 16956 00f6 10BD     		pop	{r4, pc}
 16957              	.L394:
 16958              		.align	2
 16959              	.L393:
 16960 00f8 00000000 		.word	.LANCHOR1
 16961 00fc 00000000 		.word	sys_time
 16962 0100 00000000 		.word	.LANCHOR2
 16963 0104 00000000 		.word	.LANCHOR4
 16964 0108 00000000 		.word	.LANCHOR70
 16965 010c 00000000 		.word	.LANCHOR71
 16966 0110 00000000 		.word	.LANCHOR72
 16967 0114 00000000 		.word	.LANCHOR0
 16968 0118 00000000 		.word	.LANCHOR6
 16969 011c 00000000 		.word	.LANCHOR5
 16970              		.cfi_endproc
 16971              	.LFE49:
 16973              		.global	__aeabi_dadd
 16974              		.global	__aeabi_d2f
 16975              		.section	.text.event_task_ap,"ax",%progbits
 16976              		.align	1
 16977              		.global	event_task_ap
 16978              		.thumb
 16979              		.thumb_func
 16981              	event_task_ap:
 16982              	.LFB59:
 603:firmwares/fixedwing/main_ap.c **** 
 604:firmwares/fixedwing/main_ap.c **** 
 605:firmwares/fixedwing/main_ap.c **** /*********** EVENT ***********************************************************/
 606:firmwares/fixedwing/main_ap.c **** void event_task_ap( void ) {
 16983              		.loc 1 606 0
 16984              		.cfi_startproc
 16985              		@ args = 0, pretend = 0, frame = 16
 16986              		@ frame_needed = 0, uses_anonymous_args = 0
 16987 0000 2DE9F04F 		push	{r4, r5, r6, r7, r8, r9, sl, fp, lr}
 16988              	.LCFI8:
 16989              		.cfi_def_cfa_offset 36
 16990              		.cfi_offset 14, -4
 16991              		.cfi_offset 11, -8
 16992              		.cfi_offset 10, -12
 16993              		.cfi_offset 9, -16
 16994              		.cfi_offset 8, -20
 16995              		.cfi_offset 7, -24
 16996              		.cfi_offset 6, -28
 16997              		.cfi_offset 5, -32
 16998              		.cfi_offset 4, -36
 16999              	.LBB1156:
 17000              	.LBB1157:
 17001              		.file 4 "./subsystems/imu/imu_aspirin2.h"
   1:./subsystems/imu/imu_aspirin2.h **** /*
   2:./subsystems/imu/imu_aspirin2.h ****  * Copyright (C) 2012 Christophe DeWagter
   3:./subsystems/imu/imu_aspirin2.h ****  *
   4:./subsystems/imu/imu_aspirin2.h ****  * This file is part of paparazzi.
   5:./subsystems/imu/imu_aspirin2.h ****  *
   6:./subsystems/imu/imu_aspirin2.h ****  * paparazzi is free software; you can redistribute it and/or modify
   7:./subsystems/imu/imu_aspirin2.h ****  * it under the terms of the GNU General Public License as published by
   8:./subsystems/imu/imu_aspirin2.h ****  * the Free Software Foundation; either version 2, or (at your option)
   9:./subsystems/imu/imu_aspirin2.h ****  * any later version.
  10:./subsystems/imu/imu_aspirin2.h ****  *
  11:./subsystems/imu/imu_aspirin2.h ****  * paparazzi is distributed in the hope that it will be useful,
  12:./subsystems/imu/imu_aspirin2.h ****  * but WITHOUT ANY WARRANTY; without even the implied warranty of
  13:./subsystems/imu/imu_aspirin2.h ****  * MERCHANTABILITY or FITNESS FOR A PARTICULAR PURPOSE.  See the
  14:./subsystems/imu/imu_aspirin2.h ****  * GNU General Public License for more details.
  15:./subsystems/imu/imu_aspirin2.h ****  *
  16:./subsystems/imu/imu_aspirin2.h ****  * You should have received a copy of the GNU General Public License
  17:./subsystems/imu/imu_aspirin2.h ****  * along with paparazzi; see the file COPYING.  If not, write to
  18:./subsystems/imu/imu_aspirin2.h ****  * the Free Software Foundation, 59 Temple Place - Suite 330,
  19:./subsystems/imu/imu_aspirin2.h ****  * Boston, MA 02111-1307, USA.
  20:./subsystems/imu/imu_aspirin2.h ****  */
  21:./subsystems/imu/imu_aspirin2.h **** 
  22:./subsystems/imu/imu_aspirin2.h **** #ifndef IMU_ASPIRIN_2_H
  23:./subsystems/imu/imu_aspirin2.h **** #define IMU_ASPIRIN_2_H
  24:./subsystems/imu/imu_aspirin2.h **** 
  25:./subsystems/imu/imu_aspirin2.h **** #include "generated/airframe.h"
  26:./subsystems/imu/imu_aspirin2.h **** #include "subsystems/imu.h"
  27:./subsystems/imu/imu_aspirin2.h **** 
  28:./subsystems/imu/imu_aspirin2.h **** 
  29:./subsystems/imu/imu_aspirin2.h **** #ifdef IMU_ASPIRIN_VERSION_2_1
  30:./subsystems/imu/imu_aspirin2.h **** #if !defined IMU_MAG_X_SIGN & !defined IMU_MAG_Y_SIGN & !defined IMU_MAG_Z_SIGN
  31:./subsystems/imu/imu_aspirin2.h **** #define IMU_MAG_X_SIGN 1
  32:./subsystems/imu/imu_aspirin2.h **** #define IMU_MAG_Y_SIGN 1
  33:./subsystems/imu/imu_aspirin2.h **** #define IMU_MAG_Z_SIGN 1
  34:./subsystems/imu/imu_aspirin2.h **** #endif
  35:./subsystems/imu/imu_aspirin2.h **** #endif
  36:./subsystems/imu/imu_aspirin2.h **** 
  37:./subsystems/imu/imu_aspirin2.h **** #if !defined IMU_GYRO_P_SIGN & !defined IMU_GYRO_Q_SIGN & !defined IMU_GYRO_R_SIGN
  38:./subsystems/imu/imu_aspirin2.h **** #define IMU_GYRO_P_SIGN   1
  39:./subsystems/imu/imu_aspirin2.h **** #define IMU_GYRO_Q_SIGN   1
  40:./subsystems/imu/imu_aspirin2.h **** #define IMU_GYRO_R_SIGN   1
  41:./subsystems/imu/imu_aspirin2.h **** #endif
  42:./subsystems/imu/imu_aspirin2.h **** #if !defined IMU_ACCEL_X_SIGN & !defined IMU_ACCEL_Y_SIGN & !defined IMU_ACCEL_Z_SIGN
  43:./subsystems/imu/imu_aspirin2.h **** #define IMU_ACCEL_X_SIGN  1
  44:./subsystems/imu/imu_aspirin2.h **** #define IMU_ACCEL_Y_SIGN  1
  45:./subsystems/imu/imu_aspirin2.h **** #define IMU_ACCEL_Z_SIGN  1
  46:./subsystems/imu/imu_aspirin2.h **** #endif
  47:./subsystems/imu/imu_aspirin2.h **** 
  48:./subsystems/imu/imu_aspirin2.h **** /** default gyro sensitivy and neutral from the datasheet
  49:./subsystems/imu/imu_aspirin2.h ****  * MPU60X0 has 16.4 LSB/(deg/s) at 2000deg/s range
  50:./subsystems/imu/imu_aspirin2.h ****  * sens = 1/16.4 * pi/180 * 2^INT32_RATE_FRAC
  51:./subsystems/imu/imu_aspirin2.h ****  * sens = 1/16.4 * pi/180 * 4096 = 4.359066229
  52:./subsystems/imu/imu_aspirin2.h ****  */
  53:./subsystems/imu/imu_aspirin2.h **** #if !defined IMU_GYRO_P_SENS & !defined IMU_GYRO_Q_SENS & !defined IMU_GYRO_R_SENS
  54:./subsystems/imu/imu_aspirin2.h **** #define IMU_GYRO_P_SENS 4.359
  55:./subsystems/imu/imu_aspirin2.h **** #define IMU_GYRO_P_SENS_NUM 4359
  56:./subsystems/imu/imu_aspirin2.h **** #define IMU_GYRO_P_SENS_DEN 1000
  57:./subsystems/imu/imu_aspirin2.h **** #define IMU_GYRO_Q_SENS 4.359
  58:./subsystems/imu/imu_aspirin2.h **** #define IMU_GYRO_Q_SENS_NUM 4359
  59:./subsystems/imu/imu_aspirin2.h **** #define IMU_GYRO_Q_SENS_DEN 1000
  60:./subsystems/imu/imu_aspirin2.h **** #define IMU_GYRO_R_SENS 4.359
  61:./subsystems/imu/imu_aspirin2.h **** #define IMU_GYRO_R_SENS_NUM 4359
  62:./subsystems/imu/imu_aspirin2.h **** #define IMU_GYRO_R_SENS_DEN 1000
  63:./subsystems/imu/imu_aspirin2.h **** #endif
  64:./subsystems/imu/imu_aspirin2.h **** #if !defined IMU_GYRO_P_NEUTRAL & !defined IMU_GYRO_Q_NEUTRAL & !defined IMU_GYRO_R_NEUTRAL
  65:./subsystems/imu/imu_aspirin2.h **** #define IMU_GYRO_P_NEUTRAL 0
  66:./subsystems/imu/imu_aspirin2.h **** #define IMU_GYRO_Q_NEUTRAL 0
  67:./subsystems/imu/imu_aspirin2.h **** #define IMU_GYRO_R_NEUTRAL 0
  68:./subsystems/imu/imu_aspirin2.h **** #endif
  69:./subsystems/imu/imu_aspirin2.h **** 
  70:./subsystems/imu/imu_aspirin2.h **** /** default accel sensitivy from the datasheet
  71:./subsystems/imu/imu_aspirin2.h ****  * MPU60X0 has 2048 LSB/g
  72:./subsystems/imu/imu_aspirin2.h ****  * fixed point sens: 9.81 [m/s^2] / 2048 [LSB/g] * 2^INT32_ACCEL_FRAC
  73:./subsystems/imu/imu_aspirin2.h ****  * sens = 9.81 / 2048 * 1024 = 4.905
  74:./subsystems/imu/imu_aspirin2.h ****  */
  75:./subsystems/imu/imu_aspirin2.h **** #if !defined IMU_ACCEL_X_SENS & !defined IMU_ACCEL_Y_SENS & !defined IMU_ACCEL_Z_SENS
  76:./subsystems/imu/imu_aspirin2.h **** #define IMU_ACCEL_X_SENS 4.905
  77:./subsystems/imu/imu_aspirin2.h **** #define IMU_ACCEL_X_SENS_NUM 4905
  78:./subsystems/imu/imu_aspirin2.h **** #define IMU_ACCEL_X_SENS_DEN 1000
  79:./subsystems/imu/imu_aspirin2.h **** #define IMU_ACCEL_Y_SENS 4.905
  80:./subsystems/imu/imu_aspirin2.h **** #define IMU_ACCEL_Y_SENS_NUM 4905
  81:./subsystems/imu/imu_aspirin2.h **** #define IMU_ACCEL_Y_SENS_DEN 1000
  82:./subsystems/imu/imu_aspirin2.h **** #define IMU_ACCEL_Z_SENS 4.905
  83:./subsystems/imu/imu_aspirin2.h **** #define IMU_ACCEL_Z_SENS_NUM 4905
  84:./subsystems/imu/imu_aspirin2.h **** #define IMU_ACCEL_Z_SENS_DEN 1000
  85:./subsystems/imu/imu_aspirin2.h **** #endif
  86:./subsystems/imu/imu_aspirin2.h **** #if !defined IMU_ACCEL_X_NEUTRAL & !defined IMU_ACCEL_Y_NEUTRAL & !defined IMU_ACCEL_Z_NEUTRAL
  87:./subsystems/imu/imu_aspirin2.h **** #define IMU_ACCEL_X_NEUTRAL 0
  88:./subsystems/imu/imu_aspirin2.h **** #define IMU_ACCEL_Y_NEUTRAL 0
  89:./subsystems/imu/imu_aspirin2.h **** #define IMU_ACCEL_Z_NEUTRAL 0
  90:./subsystems/imu/imu_aspirin2.h **** #endif
  91:./subsystems/imu/imu_aspirin2.h **** 
  92:./subsystems/imu/imu_aspirin2.h **** 
  93:./subsystems/imu/imu_aspirin2.h **** enum Aspirin2Status
  94:./subsystems/imu/imu_aspirin2.h ****   { Aspirin2StatusUninit,
  95:./subsystems/imu/imu_aspirin2.h ****     Aspirin2StatusIdle,
  96:./subsystems/imu/imu_aspirin2.h ****     Aspirin2StatusReading
  97:./subsystems/imu/imu_aspirin2.h ****   };
  98:./subsystems/imu/imu_aspirin2.h **** 
  99:./subsystems/imu/imu_aspirin2.h **** struct ImuAspirin2 {
 100:./subsystems/imu/imu_aspirin2.h ****   volatile enum Aspirin2Status status;
 101:./subsystems/imu/imu_aspirin2.h ****   volatile uint8_t imu_spi_data_received;
 102:./subsystems/imu/imu_aspirin2.h ****   volatile uint8_t imu_tx_buf[64];
 103:./subsystems/imu/imu_aspirin2.h ****   volatile uint8_t imu_rx_buf[64];
 104:./subsystems/imu/imu_aspirin2.h **** };
 105:./subsystems/imu/imu_aspirin2.h **** 
 106:./subsystems/imu/imu_aspirin2.h **** extern struct ImuAspirin2 imu_aspirin2;
 107:./subsystems/imu/imu_aspirin2.h **** 
 108:./subsystems/imu/imu_aspirin2.h **** 
 109:./subsystems/imu/imu_aspirin2.h **** static inline uint8_t imu_from_buff(void)
 110:./subsystems/imu/imu_aspirin2.h **** {
 111:./subsystems/imu/imu_aspirin2.h ****   int32_t x, y, z, p, q, r, Mx, My, Mz;
 112:./subsystems/imu/imu_aspirin2.h **** 
 113:./subsystems/imu/imu_aspirin2.h **** #define MPU_OFFSET_STATUS 1
 114:./subsystems/imu/imu_aspirin2.h ****   if (!(imu_aspirin2.imu_rx_buf[MPU_OFFSET_STATUS] & 0x01)) {
 115:./subsystems/imu/imu_aspirin2.h ****     return 0;
 116:./subsystems/imu/imu_aspirin2.h ****   }
 117:./subsystems/imu/imu_aspirin2.h **** 
 118:./subsystems/imu/imu_aspirin2.h ****   // If the itg3200 I2C transaction has succeeded: convert the data
 119:./subsystems/imu/imu_aspirin2.h **** #define MPU_OFFSET_GYRO 10
 120:./subsystems/imu/imu_aspirin2.h ****   p = (int16_t) ((imu_aspirin2.imu_rx_buf[0+MPU_OFFSET_GYRO] << 8) | imu_aspirin2.imu_rx_buf[1+MPU_
 121:./subsystems/imu/imu_aspirin2.h ****   q = (int16_t) ((imu_aspirin2.imu_rx_buf[2+MPU_OFFSET_GYRO] << 8) | imu_aspirin2.imu_rx_buf[3+MPU_
 122:./subsystems/imu/imu_aspirin2.h ****   r = (int16_t) ((imu_aspirin2.imu_rx_buf[4+MPU_OFFSET_GYRO] << 8) | imu_aspirin2.imu_rx_buf[5+MPU_
 123:./subsystems/imu/imu_aspirin2.h **** 
 124:./subsystems/imu/imu_aspirin2.h **** #define MPU_OFFSET_ACC 2
 125:./subsystems/imu/imu_aspirin2.h ****   x = (int16_t) ((imu_aspirin2.imu_rx_buf[0+MPU_OFFSET_ACC] << 8) | imu_aspirin2.imu_rx_buf[1+MPU_O
 126:./subsystems/imu/imu_aspirin2.h ****   y = (int16_t) ((imu_aspirin2.imu_rx_buf[2+MPU_OFFSET_ACC] << 8) | imu_aspirin2.imu_rx_buf[3+MPU_O
 127:./subsystems/imu/imu_aspirin2.h ****   z = (int16_t) ((imu_aspirin2.imu_rx_buf[4+MPU_OFFSET_ACC] << 8) | imu_aspirin2.imu_rx_buf[5+MPU_O
 128:./subsystems/imu/imu_aspirin2.h **** 
 129:./subsystems/imu/imu_aspirin2.h **** #define MPU_OFFSET_MAG 16
 130:./subsystems/imu/imu_aspirin2.h ****   Mx = (int16_t) ((imu_aspirin2.imu_rx_buf[0+MPU_OFFSET_MAG] << 8) | imu_aspirin2.imu_rx_buf[1+MPU_
 131:./subsystems/imu/imu_aspirin2.h ****   My = (int16_t) ((imu_aspirin2.imu_rx_buf[2+MPU_OFFSET_MAG] << 8) | imu_aspirin2.imu_rx_buf[3+MPU_
 132:./subsystems/imu/imu_aspirin2.h ****   Mz = (int16_t) ((imu_aspirin2.imu_rx_buf[4+MPU_OFFSET_MAG] << 8) | imu_aspirin2.imu_rx_buf[5+MPU_
 133:./subsystems/imu/imu_aspirin2.h **** 
 134:./subsystems/imu/imu_aspirin2.h **** #ifdef LISA_M_LONGITUDINAL_X
 135:./subsystems/imu/imu_aspirin2.h ****   RATES_ASSIGN(imu.gyro_unscaled, q, -p, r);
 136:./subsystems/imu/imu_aspirin2.h ****   VECT3_ASSIGN(imu.accel_unscaled, y, -x, z);
 137:./subsystems/imu/imu_aspirin2.h ****   VECT3_ASSIGN(imu.mag_unscaled, -Mx, -Mz, My);
 138:./subsystems/imu/imu_aspirin2.h **** #else
 139:./subsystems/imu/imu_aspirin2.h ****   RATES_ASSIGN(imu.gyro_unscaled, q, -p, -r);
 140:./subsystems/imu/imu_aspirin2.h ****   VECT3_ASSIGN(imu.accel_unscaled, -y, -x, z);
 141:./subsystems/imu/imu_aspirin2.h ****   VECT3_ASSIGN(imu.mag_unscaled, -Mx, -Mz, -My);
 142:./subsystems/imu/imu_aspirin2.h **** #endif
 143:./subsystems/imu/imu_aspirin2.h **** 
 144:./subsystems/imu/imu_aspirin2.h ****   return 1;
 145:./subsystems/imu/imu_aspirin2.h **** }
 146:./subsystems/imu/imu_aspirin2.h **** 
 147:./subsystems/imu/imu_aspirin2.h **** 
 148:./subsystems/imu/imu_aspirin2.h **** static inline void imu_aspirin2_event(void (* _gyro_handler)(void), void (* _accel_handler)(void), 
 149:./subsystems/imu/imu_aspirin2.h **** {
 150:./subsystems/imu/imu_aspirin2.h ****   if (imu_aspirin2.status == Aspirin2StatusUninit) return;
 17002              		.loc 4 150 0
 17003 0004 B24C     		ldr	r4, .L449
 17004              	.LBE1157:
 17005              	.LBE1156:
 17006              		.loc 1 606 0
 17007 0006 85B0     		sub	sp, sp, #20
 17008              	.LCFI9:
 17009              		.cfi_def_cfa_offset 56
 17010              	.LBB1165:
 17011              	.LBB1164:
 17012              		.loc 4 150 0
 17013 0008 2378     		ldrb	r3, [r4, #0]	@ zero_extendqisi2
 17014 000a 002B     		cmp	r3, #0
 17015 000c 00F04F81 		beq	.L396
 151:./subsystems/imu/imu_aspirin2.h **** 
 152:./subsystems/imu/imu_aspirin2.h ****   if (imu_aspirin2.imu_spi_data_received) {
 17016              		.loc 4 152 0
 17017 0010 6378     		ldrb	r3, [r4, #1]	@ zero_extendqisi2
 17018 0012 002B     		cmp	r3, #0
 17019 0014 00F04B81 		beq	.L396
 153:./subsystems/imu/imu_aspirin2.h ****     imu_aspirin2.imu_spi_data_received = FALSE;
 17020              		.loc 4 153 0
 17021 0018 0025     		movs	r5, #0
 17022 001a 6570     		strb	r5, [r4, #1]
 17023              	.LBB1158:
 17024              	.LBB1159:
 114:./subsystems/imu/imu_aspirin2.h ****   if (!(imu_aspirin2.imu_rx_buf[MPU_OFFSET_STATUS] & 0x01)) {
 17025              		.loc 4 114 0
 17026 001c 94F84330 		ldrb	r3, [r4, #67]	@ zero_extendqisi2
 17027 0020 DE07     		lsls	r6, r3, #31
 17028 0022 40F14481 		bpl	.L396
 120:./subsystems/imu/imu_aspirin2.h ****   p = (int16_t) ((imu_aspirin2.imu_rx_buf[0+MPU_OFFSET_GYRO] << 8) | imu_aspirin2.imu_rx_buf[1+MPU_
 17029              		.loc 4 120 0
 17030 0026 94F84C70 		ldrb	r7, [r4, #76]	@ zero_extendqisi2
 17031 002a 94F84D30 		ldrb	r3, [r4, #77]	@ zero_extendqisi2
 121:./subsystems/imu/imu_aspirin2.h ****   q = (int16_t) ((imu_aspirin2.imu_rx_buf[2+MPU_OFFSET_GYRO] << 8) | imu_aspirin2.imu_rx_buf[3+MPU_
 17032              		.loc 4 121 0
 17033 002e 94F84E20 		ldrb	r2, [r4, #78]	@ zero_extendqisi2
 120:./subsystems/imu/imu_aspirin2.h ****   p = (int16_t) ((imu_aspirin2.imu_rx_buf[0+MPU_OFFSET_GYRO] << 8) | imu_aspirin2.imu_rx_buf[1+MPU_
 17034              		.loc 4 120 0
 17035 0032 43EA0727 		orr	r7, r3, r7, lsl #8
 121:./subsystems/imu/imu_aspirin2.h ****   q = (int16_t) ((imu_aspirin2.imu_rx_buf[2+MPU_OFFSET_GYRO] << 8) | imu_aspirin2.imu_rx_buf[3+MPU_
 17036              		.loc 4 121 0
 17037 0036 94F84F30 		ldrb	r3, [r4, #79]	@ zero_extendqisi2
 122:./subsystems/imu/imu_aspirin2.h ****   r = (int16_t) ((imu_aspirin2.imu_rx_buf[4+MPU_OFFSET_GYRO] << 8) | imu_aspirin2.imu_rx_buf[5+MPU_
 17038              		.loc 4 122 0
 17039 003a 94F85060 		ldrb	r6, [r4, #80]	@ zero_extendqisi2
 121:./subsystems/imu/imu_aspirin2.h ****   q = (int16_t) ((imu_aspirin2.imu_rx_buf[2+MPU_OFFSET_GYRO] << 8) | imu_aspirin2.imu_rx_buf[3+MPU_
 17040              		.loc 4 121 0
 17041 003e 43EA0222 		orr	r2, r3, r2, lsl #8
 122:./subsystems/imu/imu_aspirin2.h ****   r = (int16_t) ((imu_aspirin2.imu_rx_buf[4+MPU_OFFSET_GYRO] << 8) | imu_aspirin2.imu_rx_buf[5+MPU_
 17042              		.loc 4 122 0
 17043 0042 94F85130 		ldrb	r3, [r4, #81]	@ zero_extendqisi2
 125:./subsystems/imu/imu_aspirin2.h ****   x = (int16_t) ((imu_aspirin2.imu_rx_buf[0+MPU_OFFSET_ACC] << 8) | imu_aspirin2.imu_rx_buf[1+MPU_O
 17044              		.loc 4 125 0
 17045 0046 94F84410 		ldrb	r1, [r4, #68]	@ zero_extendqisi2
 122:./subsystems/imu/imu_aspirin2.h ****   r = (int16_t) ((imu_aspirin2.imu_rx_buf[4+MPU_OFFSET_GYRO] << 8) | imu_aspirin2.imu_rx_buf[5+MPU_
 17046              		.loc 4 122 0
 17047 004a 43EA0626 		orr	r6, r3, r6, lsl #8
 125:./subsystems/imu/imu_aspirin2.h ****   x = (int16_t) ((imu_aspirin2.imu_rx_buf[0+MPU_OFFSET_ACC] << 8) | imu_aspirin2.imu_rx_buf[1+MPU_O
 17048              		.loc 4 125 0
 17049 004e 94F84530 		ldrb	r3, [r4, #69]	@ zero_extendqisi2
 126:./subsystems/imu/imu_aspirin2.h ****   y = (int16_t) ((imu_aspirin2.imu_rx_buf[2+MPU_OFFSET_ACC] << 8) | imu_aspirin2.imu_rx_buf[3+MPU_O
 17050              		.loc 4 126 0
 17051 0052 94F84600 		ldrb	r0, [r4, #70]	@ zero_extendqisi2
 125:./subsystems/imu/imu_aspirin2.h ****   x = (int16_t) ((imu_aspirin2.imu_rx_buf[0+MPU_OFFSET_ACC] << 8) | imu_aspirin2.imu_rx_buf[1+MPU_O
 17052              		.loc 4 125 0
 17053 0056 43EA0121 		orr	r1, r3, r1, lsl #8
 126:./subsystems/imu/imu_aspirin2.h ****   y = (int16_t) ((imu_aspirin2.imu_rx_buf[2+MPU_OFFSET_ACC] << 8) | imu_aspirin2.imu_rx_buf[3+MPU_O
 17054              		.loc 4 126 0
 17055 005a 94F84730 		ldrb	r3, [r4, #71]	@ zero_extendqisi2
 127:./subsystems/imu/imu_aspirin2.h ****   z = (int16_t) ((imu_aspirin2.imu_rx_buf[4+MPU_OFFSET_ACC] << 8) | imu_aspirin2.imu_rx_buf[5+MPU_O
 17056              		.loc 4 127 0
 17057 005e 94F848E0 		ldrb	lr, [r4, #72]	@ zero_extendqisi2
 126:./subsystems/imu/imu_aspirin2.h ****   y = (int16_t) ((imu_aspirin2.imu_rx_buf[2+MPU_OFFSET_ACC] << 8) | imu_aspirin2.imu_rx_buf[3+MPU_O
 17058              		.loc 4 126 0
 17059 0062 43EA0020 		orr	r0, r3, r0, lsl #8
 127:./subsystems/imu/imu_aspirin2.h ****   z = (int16_t) ((imu_aspirin2.imu_rx_buf[4+MPU_OFFSET_ACC] << 8) | imu_aspirin2.imu_rx_buf[5+MPU_O
 17060              		.loc 4 127 0
 17061 0066 94F84930 		ldrb	r3, [r4, #73]	@ zero_extendqisi2
 130:./subsystems/imu/imu_aspirin2.h ****   Mx = (int16_t) ((imu_aspirin2.imu_rx_buf[0+MPU_OFFSET_MAG] << 8) | imu_aspirin2.imu_rx_buf[1+MPU_
 17062              		.loc 4 130 0
 17063 006a 94F852B0 		ldrb	fp, [r4, #82]	@ zero_extendqisi2
 127:./subsystems/imu/imu_aspirin2.h ****   z = (int16_t) ((imu_aspirin2.imu_rx_buf[4+MPU_OFFSET_ACC] << 8) | imu_aspirin2.imu_rx_buf[5+MPU_O
 17064              		.loc 4 127 0
 17065 006e 43EA0E23 		orr	r3, r3, lr, lsl #8
 130:./subsystems/imu/imu_aspirin2.h ****   Mx = (int16_t) ((imu_aspirin2.imu_rx_buf[0+MPU_OFFSET_MAG] << 8) | imu_aspirin2.imu_rx_buf[1+MPU_
 17066              		.loc 4 130 0
 17067 0072 94F853A0 		ldrb	sl, [r4, #83]	@ zero_extendqisi2
 131:./subsystems/imu/imu_aspirin2.h ****   My = (int16_t) ((imu_aspirin2.imu_rx_buf[2+MPU_OFFSET_MAG] << 8) | imu_aspirin2.imu_rx_buf[3+MPU_
 17068              		.loc 4 131 0
 17069 0076 94F854E0 		ldrb	lr, [r4, #84]	@ zero_extendqisi2
 130:./subsystems/imu/imu_aspirin2.h ****   Mx = (int16_t) ((imu_aspirin2.imu_rx_buf[0+MPU_OFFSET_MAG] << 8) | imu_aspirin2.imu_rx_buf[1+MPU_
 17070              		.loc 4 130 0
 17071 007a 4AEA0B2A 		orr	sl, sl, fp, lsl #8
 131:./subsystems/imu/imu_aspirin2.h ****   My = (int16_t) ((imu_aspirin2.imu_rx_buf[2+MPU_OFFSET_MAG] << 8) | imu_aspirin2.imu_rx_buf[3+MPU_
 17072              		.loc 4 131 0
 17073 007e CDF800E0 		str	lr, [sp, #0]
 17074 0082 94F855E0 		ldrb	lr, [r4, #85]	@ zero_extendqisi2
 130:./subsystems/imu/imu_aspirin2.h ****   Mx = (int16_t) ((imu_aspirin2.imu_rx_buf[0+MPU_OFFSET_MAG] << 8) | imu_aspirin2.imu_rx_buf[1+MPU_
 17075              		.loc 4 130 0
 17076 0086 0FFA8AFA 		sxth	sl, sl
 131:./subsystems/imu/imu_aspirin2.h ****   My = (int16_t) ((imu_aspirin2.imu_rx_buf[2+MPU_OFFSET_MAG] << 8) | imu_aspirin2.imu_rx_buf[3+MPU_
 17077              		.loc 4 131 0
 17078 008a CDF804E0 		str	lr, [sp, #4]
 132:./subsystems/imu/imu_aspirin2.h ****   Mz = (int16_t) ((imu_aspirin2.imu_rx_buf[4+MPU_OFFSET_MAG] << 8) | imu_aspirin2.imu_rx_buf[5+MPU_
 17079              		.loc 4 132 0
 17080 008e 94F856E0 		ldrb	lr, [r4, #86]	@ zero_extendqisi2
 17081 0092 94F85740 		ldrb	r4, [r4, #87]	@ zero_extendqisi2
 17082 0096 CDF808E0 		str	lr, [sp, #8]
 17083 009a 0394     		str	r4, [sp, #12]
 139:./subsystems/imu/imu_aspirin2.h ****   RATES_ASSIGN(imu.gyro_unscaled, q, -p, -r);
 17084              		.loc 4 139 0
 17085 009c 8D4C     		ldr	r4, .L449+4
 141:./subsystems/imu/imu_aspirin2.h ****   VECT3_ASSIGN(imu.mag_unscaled, -Mx, -Mz, -My);
 17086              		.loc 4 141 0
 17087 009e CAF1000A 		rsb	sl, sl, #0
 132:./subsystems/imu/imu_aspirin2.h ****   Mz = (int16_t) ((imu_aspirin2.imu_rx_buf[4+MPU_OFFSET_MAG] << 8) | imu_aspirin2.imu_rx_buf[5+MPU_
 17088              		.loc 4 132 0
 17089 00a2 DDF808B0 		ldr	fp, [sp, #8]
 141:./subsystems/imu/imu_aspirin2.h ****   VECT3_ASSIGN(imu.mag_unscaled, -Mx, -Mz, -My);
 17090              		.loc 4 141 0
 17091 00a6 C4F878A0 		str	sl, [r4, #120]
 132:./subsystems/imu/imu_aspirin2.h ****   Mz = (int16_t) ((imu_aspirin2.imu_rx_buf[4+MPU_OFFSET_MAG] << 8) | imu_aspirin2.imu_rx_buf[5+MPU_
 17092              		.loc 4 132 0
 17093 00aa DDF80CA0 		ldr	sl, [sp, #12]
 120:./subsystems/imu/imu_aspirin2.h ****   p = (int16_t) ((imu_aspirin2.imu_rx_buf[0+MPU_OFFSET_GYRO] << 8) | imu_aspirin2.imu_rx_buf[1+MPU_
 17094              		.loc 4 120 0
 17095 00ae 3FB2     		sxth	r7, r7
 17096              	.LVL2653:
 132:./subsystems/imu/imu_aspirin2.h ****   Mz = (int16_t) ((imu_aspirin2.imu_rx_buf[4+MPU_OFFSET_MAG] << 8) | imu_aspirin2.imu_rx_buf[5+MPU_
 17097              		.loc 4 132 0
 17098 00b0 4AEA0B2A 		orr	sl, sl, fp, lsl #8
 17099 00b4 CDF808A0 		str	sl, [sp, #8]
 17100 00b8 0FFA8AFA 		sxth	sl, sl
 141:./subsystems/imu/imu_aspirin2.h ****   VECT3_ASSIGN(imu.mag_unscaled, -Mx, -Mz, -My);
 17101              		.loc 4 141 0
 17102 00bc CAF1000A 		rsb	sl, sl, #0
 17103 00c0 C4F87CA0 		str	sl, [r4, #124]
 131:./subsystems/imu/imu_aspirin2.h ****   My = (int16_t) ((imu_aspirin2.imu_rx_buf[2+MPU_OFFSET_MAG] << 8) | imu_aspirin2.imu_rx_buf[3+MPU_
 17104              		.loc 4 131 0
 17105 00c4 DDF800B0 		ldr	fp, [sp, #0]
 17106 00c8 DDF804A0 		ldr	sl, [sp, #4]
 122:./subsystems/imu/imu_aspirin2.h ****   r = (int16_t) ((imu_aspirin2.imu_rx_buf[4+MPU_OFFSET_GYRO] << 8) | imu_aspirin2.imu_rx_buf[5+MPU_
 17107              		.loc 4 122 0
 17108 00cc 36B2     		sxth	r6, r6
 125:./subsystems/imu/imu_aspirin2.h ****   x = (int16_t) ((imu_aspirin2.imu_rx_buf[0+MPU_OFFSET_ACC] << 8) | imu_aspirin2.imu_rx_buf[1+MPU_O
 17109              		.loc 4 125 0
 17110 00ce 09B2     		sxth	r1, r1
 126:./subsystems/imu/imu_aspirin2.h ****   y = (int16_t) ((imu_aspirin2.imu_rx_buf[2+MPU_OFFSET_ACC] << 8) | imu_aspirin2.imu_rx_buf[3+MPU_O
 17111              		.loc 4 126 0
 17112 00d0 00B2     		sxth	r0, r0
 131:./subsystems/imu/imu_aspirin2.h ****   My = (int16_t) ((imu_aspirin2.imu_rx_buf[2+MPU_OFFSET_MAG] << 8) | imu_aspirin2.imu_rx_buf[3+MPU_
 17113              		.loc 4 131 0
 17114 00d2 4AEA0B2A 		orr	sl, sl, fp, lsl #8
 121:./subsystems/imu/imu_aspirin2.h ****   q = (int16_t) ((imu_aspirin2.imu_rx_buf[2+MPU_OFFSET_GYRO] << 8) | imu_aspirin2.imu_rx_buf[3+MPU_
 17115              		.loc 4 121 0
 17116 00d6 12B2     		sxth	r2, r2
 17117              	.LVL2654:
 127:./subsystems/imu/imu_aspirin2.h ****   z = (int16_t) ((imu_aspirin2.imu_rx_buf[4+MPU_OFFSET_ACC] << 8) | imu_aspirin2.imu_rx_buf[5+MPU_O
 17118              		.loc 4 127 0
 17119 00d8 1BB2     		sxth	r3, r3
 17120              	.LVL2655:
 139:./subsystems/imu/imu_aspirin2.h ****   RATES_ASSIGN(imu.gyro_unscaled, q, -p, -r);
 17121              		.loc 4 139 0
 17122 00da C7F10009 		rsb	r9, r7, #0
 17123 00de C6F10008 		rsb	r8, r6, #0
 140:./subsystems/imu/imu_aspirin2.h ****   VECT3_ASSIGN(imu.accel_unscaled, -y, -x, z);
 17124              		.loc 4 140 0
 17125 00e2 C0F1000C 		rsb	ip, r0, #0
 17126 00e6 C1F1000E 		rsb	lr, r1, #0
 139:./subsystems/imu/imu_aspirin2.h ****   RATES_ASSIGN(imu.gyro_unscaled, q, -p, -r);
 17127              		.loc 4 139 0
 17128 00ea 2266     		str	r2, [r4, #96]
 17129 00ec C4F86490 		str	r9, [r4, #100]
 17130 00f0 C4F86880 		str	r8, [r4, #104]
 140:./subsystems/imu/imu_aspirin2.h ****   VECT3_ASSIGN(imu.accel_unscaled, -y, -x, z);
 17131              		.loc 4 140 0
 17132 00f4 C4F86CC0 		str	ip, [r4, #108]
 17133 00f8 C4F870E0 		str	lr, [r4, #112]
 17134 00fc 6367     		str	r3, [r4, #116]
 131:./subsystems/imu/imu_aspirin2.h ****   My = (int16_t) ((imu_aspirin2.imu_rx_buf[2+MPU_OFFSET_MAG] << 8) | imu_aspirin2.imu_rx_buf[3+MPU_
 17135              		.loc 4 131 0
 17136 00fe CDF800A0 		str	sl, [sp, #0]
 17137 0102 0FFA8AFA 		sxth	sl, sl
 141:./subsystems/imu/imu_aspirin2.h ****   VECT3_ASSIGN(imu.mag_unscaled, -Mx, -Mz, -My);
 17138              		.loc 4 141 0
 17139 0106 CAF1000A 		rsb	sl, sl, #0
 17140 010a C4F880A0 		str	sl, [r4, #128]
 17141              	.LBE1159:
 17142              	.LBE1158:
 17143              	.LBB1160:
 17144              	.LBB1161:
 607:firmwares/fixedwing/main_ap.c **** 
 608:firmwares/fixedwing/main_ap.c **** #ifndef SINGLE_MCU
 609:firmwares/fixedwing/main_ap.c **** #if defined USE_I2C0  || defined USE_I2C1  || defined USE_I2C2
 610:firmwares/fixedwing/main_ap.c ****   i2c_event();
 611:firmwares/fixedwing/main_ap.c **** #endif
 612:firmwares/fixedwing/main_ap.c **** #endif
 613:firmwares/fixedwing/main_ap.c **** 
 614:firmwares/fixedwing/main_ap.c **** #if USE_AHRS
 615:firmwares/fixedwing/main_ap.c **** #if USE_IMU
 616:firmwares/fixedwing/main_ap.c ****   ImuEvent(on_gyro_event, on_accel_event, on_mag_event);
 617:firmwares/fixedwing/main_ap.c **** #else
 618:firmwares/fixedwing/main_ap.c ****   AhrsEvent(on_ahrs_event);
 619:firmwares/fixedwing/main_ap.c **** #endif // USE_IMU
 620:firmwares/fixedwing/main_ap.c **** #endif // USE_AHRS
 621:firmwares/fixedwing/main_ap.c **** 
 622:firmwares/fixedwing/main_ap.c **** #if USE_GPS
 623:firmwares/fixedwing/main_ap.c ****   GpsEvent(on_gps_solution);
 624:firmwares/fixedwing/main_ap.c **** #endif /** USE_GPS */
 625:firmwares/fixedwing/main_ap.c **** 
 626:firmwares/fixedwing/main_ap.c **** 
 627:firmwares/fixedwing/main_ap.c ****   DatalinkEvent();
 628:firmwares/fixedwing/main_ap.c **** 
 629:firmwares/fixedwing/main_ap.c **** 
 630:firmwares/fixedwing/main_ap.c **** #ifdef MCU_SPI_LINK
 631:firmwares/fixedwing/main_ap.c ****   link_mcu_event_task();
 632:firmwares/fixedwing/main_ap.c **** #endif
 633:firmwares/fixedwing/main_ap.c **** 
 634:firmwares/fixedwing/main_ap.c ****   if (inter_mcu_received_fbw) {
 635:firmwares/fixedwing/main_ap.c ****     /* receive radio control task from fbw */
 636:firmwares/fixedwing/main_ap.c ****     inter_mcu_received_fbw = FALSE;
 637:firmwares/fixedwing/main_ap.c ****     telecommand_task();
 638:firmwares/fixedwing/main_ap.c ****   }
 639:firmwares/fixedwing/main_ap.c **** 
 640:firmwares/fixedwing/main_ap.c ****   modules_event_task();
 641:firmwares/fixedwing/main_ap.c **** 
 642:firmwares/fixedwing/main_ap.c **** #ifdef AHRS_TRIGGERED_ATTITUDE_LOOP
 643:firmwares/fixedwing/main_ap.c ****   if (new_ins_attitude > 0)
 644:firmwares/fixedwing/main_ap.c ****   {
 645:firmwares/fixedwing/main_ap.c ****     attitude_loop();
 646:firmwares/fixedwing/main_ap.c ****     //LED_TOGGLE(3);
 647:firmwares/fixedwing/main_ap.c ****     new_ins_attitude = 0;
 648:firmwares/fixedwing/main_ap.c ****   }
 649:firmwares/fixedwing/main_ap.c **** #endif
 650:firmwares/fixedwing/main_ap.c **** 
 651:firmwares/fixedwing/main_ap.c **** } /* event_task_ap() */
 652:firmwares/fixedwing/main_ap.c **** 
 653:firmwares/fixedwing/main_ap.c **** 
 654:firmwares/fixedwing/main_ap.c **** #if USE_GPS
 655:firmwares/fixedwing/main_ap.c **** static inline void on_gps_solution( void ) {
 656:firmwares/fixedwing/main_ap.c ****   estimator_update_state_gps();
 657:firmwares/fixedwing/main_ap.c ****   ahrs_update_gps();
 658:firmwares/fixedwing/main_ap.c **** #ifdef GPS_TRIGGERED_FUNCTION
 659:firmwares/fixedwing/main_ap.c ****   GPS_TRIGGERED_FUNCTION();
 660:firmwares/fixedwing/main_ap.c **** #endif
 661:firmwares/fixedwing/main_ap.c **** }
 662:firmwares/fixedwing/main_ap.c **** #endif
 663:firmwares/fixedwing/main_ap.c **** 
 664:firmwares/fixedwing/main_ap.c **** 
 665:firmwares/fixedwing/main_ap.c **** #if USE_AHRS
 666:firmwares/fixedwing/main_ap.c **** #if USE_IMU
 667:firmwares/fixedwing/main_ap.c **** static inline void on_accel_event( void ) {
 668:firmwares/fixedwing/main_ap.c **** }
 669:firmwares/fixedwing/main_ap.c **** 
 670:firmwares/fixedwing/main_ap.c **** static inline void on_gyro_event( void ) {
 671:firmwares/fixedwing/main_ap.c **** 
 672:firmwares/fixedwing/main_ap.c ****   ahrs_timeout_counter = 0;
 17145              		.loc 1 672 0
 17146 010e DFF8E0A1 		ldr	sl, .L449+32
 17147 0112 8AF80050 		strb	r5, [sl, #0]
 673:firmwares/fixedwing/main_ap.c **** 
 674:firmwares/fixedwing/main_ap.c **** #ifdef AHRS_CPU_LED
 675:firmwares/fixedwing/main_ap.c ****   LED_ON(AHRS_CPU_LED);
 676:firmwares/fixedwing/main_ap.c **** #endif
 677:firmwares/fixedwing/main_ap.c **** 
 678:firmwares/fixedwing/main_ap.c **** #if USE_AHRS_ALIGNER
 679:firmwares/fixedwing/main_ap.c ****   // Run aligner on raw data as it also makes averages.
 680:firmwares/fixedwing/main_ap.c ****   if (ahrs.status == AHRS_UNINIT) {
 17148              		.loc 1 680 0
 17149 0116 DFF8DCA1 		ldr	sl, .L449+36
 17150 011a 9AF898A0 		ldrb	sl, [sl, #152]	@ zero_extendqisi2
 17151 011e BAF1000F 		cmp	sl, #0
 17152 0122 45D1     		bne	.L397
 681:firmwares/fixedwing/main_ap.c ****     ImuScaleGyro(imu);
 17153              		.loc 1 681 0
 17154 0124 2168     		ldr	r1, [r4, #0]
 17155              	.LVL2656:
 17156 0126 41F20710 		movw	r0, #4359
 17157              	.LVL2657:
 17158 012a 6162     		str	r1, [r4, #36]
 17159 012c 6168     		ldr	r1, [r4, #4]
 17160 012e A162     		str	r1, [r4, #40]
 17161 0130 A168     		ldr	r1, [r4, #8]
 17162 0132 E162     		str	r1, [r4, #44]
 17163 0134 E16B     		ldr	r1, [r4, #60]
 17164 0136 521A     		subs	r2, r2, r1
 17165              	.LVL2658:
 17166 0138 4243     		muls	r2, r0, r2
 17167 013a 4FF47A71 		mov	r1, #1000
 17168 013e 92FBF1F2 		sdiv	r2, r2, r1
 17169 0142 2260     		str	r2, [r4, #0]
 17170 0144 226C     		ldr	r2, [r4, #64]
 17171 0146 C2EB0902 		rsb	r2, r2, r9
 17172 014a 4243     		muls	r2, r0, r2
 17173 014c 92FBF1F2 		sdiv	r2, r2, r1
 17174 0150 6260     		str	r2, [r4, #4]
 17175 0152 626C     		ldr	r2, [r4, #68]
 17176 0154 C2EB0808 		rsb	r8, r2, r8
 17177 0158 00FB08F0 		mul	r0, r0, r8
 682:firmwares/fixedwing/main_ap.c ****     ImuScaleAccel(imu);
 17178              		.loc 1 682 0
 17179 015c E268     		ldr	r2, [r4, #12]
 681:firmwares/fixedwing/main_ap.c ****     ImuScaleGyro(imu);
 17180              		.loc 1 681 0
 17181 015e 90FBF1F0 		sdiv	r0, r0, r1
 17182              		.loc 1 682 0
 17183 0162 2263     		str	r2, [r4, #48]
 17184 0164 2269     		ldr	r2, [r4, #16]
 681:firmwares/fixedwing/main_ap.c ****     ImuScaleGyro(imu);
 17185              		.loc 1 681 0
 17186 0166 A060     		str	r0, [r4, #8]
 17187              		.loc 1 682 0
 17188 0168 6263     		str	r2, [r4, #52]
 17189 016a A06C     		ldr	r0, [r4, #72]
 17190 016c 6269     		ldr	r2, [r4, #20]
 17191 016e C0EB0C00 		rsb	r0, r0, ip
 17192 0172 A263     		str	r2, [r4, #56]
 17193 0174 41F22932 		movw	r2, #4905
 17194 0178 5043     		muls	r0, r2, r0
 17195 017a 90FBF1F0 		sdiv	r0, r0, r1
 17196 017e E060     		str	r0, [r4, #12]
 17197 0180 E06C     		ldr	r0, [r4, #76]
 17198 0182 C0EB0E00 		rsb	r0, r0, lr
 17199 0186 5043     		muls	r0, r2, r0
 17200 0188 90FBF1F0 		sdiv	r0, r0, r1
 17201 018c 2061     		str	r0, [r4, #16]
 17202 018e 206D     		ldr	r0, [r4, #80]
 17203 0190 1B1A     		subs	r3, r3, r0
 17204              	.LVL2659:
 17205 0192 5A43     		muls	r2, r3, r2
 17206 0194 92FBF1F1 		sdiv	r1, r2, r1
 17207 0198 6161     		str	r1, [r4, #20]
 683:firmwares/fixedwing/main_ap.c ****     ahrs_aligner_run();
 17208              		.loc 1 683 0
 17209 019a FFF7FEFF 		bl	ahrs_aligner_run
 17210              	.LVL2660:
 684:firmwares/fixedwing/main_ap.c ****     if (ahrs_aligner.status == AHRS_ALIGNER_LOCKED)
 17211              		.loc 1 684 0
 17212 019e 4E4B     		ldr	r3, .L449+8
 17213 01a0 93F82C30 		ldrb	r3, [r3, #44]	@ zero_extendqisi2
 17214 01a4 022B     		cmp	r3, #2
 17215 01a6 40F08280 		bne	.L396
 685:firmwares/fixedwing/main_ap.c ****       ahrs_align();
 17216              		.loc 1 685 0
 17217 01aa FFF7FEFF 		bl	ahrs_align
 17218 01ae 7EE0     		b	.L396
 17219              	.LVL2661:
 17220              	.L397:
 686:firmwares/fixedwing/main_ap.c ****     return;
 687:firmwares/fixedwing/main_ap.c ****   }
 688:firmwares/fixedwing/main_ap.c **** #endif
 689:firmwares/fixedwing/main_ap.c **** 
 690:firmwares/fixedwing/main_ap.c **** #if PERIODIC_FREQUENCY == 60
 691:firmwares/fixedwing/main_ap.c ****   ImuScaleGyro(imu);
 692:firmwares/fixedwing/main_ap.c ****   ImuScaleAccel(imu);
 693:firmwares/fixedwing/main_ap.c **** 
 694:firmwares/fixedwing/main_ap.c ****   ahrs_propagate();
 695:firmwares/fixedwing/main_ap.c ****   ahrs_update_accel();
 696:firmwares/fixedwing/main_ap.c ****   ahrs_update_fw_estimator();
 697:firmwares/fixedwing/main_ap.c **** 
 698:firmwares/fixedwing/main_ap.c **** #ifdef AHRS_TRIGGERED_ATTITUDE_LOOP
 699:firmwares/fixedwing/main_ap.c ****   new_ins_attitude = 1;
 700:firmwares/fixedwing/main_ap.c **** #endif
 701:firmwares/fixedwing/main_ap.c **** 
 702:firmwares/fixedwing/main_ap.c **** #else //PERIODIC_FREQUENCY
 703:firmwares/fixedwing/main_ap.c ****   static uint8_t _reduced_propagation_rate = 0;
 704:firmwares/fixedwing/main_ap.c ****   static uint8_t _reduced_correction_rate = 0;
 705:firmwares/fixedwing/main_ap.c ****   static struct Int32Vect3 acc_avg;
 706:firmwares/fixedwing/main_ap.c ****   static struct Int32Rates gyr_avg;
 707:firmwares/fixedwing/main_ap.c **** 
 708:firmwares/fixedwing/main_ap.c ****   RATES_ADD(gyr_avg, imu.gyro_unscaled);
 17221              		.loc 1 708 0
 17222 01b0 DFF844E1 		ldr	lr, .L449+40
 17223 01b4 DEF800C0 		ldr	ip, [lr, #0]
 17224 01b8 9444     		add	ip, r2, ip
 17225 01ba DEF80420 		ldr	r2, [lr, #4]
 17226              	.LVL2662:
 17227 01be CEF800C0 		str	ip, [lr, #0]
 17228 01c2 D21B     		subs	r2, r2, r7
 17229 01c4 DEF80870 		ldr	r7, [lr, #8]
 17230              	.LVL2663:
 17231 01c8 CEF80420 		str	r2, [lr, #4]
 17232 01cc BE1B     		subs	r6, r7, r6
 17233              	.LVL2664:
 709:firmwares/fixedwing/main_ap.c ****   VECT3_ADD(acc_avg, imu.accel_unscaled);
 17234              		.loc 1 709 0
 17235 01ce 434F     		ldr	r7, .L449+12
 708:firmwares/fixedwing/main_ap.c ****   RATES_ADD(gyr_avg, imu.gyro_unscaled);
 17236              		.loc 1 708 0
 17237 01d0 CEF80860 		str	r6, [lr, #8]
 17238              		.loc 1 709 0
 17239 01d4 D7F80080 		ldr	r8, [r7, #0]
 17240              	.LVL2665:
 17241 01d8 C0EB0800 		rsb	r0, r0, r8
 17242              	.LVL2666:
 17243 01dc 3860     		str	r0, [r7, #0]
 17244 01de 7868     		ldr	r0, [r7, #4]
 17245 01e0 411A     		subs	r1, r0, r1
 17246              	.LVL2667:
 17247 01e2 7960     		str	r1, [r7, #4]
 17248 01e4 B968     		ldr	r1, [r7, #8]
 17249 01e6 CB18     		adds	r3, r1, r3
 17250              	.LVL2668:
 17251 01e8 BB60     		str	r3, [r7, #8]
 710:firmwares/fixedwing/main_ap.c **** 
 711:firmwares/fixedwing/main_ap.c ****   _reduced_propagation_rate++;
 17252              		.loc 1 711 0
 17253 01ea 3D4B     		ldr	r3, .L449+16
 17254 01ec 1978     		ldrb	r1, [r3, #0]	@ zero_extendqisi2
 17255 01ee 0131     		adds	r1, r1, #1
 17256 01f0 C9B2     		uxtb	r1, r1
 17257 01f2 1970     		strb	r1, [r3, #0]
 712:firmwares/fixedwing/main_ap.c ****   if (_reduced_propagation_rate < (PERIODIC_FREQUENCY / AHRS_PROPAGATE_FREQUENCY))
 17258              		.loc 1 712 0
 17259 01f4 0029     		cmp	r1, #0
 17260 01f6 5AD0     		beq	.L396
 17261              	.LBB1162:
 17262              	.LBB1163:
 713:firmwares/fixedwing/main_ap.c ****   {
 714:firmwares/fixedwing/main_ap.c ****   }
 715:firmwares/fixedwing/main_ap.c ****   else
 716:firmwares/fixedwing/main_ap.c ****   {
 717:firmwares/fixedwing/main_ap.c ****     _reduced_propagation_rate = 0;
 17263              		.loc 1 717 0
 17264 01f8 1D70     		strb	r5, [r3, #0]
 718:firmwares/fixedwing/main_ap.c **** 
 719:firmwares/fixedwing/main_ap.c ****     RATES_SDIV(imu.gyro_unscaled, gyr_avg, (PERIODIC_FREQUENCY / AHRS_PROPAGATE_FREQUENCY) );
 720:firmwares/fixedwing/main_ap.c ****     INT_RATES_ZERO(gyr_avg);
 721:firmwares/fixedwing/main_ap.c **** 
 722:firmwares/fixedwing/main_ap.c ****     ImuScaleGyro(imu);
 17265              		.loc 1 722 0
 17266 01fa 2368     		ldr	r3, [r4, #0]
 17267 01fc E16B     		ldr	r1, [r4, #60]
 17268 01fe 6362     		str	r3, [r4, #36]
 17269 0200 6368     		ldr	r3, [r4, #4]
 17270 0202 C1EB0C01 		rsb	r1, r1, ip
 17271 0206 A362     		str	r3, [r4, #40]
 17272 0208 A368     		ldr	r3, [r4, #8]
 17273 020a 4FF47A78 		mov	r8, #1000
 17274 020e E362     		str	r3, [r4, #44]
 17275 0210 41F20713 		movw	r3, #4359
 17276 0214 5943     		muls	r1, r3, r1
 17277 0216 91FBF8F1 		sdiv	r1, r1, r8
 17278 021a 2160     		str	r1, [r4, #0]
 17279 021c 216C     		ldr	r1, [r4, #64]
 719:firmwares/fixedwing/main_ap.c ****     RATES_SDIV(imu.gyro_unscaled, gyr_avg, (PERIODIC_FREQUENCY / AHRS_PROPAGATE_FREQUENCY) );
 17280              		.loc 1 719 0
 17281 021e 6266     		str	r2, [r4, #100]
 17282              		.loc 1 722 0
 17283 0220 521A     		subs	r2, r2, r1
 17284 0222 5A43     		muls	r2, r3, r2
 17285 0224 92FBF8F2 		sdiv	r2, r2, r8
 17286 0228 6260     		str	r2, [r4, #4]
 17287 022a 626C     		ldr	r2, [r4, #68]
 719:firmwares/fixedwing/main_ap.c ****     RATES_SDIV(imu.gyro_unscaled, gyr_avg, (PERIODIC_FREQUENCY / AHRS_PROPAGATE_FREQUENCY) );
 17288              		.loc 1 719 0
 17289 022c A666     		str	r6, [r4, #104]
 17290              		.loc 1 722 0
 17291 022e B61A     		subs	r6, r6, r2
 17292 0230 7343     		muls	r3, r6, r3
 17293 0232 93FBF8F3 		sdiv	r3, r3, r8
 17294 0236 A360     		str	r3, [r4, #8]
 719:firmwares/fixedwing/main_ap.c ****     RATES_SDIV(imu.gyro_unscaled, gyr_avg, (PERIODIC_FREQUENCY / AHRS_PROPAGATE_FREQUENCY) );
 17295              		.loc 1 719 0
 17296 0238 C4F860C0 		str	ip, [r4, #96]
 720:firmwares/fixedwing/main_ap.c ****     INT_RATES_ZERO(gyr_avg);
 17297              		.loc 1 720 0
 17298 023c CEF80050 		str	r5, [lr, #0]
 17299 0240 CEF80450 		str	r5, [lr, #4]
 17300 0244 CEF80850 		str	r5, [lr, #8]
 723:firmwares/fixedwing/main_ap.c **** 
 724:firmwares/fixedwing/main_ap.c ****     ahrs_propagate();
 17301              		.loc 1 724 0
 17302 0248 FFF7FEFF 		bl	ahrs_propagate
 17303              	.LVL2669:
 725:firmwares/fixedwing/main_ap.c **** 
 726:firmwares/fixedwing/main_ap.c ****     _reduced_correction_rate++;
 17304              		.loc 1 726 0
 17305 024c 254B     		ldr	r3, .L449+20
 17306 024e 1A78     		ldrb	r2, [r3, #0]	@ zero_extendqisi2
 17307 0250 0132     		adds	r2, r2, #1
 17308 0252 D2B2     		uxtb	r2, r2
 17309 0254 1A70     		strb	r2, [r3, #0]
 727:firmwares/fixedwing/main_ap.c ****     if (_reduced_correction_rate >= (AHRS_PROPAGATE_FREQUENCY / AHRS_CORRECT_FREQUENCY))
 17310              		.loc 1 727 0
 17311 0256 2AB3     		cbz	r2, .L398
 728:firmwares/fixedwing/main_ap.c ****     {
 729:firmwares/fixedwing/main_ap.c ****       _reduced_correction_rate = 0;
 730:firmwares/fixedwing/main_ap.c ****       VECT3_SDIV(imu.accel_unscaled, acc_avg, (PERIODIC_FREQUENCY / AHRS_CORRECT_FREQUENCY) );
 731:firmwares/fixedwing/main_ap.c ****       INT_VECT3_ZERO(acc_avg);
 732:firmwares/fixedwing/main_ap.c ****       ImuScaleAccel(imu);
 17312              		.loc 1 732 0
 17313 0258 E068     		ldr	r0, [r4, #12]
 729:firmwares/fixedwing/main_ap.c ****       _reduced_correction_rate = 0;
 17314              		.loc 1 729 0
 17315 025a 1D70     		strb	r5, [r3, #0]
 17316              		.loc 1 732 0
 17317 025c 2063     		str	r0, [r4, #48]
 17318 025e 2069     		ldr	r0, [r4, #16]
 730:firmwares/fixedwing/main_ap.c ****       VECT3_SDIV(imu.accel_unscaled, acc_avg, (PERIODIC_FREQUENCY / AHRS_CORRECT_FREQUENCY) );
 17319              		.loc 1 730 0
 17320 0260 3B68     		ldr	r3, [r7, #0]
 17321              		.loc 1 732 0
 17322 0262 6063     		str	r0, [r4, #52]
 17323 0264 6069     		ldr	r0, [r4, #20]
 730:firmwares/fixedwing/main_ap.c ****       VECT3_SDIV(imu.accel_unscaled, acc_avg, (PERIODIC_FREQUENCY / AHRS_CORRECT_FREQUENCY) );
 17324              		.loc 1 730 0
 17325 0266 E366     		str	r3, [r4, #108]
 17326              		.loc 1 732 0
 17327 0268 A063     		str	r0, [r4, #56]
 17328 026a A06C     		ldr	r0, [r4, #72]
 730:firmwares/fixedwing/main_ap.c ****       VECT3_SDIV(imu.accel_unscaled, acc_avg, (PERIODIC_FREQUENCY / AHRS_CORRECT_FREQUENCY) );
 17329              		.loc 1 730 0
 17330 026c 7968     		ldr	r1, [r7, #4]
 17331              		.loc 1 732 0
 17332 026e 181A     		subs	r0, r3, r0
 17333 0270 41F22933 		movw	r3, #4905
 17334 0274 5843     		muls	r0, r3, r0
 17335 0276 90FBF8F0 		sdiv	r0, r0, r8
 17336 027a E060     		str	r0, [r4, #12]
 17337 027c E06C     		ldr	r0, [r4, #76]
 730:firmwares/fixedwing/main_ap.c ****       VECT3_SDIV(imu.accel_unscaled, acc_avg, (PERIODIC_FREQUENCY / AHRS_CORRECT_FREQUENCY) );
 17338              		.loc 1 730 0
 17339 027e 2167     		str	r1, [r4, #112]
 17340              		.loc 1 732 0
 17341 0280 091A     		subs	r1, r1, r0
 17342 0282 5943     		muls	r1, r3, r1
 17343 0284 91FBF8F1 		sdiv	r1, r1, r8
 730:firmwares/fixedwing/main_ap.c ****       VECT3_SDIV(imu.accel_unscaled, acc_avg, (PERIODIC_FREQUENCY / AHRS_CORRECT_FREQUENCY) );
 17344              		.loc 1 730 0
 17345 0288 BA68     		ldr	r2, [r7, #8]
 17346              		.loc 1 732 0
 17347 028a 2161     		str	r1, [r4, #16]
 17348 028c 216D     		ldr	r1, [r4, #80]
 730:firmwares/fixedwing/main_ap.c ****       VECT3_SDIV(imu.accel_unscaled, acc_avg, (PERIODIC_FREQUENCY / AHRS_CORRECT_FREQUENCY) );
 17349              		.loc 1 730 0
 17350 028e 6267     		str	r2, [r4, #116]
 17351              		.loc 1 732 0
 17352 0290 521A     		subs	r2, r2, r1
 17353 0292 5343     		muls	r3, r2, r3
 17354 0294 93FBF8F3 		sdiv	r3, r3, r8
 731:firmwares/fixedwing/main_ap.c ****       INT_VECT3_ZERO(acc_avg);
 17355              		.loc 1 731 0
 17356 0298 3D60     		str	r5, [r7, #0]
 17357 029a 7D60     		str	r5, [r7, #4]
 17358 029c BD60     		str	r5, [r7, #8]
 17359              		.loc 1 732 0
 17360 029e 6361     		str	r3, [r4, #20]
 733:firmwares/fixedwing/main_ap.c ****       ahrs_update_accel();
 17361              		.loc 1 733 0
 17362 02a0 FFF7FEFF 		bl	ahrs_update_accel
 17363              	.L398:
 734:firmwares/fixedwing/main_ap.c ****     }
 735:firmwares/fixedwing/main_ap.c **** 
 736:firmwares/fixedwing/main_ap.c ****     ahrs_update_fw_estimator();
 17364              		.loc 1 736 0
 17365 02a4 FFF7FEFF 		bl	ahrs_update_fw_estimator
 737:firmwares/fixedwing/main_ap.c **** 
 738:firmwares/fixedwing/main_ap.c **** #ifdef AHRS_TRIGGERED_ATTITUDE_LOOP
 739:firmwares/fixedwing/main_ap.c ****     new_ins_attitude = 1;
 17366              		.loc 1 739 0
 17367 02a8 0F4B     		ldr	r3, .L449+24
 17368 02aa 0122     		movs	r2, #1
 17369 02ac 1A70     		strb	r2, [r3, #0]
 17370              	.LVL2670:
 17371              	.L396:
 17372              	.LBE1163:
 17373              	.LBE1162:
 17374              	.LBE1161:
 17375              	.LBE1160:
 17376              	.LBE1164:
 17377              	.LBE1165:
 623:firmwares/fixedwing/main_ap.c ****   GpsEvent(on_gps_solution);
 17378              		.loc 1 623 0
 17379 02ae 0F4C     		ldr	r4, .L449+28
 17380 02b0 B4F88020 		ldrh	r2, [r4, #128]
 17381 02b4 B4F88230 		ldrh	r3, [r4, #130]
 17382 02b8 9A42     		cmp	r2, r3
 17383 02ba 1FD1     		bne	.L399
 17384 02bc 28E0     		b	.L400
 17385              	.L401:
 17386              	.LBB1166:
 623:firmwares/fixedwing/main_ap.c ****   GpsEvent(on_gps_solution);
 17387              		.loc 1 623 0 is_stmt 0 discriminator 3
 17388 02be E05C     		ldrb	r0, [r4, r3]	@ zero_extendqisi2
 17389              	.LVL2671:
 17390 02c0 0133     		adds	r3, r3, #1
 17391 02c2 03F07F03 		and	r3, r3, #127
 17392 02c6 A4F88230 		strh	r3, [r4, #130]	@ movhi
 17393              	.LBE1166:
 17394 02ca FFF7FEFF 		bl	gps_ubx_parse
 17395              	.LVL2672:
 17396 02ce 16E0     		b	.L448
 17397              	.L450:
 17398              		.align	2
 17399              	.L449:
 17400 02d0 00000000 		.word	imu_aspirin2
 17401 02d4 00000000 		.word	imu
 17402 02d8 00000000 		.word	ahrs_aligner
 17403 02dc 00000000 		.word	.LANCHOR74
 17404 02e0 00000000 		.word	.LANCHOR75
 17405 02e4 00000000 		.word	.LANCHOR76
 17406 02e8 00000000 		.word	.LANCHOR77
 17407 02ec 00000000 		.word	uart3
 17408 02f0 00000000 		.word	.LANCHOR34
 17409 02f4 00000000 		.word	ahrs
 17410 02f8 00000000 		.word	.LANCHOR73
 17411              	.L399:
 623:firmwares/fixedwing/main_ap.c ****   GpsEvent(on_gps_solution);
 17412              		.loc 1 623 0 discriminator 1
 17413 02fc 8F4D     		ldr	r5, .L451
 17414              	.L448:
 17415 02fe B4F88230 		ldrh	r3, [r4, #130]
 17416 0302 B4F88020 		ldrh	r2, [r4, #128]
 17417 0306 9A42     		cmp	r2, r3
 17418 0308 02D0     		beq	.L400
 623:firmwares/fixedwing/main_ap.c ****   GpsEvent(on_gps_solution);
 17419              		.loc 1 623 0 discriminator 2
 17420 030a 2A78     		ldrb	r2, [r5, #0]	@ zero_extendqisi2
 17421 030c 002A     		cmp	r2, #0
 17422 030e D6D0     		beq	.L401
 17423              	.L400:
 17424 0310 8A4C     		ldr	r4, .L451
 17425 0312 2378     		ldrb	r3, [r4, #0]	@ zero_extendqisi2
 17426 0314 13B3     		cbz	r3, .L402
 623:firmwares/fixedwing/main_ap.c ****   GpsEvent(on_gps_solution);
 17427              		.loc 1 623 0 discriminator 4
 17428 0316 FFF7FEFF 		bl	gps_ubx_read_message
 17429 031a FFF7FEFF 		bl	gps_ubx_ucenter_event
 17430 031e 94F80831 		ldrb	r3, [r4, #264]	@ zero_extendqisi2
 17431 0322 012B     		cmp	r3, #1
 17432 0324 18D1     		bne	.L403
 623:firmwares/fixedwing/main_ap.c ****   GpsEvent(on_gps_solution);
 17433              		.loc 1 623 0 discriminator 5
 17434 0326 94F80731 		ldrb	r3, [r4, #263]	@ zero_extendqisi2
 17435 032a 122B     		cmp	r3, #18
 17436 032c 04D0     		beq	.L404
 623:firmwares/fixedwing/main_ap.c ****   GpsEvent(on_gps_solution);
 17437              		.loc 1 623 0 discriminator 8
 17438 032e 062B     		cmp	r3, #6
 17439 0330 12D1     		bne	.L403
 623:firmwares/fixedwing/main_ap.c ****   GpsEvent(on_gps_solution);
 17440              		.loc 1 623 0 discriminator 9
 17441 0332 94F81531 		ldrb	r3, [r4, #277]	@ zero_extendqisi2
 17442 0336 7BB9     		cbnz	r3, .L403
 17443              	.L404:
 623:firmwares/fixedwing/main_ap.c ****   GpsEvent(on_gps_solution);
 17444              		.loc 1 623 0 discriminator 7
 17445 0338 814B     		ldr	r3, .L451+4
 17446 033a 93F85B20 		ldrb	r2, [r3, #91]	@ zero_extendqisi2
 17447 033e 032A     		cmp	r2, #3
 17448 0340 06D1     		bne	.L405
 623:firmwares/fixedwing/main_ap.c ****   GpsEvent(on_gps_solution);
 17449              		.loc 1 623 0 discriminator 10
 17450 0342 804A     		ldr	r2, .L451+8
 17451 0344 5168     		ldr	r1, [r2, #4]
 17452 0346 1268     		ldr	r2, [r2, #0]
 17453 0348 C3F8E810 		str	r1, [r3, #232]
 17454 034c C3F8EC20 		str	r2, [r3, #236]
 17455              	.L405:
 17456              	.LBB1167:
 17457              	.LBB1168:
 656:firmwares/fixedwing/main_ap.c ****   estimator_update_state_gps();
 17458              		.loc 1 656 0 is_stmt 1 discriminator 11
 17459 0350 FFF7FEFF 		bl	estimator_update_state_gps
 657:firmwares/fixedwing/main_ap.c ****   ahrs_update_gps();
 17460              		.loc 1 657 0 discriminator 11
 17461 0354 FFF7FEFF 		bl	ahrs_update_gps
 17462              	.L403:
 17463              	.LBE1168:
 17464              	.LBE1167:
 623:firmwares/fixedwing/main_ap.c ****   GpsEvent(on_gps_solution);
 17465              		.loc 1 623 0 discriminator 6
 17466 0358 0023     		movs	r3, #0
 17467 035a 2370     		strb	r3, [r4, #0]
 17468              	.L402:
 627:firmwares/fixedwing/main_ap.c ****   DatalinkEvent();
 17469              		.loc 1 627 0
 17470 035c 7A4C     		ldr	r4, .L451+12
 17471 035e B4F880C0 		ldrh	ip, [r4, #128]
 17472 0362 B4F88260 		ldrh	r6, [r4, #130]
 17473 0366 B445     		cmp	ip, r6
 17474 0368 00F08C80 		beq	.L406
 17475              		.file 5 "./subsystems/datalink/pprz_transport.h"
   1:./subsystems/datalink/pprz_transport.h **** /*
   2:./subsystems/datalink/pprz_transport.h ****  * Paparazzi $Id$
   3:./subsystems/datalink/pprz_transport.h ****  *
   4:./subsystems/datalink/pprz_transport.h ****  * Copyright (C) 2003  Pascal Brisset, Antoine Drouin
   5:./subsystems/datalink/pprz_transport.h ****  *
   6:./subsystems/datalink/pprz_transport.h ****  * This file is part of paparazzi.
   7:./subsystems/datalink/pprz_transport.h ****  *
   8:./subsystems/datalink/pprz_transport.h ****  * paparazzi is free software; you can redistribute it and/or modify
   9:./subsystems/datalink/pprz_transport.h ****  * it under the terms of the GNU General Public License as published by
  10:./subsystems/datalink/pprz_transport.h ****  * the Free Software Foundation; either version 2, or (at your option)
  11:./subsystems/datalink/pprz_transport.h ****  * any later version.
  12:./subsystems/datalink/pprz_transport.h ****  *
  13:./subsystems/datalink/pprz_transport.h ****  * paparazzi is distributed in the hope that it will be useful,
  14:./subsystems/datalink/pprz_transport.h ****  * but WITHOUT ANY WARRANTY; without even the implied warranty of
  15:./subsystems/datalink/pprz_transport.h ****  * MERCHANTABILITY or FITNESS FOR A PARTICULAR PURPOSE.  See the
  16:./subsystems/datalink/pprz_transport.h ****  * GNU General Public License for more details.
  17:./subsystems/datalink/pprz_transport.h ****  *
  18:./subsystems/datalink/pprz_transport.h ****  * You should have received a copy of the GNU General Public License
  19:./subsystems/datalink/pprz_transport.h ****  * along with paparazzi; see the file COPYING.  If not, write to
  20:./subsystems/datalink/pprz_transport.h ****  * the Free Software Foundation, 59 Temple Place - Suite 330,
  21:./subsystems/datalink/pprz_transport.h ****  * Boston, MA 02111-1307, USA.
  22:./subsystems/datalink/pprz_transport.h ****  *
  23:./subsystems/datalink/pprz_transport.h ****  */
  24:./subsystems/datalink/pprz_transport.h **** 
  25:./subsystems/datalink/pprz_transport.h **** /** \file pprz_transport.h
  26:./subsystems/datalink/pprz_transport.h ****  *  \brief Building and parsing Paparazzi frames
  27:./subsystems/datalink/pprz_transport.h ****  *
  28:./subsystems/datalink/pprz_transport.h ****  *  Pprz frame:
  29:./subsystems/datalink/pprz_transport.h ****  *
  30:./subsystems/datalink/pprz_transport.h ****  *   |STX|length|... payload=(length-4) bytes ...|Checksum A|Checksum B|
  31:./subsystems/datalink/pprz_transport.h ****  *
  32:./subsystems/datalink/pprz_transport.h ****  *   where checksum is computed over length and payload:
  33:./subsystems/datalink/pprz_transport.h ****  *     ck_A = ck_B = length
  34:./subsystems/datalink/pprz_transport.h ****  *     for each byte b in payload
  35:./subsystems/datalink/pprz_transport.h ****  *       ck_A += b; ck_b += ck_A
  36:./subsystems/datalink/pprz_transport.h ****  */
  37:./subsystems/datalink/pprz_transport.h **** 
  38:./subsystems/datalink/pprz_transport.h **** #ifndef PPRZ_TRANSPORT_H
  39:./subsystems/datalink/pprz_transport.h **** #define PPRZ_TRANSPORT_H
  40:./subsystems/datalink/pprz_transport.h **** 
  41:./subsystems/datalink/pprz_transport.h **** #include <inttypes.h>
  42:./subsystems/datalink/pprz_transport.h **** #include "std.h"
  43:./subsystems/datalink/pprz_transport.h **** #include "subsystems/datalink/datalink.h"
  44:./subsystems/datalink/pprz_transport.h **** #include "subsystems/datalink/transport.h"
  45:./subsystems/datalink/pprz_transport.h **** 
  46:./subsystems/datalink/pprz_transport.h **** /* PPRZ Transport
  47:./subsystems/datalink/pprz_transport.h ****  * downlink macros
  48:./subsystems/datalink/pprz_transport.h ****  */
  49:./subsystems/datalink/pprz_transport.h **** extern uint8_t ck_a, ck_b;
  50:./subsystems/datalink/pprz_transport.h **** 
  51:./subsystems/datalink/pprz_transport.h **** #define STX  0x99
  52:./subsystems/datalink/pprz_transport.h **** 
  53:./subsystems/datalink/pprz_transport.h **** /** 4 = STX + len + ck_a + ck_b */
  54:./subsystems/datalink/pprz_transport.h **** #define PprzTransportSizeOf(_dev, _payload) (_payload+4)
  55:./subsystems/datalink/pprz_transport.h **** 
  56:./subsystems/datalink/pprz_transport.h **** #define PprzTransportCheckFreeSpace(_dev, _x) TransportLink(_dev, CheckFreeSpace(_x))
  57:./subsystems/datalink/pprz_transport.h **** #define PprzTransportPut1Byte(_dev, _x) TransportLink(_dev, Transmit(_x))
  58:./subsystems/datalink/pprz_transport.h **** #define PprzTransportSendMessage(_dev) TransportLink(_dev, SendMessage())
  59:./subsystems/datalink/pprz_transport.h **** 
  60:./subsystems/datalink/pprz_transport.h **** #define PprzTransportHeader(_dev, payload_len) { \
  61:./subsystems/datalink/pprz_transport.h ****   PprzTransportPut1Byte(_dev, STX);				\
  62:./subsystems/datalink/pprz_transport.h ****   uint8_t msg_len = PprzTransportSizeOf(_dev, payload_len);	\
  63:./subsystems/datalink/pprz_transport.h ****   PprzTransportPut1Byte(_dev, msg_len);			\
  64:./subsystems/datalink/pprz_transport.h ****   ck_a = msg_len; ck_b = msg_len;			\
  65:./subsystems/datalink/pprz_transport.h **** }
  66:./subsystems/datalink/pprz_transport.h **** 
  67:./subsystems/datalink/pprz_transport.h **** #define PprzTransportTrailer(_dev) { \
  68:./subsystems/datalink/pprz_transport.h ****   PprzTransportPut1Byte(_dev, ck_a);	\
  69:./subsystems/datalink/pprz_transport.h ****   PprzTransportPut1Byte(_dev, ck_b);	\
  70:./subsystems/datalink/pprz_transport.h ****   PprzTransportSendMessage(_dev) \
  71:./subsystems/datalink/pprz_transport.h **** }
  72:./subsystems/datalink/pprz_transport.h **** 
  73:./subsystems/datalink/pprz_transport.h **** #define PprzTransportPutUint8(_dev, _byte) { \
  74:./subsystems/datalink/pprz_transport.h ****     ck_a += _byte;			  \
  75:./subsystems/datalink/pprz_transport.h ****     ck_b += ck_a;			  \
  76:./subsystems/datalink/pprz_transport.h ****     PprzTransportPut1Byte(_dev, _byte);		  \
  77:./subsystems/datalink/pprz_transport.h ****  }
  78:./subsystems/datalink/pprz_transport.h **** 
  79:./subsystems/datalink/pprz_transport.h **** #define PprzTransportPutNamedUint8(_dev, _name, _byte) PprzTransportPutUint8(_dev, _byte)
  80:./subsystems/datalink/pprz_transport.h **** 
  81:./subsystems/datalink/pprz_transport.h **** #define PprzTransportPut1ByteByAddr(_dev, _byte) {	 \
  82:./subsystems/datalink/pprz_transport.h ****     uint8_t _x = *(_byte);		 \
  83:./subsystems/datalink/pprz_transport.h ****     PprzTransportPutUint8(_dev, _x);	 \
  84:./subsystems/datalink/pprz_transport.h ****   }
  85:./subsystems/datalink/pprz_transport.h **** 
  86:./subsystems/datalink/pprz_transport.h **** #define PprzTransportPut2ByteByAddr(_dev, _byte) { \
  87:./subsystems/datalink/pprz_transport.h ****     PprzTransportPut1ByteByAddr(_dev, _byte);	\
  88:./subsystems/datalink/pprz_transport.h ****     PprzTransportPut1ByteByAddr(_dev, (const uint8_t*)_byte+1);	\
  89:./subsystems/datalink/pprz_transport.h ****   }
  90:./subsystems/datalink/pprz_transport.h **** 
  91:./subsystems/datalink/pprz_transport.h **** #define PprzTransportPut4ByteByAddr(_dev, _byte) { \
  92:./subsystems/datalink/pprz_transport.h ****     PprzTransportPut2ByteByAddr(_dev, _byte);	\
  93:./subsystems/datalink/pprz_transport.h ****     PprzTransportPut2ByteByAddr(_dev, (const uint8_t*)_byte+2);	\
  94:./subsystems/datalink/pprz_transport.h ****   }
  95:./subsystems/datalink/pprz_transport.h **** 
  96:./subsystems/datalink/pprz_transport.h **** #ifdef __IEEE_BIG_ENDIAN /* From machine/ieeefp.h */
  97:./subsystems/datalink/pprz_transport.h **** #define PprzTransportPutDoubleByAddr(_dev, _byte) { \
  98:./subsystems/datalink/pprz_transport.h ****     PprzTransportPut4ByteByAddr(_dev, (const uint8_t*)_byte+4);	\
  99:./subsystems/datalink/pprz_transport.h ****     PprzTransportPut4ByteByAddr(_dev, (const uint8_t*)_byte);	\
 100:./subsystems/datalink/pprz_transport.h ****   }
 101:./subsystems/datalink/pprz_transport.h **** #else
 102:./subsystems/datalink/pprz_transport.h **** #define PprzTransportPutDoubleByAddr(_dev, _byte) { \
 103:./subsystems/datalink/pprz_transport.h ****     PprzTransportPut4ByteByAddr(_dev, (const uint8_t*)_byte);	\
 104:./subsystems/datalink/pprz_transport.h ****     PprzTransportPut4ByteByAddr(_dev, (const uint8_t*)_byte+4);	\
 105:./subsystems/datalink/pprz_transport.h ****   }
 106:./subsystems/datalink/pprz_transport.h **** #endif
 107:./subsystems/datalink/pprz_transport.h **** 
 108:./subsystems/datalink/pprz_transport.h **** 
 109:./subsystems/datalink/pprz_transport.h **** #define PprzTransportPutInt8ByAddr(_dev, _x) PprzTransportPut1ByteByAddr(_dev, _x)
 110:./subsystems/datalink/pprz_transport.h **** #define PprzTransportPutUint8ByAddr(_dev, _x) PprzTransportPut1ByteByAddr(_dev, (const uint8_t*)_x)
 111:./subsystems/datalink/pprz_transport.h **** #define PprzTransportPutInt16ByAddr(_dev, _x) PprzTransportPut2ByteByAddr(_dev, (const uint8_t*)_x)
 112:./subsystems/datalink/pprz_transport.h **** #define PprzTransportPutUint16ByAddr(_dev, _x) PprzTransportPut2ByteByAddr(_dev, (const uint8_t*)_x
 113:./subsystems/datalink/pprz_transport.h **** #define PprzTransportPutInt32ByAddr(_dev, _x) PprzTransportPut4ByteByAddr(_dev, (const uint8_t*)_x)
 114:./subsystems/datalink/pprz_transport.h **** #define PprzTransportPutUint32ByAddr(_dev, _x) PprzTransportPut4ByteByAddr(_dev, (const uint8_t*)_x
 115:./subsystems/datalink/pprz_transport.h **** #define PprzTransportPutFloatByAddr(_dev, _x) PprzTransportPut4ByteByAddr(_dev, (const uint8_t*)_x)
 116:./subsystems/datalink/pprz_transport.h **** 
 117:./subsystems/datalink/pprz_transport.h **** #define PprzTransportPutArray(_dev, _put, _n, _x) { \
 118:./subsystems/datalink/pprz_transport.h ****   uint8_t _i; \
 119:./subsystems/datalink/pprz_transport.h ****   PprzTransportPutUint8(_dev, _n); \
 120:./subsystems/datalink/pprz_transport.h ****   for(_i = 0; _i < _n; _i++) { \
 121:./subsystems/datalink/pprz_transport.h ****     _put(_dev, &_x[_i]); \
 122:./subsystems/datalink/pprz_transport.h ****   } \
 123:./subsystems/datalink/pprz_transport.h **** }
 124:./subsystems/datalink/pprz_transport.h **** 
 125:./subsystems/datalink/pprz_transport.h **** #define PprzTransportPutFloatArray(_dev, _n, _x) PprzTransportPutArray(_dev, PprzTransportPutFloatB
 126:./subsystems/datalink/pprz_transport.h **** #define PprzTransportPutDoubleArray(_dev, _n, _x) PprzTransportPutArray(_dev, PprzTransportPutDoubl
 127:./subsystems/datalink/pprz_transport.h **** 
 128:./subsystems/datalink/pprz_transport.h **** #define PprzTransportPutInt16Array(_dev, _n, _x) PprzTransportPutArray(_dev, PprzTransportPutInt16B
 129:./subsystems/datalink/pprz_transport.h **** #define PprzTransportPutUint16Array(_dev, _n, _x) PprzTransportPutArray(_dev, PprzTransportPutUint1
 130:./subsystems/datalink/pprz_transport.h **** 
 131:./subsystems/datalink/pprz_transport.h **** #define PprzTransportPutInt32Array(_dev, _n, _x) PprzTransportPutArray(_dev, PprzTransportPutInt32B
 132:./subsystems/datalink/pprz_transport.h **** #define PprzTransportPutUint32Array(_dev, _n, _x) PprzTransportPutArray(_dev, PprzTransportPutUint3
 133:./subsystems/datalink/pprz_transport.h **** 
 134:./subsystems/datalink/pprz_transport.h **** #define PprzTransportPutUint8Array(_dev, _n, _x) PprzTransportPutArray(_dev, PprzTransportPutUint8B
 135:./subsystems/datalink/pprz_transport.h **** 
 136:./subsystems/datalink/pprz_transport.h **** 
 137:./subsystems/datalink/pprz_transport.h **** /** Receiving pprz messages */
 138:./subsystems/datalink/pprz_transport.h **** 
 139:./subsystems/datalink/pprz_transport.h **** // PPRZ parsing state machine
 140:./subsystems/datalink/pprz_transport.h **** #define UNINIT      0
 141:./subsystems/datalink/pprz_transport.h **** #define GOT_STX     1
 142:./subsystems/datalink/pprz_transport.h **** #define GOT_LENGTH  2
 143:./subsystems/datalink/pprz_transport.h **** #define GOT_PAYLOAD 3
 144:./subsystems/datalink/pprz_transport.h **** #define GOT_CRC1    4
 145:./subsystems/datalink/pprz_transport.h **** 
 146:./subsystems/datalink/pprz_transport.h **** struct pprz_transport {
 147:./subsystems/datalink/pprz_transport.h ****   // generic interface
 148:./subsystems/datalink/pprz_transport.h ****   struct transport trans;
 149:./subsystems/datalink/pprz_transport.h ****   // specific pprz transport variables
 150:./subsystems/datalink/pprz_transport.h ****   uint8_t status;
 151:./subsystems/datalink/pprz_transport.h ****   uint8_t payload_idx;
 152:./subsystems/datalink/pprz_transport.h ****   uint8_t ck_a, ck_b;
 153:./subsystems/datalink/pprz_transport.h **** };
 154:./subsystems/datalink/pprz_transport.h **** 
 155:./subsystems/datalink/pprz_transport.h **** extern struct pprz_transport pprz_tp;
 156:./subsystems/datalink/pprz_transport.h **** 
 157:./subsystems/datalink/pprz_transport.h **** static inline void parse_pprz(struct pprz_transport * t, uint8_t c ) {
 158:./subsystems/datalink/pprz_transport.h ****   switch (t->status) {
 17476              		.loc 5 158 0
 17477 036c 7748     		ldr	r0, .L451+16
 17478 036e A246     		mov	sl, r4
 17479 0370 90F80431 		ldrb	r3, [r0, #260]	@ zero_extendqisi2
 159:./subsystems/datalink/pprz_transport.h ****   case UNINIT:
 160:./subsystems/datalink/pprz_transport.h ****     if (c == STX)
 161:./subsystems/datalink/pprz_transport.h ****       t->status++;
 162:./subsystems/datalink/pprz_transport.h ****     break;
 163:./subsystems/datalink/pprz_transport.h ****   case GOT_STX:
 164:./subsystems/datalink/pprz_transport.h ****     if (t->trans.msg_received) {
 165:./subsystems/datalink/pprz_transport.h ****       t->trans.ovrn++;
 17480              		.loc 5 165 0
 17481 0374 90F802E1 		ldrb	lr, [r0, #258]	@ zero_extendqisi2
 166:./subsystems/datalink/pprz_transport.h ****       goto error;
 167:./subsystems/datalink/pprz_transport.h ****     }
 168:./subsystems/datalink/pprz_transport.h ****     t->trans.payload_len = c-4; /* Counting STX, LENGTH and CRC1 and CRC2 */
 169:./subsystems/datalink/pprz_transport.h ****     t->ck_a = t->ck_b = c;
 17482              		.loc 5 169 0
 17483 0378 90F80751 		ldrb	r5, [r0, #263]	@ zero_extendqisi2
 17484 037c 90F80621 		ldrb	r2, [r0, #262]	@ zero_extendqisi2
 170:./subsystems/datalink/pprz_transport.h ****     t->status++;
 171:./subsystems/datalink/pprz_transport.h ****     t->payload_idx = 0;
 17485              		.loc 5 171 0
 17486 0380 90F80511 		ldrb	r1, [r0, #261]	@ zero_extendqisi2
 172:./subsystems/datalink/pprz_transport.h ****     break;
 173:./subsystems/datalink/pprz_transport.h ****   case GOT_LENGTH:
 174:./subsystems/datalink/pprz_transport.h ****     t->trans.payload[t->payload_idx] = c;
 175:./subsystems/datalink/pprz_transport.h ****     t->ck_a += c; t->ck_b += t->ck_a;
 176:./subsystems/datalink/pprz_transport.h ****     t->payload_idx++;
 177:./subsystems/datalink/pprz_transport.h ****     if (t->payload_idx == t->trans.payload_len)
 178:./subsystems/datalink/pprz_transport.h ****       t->status++;
 179:./subsystems/datalink/pprz_transport.h ****     break;
 180:./subsystems/datalink/pprz_transport.h ****   case GOT_PAYLOAD:
 181:./subsystems/datalink/pprz_transport.h ****     if (c != t->ck_a)
 182:./subsystems/datalink/pprz_transport.h ****       goto error;
 183:./subsystems/datalink/pprz_transport.h ****     t->status++;
 184:./subsystems/datalink/pprz_transport.h ****     break;
 185:./subsystems/datalink/pprz_transport.h ****   case GOT_CRC1:
 186:./subsystems/datalink/pprz_transport.h ****     if (c != t->ck_b)
 187:./subsystems/datalink/pprz_transport.h ****       goto error;
 188:./subsystems/datalink/pprz_transport.h ****     t->trans.msg_received = TRUE;
 189:./subsystems/datalink/pprz_transport.h ****     goto restart;
 190:./subsystems/datalink/pprz_transport.h ****   default:
 191:./subsystems/datalink/pprz_transport.h ****     goto error;
 192:./subsystems/datalink/pprz_transport.h ****   }
 193:./subsystems/datalink/pprz_transport.h ****   return;
 194:./subsystems/datalink/pprz_transport.h ****  error:
 195:./subsystems/datalink/pprz_transport.h ****   t->trans.error++;
 17487              		.loc 5 195 0
 17488 0384 90F80371 		ldrb	r7, [r0, #259]	@ zero_extendqisi2
 17489 0388 8046     		mov	r8, r0
 17490              	.LBB1169:
 17491              	.LBB1170:
 188:./subsystems/datalink/pprz_transport.h ****     t->trans.msg_received = TRUE;
 17492              		.loc 5 188 0
 17493 038a 4FF00109 		mov	r9, #1
 17494 038e 4DE0     		b	.L407
 17495              	.L419:
 17496              	.LBE1170:
 17497              	.LBE1169:
 17498              	.LBB1172:
 627:firmwares/fixedwing/main_ap.c ****   DatalinkEvent();
 17499              		.loc 1 627 0 discriminator 4
 17500 0390 1AF80640 		ldrb	r4, [sl, r6]	@ zero_extendqisi2
 17501              	.LVL2673:
 17502 0394 0136     		adds	r6, r6, #1
 17503 0396 06F07F06 		and	r6, r6, #127
 17504              	.LVL2674:
 17505              	.LBE1172:
 17506              	.LBB1173:
 17507              	.LBB1171:
 158:./subsystems/datalink/pprz_transport.h ****   switch (t->status) {
 17508              		.loc 5 158 0 discriminator 4
 17509 039a 042B     		cmp	r3, #4
 17510 039c 30D8     		bhi	.L408
 17511 039e DFE803F0 		tbb	[pc, r3]
 17512              	.L414:
 17513 03a2 03       		.byte	(.L409-.L414)/2
 17514 03a3 07       		.byte	(.L410-.L414)/2
 17515 03a4 18       		.byte	(.L411-.L414)/2
 17516 03a5 26       		.byte	(.L412-.L414)/2
 17517 03a6 2A       		.byte	(.L413-.L414)/2
 17518 03a7 00       		.align	1
 17519              	.L409:
 161:./subsystems/datalink/pprz_transport.h ****       t->status++;
 17520              		.loc 5 161 0
 17521 03a8 992C     		cmp	r4, #153
 17522 03aa 08BF     		it	eq
 17523 03ac 0123     		moveq	r3, #1
 17524 03ae 2AE0     		b	.L415
 17525              	.L410:
 164:./subsystems/datalink/pprz_transport.h ****     if (t->trans.msg_received) {
 17526              		.loc 5 164 0
 17527 03b0 98F80131 		ldrb	r3, [r8, #257]	@ zero_extendqisi2
 17528 03b4 23B1     		cbz	r3, .L416
 165:./subsystems/datalink/pprz_transport.h ****       t->trans.ovrn++;
 17529              		.loc 5 165 0
 17530 03b6 0EF1010E 		add	lr, lr, #1
 17531 03ba 5FFA8EFE 		uxtb	lr, lr
 17532 03be 1FE0     		b	.L408
 17533              	.L416:
 168:./subsystems/datalink/pprz_transport.h ****     t->trans.payload_len = c-4; /* Counting STX, LENGTH and CRC1 and CRC2 */
 17534              		.loc 5 168 0
 17535 03c0 221F     		subs	r2, r4, #4
 17536 03c2 D2B2     		uxtb	r2, r2
 17537 03c4 80F80021 		strb	r2, [r0, #256]
 171:./subsystems/datalink/pprz_transport.h ****     t->payload_idx = 0;
 17538              		.loc 5 171 0
 17539 03c8 1946     		mov	r1, r3
 627:firmwares/fixedwing/main_ap.c ****   DatalinkEvent();
 17540              		.loc 1 627 0
 17541 03ca 2246     		mov	r2, r4
 17542 03cc 2546     		mov	r5, r4
 170:./subsystems/datalink/pprz_transport.h ****     t->status++;
 17543              		.loc 5 170 0
 17544 03ce 0223     		movs	r3, #2
 17545 03d0 19E0     		b	.L415
 17546              	.L411:
 175:./subsystems/datalink/pprz_transport.h ****     t->ck_a += c; t->ck_b += t->ck_a;
 17547              		.loc 5 175 0
 17548 03d2 A218     		adds	r2, r4, r2
 174:./subsystems/datalink/pprz_transport.h ****     t->trans.payload[t->payload_idx] = c;
 17549              		.loc 5 174 0
 17550 03d4 08F80140 		strb	r4, [r8, r1]
 175:./subsystems/datalink/pprz_transport.h ****     t->ck_a += c; t->ck_b += t->ck_a;
 17551              		.loc 5 175 0
 17552 03d8 D2B2     		uxtb	r2, r2
 176:./subsystems/datalink/pprz_transport.h ****     t->payload_idx++;
 17553              		.loc 5 176 0
 17554 03da 0131     		adds	r1, r1, #1
 177:./subsystems/datalink/pprz_transport.h ****     if (t->payload_idx == t->trans.payload_len)
 17555              		.loc 5 177 0
 17556 03dc 98F80041 		ldrb	r4, [r8, #256]	@ zero_extendqisi2
 17557              	.LVL2675:
 175:./subsystems/datalink/pprz_transport.h ****     t->ck_a += c; t->ck_b += t->ck_a;
 17558              		.loc 5 175 0
 17559 03e0 5519     		adds	r5, r2, r5
 176:./subsystems/datalink/pprz_transport.h ****     t->payload_idx++;
 17560              		.loc 5 176 0
 17561 03e2 C9B2     		uxtb	r1, r1
 175:./subsystems/datalink/pprz_transport.h ****     t->ck_a += c; t->ck_b += t->ck_a;
 17562              		.loc 5 175 0
 17563 03e4 EDB2     		uxtb	r5, r5
 178:./subsystems/datalink/pprz_transport.h ****       t->status++;
 17564              		.loc 5 178 0
 17565 03e6 A142     		cmp	r1, r4
 17566 03e8 08BF     		it	eq
 17567 03ea 0323     		moveq	r3, #3
 17568 03ec 0BE0     		b	.L415
 17569              	.LVL2676:
 17570              	.L412:
 181:./subsystems/datalink/pprz_transport.h ****     if (c != t->ck_a)
 17571              		.loc 5 181 0
 17572 03ee 9442     		cmp	r4, r2
 17573 03f0 06D1     		bne	.L408
 183:./subsystems/datalink/pprz_transport.h ****     t->status++;
 17574              		.loc 5 183 0
 17575 03f2 0423     		movs	r3, #4
 17576 03f4 07E0     		b	.L415
 17577              	.L413:
 186:./subsystems/datalink/pprz_transport.h ****     if (c != t->ck_b)
 17578              		.loc 5 186 0
 17579 03f6 AC42     		cmp	r4, r5
 17580 03f8 02D1     		bne	.L408
 188:./subsystems/datalink/pprz_transport.h ****     t->trans.msg_received = TRUE;
 17581              		.loc 5 188 0
 17582 03fa 80F80191 		strb	r9, [r0, #257]
 17583 03fe 01E0     		b	.L417
 17584              	.L408:
 17585              		.loc 5 195 0
 17586 0400 0137     		adds	r7, r7, #1
 17587 0402 FFB2     		uxtb	r7, r7
 17588              	.L417:
 196:./subsystems/datalink/pprz_transport.h ****  restart:
 197:./subsystems/datalink/pprz_transport.h ****   t->status = UNINIT;
 17589              		.loc 5 197 0
 17590 0404 0023     		movs	r3, #0
 17591              	.LVL2677:
 17592              	.L415:
 17593              	.LBE1171:
 17594              	.LBE1173:
 627:firmwares/fixedwing/main_ap.c ****   DatalinkEvent();
 17595              		.loc 1 627 0 discriminator 1
 17596 0406 B445     		cmp	ip, r6
 17597 0408 10D1     		bne	.L407
 627:firmwares/fixedwing/main_ap.c ****   DatalinkEvent();
 17598              		.loc 1 627 0 is_stmt 0
 17599 040a 4F48     		ldr	r0, .L451+12
 17600 040c A0F882C0 		strh	ip, [r0, #130]	@ movhi
 17601 0410 4E48     		ldr	r0, .L451+16
 17602 0412 80F80431 		strb	r3, [r0, #260]
 17603 0416 80F802E1 		strb	lr, [r0, #258]
 17604 041a 80F80751 		strb	r5, [r0, #263]
 17605 041e 80F80621 		strb	r2, [r0, #262]
 17606 0422 80F80511 		strb	r1, [r0, #261]
 17607 0426 80F80371 		strb	r7, [r0, #259]
 17608 042a 14E0     		b	.L418
 17609              	.LVL2678:
 17610              	.L407:
 627:firmwares/fixedwing/main_ap.c ****   DatalinkEvent();
 17611              		.loc 1 627 0 discriminator 2
 17612 042c 90F801B1 		ldrb	fp, [r0, #257]	@ zero_extendqisi2
 17613 0430 464C     		ldr	r4, .L451+16
 17614 0432 BBF1000F 		cmp	fp, #0
 17615 0436 ABD0     		beq	.L419
 627:firmwares/fixedwing/main_ap.c ****   DatalinkEvent();
 17616              		.loc 1 627 0
 17617 0438 4348     		ldr	r0, .L451+12
 17618 043a 84F80431 		strb	r3, [r4, #260]
 17619 043e A0F88260 		strh	r6, [r0, #130]	@ movhi
 17620 0442 84F802E1 		strb	lr, [r4, #258]
 17621 0446 84F80751 		strb	r5, [r4, #263]
 17622 044a 84F80621 		strb	r2, [r4, #262]
 17623 044e 84F80511 		strb	r1, [r4, #261]
 17624 0452 84F80371 		strb	r7, [r4, #259]
 17625              	.L418:
 627:firmwares/fixedwing/main_ap.c ****   DatalinkEvent();
 17626              		.loc 1 627 0 discriminator 3
 17627 0456 3D4A     		ldr	r2, .L451+16
 17628 0458 92F80131 		ldrb	r3, [r2, #257]	@ zero_extendqisi2
 17629 045c 2BB9     		cbnz	r3, .L438
 17630 045e 11E0     		b	.L406
 17631              	.LVL2679:
 17632              	.L421:
 17633              	.LBB1174:
 17634              	.LBB1175:
 198:./subsystems/datalink/pprz_transport.h ****   return;
 199:./subsystems/datalink/pprz_transport.h **** }
 200:./subsystems/datalink/pprz_transport.h **** 
 201:./subsystems/datalink/pprz_transport.h **** static inline void pprz_parse_payload(struct pprz_transport * t) {
 202:./subsystems/datalink/pprz_transport.h ****   uint8_t i;
 203:./subsystems/datalink/pprz_transport.h ****   for(i = 0; i < t->trans.payload_len; i++)
 204:./subsystems/datalink/pprz_transport.h ****     dl_buffer[i] = t->trans.payload[i];
 17635              		.loc 5 204 0 is_stmt 1
 17636 0460 D05C     		ldrb	r0, [r2, r3]	@ zero_extendqisi2
 17637 0462 C854     		strb	r0, [r1, r3]
 203:./subsystems/datalink/pprz_transport.h ****   for(i = 0; i < t->trans.payload_len; i++)
 17638              		.loc 5 203 0
 17639 0464 0133     		adds	r3, r3, #1
 17640              	.LVL2680:
 17641 0466 DBB2     		uxtb	r3, r3
 17642              	.LVL2681:
 17643 0468 01E0     		b	.L420
 17644              	.LVL2682:
 17645              	.L438:
 17646              		.loc 5 204 0
 17647 046a 3949     		ldr	r1, .L451+20
 17648              	.LBE1175:
 17649              	.LBE1174:
 627:firmwares/fixedwing/main_ap.c ****   DatalinkEvent();
 17650              		.loc 1 627 0
 17651 046c 0023     		movs	r3, #0
 17652              	.L420:
 17653              	.LVL2683:
 17654              	.LBB1177:
 17655              	.LBB1176:
 203:./subsystems/datalink/pprz_transport.h ****   for(i = 0; i < t->trans.payload_len; i++)
 17656              		.loc 5 203 0
 17657 046e 92F80001 		ldrb	r0, [r2, #256]	@ zero_extendqisi2
 17658 0472 8342     		cmp	r3, r0
 17659 0474 F4D3     		bcc	.L421
 205:./subsystems/datalink/pprz_transport.h ****   dl_msg_available = TRUE;
 17660              		.loc 5 205 0
 17661 0476 374B     		ldr	r3, .L451+24
 17662              	.LVL2684:
 17663 0478 0122     		movs	r2, #1
 17664 047a 1A70     		strb	r2, [r3, #0]
 17665              	.LBE1176:
 17666              	.LBE1177:
 627:firmwares/fixedwing/main_ap.c ****   DatalinkEvent();
 17667              		.loc 1 627 0
 17668 047c 334B     		ldr	r3, .L451+16
 17669 047e 0022     		movs	r2, #0
 17670 0480 83F80121 		strb	r2, [r3, #257]
 17671              	.L406:
 627:firmwares/fixedwing/main_ap.c ****   DatalinkEvent();
 17672              		.loc 1 627 0 is_stmt 0 discriminator 2
 17673 0484 334C     		ldr	r4, .L451+24
 17674 0486 2378     		ldrb	r3, [r4, #0]	@ zero_extendqisi2
 17675 0488 1BB1     		cbz	r3, .L422
 627:firmwares/fixedwing/main_ap.c ****   DatalinkEvent();
 17676              		.loc 1 627 0 discriminator 6
 17677 048a FFF7FEFF 		bl	dl_parse_msg
 17678 048e 0023     		movs	r3, #0
 17679 0490 2370     		strb	r3, [r4, #0]
 17680              	.L422:
 634:firmwares/fixedwing/main_ap.c ****   if (inter_mcu_received_fbw) {
 17681              		.loc 1 634 0 is_stmt 1
 17682 0492 314B     		ldr	r3, .L451+28
 17683 0494 1A78     		ldrb	r2, [r3, #0]	@ zero_extendqisi2
 17684 0496 002A     		cmp	r2, #0
 17685 0498 00F03C81 		beq	.L423
 636:firmwares/fixedwing/main_ap.c ****     inter_mcu_received_fbw = FALSE;
 17686              		.loc 1 636 0
 17687 049c 0022     		movs	r2, #0
 17688 049e 1A70     		strb	r2, [r3, #0]
 17689              	.LVL2685:
 17690              	.LBB1178:
 17691              	.LBB1179:
 17692              	.LBB1180:
 17693              	.LBB1181:
 330:firmwares/fixedwing/main_ap.c ****   ap_state->commands[COMMAND_YAW] = fbw_state->channels[RADIO_YAW];
 17694              		.loc 1 330 0
 17695 04a0 2E4B     		ldr	r3, .L451+32
 17696 04a2 1968     		ldr	r1, [r3, #0]
 17697 04a4 2E4B     		ldr	r3, .L451+36
 17698 04a6 CA88     		ldrh	r2, [r1, #6]
 17699 04a8 1B68     		ldr	r3, [r3, #0]
 17700 04aa DA80     		strh	r2, [r3, #6]	@ movhi
 17701              	.LBE1181:
 17702              	.LBE1180:
 346:firmwares/fixedwing/main_ap.c ****   uint8_t really_lost = bit_is_set(fbw_state->status, STATUS_RADIO_REALLY_LOST) && (pprz_mode == PP
 17703              		.loc 1 346 0
 17704 04ac 4A7E     		ldrb	r2, [r1, #25]	@ zero_extendqisi2
 17705 04ae 2D4B     		ldr	r3, .L451+40
 17706 04b0 C2F34000 		ubfx	r0, r2, #1, #1
 17707 04b4 20B1     		cbz	r0, .L424
 606:firmwares/fixedwing/main_ap.c **** void event_task_ap( void ) {
 17708              		.loc 1 606 0
 17709 04b6 1878     		ldrb	r0, [r3, #0]	@ zero_extendqisi2
 17710 04b8 0128     		cmp	r0, #1
 17711 04ba 8CBF     		ite	hi
 17712 04bc 0020     		movhi	r0, #0
 17713 04be 0120     		movls	r0, #1
 17714              	.L424:
 17715              	.LVL2686:
 347:firmwares/fixedwing/main_ap.c ****   if (pprz_mode != PPRZ_MODE_HOME && pprz_mode != PPRZ_MODE_GPS_OUT_OF_ORDER && launch) {
 17716              		.loc 1 347 0
 17717 04c0 1B78     		ldrb	r3, [r3, #0]	@ zero_extendqisi2
 17718 04c2 033B     		subs	r3, r3, #3
 17719 04c4 012B     		cmp	r3, #1
 17720 04c6 0FD9     		bls	.L440
 17721 04c8 274B     		ldr	r3, .L451+44
 17722 04ca 1B78     		ldrb	r3, [r3, #0]	@ zero_extendqisi2
 17723 04cc 6BB1     		cbz	r3, .L425
 348:firmwares/fixedwing/main_ap.c ****     if  (too_far_from_home) {
 17724              		.loc 1 348 0
 17725 04ce 274B     		ldr	r3, .L451+48
 17726 04d0 1B78     		ldrb	r3, [r3, #0]	@ zero_extendqisi2
 17727 04d2 1BB1     		cbz	r3, .L426
 349:firmwares/fixedwing/main_ap.c ****       pprz_mode = PPRZ_MODE_HOME;
 17728              		.loc 1 349 0
 17729 04d4 234B     		ldr	r3, .L451+40
 17730 04d6 0324     		movs	r4, #3
 17731 04d8 1C70     		strb	r4, [r3, #0]
 17732              	.LVL2687:
 350:firmwares/fixedwing/main_ap.c ****       mode_changed = TRUE;
 17733              		.loc 1 350 0
 17734 04da 0123     		movs	r3, #1
 17735              	.LVL2688:
 17736              	.L426:
 352:firmwares/fixedwing/main_ap.c ****     if  (really_lost) {
 17737              		.loc 1 352 0
 17738 04dc 28B1     		cbz	r0, .L425
 353:firmwares/fixedwing/main_ap.c ****       pprz_mode = RC_LOST_MODE;
 17739              		.loc 1 353 0
 17740 04de 214B     		ldr	r3, .L451+40
 17741              	.LVL2689:
 17742 04e0 0320     		movs	r0, #3
 17743              	.LVL2690:
 17744 04e2 1870     		strb	r0, [r3, #0]
 17745              	.LVL2691:
 354:firmwares/fixedwing/main_ap.c ****       mode_changed = TRUE;
 17746              		.loc 1 354 0
 17747 04e4 0123     		movs	r3, #1
 17748 04e6 00E0     		b	.L425
 17749              	.LVL2692:
 17750              	.L440:
 343:firmwares/fixedwing/main_ap.c ****   uint8_t mode_changed = FALSE;
 17751              		.loc 1 343 0
 17752 04e8 0023     		movs	r3, #0
 17753              	.LVL2693:
 17754              	.L425:
 357:firmwares/fixedwing/main_ap.c ****   if (bit_is_set(fbw_state->status, AVERAGED_CHANNELS_SENT)) {
 17755              		.loc 1 357 0
 17756 04ea D006     		lsls	r0, r2, #27
 17757 04ec 1AD5     		bpl	.L427
 17758              	.LBB1182:
 17759              	.LBB1183:
 17760              	.LBB1184:
 279:firmwares/fixedwing/main_ap.c ****   if ((pprz_mode != PPRZ_MODE_HOME &&
 17761              		.loc 1 279 0
 17762 04ee 1D4C     		ldr	r4, .L451+40
 17763 04f0 2078     		ldrb	r0, [r4, #0]	@ zero_extendqisi2
 17764 04f2 C51E     		subs	r5, r0, #3
 17765 04f4 012D     		cmp	r5, #1
 17766 04f6 13D9     		bls	.L443
 17767              	.LBB1185:
 286:firmwares/fixedwing/main_ap.c ****     return ModeUpdate(pprz_mode, PPRZ_MODE_OF_PULSE(fbw_state->channels[RADIO_MODE]));
 17768              		.loc 1 286 0
 17769 04f8 B1F90A10 		ldrsh	r1, [r1, #10]
 17770 04fc B1F5965F 		cmp	r1, #4800
 17771 0500 05DC     		bgt	.L444
 17772 0502 11F5965F 		cmn	r1, #4800
 17773 0506 D4BF     		ite	le
 17774 0508 0021     		movle	r1, #0
 17775 050a 0121     		movgt	r1, #1
 17776 050c 00E0     		b	.L429
 17777              	.L444:
 17778 050e 0221     		movs	r1, #2
 17779              	.L429:
 17780              	.LVL2694:
 17781 0510 8842     		cmp	r0, r1
 17782 0512 02D0     		beq	.L445
 17783 0514 2170     		strb	r1, [r4, #0]
 17784 0516 0121     		movs	r1, #1
 17785              	.LVL2695:
 17786 0518 00E0     		b	.L430
 17787              	.LVL2696:
 17788              	.L445:
 17789 051a 0021     		movs	r1, #0
 17790              	.LVL2697:
 17791              	.L430:
 17792              	.LBE1185:
 17793 051c C9B2     		uxtb	r1, r1
 17794 051e 00E0     		b	.L428
 17795              	.L443:
 305:firmwares/fixedwing/main_ap.c ****     return FALSE;
 17796              		.loc 1 305 0
 17797 0520 0021     		movs	r1, #0
 17798              	.L428:
 17799              	.LBE1184:
 17800              	.LBE1183:
 359:firmwares/fixedwing/main_ap.c ****     mode_changed |= pprz_mode_changed;
 17801              		.loc 1 359 0
 17802 0522 0B43     		orrs	r3, r3, r1
 17803              	.LVL2698:
 17804              	.L427:
 17805              	.LBE1182:
 17806              	.LBB1186:
 17807              	.LBB1187:
 315:firmwares/fixedwing/main_ap.c ****   if (mcu1_status != new_status) {
 17808              		.loc 1 315 0
 17809 0524 1248     		ldr	r0, .L451+52
 17810 0526 0178     		ldrb	r1, [r0, #0]	@ zero_extendqisi2
 17811 0528 9142     		cmp	r1, r2
 17812 052a 23D0     		beq	.L446
 17813              	.LBB1188:
 316:firmwares/fixedwing/main_ap.c ****     bool_t changed = ((mcu1_status&MASK_FBW_CHANGED) != (new_status&MASK_FBW_CHANGED));
 17814              		.loc 1 316 0
 17815 052c 5140     		eors	r1, r1, r2
 17816 052e 11F00F01 		ands	r1, r1, #15
 17817 0532 18BF     		it	ne
 17818 0534 0121     		movne	r1, #1
 317:firmwares/fixedwing/main_ap.c ****     mcu1_status = new_status;
 17819              		.loc 1 317 0
 17820 0536 0270     		strb	r2, [r0, #0]
 17821 0538 1DE0     		b	.L431
 17822              	.L452:
 17823 053a 00BF     		.align	2
 17824              	.L451:
 17825 053c 00000000 		.word	gps_ubx
 17826 0540 00000000 		.word	gps
 17827 0544 00000000 		.word	sys_time
 17828 0548 00000000 		.word	uart2
 17829 054c 00000000 		.word	pprz_tp
 17830 0550 00000000 		.word	dl_buffer
 17831 0554 00000000 		.word	dl_msg_available
 17832 0558 00000000 		.word	inter_mcu_received_fbw
 17833 055c 00000000 		.word	fbw_state
 17834 0560 00000000 		.word	ap_state
 17835 0564 00000000 		.word	.LANCHOR30
 17836 0568 00000000 		.word	.LANCHOR31
 17837 056c 00000000 		.word	too_far_from_home
 17838 0570 00000000 		.word	.LANCHOR33
 17839              	.LVL2699:
 17840              	.L446:
 17841              	.LBE1188:
 320:firmwares/fixedwing/main_ap.c ****   return FALSE;
 17842              		.loc 1 320 0
 17843 0574 0021     		movs	r1, #0
 17844              	.L431:
 17845              	.LVL2700:
 17846              	.LBE1187:
 17847              	.LBE1186:
 367:firmwares/fixedwing/main_ap.c ****   if ( mode_changed )
 17848              		.loc 1 367 0
 17849 0576 1943     		orrs	r1, r1, r3
 17850              	.LVL2701:
 17851 0578 7BD0     		beq	.L432
 17852              	.LVL2702:
 17853              	.LBB1189:
 368:firmwares/fixedwing/main_ap.c ****     PERIODIC_SEND_PPRZ_MODE(DefaultChannel, DefaultDevice);
 17854              		.loc 1 368 0
 17855 057a 7148     		ldr	r0, .L453+16
 17856 057c 0C21     		movs	r1, #12
 17857 057e FFF7FEFF 		bl	uart_check_free_space
 17858              	.LVL2703:
 17859 0582 0028     		cmp	r0, #0
 17860 0584 71D0     		beq	.L433
 17861 0586 6F4B     		ldr	r3, .L453+20
 17862              	.LBB1190:
 17863 0588 9921     		movs	r1, #153
 17864              	.LBE1190:
 17865 058a 1A88     		ldrh	r2, [r3, #0]
 17866              	.LBB1191:
 17867 058c 6C48     		ldr	r0, .L453+16
 17868              	.LBE1191:
 17869 058e 0C32     		adds	r2, r2, #12
 17870 0590 1A80     		strh	r2, [r3, #0]	@ movhi
 17871 0592 6D4B     		ldr	r3, .L453+24
 17872 0594 6D4D     		ldr	r5, .L453+28
 17873 0596 1A88     		ldrh	r2, [r3, #0]
 17874 0598 6D4C     		ldr	r4, .L453+32
 17875 059a 0132     		adds	r2, r2, #1
 17876 059c 1A80     		strh	r2, [r3, #0]	@ movhi
 17877              	.LBB1192:
 17878 059e FFF7FEFF 		bl	uart_transmit
 17879              	.LVL2704:
 17880 05a2 0C21     		movs	r1, #12
 17881 05a4 6648     		ldr	r0, .L453+16
 17882 05a6 FFF7FEFF 		bl	uart_transmit
 17883              	.LBE1192:
 17884 05aa 0D23     		movs	r3, #13
 17885 05ac 2B70     		strb	r3, [r5, #0]
 17886 05ae 1923     		movs	r3, #25
 17887 05b0 2370     		strb	r3, [r4, #0]
 17888 05b2 0121     		movs	r1, #1
 17889 05b4 6248     		ldr	r0, .L453+16
 17890 05b6 FFF7FEFF 		bl	uart_transmit
 17891 05ba 2B78     		ldrb	r3, [r5, #0]	@ zero_extendqisi2
 17892 05bc 2278     		ldrb	r2, [r4, #0]	@ zero_extendqisi2
 17893 05be 0B33     		adds	r3, r3, #11
 17894 05c0 DBB2     		uxtb	r3, r3
 17895              	.LVL2705:
 17896 05c2 2B70     		strb	r3, [r5, #0]
 17897 05c4 9B18     		adds	r3, r3, r2
 17898              	.LVL2706:
 17899 05c6 2370     		strb	r3, [r4, #0]
 17900 05c8 0B21     		movs	r1, #11
 17901 05ca 5D48     		ldr	r0, .L453+16
 17902 05cc FFF7FEFF 		bl	uart_transmit
 17903              	.LBB1193:
 17904 05d0 604B     		ldr	r3, .L453+36
 17905 05d2 2278     		ldrb	r2, [r4, #0]	@ zero_extendqisi2
 17906 05d4 1978     		ldrb	r1, [r3, #0]	@ zero_extendqisi2
 17907              	.LVL2707:
 17908 05d6 2B78     		ldrb	r3, [r5, #0]	@ zero_extendqisi2
 17909 05d8 5948     		ldr	r0, .L453+16
 17910 05da CB18     		adds	r3, r1, r3
 17911 05dc DBB2     		uxtb	r3, r3
 17912              	.LVL2708:
 17913 05de 2B70     		strb	r3, [r5, #0]
 17914 05e0 9B18     		adds	r3, r3, r2
 17915              	.LVL2709:
 17916 05e2 2370     		strb	r3, [r4, #0]
 17917 05e4 FFF7FEFF 		bl	uart_transmit
 17918              	.LVL2710:
 17919              	.LBE1193:
 17920              	.LBB1194:
 17921 05e8 5B4B     		ldr	r3, .L453+40
 17922 05ea 2278     		ldrb	r2, [r4, #0]	@ zero_extendqisi2
 17923 05ec 1978     		ldrb	r1, [r3, #0]	@ zero_extendqisi2
 17924              	.LVL2711:
 17925 05ee 2B78     		ldrb	r3, [r5, #0]	@ zero_extendqisi2
 17926 05f0 5348     		ldr	r0, .L453+16
 17927 05f2 CB18     		adds	r3, r1, r3
 17928 05f4 DBB2     		uxtb	r3, r3
 17929              	.LVL2712:
 17930 05f6 2B70     		strb	r3, [r5, #0]
 17931 05f8 9B18     		adds	r3, r3, r2
 17932              	.LVL2713:
 17933 05fa 2370     		strb	r3, [r4, #0]
 17934 05fc FFF7FEFF 		bl	uart_transmit
 17935              	.LVL2714:
 17936              	.LBE1194:
 17937              	.LBB1195:
 17938 0600 564B     		ldr	r3, .L453+44
 17939 0602 2278     		ldrb	r2, [r4, #0]	@ zero_extendqisi2
 17940 0604 1978     		ldrb	r1, [r3, #0]	@ zero_extendqisi2
 17941              	.LVL2715:
 17942 0606 2B78     		ldrb	r3, [r5, #0]	@ zero_extendqisi2
 17943 0608 4D48     		ldr	r0, .L453+16
 17944 060a CB18     		adds	r3, r1, r3
 17945 060c DBB2     		uxtb	r3, r3
 17946              	.LVL2716:
 17947 060e 2B70     		strb	r3, [r5, #0]
 17948 0610 9B18     		adds	r3, r3, r2
 17949              	.LVL2717:
 17950 0612 2370     		strb	r3, [r4, #0]
 17951 0614 FFF7FEFF 		bl	uart_transmit
 17952              	.LVL2718:
 17953              	.LBE1195:
 17954              	.LBB1196:
 17955 0618 514B     		ldr	r3, .L453+48
 17956 061a 2278     		ldrb	r2, [r4, #0]	@ zero_extendqisi2
 17957 061c 1978     		ldrb	r1, [r3, #0]	@ zero_extendqisi2
 17958              	.LVL2719:
 17959 061e 2B78     		ldrb	r3, [r5, #0]	@ zero_extendqisi2
 17960 0620 4748     		ldr	r0, .L453+16
 17961 0622 CB18     		adds	r3, r1, r3
 17962 0624 DBB2     		uxtb	r3, r3
 17963              	.LVL2720:
 17964 0626 2B70     		strb	r3, [r5, #0]
 17965 0628 9B18     		adds	r3, r3, r2
 17966              	.LVL2721:
 17967 062a 2370     		strb	r3, [r4, #0]
 17968 062c FFF7FEFF 		bl	uart_transmit
 17969              	.LVL2722:
 17970              	.LBE1196:
 17971              	.LBB1197:
 17972 0630 2278     		ldrb	r2, [r4, #0]	@ zero_extendqisi2
 17973 0632 2B78     		ldrb	r3, [r5, #0]	@ zero_extendqisi2
 17974 0634 0021     		movs	r1, #0
 17975 0636 D318     		adds	r3, r2, r3
 17976 0638 2370     		strb	r3, [r4, #0]
 17977 063a 4148     		ldr	r0, .L453+16
 17978 063c FFF7FEFF 		bl	uart_transmit
 17979              	.LBE1197:
 17980              	.LBB1198:
 17981 0640 484B     		ldr	r3, .L453+52
 17982 0642 2278     		ldrb	r2, [r4, #0]	@ zero_extendqisi2
 17983 0644 1978     		ldrb	r1, [r3, #0]	@ zero_extendqisi2
 17984              	.LVL2723:
 17985 0646 2B78     		ldrb	r3, [r5, #0]	@ zero_extendqisi2
 17986 0648 3D48     		ldr	r0, .L453+16
 17987 064a CB18     		adds	r3, r1, r3
 17988 064c DBB2     		uxtb	r3, r3
 17989              	.LVL2724:
 17990 064e 2B70     		strb	r3, [r5, #0]
 17991 0650 9B18     		adds	r3, r3, r2
 17992              	.LVL2725:
 17993 0652 2370     		strb	r3, [r4, #0]
 17994 0654 FFF7FEFF 		bl	uart_transmit
 17995              	.LVL2726:
 17996              	.LBE1198:
 17997 0658 2978     		ldrb	r1, [r5, #0]	@ zero_extendqisi2
 17998 065a 3948     		ldr	r0, .L453+16
 17999 065c FFF7FEFF 		bl	uart_transmit
 18000 0660 3748     		ldr	r0, .L453+16
 18001 0662 2178     		ldrb	r1, [r4, #0]	@ zero_extendqisi2
 18002 0664 FFF7FEFF 		bl	uart_transmit
 18003 0668 03E0     		b	.L432
 18004              	.LVL2727:
 18005              	.L433:
 18006 066a 3F4B     		ldr	r3, .L453+56
 18007 066c 1A78     		ldrb	r2, [r3, #0]	@ zero_extendqisi2
 18008 066e 0132     		adds	r2, r2, #1
 18009 0670 1A70     		strb	r2, [r3, #0]
 18010              	.LVL2728:
 18011              	.L432:
 18012              	.LBE1189:
 374:firmwares/fixedwing/main_ap.c ****   if (pprz_mode == PPRZ_MODE_AUTO1) {
 18013              		.loc 1 374 0
 18014 0672 384B     		ldr	r3, .L453+36
 18015 0674 1C78     		ldrb	r4, [r3, #0]	@ zero_extendqisi2
 18016 0676 012C     		cmp	r4, #1
 18017 0678 2ED1     		bne	.L434
 376:firmwares/fixedwing/main_ap.c ****     h_ctl_roll_setpoint = FLOAT_OF_PPRZ(fbw_state->channels[RADIO_ROLL], 0., AUTO1_MAX_ROLL);
 18018              		.loc 1 376 0
 18019 067a 3C4B     		ldr	r3, .L453+60
 18020 067c 1D68     		ldr	r5, [r3, #0]
 18021 067e B5F90200 		ldrsh	r0, [r5, #2]
 18022 0682 FFF7FEFF 		bl	__aeabi_i2f
 18023 0686 3A49     		ldr	r1, .L453+64
 18024 0688 FFF7FEFF 		bl	__aeabi_fdiv
 18025 068c FFF7FEFF 		bl	__aeabi_f2d
 18026 0690 27A3     		adr	r3, .L453
 18027 0692 D3E90023 		ldrd	r2, [r3]
 18028 0696 FFF7FEFF 		bl	__aeabi_dmul
 18029 069a 0022     		movs	r2, #0
 18030 069c 0023     		movs	r3, #0
 18031 069e FFF7FEFF 		bl	__aeabi_dadd
 18032 06a2 FFF7FEFF 		bl	__aeabi_d2f
 18033 06a6 334B     		ldr	r3, .L453+68
 18034 06a8 1860     		str	r0, [r3, #0]	@ float
 379:firmwares/fixedwing/main_ap.c ****     h_ctl_pitch_setpoint = FLOAT_OF_PPRZ(fbw_state->channels[RADIO_PITCH], 0., AUTO1_MAX_PITCH);
 18035              		.loc 1 379 0
 18036 06aa B5F90400 		ldrsh	r0, [r5, #4]
 18037 06ae FFF7FEFF 		bl	__aeabi_i2f
 18038 06b2 2F49     		ldr	r1, .L453+64
 18039 06b4 FFF7FEFF 		bl	__aeabi_fdiv
 18040 06b8 FFF7FEFF 		bl	__aeabi_f2d
 18041 06bc 1EA3     		adr	r3, .L453+8
 18042 06be D3E90023 		ldrd	r2, [r3]
 18043 06c2 FFF7FEFF 		bl	__aeabi_dmul
 18044 06c6 0023     		movs	r3, #0
 18045 06c8 0022     		movs	r2, #0
 18046 06ca FFF7FEFF 		bl	__aeabi_dadd
 18047 06ce FFF7FEFF 		bl	__aeabi_d2f
 18048 06d2 294B     		ldr	r3, .L453+72
 18049 06d4 1860     		str	r0, [r3, #0]	@ float
 18050 06d6 00E0     		b	.L435
 18051              	.L434:
 384:firmwares/fixedwing/main_ap.c ****   if (pprz_mode == PPRZ_MODE_MANUAL || pprz_mode == PPRZ_MODE_AUTO1) {
 18052              		.loc 1 384 0
 18053 06d8 04D8     		bhi	.L436
 18054              	.L435:
 385:firmwares/fixedwing/main_ap.c ****     v_ctl_throttle_setpoint = fbw_state->channels[RADIO_THROTTLE];
 18055              		.loc 1 385 0
 18056 06da 244B     		ldr	r3, .L453+60
 18057 06dc 1B68     		ldr	r3, [r3, #0]
 18058 06de 1A88     		ldrh	r2, [r3, #0]
 18059 06e0 264B     		ldr	r3, .L453+76
 18060 06e2 1A80     		strh	r2, [r3, #0]	@ movhi
 18061              	.L436:
 389:firmwares/fixedwing/main_ap.c ****   mcu1_ppm_cpt = fbw_state->ppm_cpt;
 18062              		.loc 1 389 0
 18063 06e4 214B     		ldr	r3, .L453+60
 18064 06e6 264A     		ldr	r2, .L453+80
 18065 06e8 1B68     		ldr	r3, [r3, #0]
 18066 06ea 197E     		ldrb	r1, [r3, #24]	@ zero_extendqisi2
 18067 06ec 1170     		strb	r1, [r2, #0]
 393:firmwares/fixedwing/main_ap.c ****   vsupply = fbw_state->vsupply;
 18068              		.loc 1 393 0
 18069 06ee D97E     		ldrb	r1, [r3, #27]	@ zero_extendqisi2
 18070 06f0 244A     		ldr	r2, .L453+84
 18071 06f2 1170     		strb	r1, [r2, #0]
 394:firmwares/fixedwing/main_ap.c ****   current = fbw_state->current;
 18072              		.loc 1 394 0
 18073 06f4 244A     		ldr	r2, .L453+88
 18074 06f6 D969     		ldr	r1, [r3, #28]
 18075 06f8 1160     		str	r1, [r2, #0]
 397:firmwares/fixedwing/main_ap.c ****   if (!estimator_flight_time) {
 18076              		.loc 1 397 0
 18077 06fa 244A     		ldr	r2, .L453+92
 18078 06fc 1288     		ldrh	r2, [r2, #0]
 18079 06fe 4AB9     		cbnz	r2, .L423
 398:firmwares/fixedwing/main_ap.c ****     if (pprz_mode == PPRZ_MODE_AUTO2 && fbw_state->channels[RADIO_THROTTLE] > THROTTLE_THRESHOLD_TA
 18080              		.loc 1 398 0
 18081 0700 022C     		cmp	r4, #2
 18082 0702 07D1     		bne	.L423
 18083 0704 B3F90030 		ldrsh	r3, [r3, #0]
 18084 0708 B3F5075F 		cmp	r3, #8640
 18085 070c 02DD     		ble	.L423
 399:firmwares/fixedwing/main_ap.c ****       launch = TRUE;
 18086              		.loc 1 399 0
 18087 070e 204B     		ldr	r3, .L453+96
 18088 0710 0122     		movs	r2, #1
 18089 0712 1A70     		strb	r2, [r3, #0]
 18090              	.L423:
 18091              	.LBE1179:
 18092              	.LBE1178:
 643:firmwares/fixedwing/main_ap.c ****   if (new_ins_attitude > 0)
 18093              		.loc 1 643 0
 18094 0714 1F4C     		ldr	r4, .L453+100
 18095              	.LBB1199:
 18096              	.LBB1200:
  53:/home/uav/USTUAV/paparazzi/var/MYAC/generated/modules.h ****   }
  54:/home/uav/USTUAV/paparazzi/var/MYAC/generated/modules.h **** }
  55:/home/uav/USTUAV/paparazzi/var/MYAC/generated/modules.h **** 
  56:/home/uav/USTUAV/paparazzi/var/MYAC/generated/modules.h **** static inline void modules_event_task(void) {
  57:/home/uav/USTUAV/paparazzi/var/MYAC/generated/modules.h ****   event_sysmon();
 18097              		.loc 2 57 0
 18098 0716 FFF7FEFF 		bl	event_sysmon
 18099              	.LBE1200:
 18100              	.LBE1199:
 643:firmwares/fixedwing/main_ap.c ****   if (new_ins_attitude > 0)
 18101              		.loc 1 643 0
 18102 071a 2378     		ldrb	r3, [r4, #0]	@ zero_extendqisi2
 18103 071c 1BB1     		cbz	r3, .L395
 645:firmwares/fixedwing/main_ap.c ****     attitude_loop();
 18104              		.loc 1 645 0
 18105 071e FFF7FEFF 		bl	attitude_loop
 647:firmwares/fixedwing/main_ap.c ****     new_ins_attitude = 0;
 18106              		.loc 1 647 0
 18107 0722 0023     		movs	r3, #0
 18108 0724 2370     		strb	r3, [r4, #0]
 18109              	.L395:
 651:firmwares/fixedwing/main_ap.c **** } /* event_task_ap() */
 18110              		.loc 1 651 0
 18111 0726 05B0     		add	sp, sp, #20
 18112 0728 BDE8F08F 		pop	{r4, r5, r6, r7, r8, r9, sl, fp, pc}
 18113              	.L454:
 18114 072c AFF30080 		.align	3
 18115              	.L453:
 18116 0730 0B09185D 		.word	1561856267
 18117 0734 DEECEB3F 		.word	1072426206
 18118 0738 D6A0794A 		.word	1249485014
 18119 073c 1857E63F 		.word	1072060184
 18120 0740 00000000 		.word	uart2
 18121 0744 00000000 		.word	downlink_nb_bytes
 18122 0748 00000000 		.word	downlink_nb_msgs
 18123 074c 00000000 		.word	ck_a
 18124 0750 00000000 		.word	ck_b
 18125 0754 00000000 		.word	.LANCHOR30
 18126 0758 00000000 		.word	v_ctl_mode
 18127 075c 00000000 		.word	.LANCHOR32
 18128 0760 00000000 		.word	horizontal_mode
 18129 0764 00000000 		.word	.LANCHOR33
 18130 0768 00000000 		.word	downlink_nb_ovrn
 18131 076c 00000000 		.word	fbw_state
 18132 0770 00001646 		.word	1175846912
 18133 0774 00000000 		.word	h_ctl_roll_setpoint
 18134 0778 00000000 		.word	h_ctl_pitch_setpoint
 18135 077c 00000000 		.word	v_ctl_throttle_setpoint
 18136 0780 00000000 		.word	.LANCHOR78
 18137 0784 00000000 		.word	.LANCHOR27
 18138 0788 00000000 		.word	.LANCHOR25
 18139 078c 00000000 		.word	estimator_flight_time
 18140 0790 00000000 		.word	.LANCHOR31
 18141 0794 00000000 		.word	.LANCHOR77
 18142              		.cfi_endproc
 18143              	.LFE59:
 18145              		.global	new_ins_attitude
 18146              		.global	monitor_tid
 18147              		.global	navigation_tid
 18148              		.global	attitude_tid
 18149              		.global	sensors_tid
 18150              		.global	telemetry_tid
 18151              		.global	modules_tid
 18152              		.global	gps_lost
 18153              		.global	energy
 18154              		.global	vsupply
 18155              		.global	launch
 18156              		.global	kill_throttle
 18157              		.global	lateral_mode
 18158              		.global	pprz_mode
 18159              		.global	power_switch
 18160              		.global	ahrs_timeout_counter
 18161              		.global	gps_ubx_gps_ubx_ucenter_periodic_status
 18162              		.section	.bss.mcu1_ppm_cpt,"aw",%nobits
 18163              		.set	.LANCHOR78,. + 0
 18166              	mcu1_ppm_cpt:
 18167 0000 00       		.space	1
 18168              		.section	.bss.modules_tid,"aw",%nobits
 18169              		.set	.LANCHOR4,. + 0
 18172              	modules_tid:
 18173 0000 00       		.space	1
 18174              		.section	.bss.i342.5127,"aw",%nobits
 18175              		.align	1
 18176              		.set	.LANCHOR61,. + 0
 18179              	i342.5127:
 18180 0000 0000     		.space	2
 18181              		.section	.bss.vsupply,"aw",%nobits
 18182              		.set	.LANCHOR27,. + 0
 18185              	vsupply:
 18186 0000 00       		.space	1
 18187              		.section	.bss.i300.5122,"aw",%nobits
 18188              		.align	1
 18189              		.set	.LANCHOR56,. + 0
 18192              	i300.5122:
 18193 0000 0000     		.space	2
 18194              		.section	.bss.i192.4827,"aw",%nobits
 18195              		.set	.LANCHOR44,. + 0
 18198              	i192.4827:
 18199 0000 00       		.space	1
 18200              		.section	.bss.i66.4504,"aw",%nobits
 18201              		.set	.LANCHOR14,. + 0
 18204              	i66.4504:
 18205 0000 00       		.space	1
 18206              		.section	.bss.sensors_tid,"aw",%nobits
 18207              		.set	.LANCHOR1,. + 0
 18210              	sensors_tid:
 18211 0000 00       		.space	1
 18212              		.section	.bss.i1.4275,"aw",%nobits
 18213              		.set	.LANCHOR70,. + 0
 18216              	i1.4275:
 18217 0000 00       		.space	1
 18218              		.section	.bss.i63.4503,"aw",%nobits
 18219              		.set	.LANCHOR13,. + 0
 18222              	i63.4503:
 18223 0000 00       		.space	1
 18224              		.section	.bss.i66.4820,"aw",%nobits
 18225              		.set	.LANCHOR37,. + 0
 18228              	i66.4820:
 18229 0000 00       		.space	1
 18230              		.section	.bss.i.5137,"aw",%nobits
 18231              		.set	.LANCHOR65,. + 0
 18234              	i.5137:
 18235 0000 00       		.space	1
 18236              		.section	.bss.i.4705,"aw",%nobits
 18237              		.set	.LANCHOR29,. + 0
 18240              	i.4705:
 18241 0000 00       		.space	1
 18242              		.section	.bss.i183.4826,"aw",%nobits
 18243              		.set	.LANCHOR43,. + 0
 18246              	i183.4826:
 18247 0000 00       		.space	1
 18248              		.section	.bss.attitude_tid,"aw",%nobits
 18249              		.set	.LANCHOR3,. + 0
 18252              	attitude_tid:
 18253 0000 00       		.space	1
 18254              		.section	.bss.i60.4502,"aw",%nobits
 18255              		.set	.LANCHOR12,. + 0
 18258              	i60.4502:
 18259 0000 00       		.space	1
 18260              		.section	.bss.i330.5126,"aw",%nobits
 18261              		.align	1
 18262              		.set	.LANCHOR60,. + 0
 18265              	i330.5126:
 18266 0000 0000     		.space	2
 18267              		.section	.bss.launch,"aw",%nobits
 18268              		.set	.LANCHOR31,. + 0
 18271              	launch:
 18272 0000 00       		.space	1
 18273              		.section	.bss.i180.4825,"aw",%nobits
 18274              		.set	.LANCHOR42,. + 0
 18277              	i180.4825:
 18278 0000 00       		.space	1
 18279              		.section	.bss.i318.5124,"aw",%nobits
 18280              		.align	1
 18281              		.set	.LANCHOR58,. + 0
 18284              	i318.5124:
 18285 0000 0000     		.space	2
 18286              		.section	.bss.i606.5129,"aw",%nobits
 18287              		.align	1
 18288              		.set	.LANCHOR63,. + 0
 18291              	i606.5129:
 18292 0000 0000     		.space	2
 18293              		.section	.bss.i.4901,"aw",%nobits
 18294              		.set	.LANCHOR53,. + 0
 18297              	i.4901:
 18298 0000 00       		.space	1
 18299              		.section	.data.pprz_mode,"aw",%progbits
 18300              		.set	.LANCHOR30,. + 0
 18303              	pprz_mode:
 18304 0000 02       		.byte	2
 18305              		.section	.bss.gps_ubx_gps_ubx_ucenter_periodic_status,"aw",%nobits
 18306              		.set	.LANCHOR0,. + 0
 18309              	gps_ubx_gps_ubx_ucenter_periodic_status:
 18310 0000 00       		.space	1
 18311              		.section	.bss.i324.5125,"aw",%nobits
 18312              		.align	1
 18313              		.set	.LANCHOR59,. + 0
 18316              	i324.5125:
 18317 0000 0000     		.space	2
 18318              		.section	.bss.i15.4500,"aw",%nobits
 18319              		.set	.LANCHOR10,. + 0
 18322              	i15.4500:
 18323 0000 00       		.space	1
 18324              		.section	.bss.lateral_mode,"aw",%nobits
 18325              		.set	.LANCHOR32,. + 0
 18328              	lateral_mode:
 18329 0000 00       		.space	1
 18330              		.section	.bss.mcu1_status,"aw",%nobits
 18331              		.set	.LANCHOR33,. + 0
 18334              	mcu1_status:
 18335 0000 00       		.space	1
 18336              		.section	.rodata.version,"a",%progbits
 18337              		.align	1
 18338              		.set	.LANCHOR9,. + 0
 18341              	version:
 18342 0000 0100     		.short	1
 18343              		.section	.bss.i606.4834,"aw",%nobits
 18344              		.align	1
 18345              		.set	.LANCHOR51,. + 0
 18348              	i606.4834:
 18349 0000 0000     		.space	2
 18350              		.section	.bss.energy,"aw",%nobits
 18351              		.align	2
 18352              		.set	.LANCHOR26,. + 0
 18355              	energy:
 18356 0000 00000000 		.space	4
 18357              		.section	.bss.gyr_avg.5358,"aw",%nobits
 18358              		.align	2
 18359              		.set	.LANCHOR73,. + 0
 18362              	gyr_avg.5358:
 18363 0000 00000000 		.space	12
 18363      00000000 
 18363      00000000 
 18364              		.section	.bss.i126.4824,"aw",%nobits
 18365              		.set	.LANCHOR41,. + 0
 18368              	i126.4824:
 18369 0000 00       		.space	1
 18370              		.section	.bss.last.5216,"aw",%nobits
 18371              		.align	1
 18372              		.set	.LANCHOR66,. + 0
 18375              	last.5216:
 18376 0000 0000     		.space	2
 18377              		.section	.bss.i.4513,"aw",%nobits
 18378              		.set	.LANCHOR23,. + 0
 18381              	i.4513:
 18382 0000 00       		.space	1
 18383              		.section	.data.boot.4496,"aw",%progbits
 18384              		.set	.LANCHOR8,. + 0
 18387              	boot.4496:
 18388 0000 01       		.byte	1
 18389              		.section	.bss.i90.4506,"aw",%nobits
 18390              		.set	.LANCHOR16,. + 0
 18393              	i90.4506:
 18394 0000 00       		.space	1
 18395              		.section	.bss.telemetry_tid,"aw",%nobits
 18396              		.set	.LANCHOR5,. + 0
 18399              	telemetry_tid:
 18400 0000 00       		.space	1
 18401              		.section	.bss.i306.4511,"aw",%nobits
 18402              		.align	1
 18403              		.set	.LANCHOR21,. + 0
 18406              	i306.4511:
 18407 0000 0000     		.space	2
 18408              		.section	.bss.acc_avg.5357,"aw",%nobits
 18409              		.align	2
 18410              		.set	.LANCHOR74,. + 0
 18413              	acc_avg.5357:
 18414 0000 00000000 		.space	12
 18414      00000000 
 18414      00000000 
 18415              		.section	.bss.i612.5130,"aw",%nobits
 18416              		.align	1
 18417              		.set	.LANCHOR64,. + 0
 18420              	i612.5130:
 18421 0000 0000     		.space	2
 18422              		.section	.bss.i540.4512,"aw",%nobits
 18423              		.align	1
 18424              		.set	.LANCHOR22,. + 0
 18427              	i540.4512:
 18428 0000 0000     		.space	2
 18429              		.section	.bss.i90.4823,"aw",%nobits
 18430              		.set	.LANCHOR40,. + 0
 18433              	i90.4823:
 18434 0000 00       		.space	1
 18435              		.section	.bss.i.4835,"aw",%nobits
 18436              		.set	.LANCHOR52,. + 0
 18439              	i.4835:
 18440 0000 00       		.space	1
 18441              		.section	.bss.i126.4508,"aw",%nobits
 18442              		.set	.LANCHOR18,. + 0
 18445              	i126.4508:
 18446 0000 00       		.space	1
 18447              		.section	.bss.kill_throttle,"aw",%nobits
 18448              		.set	.LANCHOR28,. + 0
 18451              	kill_throttle:
 18452 0000 00       		.space	1
 18453              		.section	.bss.i300.4830,"aw",%nobits
 18454              		.align	1
 18455              		.set	.LANCHOR47,. + 0
 18458              	i300.4830:
 18459 0000 0000     		.space	2
 18460              		.section	.bss.i306.4831,"aw",%nobits
 18461              		.align	1
 18462              		.set	.LANCHOR48,. + 0
 18465              	i306.4831:
 18466 0000 0000     		.space	2
 18467              		.section	.bss.i243.4829,"aw",%nobits
 18468              		.set	.LANCHOR46,. + 0
 18471              	i243.4829:
 18472 0000 00       		.space	1
 18473              		.section	.bss.i.4575,"aw",%nobits
 18474              		.set	.LANCHOR24,. + 0
 18477              	i.4575:
 18478 0000 00       		.space	1
 18479              		.section	.bss.i300.4510,"aw",%nobits
 18480              		.align	1
 18481              		.set	.LANCHOR20,. + 0
 18484              	i300.4510:
 18485 0000 0000     		.space	2
 18486              		.section	.bss.i540.4833,"aw",%nobits
 18487              		.align	1
 18488              		.set	.LANCHOR50,. + 0
 18491              	i540.4833:
 18492 0000 0000     		.space	2
 18493              		.section	.bss._reduced_correction_rate.5356,"aw",%nobits
 18494              		.set	.LANCHOR76,. + 0
 18497              	_reduced_correction_rate.5356:
 18498 0000 00       		.space	1
 18499              		.section	.bss.i240.4828,"aw",%nobits
 18500              		.set	.LANCHOR45,. + 0
 18503              	i240.4828:
 18504 0000 00       		.space	1
 18505              		.section	.bss.i120.4507,"aw",%nobits
 18506              		.set	.LANCHOR17,. + 0
 18509              	i120.4507:
 18510 0000 00       		.space	1
 18511              		.section	.bss.power_switch,"aw",%nobits
 18512              		.set	.LANCHOR7,. + 0
 18515              	power_switch:
 18516 0000 00       		.space	1
 18517              		.section	.bss.i312.4832,"aw",%nobits
 18518              		.align	1
 18519              		.set	.LANCHOR49,. + 0
 18522              	i312.4832:
 18523 0000 0000     		.space	2
 18524              		.section	.bss.monitor_tid,"aw",%nobits
 18525              		.set	.LANCHOR6,. + 0
 18528              	monitor_tid:
 18529 0000 00       		.space	1
 18530              		.section	.bss.i63.4819,"aw",%nobits
 18531              		.set	.LANCHOR36,. + 0
 18534              	i63.4819:
 18535 0000 00       		.space	1
 18536              		.section	.bss.i84.4822,"aw",%nobits
 18537              		.set	.LANCHOR39,. + 0
 18540              	i84.4822:
 18541 0000 00       		.space	1
 18542              		.section	.bss._reduced_propagation_rate.5355,"aw",%nobits
 18543              		.set	.LANCHOR75,. + 0
 18546              	_reduced_propagation_rate.5355:
 18547 0000 00       		.space	1
 18548              		.section	.bss.new_ins_attitude,"aw",%nobits
 18549              		.set	.LANCHOR77,. + 0
 18552              	new_ins_attitude:
 18553 0000 00       		.space	1
 18554              		.section	.bss.i306.5123,"aw",%nobits
 18555              		.align	1
 18556              		.set	.LANCHOR57,. + 0
 18559              	i306.5123:
 18560 0000 0000     		.space	2
 18561              		.section	.bss.i78.4821,"aw",%nobits
 18562              		.set	.LANCHOR38,. + 0
 18565              	i78.4821:
 18566 0000 00       		.space	1
 18567              		.section	.bss.current,"aw",%nobits
 18568              		.align	2
 18569              		.set	.LANCHOR25,. + 0
 18572              	current:
 18573 0000 00000000 		.space	4
 18574              		.section	.bss.gps_lost,"aw",%nobits
 18575              		.set	.LANCHOR68,. + 0
 18578              	gps_lost:
 18579 0000 00       		.space	1
 18580              		.section	.bss.last.4801,"aw",%nobits
 18581              		.align	1
 18582              		.set	.LANCHOR35,. + 0
 18585              	last.4801:
 18586 0000 0000     		.space	2
 18587              		.section	.bss.ahrs_timeout_counter,"aw",%nobits
 18588              		.set	.LANCHOR34,. + 0
 18591              	ahrs_timeout_counter:
 18592 0000 00       		.space	1
 18593              		.section	.bss.i150.4509,"aw",%nobits
 18594              		.set	.LANCHOR19,. + 0
 18597              	i150.4509:
 18598 0000 00       		.space	1
 18599              		.section	.bss.i72.4505,"aw",%nobits
 18600              		.set	.LANCHOR15,. + 0
 18603              	i72.4505:
 18604 0000 00       		.space	1
 18605              		.section	.bss.i30.4501,"aw",%nobits
 18606              		.set	.LANCHOR11,. + 0
 18609              	i30.4501:
 18610 0000 00       		.space	1
 18611              		.section	.bss.i.4919,"aw",%nobits
 18612              		.set	.LANCHOR54,. + 0
 18615              	i.4919:
 18616 0000 00       		.space	1
 18617              		.section	.bss.i60.4277,"aw",%nobits
 18618              		.set	.LANCHOR72,. + 0
 18621              	i60.4277:
 18622 0000 00       		.space	1
 18623              		.section	.bss.last_pprz_mode.5279,"aw",%nobits
 18624              		.set	.LANCHOR67,. + 0
 18627              	last_pprz_mode.5279:
 18628 0000 00       		.space	1
 18629              		.section	.bss.last.5090,"aw",%nobits
 18630              		.align	1
 18631              		.set	.LANCHOR55,. + 0
 18634              	last.5090:
 18635 0000 0000     		.space	2
 18636              		.section	.rodata.str1.1,"aMS",%progbits,1
 18637              	.LC0:
 18638 0000 39C32F6F 		.ascii	"9\303/o\260\001\323_\326\315\332\016\263\312\242\305"
 18638      B001D35F 
 18638      D6CDDA0E 
 18638      B3CAA2C5 
 18639 0010 00       		.ascii	"\000"
 18640              		.section	.bss.i15.4276,"aw",%nobits
 18641              		.set	.LANCHOR71,. + 0
 18644              	i15.4276:
 18645 0000 00       		.space	1
 18646              		.section	.bss.i420.5128,"aw",%nobits
 18647              		.align	1
 18648              		.set	.LANCHOR62,. + 0
 18651              	i420.5128:
 18652 0000 0000     		.space	2
 18653              		.section	.bss.navigation_tid,"aw",%nobits
 18654              		.set	.LANCHOR2,. + 0
 18657              	navigation_tid:
 18658 0000 00       		.space	1
 18659              		.section	.bss.t.5328,"aw",%nobits
 18660              		.set	.LANCHOR69,. + 0
 18663              	t.5328:
 18664 0000 00       		.space	1
 18665              		.text
 18666              	.Letext0:
 18667              		.file 6 "/opt/paparazzi/arm-multilib/lib/gcc/arm-none-eabi/4.6.2/../../../../arm-none-eabi/include
 18668              		.file 7 "/home/uav/USTUAV/paparazzi/sw/include/std.h"
 18669              		.file 8 "./paparazzi.h"
 18670              		.file 9 "./subsystems/radio_control.h"
 18671              		.file 10 "./subsystems/electrical.h"
 18672              		.file 11 "./inter_mcu.h"
 18673              		.file 12 "./math/pprz_algebra_int.h"
 18674              		.file 13 "./math/pprz_geodetic_int.h"
 18675              		.file 14 "./mcu_periph/uart.h"
 18676              		.file 15 "./subsystems/gps/gps_ubx.h"
 18677              		.file 16 "./subsystems/gps.h"
 18678              		.file 17 "./math/pprz_algebra_float.h"
 18679              		.file 18 "./subsystems/imu.h"
 18680              		.file 19 "./subsystems/ahrs.h"
 18681              		.file 20 "./subsystems/ahrs/ahrs_aligner.h"
 18682              		.file 21 "./subsystems/navigation/common_nav.h"
 18683              		.file 22 "./subsystems/datalink/transport.h"
 18684              		.file 23 "./firmwares/fixedwing/main_fbw.h"
 18685              		.file 24 "./estimator.h"
 18686              		.file 25 "./firmwares/fixedwing/autopilot.h"
 18687              		.file 26 "./firmwares/fixedwing/stabilization/stabilization_attitude.h"
 18688              		.file 27 "./firmwares/fixedwing/guidance/guidance_v.h"
 18689              		.file 28 "./subsystems/navigation/common_flight_plan.h"
 18690              		.file 29 "./subsystems/nav.h"
 18691              		.file 30 "./subsystems/datalink/datalink.h"
 18692              		.file 31 "/home/uav/USTUAV/paparazzi/var/MYAC/generated/periodic_telemetry.h"
 18693              		.file 32 "./subsystems/datalink/xbee.h"
 18694              		.file 33 "./subsystems/datalink/downlink.h"
DEFINED SYMBOLS
                            *ABS*:0000000000000000 main_ap.c
     /tmp/ccp5ZmYP.s:18     .text.init_ap:0000000000000000 $t
     /tmp/ccp5ZmYP.s:23     .text.init_ap:0000000000000000 init_ap
     /tmp/ccp5ZmYP.s:130    .text.init_ap:0000000000000094 $d
     /tmp/ccp5ZmYP.s:156    .text.reporting_task:0000000000000000 $t
     /tmp/ccp5ZmYP.s:161    .text.reporting_task:0000000000000000 reporting_task
     /tmp/ccp5ZmYP.s:292    .text.reporting_task:00000000000000b4 $d
     /tmp/ccp5ZmYP.s:302    .text.reporting_task:00000000000000d4 $t
     /tmp/ccp5ZmYP.s:704    .text.reporting_task:0000000000000350 $d
     /tmp/ccp5ZmYP.s:729    .text.reporting_task:00000000000003b0 $t
     /tmp/ccp5ZmYP.s:1000   .text.reporting_task:0000000000000548 $d
     /tmp/ccp5ZmYP.s:1005   .text.reporting_task:0000000000000550 $t
     /tmp/ccp5ZmYP.s:1246   .text.reporting_task:00000000000006f0 $d
     /tmp/ccp5ZmYP.s:1257   .text.reporting_task:0000000000000710 $t
     /tmp/ccp5ZmYP.s:1658   .text.reporting_task:0000000000000960 $d
     /tmp/ccp5ZmYP.s:1674   .text.reporting_task:0000000000000994 $t
     /tmp/ccp5ZmYP.s:1983   .text.reporting_task:0000000000000b90 $d
     /tmp/ccp5ZmYP.s:1998   .text.reporting_task:0000000000000bbc $t
     /tmp/ccp5ZmYP.s:2426   .text.reporting_task:0000000000000e20 $d
     /tmp/ccp5ZmYP.s:2446   .text.reporting_task:0000000000000e64 $t
     /tmp/ccp5ZmYP.s:2652   .text.reporting_task:0000000000000f90 $d
     /tmp/ccp5ZmYP.s:2667   .text.reporting_task:0000000000000fbc $t
     /tmp/ccp5ZmYP.s:3128   .text.reporting_task:0000000000001234 $d
     /tmp/ccp5ZmYP.s:3140   .text.reporting_task:0000000000001260 $t
     /tmp/ccp5ZmYP.s:3525   .text.reporting_task:000000000000148c $d
     /tmp/ccp5ZmYP.s:3547   .text.reporting_task:00000000000014cc $t
     /tmp/ccp5ZmYP.s:3816   .text.reporting_task:0000000000001690 $d
     /tmp/ccp5ZmYP.s:3824   .text.reporting_task:00000000000016a8 $t
     /tmp/ccp5ZmYP.s:4197   .text.reporting_task:00000000000018be $d
     /tmp/ccp5ZmYP.s:4209   .text.reporting_task:00000000000018ca $t
     /tmp/ccp5ZmYP.s:4263   .text.reporting_task:0000000000001900 $d
     /tmp/ccp5ZmYP.s:4289   .text.reporting_task:0000000000001960 $t
     /tmp/ccp5ZmYP.s:4694   .text.reporting_task:0000000000001be0 $d
     /tmp/ccp5ZmYP.s:4707   .text.reporting_task:0000000000001c08 $t
     /tmp/ccp5ZmYP.s:4839   .text.reporting_task:0000000000001cd0 $d
     /tmp/ccp5ZmYP.s:4852   .text.reporting_task:0000000000001cf4 $t
     /tmp/ccp5ZmYP.s:5191   .text.reporting_task:0000000000001ed8 $d
     /tmp/ccp5ZmYP.s:5203   .text.reporting_task:0000000000001f00 $t
     /tmp/ccp5ZmYP.s:5522   .text.reporting_task:0000000000002104 $d
     /tmp/ccp5ZmYP.s:5537   .text.reporting_task:0000000000002134 $t
     /tmp/ccp5ZmYP.s:5912   .text.reporting_task:000000000000238c $d
     /tmp/ccp5ZmYP.s:5931   .text.reporting_task:00000000000023c8 $t
     /tmp/ccp5ZmYP.s:6316   .text.reporting_task:0000000000002620 $d
     /tmp/ccp5ZmYP.s:6333   .text.reporting_task:0000000000002658 $t
     /tmp/ccp5ZmYP.s:6733   .text.reporting_task:00000000000028d0 $d
     /tmp/ccp5ZmYP.s:6763   .text.reporting_task:0000000000002940 $t
     /tmp/ccp5ZmYP.s:7083   .text.reporting_task:0000000000002b20 $d
     /tmp/ccp5ZmYP.s:7088   .text.reporting_task:0000000000002b28 $t
     /tmp/ccp5ZmYP.s:7329   .text.reporting_task:0000000000002cc8 $d
     /tmp/ccp5ZmYP.s:7340   .text.reporting_task:0000000000002ce8 $t
     /tmp/ccp5ZmYP.s:7671   .text.reporting_task:0000000000002ed0 $d
     /tmp/ccp5ZmYP.s:7690   .text.reporting_task:0000000000002f10 $t
     /tmp/ccp5ZmYP.s:7895   .text.reporting_task:0000000000003040 $d
     /tmp/ccp5ZmYP.s:7907   .text.reporting_task:0000000000003064 $t
     /tmp/ccp5ZmYP.s:8271   .text.reporting_task:00000000000032b6 $d
     /tmp/ccp5ZmYP.s:8283   .text.reporting_task:00000000000032c2 $t
     /tmp/ccp5ZmYP.s:8319   .text.reporting_task:00000000000032e4 $d
     /tmp/ccp5ZmYP.s:8342   .text.reporting_task:0000000000003338 $t
     /tmp/ccp5ZmYP.s:8512   .text.reporting_task:000000000000343c $d
     /tmp/ccp5ZmYP.s:8527   .text.reporting_task:000000000000346c $t
     /tmp/ccp5ZmYP.s:8880   .text.reporting_task:0000000000003664 $d
     /tmp/ccp5ZmYP.s:8896   .text.reporting_task:0000000000003698 $t
     /tmp/ccp5ZmYP.s:9319   .text.reporting_task:00000000000038f8 $d
     /tmp/ccp5ZmYP.s:9339   .text.reporting_task:000000000000393c $t
     /tmp/ccp5ZmYP.s:9618   .text.reporting_task:0000000000003ad0 $d
     /tmp/ccp5ZmYP.s:9632   .text.reporting_task:0000000000003afc $t
     /tmp/ccp5ZmYP.s:9978   .text.reporting_task:0000000000003cec $d
     /tmp/ccp5ZmYP.s:9993   .text.reporting_task:0000000000003d1c $t
     /tmp/ccp5ZmYP.s:10265  .text.reporting_task:0000000000003ea8 $d
     /tmp/ccp5ZmYP.s:10278  .text.reporting_task:0000000000003ed0 $t
     /tmp/ccp5ZmYP.s:10737  .text.reporting_task:0000000000004144 $d
     /tmp/ccp5ZmYP.s:10752  .text.reporting_task:0000000000004178 $t
     /tmp/ccp5ZmYP.s:11109  .text.reporting_task:00000000000043a0 $d
     /tmp/ccp5ZmYP.s:11127  .text.reporting_task:00000000000043d8 $t
     /tmp/ccp5ZmYP.s:11453  .text.reporting_task:00000000000045dc $d
     /tmp/ccp5ZmYP.s:11465  .text.reporting_task:00000000000045fc $t
     /tmp/ccp5ZmYP.s:11754  .text.reporting_task:00000000000047c8 $d
     /tmp/ccp5ZmYP.s:11768  .text.reporting_task:00000000000047f8 $t
     /tmp/ccp5ZmYP.s:11989  .text.reporting_task:0000000000004940 $d
     /tmp/ccp5ZmYP.s:12002  .text.reporting_task:0000000000004968 $t
     /tmp/ccp5ZmYP.s:12278  .text.reporting_task:0000000000004b38 $d
     /tmp/ccp5ZmYP.s:12289  .text.reporting_task:0000000000004b58 $t
     /tmp/ccp5ZmYP.s:12512  .text.reporting_task:0000000000004cc8 $d
     /tmp/ccp5ZmYP.s:12532  .text.reporting_task:0000000000004d0c $t
     /tmp/ccp5ZmYP.s:12958  .text.reporting_task:0000000000004fa0 $d
     /tmp/ccp5ZmYP.s:12971  .text.reporting_task:0000000000004fd0 $t
     /tmp/ccp5ZmYP.s:13307  .text.reporting_task:0000000000005200 $d
     /tmp/ccp5ZmYP.s:13318  .text.reporting_task:0000000000005220 $t
     /tmp/ccp5ZmYP.s:13528  .text.reporting_task:0000000000005358 $d
     /tmp/ccp5ZmYP.s:13541  .text.reporting_task:0000000000005380 $t
     /tmp/ccp5ZmYP.s:13964  .text.reporting_task:00000000000055e0 $d
     /tmp/ccp5ZmYP.s:13984  .text.reporting_task:0000000000005624 $t
     /tmp/ccp5ZmYP.s:14314  .text.reporting_task:0000000000005838 $d
     /tmp/ccp5ZmYP.s:14333  .text.reporting_task:0000000000005878 $t
     /tmp/ccp5ZmYP.s:14466  .text.reporting_task:0000000000005954 $d
     /tmp/ccp5ZmYP.s:14478  .text.reporting_task:0000000000005978 $t
     /tmp/ccp5ZmYP.s:14804  .text.reporting_task:0000000000005b58 $d
     /tmp/ccp5ZmYP.s:14822  .text.reporting_task:0000000000005b94 $t
     /tmp/ccp5ZmYP.s:15283  .text.reporting_task:0000000000005e08 $d
     /tmp/ccp5ZmYP.s:15298  .text.reporting_task:0000000000005e3c $t
     /tmp/ccp5ZmYP.s:15408  .text.reporting_task:0000000000005ed0 $d
     /tmp/ccp5ZmYP.s:15417  .text.navigation_task:0000000000000000 $t
     /tmp/ccp5ZmYP.s:15422  .text.navigation_task:0000000000000000 navigation_task
     /tmp/ccp5ZmYP.s:15825  .text.navigation_task:0000000000000254 $d
     /tmp/ccp5ZmYP.s:15843  .text.navigation_task:0000000000000294 $t
     /tmp/ccp5ZmYP.s:16260  .text.navigation_task:00000000000004e8 $d
     /tmp/ccp5ZmYP.s:16278  .text.navigation_task:0000000000000524 $t
     /tmp/ccp5ZmYP.s:16430  .text.navigation_task:0000000000000638 $d
     /tmp/ccp5ZmYP.s:16456  .text.attitude_loop:0000000000000000 $t
     /tmp/ccp5ZmYP.s:16461  .text.attitude_loop:0000000000000000 attitude_loop
     /tmp/ccp5ZmYP.s:16500  .text.attitude_loop:000000000000002c $d
     /tmp/ccp5ZmYP.s:16509  .text.sensors_task:0000000000000000 $t
     /tmp/ccp5ZmYP.s:16514  .text.sensors_task:0000000000000000 sensors_task
     /tmp/ccp5ZmYP.s:16542  .text.sensors_task:0000000000000018 $d
     /tmp/ccp5ZmYP.s:16548  .text.monitor_task:0000000000000000 $t
     /tmp/ccp5ZmYP.s:16553  .text.monitor_task:0000000000000000 monitor_task
     /tmp/ccp5ZmYP.s:16744  .text.monitor_task:0000000000000108 $d
     /tmp/ccp5ZmYP.s:16764  .text.handle_periodic_tasks_ap:0000000000000000 $t
     /tmp/ccp5ZmYP.s:16769  .text.handle_periodic_tasks_ap:0000000000000000 handle_periodic_tasks_ap
     /tmp/ccp5ZmYP.s:16960  .text.handle_periodic_tasks_ap:00000000000000f8 $d
     /tmp/ccp5ZmYP.s:16976  .text.event_task_ap:0000000000000000 $t
     /tmp/ccp5ZmYP.s:16981  .text.event_task_ap:0000000000000000 event_task_ap
     /tmp/ccp5ZmYP.s:17400  .text.event_task_ap:00000000000002d0 $d
     /tmp/ccp5ZmYP.s:17413  .text.event_task_ap:00000000000002fc $t
     /tmp/ccp5ZmYP.s:17513  .text.event_task_ap:00000000000003a2 $d
     /tmp/ccp5ZmYP.s:17825  .text.event_task_ap:000000000000053c $d
     /tmp/ccp5ZmYP.s:17843  .text.event_task_ap:0000000000000574 $t
     /tmp/ccp5ZmYP.s:18116  .text.event_task_ap:0000000000000730 $d
     /tmp/ccp5ZmYP.s:18552  .bss.new_ins_attitude:0000000000000000 new_ins_attitude
     /tmp/ccp5ZmYP.s:18528  .bss.monitor_tid:0000000000000000 monitor_tid
     /tmp/ccp5ZmYP.s:18657  .bss.navigation_tid:0000000000000000 navigation_tid
     /tmp/ccp5ZmYP.s:18252  .bss.attitude_tid:0000000000000000 attitude_tid
     /tmp/ccp5ZmYP.s:18210  .bss.sensors_tid:0000000000000000 sensors_tid
     /tmp/ccp5ZmYP.s:18399  .bss.telemetry_tid:0000000000000000 telemetry_tid
     /tmp/ccp5ZmYP.s:18172  .bss.modules_tid:0000000000000000 modules_tid
     /tmp/ccp5ZmYP.s:18578  .bss.gps_lost:0000000000000000 gps_lost
     /tmp/ccp5ZmYP.s:18355  .bss.energy:0000000000000000 energy
     /tmp/ccp5ZmYP.s:18185  .bss.vsupply:0000000000000000 vsupply
     /tmp/ccp5ZmYP.s:18271  .bss.launch:0000000000000000 launch
     /tmp/ccp5ZmYP.s:18451  .bss.kill_throttle:0000000000000000 kill_throttle
     /tmp/ccp5ZmYP.s:18328  .bss.lateral_mode:0000000000000000 lateral_mode
     /tmp/ccp5ZmYP.s:18303  .data.pprz_mode:0000000000000000 pprz_mode
     /tmp/ccp5ZmYP.s:18515  .bss.power_switch:0000000000000000 power_switch
     /tmp/ccp5ZmYP.s:18591  .bss.ahrs_timeout_counter:0000000000000000 ahrs_timeout_counter
     /tmp/ccp5ZmYP.s:18309  .bss.gps_ubx_gps_ubx_ucenter_periodic_status:0000000000000000 gps_ubx_gps_ubx_ucenter_periodic_status
     /tmp/ccp5ZmYP.s:18166  .bss.mcu1_ppm_cpt:0000000000000000 mcu1_ppm_cpt
     /tmp/ccp5ZmYP.s:18167  .bss.mcu1_ppm_cpt:0000000000000000 $d
     /tmp/ccp5ZmYP.s:18173  .bss.modules_tid:0000000000000000 $d
     /tmp/ccp5ZmYP.s:18175  .bss.i342.5127:0000000000000000 $d
     /tmp/ccp5ZmYP.s:18179  .bss.i342.5127:0000000000000000 i342.5127
     /tmp/ccp5ZmYP.s:18186  .bss.vsupply:0000000000000000 $d
     /tmp/ccp5ZmYP.s:18188  .bss.i300.5122:0000000000000000 $d
     /tmp/ccp5ZmYP.s:18192  .bss.i300.5122:0000000000000000 i300.5122
     /tmp/ccp5ZmYP.s:18198  .bss.i192.4827:0000000000000000 i192.4827
     /tmp/ccp5ZmYP.s:18199  .bss.i192.4827:0000000000000000 $d
     /tmp/ccp5ZmYP.s:18204  .bss.i66.4504:0000000000000000 i66.4504
     /tmp/ccp5ZmYP.s:18205  .bss.i66.4504:0000000000000000 $d
     /tmp/ccp5ZmYP.s:18211  .bss.sensors_tid:0000000000000000 $d
     /tmp/ccp5ZmYP.s:18216  .bss.i1.4275:0000000000000000 i1.4275
     /tmp/ccp5ZmYP.s:18217  .bss.i1.4275:0000000000000000 $d
     /tmp/ccp5ZmYP.s:18222  .bss.i63.4503:0000000000000000 i63.4503
     /tmp/ccp5ZmYP.s:18223  .bss.i63.4503:0000000000000000 $d
     /tmp/ccp5ZmYP.s:18228  .bss.i66.4820:0000000000000000 i66.4820
     /tmp/ccp5ZmYP.s:18229  .bss.i66.4820:0000000000000000 $d
     /tmp/ccp5ZmYP.s:18234  .bss.i.5137:0000000000000000 i.5137
     /tmp/ccp5ZmYP.s:18235  .bss.i.5137:0000000000000000 $d
     /tmp/ccp5ZmYP.s:18240  .bss.i.4705:0000000000000000 i.4705
     /tmp/ccp5ZmYP.s:18241  .bss.i.4705:0000000000000000 $d
     /tmp/ccp5ZmYP.s:18246  .bss.i183.4826:0000000000000000 i183.4826
     /tmp/ccp5ZmYP.s:18247  .bss.i183.4826:0000000000000000 $d
     /tmp/ccp5ZmYP.s:18253  .bss.attitude_tid:0000000000000000 $d
     /tmp/ccp5ZmYP.s:18258  .bss.i60.4502:0000000000000000 i60.4502
     /tmp/ccp5ZmYP.s:18259  .bss.i60.4502:0000000000000000 $d
     /tmp/ccp5ZmYP.s:18261  .bss.i330.5126:0000000000000000 $d
     /tmp/ccp5ZmYP.s:18265  .bss.i330.5126:0000000000000000 i330.5126
     /tmp/ccp5ZmYP.s:18272  .bss.launch:0000000000000000 $d
     /tmp/ccp5ZmYP.s:18277  .bss.i180.4825:0000000000000000 i180.4825
     /tmp/ccp5ZmYP.s:18278  .bss.i180.4825:0000000000000000 $d
     /tmp/ccp5ZmYP.s:18280  .bss.i318.5124:0000000000000000 $d
     /tmp/ccp5ZmYP.s:18284  .bss.i318.5124:0000000000000000 i318.5124
     /tmp/ccp5ZmYP.s:18287  .bss.i606.5129:0000000000000000 $d
     /tmp/ccp5ZmYP.s:18291  .bss.i606.5129:0000000000000000 i606.5129
     /tmp/ccp5ZmYP.s:18297  .bss.i.4901:0000000000000000 i.4901
     /tmp/ccp5ZmYP.s:18298  .bss.i.4901:0000000000000000 $d
     /tmp/ccp5ZmYP.s:18310  .bss.gps_ubx_gps_ubx_ucenter_periodic_status:0000000000000000 $d
     /tmp/ccp5ZmYP.s:18312  .bss.i324.5125:0000000000000000 $d
     /tmp/ccp5ZmYP.s:18316  .bss.i324.5125:0000000000000000 i324.5125
     /tmp/ccp5ZmYP.s:18322  .bss.i15.4500:0000000000000000 i15.4500
     /tmp/ccp5ZmYP.s:18323  .bss.i15.4500:0000000000000000 $d
     /tmp/ccp5ZmYP.s:18329  .bss.lateral_mode:0000000000000000 $d
     /tmp/ccp5ZmYP.s:18334  .bss.mcu1_status:0000000000000000 mcu1_status
     /tmp/ccp5ZmYP.s:18335  .bss.mcu1_status:0000000000000000 $d
     /tmp/ccp5ZmYP.s:18337  .rodata.version:0000000000000000 $d
     /tmp/ccp5ZmYP.s:18341  .rodata.version:0000000000000000 version
     /tmp/ccp5ZmYP.s:18344  .bss.i606.4834:0000000000000000 $d
     /tmp/ccp5ZmYP.s:18348  .bss.i606.4834:0000000000000000 i606.4834
     /tmp/ccp5ZmYP.s:18351  .bss.energy:0000000000000000 $d
     /tmp/ccp5ZmYP.s:18358  .bss.gyr_avg.5358:0000000000000000 $d
     /tmp/ccp5ZmYP.s:18362  .bss.gyr_avg.5358:0000000000000000 gyr_avg.5358
     /tmp/ccp5ZmYP.s:18368  .bss.i126.4824:0000000000000000 i126.4824
     /tmp/ccp5ZmYP.s:18369  .bss.i126.4824:0000000000000000 $d
     /tmp/ccp5ZmYP.s:18371  .bss.last.5216:0000000000000000 $d
     /tmp/ccp5ZmYP.s:18375  .bss.last.5216:0000000000000000 last.5216
     /tmp/ccp5ZmYP.s:18381  .bss.i.4513:0000000000000000 i.4513
     /tmp/ccp5ZmYP.s:18382  .bss.i.4513:0000000000000000 $d
     /tmp/ccp5ZmYP.s:18387  .data.boot.4496:0000000000000000 boot.4496
     /tmp/ccp5ZmYP.s:18393  .bss.i90.4506:0000000000000000 i90.4506
     /tmp/ccp5ZmYP.s:18394  .bss.i90.4506:0000000000000000 $d
     /tmp/ccp5ZmYP.s:18400  .bss.telemetry_tid:0000000000000000 $d
     /tmp/ccp5ZmYP.s:18402  .bss.i306.4511:0000000000000000 $d
     /tmp/ccp5ZmYP.s:18406  .bss.i306.4511:0000000000000000 i306.4511
     /tmp/ccp5ZmYP.s:18409  .bss.acc_avg.5357:0000000000000000 $d
     /tmp/ccp5ZmYP.s:18413  .bss.acc_avg.5357:0000000000000000 acc_avg.5357
     /tmp/ccp5ZmYP.s:18416  .bss.i612.5130:0000000000000000 $d
     /tmp/ccp5ZmYP.s:18420  .bss.i612.5130:0000000000000000 i612.5130
     /tmp/ccp5ZmYP.s:18423  .bss.i540.4512:0000000000000000 $d
     /tmp/ccp5ZmYP.s:18427  .bss.i540.4512:0000000000000000 i540.4512
     /tmp/ccp5ZmYP.s:18433  .bss.i90.4823:0000000000000000 i90.4823
     /tmp/ccp5ZmYP.s:18434  .bss.i90.4823:0000000000000000 $d
     /tmp/ccp5ZmYP.s:18439  .bss.i.4835:0000000000000000 i.4835
     /tmp/ccp5ZmYP.s:18440  .bss.i.4835:0000000000000000 $d
     /tmp/ccp5ZmYP.s:18445  .bss.i126.4508:0000000000000000 i126.4508
     /tmp/ccp5ZmYP.s:18446  .bss.i126.4508:0000000000000000 $d
     /tmp/ccp5ZmYP.s:18452  .bss.kill_throttle:0000000000000000 $d
     /tmp/ccp5ZmYP.s:18454  .bss.i300.4830:0000000000000000 $d
     /tmp/ccp5ZmYP.s:18458  .bss.i300.4830:0000000000000000 i300.4830
     /tmp/ccp5ZmYP.s:18461  .bss.i306.4831:0000000000000000 $d
     /tmp/ccp5ZmYP.s:18465  .bss.i306.4831:0000000000000000 i306.4831
     /tmp/ccp5ZmYP.s:18471  .bss.i243.4829:0000000000000000 i243.4829
     /tmp/ccp5ZmYP.s:18472  .bss.i243.4829:0000000000000000 $d
     /tmp/ccp5ZmYP.s:18477  .bss.i.4575:0000000000000000 i.4575
     /tmp/ccp5ZmYP.s:18478  .bss.i.4575:0000000000000000 $d
     /tmp/ccp5ZmYP.s:18480  .bss.i300.4510:0000000000000000 $d
     /tmp/ccp5ZmYP.s:18484  .bss.i300.4510:0000000000000000 i300.4510
     /tmp/ccp5ZmYP.s:18487  .bss.i540.4833:0000000000000000 $d
     /tmp/ccp5ZmYP.s:18491  .bss.i540.4833:0000000000000000 i540.4833
     /tmp/ccp5ZmYP.s:18497  .bss._reduced_correction_rate.5356:0000000000000000 _reduced_correction_rate.5356
     /tmp/ccp5ZmYP.s:18498  .bss._reduced_correction_rate.5356:0000000000000000 $d
     /tmp/ccp5ZmYP.s:18503  .bss.i240.4828:0000000000000000 i240.4828
     /tmp/ccp5ZmYP.s:18504  .bss.i240.4828:0000000000000000 $d
     /tmp/ccp5ZmYP.s:18509  .bss.i120.4507:0000000000000000 i120.4507
     /tmp/ccp5ZmYP.s:18510  .bss.i120.4507:0000000000000000 $d
     /tmp/ccp5ZmYP.s:18516  .bss.power_switch:0000000000000000 $d
     /tmp/ccp5ZmYP.s:18518  .bss.i312.4832:0000000000000000 $d
     /tmp/ccp5ZmYP.s:18522  .bss.i312.4832:0000000000000000 i312.4832
     /tmp/ccp5ZmYP.s:18529  .bss.monitor_tid:0000000000000000 $d
     /tmp/ccp5ZmYP.s:18534  .bss.i63.4819:0000000000000000 i63.4819
     /tmp/ccp5ZmYP.s:18535  .bss.i63.4819:0000000000000000 $d
     /tmp/ccp5ZmYP.s:18540  .bss.i84.4822:0000000000000000 i84.4822
     /tmp/ccp5ZmYP.s:18541  .bss.i84.4822:0000000000000000 $d
     /tmp/ccp5ZmYP.s:18546  .bss._reduced_propagation_rate.5355:0000000000000000 _reduced_propagation_rate.5355
     /tmp/ccp5ZmYP.s:18547  .bss._reduced_propagation_rate.5355:0000000000000000 $d
     /tmp/ccp5ZmYP.s:18553  .bss.new_ins_attitude:0000000000000000 $d
     /tmp/ccp5ZmYP.s:18555  .bss.i306.5123:0000000000000000 $d
     /tmp/ccp5ZmYP.s:18559  .bss.i306.5123:0000000000000000 i306.5123
     /tmp/ccp5ZmYP.s:18565  .bss.i78.4821:0000000000000000 i78.4821
     /tmp/ccp5ZmYP.s:18566  .bss.i78.4821:0000000000000000 $d
     /tmp/ccp5ZmYP.s:18568  .bss.current:0000000000000000 $d
     /tmp/ccp5ZmYP.s:18572  .bss.current:0000000000000000 current
     /tmp/ccp5ZmYP.s:18579  .bss.gps_lost:0000000000000000 $d
     /tmp/ccp5ZmYP.s:18581  .bss.last.4801:0000000000000000 $d
     /tmp/ccp5ZmYP.s:18585  .bss.last.4801:0000000000000000 last.4801
     /tmp/ccp5ZmYP.s:18592  .bss.ahrs_timeout_counter:0000000000000000 $d
     /tmp/ccp5ZmYP.s:18597  .bss.i150.4509:0000000000000000 i150.4509
     /tmp/ccp5ZmYP.s:18598  .bss.i150.4509:0000000000000000 $d
     /tmp/ccp5ZmYP.s:18603  .bss.i72.4505:0000000000000000 i72.4505
     /tmp/ccp5ZmYP.s:18604  .bss.i72.4505:0000000000000000 $d
     /tmp/ccp5ZmYP.s:18609  .bss.i30.4501:0000000000000000 i30.4501
     /tmp/ccp5ZmYP.s:18610  .bss.i30.4501:0000000000000000 $d
     /tmp/ccp5ZmYP.s:18615  .bss.i.4919:0000000000000000 i.4919
     /tmp/ccp5ZmYP.s:18616  .bss.i.4919:0000000000000000 $d
     /tmp/ccp5ZmYP.s:18621  .bss.i60.4277:0000000000000000 i60.4277
     /tmp/ccp5ZmYP.s:18622  .bss.i60.4277:0000000000000000 $d
     /tmp/ccp5ZmYP.s:18627  .bss.last_pprz_mode.5279:0000000000000000 last_pprz_mode.5279
     /tmp/ccp5ZmYP.s:18628  .bss.last_pprz_mode.5279:0000000000000000 $d
     /tmp/ccp5ZmYP.s:18630  .bss.last.5090:0000000000000000 $d
     /tmp/ccp5ZmYP.s:18634  .bss.last.5090:0000000000000000 last.5090
     /tmp/ccp5ZmYP.s:18644  .bss.i15.4276:0000000000000000 i15.4276
     /tmp/ccp5ZmYP.s:18645  .bss.i15.4276:0000000000000000 $d
     /tmp/ccp5ZmYP.s:18647  .bss.i420.5128:0000000000000000 $d
     /tmp/ccp5ZmYP.s:18651  .bss.i420.5128:0000000000000000 i420.5128
     /tmp/ccp5ZmYP.s:18658  .bss.navigation_tid:0000000000000000 $d
     /tmp/ccp5ZmYP.s:18663  .bss.t.5328:0000000000000000 t.5328
     /tmp/ccp5ZmYP.s:18664  .bss.t.5328:0000000000000000 $d
                     .debug_frame:0000000000000010 $d
     /tmp/ccp5ZmYP.s:15416  .text.reporting_task:0000000000005edc $t
     /tmp/ccp5ZmYP.s:17518  .text.event_task_ap:00000000000003a7 $d
     /tmp/ccp5ZmYP.s:17518  .text.event_task_ap:00000000000003a8 $t

UNDEFINED SYMBOLS
gps_init
imu_init
ahrs_aligner_init
ahrs_init
h_ctl_init
v_ctl_init
estimator_init
alt_kalman_init
nav_init
gps_ubx_ucenter_init
init_sysmon
settings_init
sys_time_register_timer
traffic_info_init
__aeabi_i2d
__aeabi_dmul
__aeabi_ddiv
__aeabi_d2iz
__aeabi_i2f
__aeabi_fadd
__aeabi_f2d
__aeabi_d2uiz
__aeabi_f2iz
__aeabi_fmul
__aeabi_ui2f
__aeabi_fdiv
uart_check_free_space
uart_transmit
uart2
downlink_nb_bytes
downlink_nb_msgs
ck_a
ck_b
downlink_nb_ovrn
telemetry_mode_Ap
gps
estimator_phi
estimator_psi
estimator_theta
estimator_z
estimator_z_dot
nb_waypoint
nav_utm_east0
waypoints
nav_utm_north0
nav_utm_zone0
nav_circle_radians
nav_block
nav_stage
estimator_x
estimator_y
dist2_to_wp
dist2_to_home
nav_oval_count
nav_in_circle
nav_circle_x
nav_circle_y
nav_circle_radius
h_ctl_roll_setpoint
h_ctl_pitch_loop_setpoint
h_ctl_course_setpoint
desired_x
desired_y
v_ctl_altitude_setpoint
v_ctl_climb_setpoint
v_ctl_throttle_slewed
estimator_flight_time
block_time
stage_time
imu
nav_in_segment
nav_segment_x_1
nav_segment_y_1
nav_segment_x_2
nav_segment_y_2
telemetry_mode_Fbw
flight_altitude
nav_course
nav_shift
nav_radius
v_ctl_auto_throttle_sum_err
v_ctl_auto_throttle_submode
nav_survey_active
nav_survey_east
nav_survey_north
nav_survey_west
nav_survey_south
v_ctl_mode
horizontal_mode
ahrs
__aeabi_dcmpgt
__aeabi_dcmplt
common_nav_periodic_task_4Hz
nav_home
nav_without_gps
sys_time
nav_periodic_task
v_ctl_altitude_loop
h_ctl_course_loop
v_ctl_climb_loop
nav_throttle_setpoint
v_ctl_throttle_setpoint
nav_pitch
h_ctl_pitch_setpoint
h_ctl_attitude_loop
v_ctl_throttle_slew
ap_state
h_ctl_aileron_setpoint
h_ctl_elevator_setpoint
inter_mcu_received_ap
imu_periodic
__aeabi_fcmpgt
datalink_time
estimator_hspeed_mod
periodic_sysmon
gps_ubx_ucenter_periodic
periodic_report_sysmon
__aeabi_dadd
__aeabi_d2f
ahrs_aligner_run
ahrs_align
ahrs_propagate
ahrs_update_accel
ahrs_update_fw_estimator
gps_ubx_parse
imu_aspirin2
ahrs_aligner
uart3
gps_ubx_read_message
gps_ubx_ucenter_event
estimator_update_state_gps
ahrs_update_gps
dl_parse_msg
gps_ubx
pprz_tp
dl_buffer
dl_msg_available
inter_mcu_received_fbw
fbw_state
too_far_from_home
event_sysmon
